
standby.elf:     file format elf32-littlearm


Disassembly of section .text:

f0000000 <main>:
f0000000:	e92d40f8 	push	{r3, r4, r5, r6, r7, lr}
f0000004:	e2505000 	subs	r5, r0, #0
f0000008:	0a0000e1 	beq	f0000394 <main+0x394>
f000000c:	e59f6388 	ldr	r6, [pc, #904]	; f000039c <main+0x39c>
f0000010:	eb0000f9 	bl	f00003fc <standby_flush_tlb>
f0000014:	eb0000fc 	bl	f000040c <standby_preload_tlb>
f0000018:	e59f3380 	ldr	r3, [pc, #896]	; f00003a0 <main+0x3a0>
f000001c:	e3a04000 	mov	r4, #0
f0000020:	e4c64001 	strb	r4, [r6], #1
f0000024:	e1560003 	cmp	r6, r3
f0000028:	9afffffa 	bls	f0000018 <main+0x18>
f000002c:	e59f6370 	ldr	r6, [pc, #880]	; f00003a4 <main+0x3a4>
f0000030:	e1a01005 	mov	r1, r5
f0000034:	e59f0368 	ldr	r0, [pc, #872]	; f00003a4 <main+0x3a4>
f0000038:	e3a02014 	mov	r2, #20
f000003c:	eb0000da 	bl	f00003ac <standby_memcpy>
f0000040:	e3a01103 	mov	r1, #-1073741824	; 0xc0000000
f0000044:	e3a02040 	mov	r2, #64	; 0x40
f0000048:	e59f0358 	ldr	r0, [pc, #856]	; f00003a8 <main+0x3a8>
f000004c:	eb0000d6 	bl	f00003ac <standby_memcpy>
f0000050:	eb00012d 	bl	f000050c <standby_clk_init>
f0000054:	eb000269 	bl	f0000a00 <standby_clk_apbinit>
f0000058:	eb00028b 	bl	f0000a8c <standby_int_init>
f000005c:	eb0004ba 	bl	f000134c <standby_tmr_init>
f0000060:	e5960004 	ldr	r0, [r6, #4]
f0000064:	eb000337 	bl	f0000d48 <standby_power_init>
f0000068:	e5963000 	ldr	r3, [r6]
f000006c:	e3130001 	tst	r3, #1
f0000070:	0a000001 	beq	f000007c <main+0x7c>
f0000074:	e1a00004 	mov	r0, r4
f0000078:	eb0002bf 	bl	f0000b7c <standby_enable_int>
f000007c:	e5963000 	ldr	r3, [r6]
f0000080:	e3130004 	tst	r3, #4
f0000084:	0a000002 	beq	f0000094 <main+0x94>
f0000088:	eb0002e1 	bl	f0000c14 <standby_key_init>
f000008c:	e3a0001f 	mov	r0, #31
f0000090:	eb0002b9 	bl	f0000b7c <standby_enable_int>
f0000094:	e5963000 	ldr	r3, [r6]
f0000098:	e3130008 	tst	r3, #8
f000009c:	0a000004 	beq	f00000b4 <main+0xb4>
f00000a0:	eb0002d3 	bl	f0000bf4 <standby_ir_init>
f00000a4:	e3a00005 	mov	r0, #5
f00000a8:	eb0002b3 	bl	f0000b7c <standby_enable_int>
f00000ac:	e3a00006 	mov	r0, #6
f00000b0:	eb0002b1 	bl	f0000b7c <standby_enable_int>
f00000b4:	e59f42e8 	ldr	r4, [pc, #744]	; f00003a4 <main+0x3a4>
f00000b8:	e5943000 	ldr	r3, [r4]
f00000bc:	e3130010 	tst	r3, #16
f00000c0:	0a000001 	beq	f00000cc <main+0xcc>
f00000c4:	e3a00018 	mov	r0, #24
f00000c8:	eb0002ab 	bl	f0000b7c <standby_enable_int>
f00000cc:	e5943000 	ldr	r3, [r4]
f00000d0:	e3130002 	tst	r3, #2
f00000d4:	0a000002 	beq	f00000e4 <main+0xe4>
f00000d8:	eb0005e7 	bl	f000187c <standby_usb_init>
f00000dc:	e3a00026 	mov	r0, #38	; 0x26
f00000e0:	eb0002a5 	bl	f0000b7c <standby_enable_int>
f00000e4:	e5943000 	ldr	r3, [r4]
f00000e8:	e3130020 	tst	r3, #32
f00000ec:	0a000006 	beq	f000010c <main+0x10c>
f00000f0:	e59f32ac 	ldr	r3, [pc, #684]	; f00003a4 <main+0x3a4>
f00000f4:	e5930008 	ldr	r0, [r3, #8]
f00000f8:	e3500000 	cmp	r0, #0
f00000fc:	0a000002 	beq	f000010c <main+0x10c>
f0000100:	eb0004c6 	bl	f0001420 <standby_tmr_set>
f0000104:	e3a00016 	mov	r0, #22
f0000108:	eb00029b 	bl	f0000b7c <standby_enable_int>
f000010c:	eb0000b5 	bl	f00003e8 <save_sp>
f0000110:	e59f4290 	ldr	r4, [pc, #656]	; f00003a8 <main+0x3a8>
f0000114:	e3a07000 	mov	r7, #0
f0000118:	e5840040 	str	r0, [r4, #64]	; 0x40
f000011c:	eb0007af 	bl	f0001fe0 <dram_power_save_process>
f0000120:	e3a00000 	mov	r0, #0
f0000124:	eb000218 	bl	f000098c <standby_clk_dramgating>
f0000128:	e2840044 	add	r0, r4, #68	; 0x44
f000012c:	eb000201 	bl	f0000938 <standby_clk_get_pll_factor>
f0000130:	e3a03010 	mov	r3, #16
f0000134:	e5c4704d 	strb	r7, [r4, #77]	; 0x4d
f0000138:	e284004c 	add	r0, r4, #76	; 0x4c
f000013c:	e5c4304c 	strb	r3, [r4, #76]	; 0x4c
f0000140:	e5c4704e 	strb	r7, [r4, #78]	; 0x4e
f0000144:	e5c4704f 	strb	r7, [r4, #79]	; 0x4f
f0000148:	eb0001e1 	bl	f00008d4 <standby_clk_set_pll_factor>
f000014c:	e3a00001 	mov	r0, #1
f0000150:	eb000647 	bl	f0001a74 <change_runtime_env>
f0000154:	e3a0000a 	mov	r0, #10
f0000158:	eb000694 	bl	f0001bb0 <delay_ms>
f000015c:	eb00012c 	bl	f0000614 <standby_clk_core2hosc>
f0000160:	e3a00001 	mov	r0, #1
f0000164:	eb000642 	bl	f0001a74 <change_runtime_env>
f0000168:	e3a00001 	mov	r0, #1
f000016c:	eb00067a 	bl	f0001b5c <delay_us>
f0000170:	eb000141 	bl	f000067c <standby_clk_plldisable>
f0000174:	e3a00001 	mov	r0, #1
f0000178:	eb000456 	bl	f00012d8 <standby_get_voltage>
f000017c:	e5840054 	str	r0, [r4, #84]	; 0x54
f0000180:	e3a00002 	mov	r0, #2
f0000184:	eb000453 	bl	f00012d8 <standby_get_voltage>
f0000188:	e3a01ffa 	mov	r1, #1000	; 0x3e8
f000018c:	e5840058 	str	r0, [r4, #88]	; 0x58
f0000190:	e3a00002 	mov	r0, #2
f0000194:	eb000405 	bl	f00011b0 <standby_set_voltage>
f0000198:	e3a01faf 	mov	r1, #700	; 0x2bc
f000019c:	e3a00001 	mov	r0, #1
f00001a0:	eb000402 	bl	f00011b0 <standby_set_voltage>
f00001a4:	e284005c 	add	r0, r4, #92	; 0x5c
f00001a8:	eb0001b3 	bl	f000087c <standby_clk_getdiv>
f00001ac:	e5943060 	ldr	r3, [r4, #96]	; 0x60
f00001b0:	e1a00004 	mov	r0, r4
f00001b4:	e3c33eff 	bic	r3, r3, #4080	; 0xff0
f00001b8:	e7cf3617 	bfi	r3, r7, #12, #4
f00001bc:	e5a03060 	str	r3, [r0, #96]!	; 0x60
f00001c0:	eb000195 	bl	f000081c <standby_clk_setdiv>
f00001c4:	eb0001fc 	bl	f00009bc <standby_clk_apb2losc>
f00001c8:	e3a00001 	mov	r0, #1
f00001cc:	eb000628 	bl	f0001a74 <change_runtime_env>
f00001d0:	eb000103 	bl	f00005e4 <standby_clk_core2losc>
f00001d4:	eb00015c 	bl	f000074c <standby_clk_hoscdisable>
f00001d8:	eb00016b 	bl	f000078c <standby_clk_ldodisable>
f00001dc:	e320f003 	wfi
f00001e0:	eb00017b 	bl	f00007d4 <standby_clk_ldoenable>
f00001e4:	e59f61b8 	ldr	r6, [pc, #440]	; f00003a4 <main+0x3a4>
f00001e8:	e3a00001 	mov	r0, #1
f00001ec:	eb0005b4 	bl	f00018c4 <standby_delay_cycle>
f00001f0:	eb00015d 	bl	f000076c <standby_clk_hoscenable>
f00001f4:	e3a00001 	mov	r0, #1
f00001f8:	eb0005b1 	bl	f00018c4 <standby_delay_cycle>
f00001fc:	eb000104 	bl	f0000614 <standby_clk_core2hosc>
f0000200:	eb0001f6 	bl	f00009e0 <standby_clk_apb2hosc>
f0000204:	e284005c 	add	r0, r4, #92	; 0x5c
f0000208:	eb000183 	bl	f000081c <standby_clk_setdiv>
f000020c:	e5867000 	str	r7, [r6]
f0000210:	e1a00007 	mov	r0, r7
f0000214:	eb00026a 	bl	f0000bc4 <standby_query_int>
f0000218:	e0673000 	rsb	r3, r7, r0
f000021c:	e3a00026 	mov	r0, #38	; 0x26
f0000220:	e2737000 	rsbs	r7, r3, #0
f0000224:	e0a77003 	adc	r7, r7, r3
f0000228:	e5867000 	str	r7, [r6]
f000022c:	eb000264 	bl	f0000bc4 <standby_query_int>
f0000230:	e3500000 	cmp	r0, #0
f0000234:	03a00002 	moveq	r0, #2
f0000238:	13a00000 	movne	r0, #0
f000023c:	e1807007 	orr	r7, r0, r7
f0000240:	e3a0001f 	mov	r0, #31
f0000244:	e5867000 	str	r7, [r6]
f0000248:	eb00025d 	bl	f0000bc4 <standby_query_int>
f000024c:	e3500000 	cmp	r0, #0
f0000250:	03a00004 	moveq	r0, #4
f0000254:	13a00000 	movne	r0, #0
f0000258:	e1807007 	orr	r7, r0, r7
f000025c:	e3a00005 	mov	r0, #5
f0000260:	e5867000 	str	r7, [r6]
f0000264:	eb000256 	bl	f0000bc4 <standby_query_int>
f0000268:	e3500000 	cmp	r0, #0
f000026c:	03a00008 	moveq	r0, #8
f0000270:	13a00000 	movne	r0, #0
f0000274:	e1807007 	orr	r7, r0, r7
f0000278:	e3a00018 	mov	r0, #24
f000027c:	e5867000 	str	r7, [r6]
f0000280:	eb00024f 	bl	f0000bc4 <standby_query_int>
f0000284:	e3500000 	cmp	r0, #0
f0000288:	03a00010 	moveq	r0, #16
f000028c:	13a00000 	movne	r0, #0
f0000290:	e1807007 	orr	r7, r0, r7
f0000294:	e3a00016 	mov	r0, #22
f0000298:	e5867000 	str	r7, [r6]
f000029c:	eb000248 	bl	f0000bc4 <standby_query_int>
f00002a0:	e5941054 	ldr	r1, [r4, #84]	; 0x54
f00002a4:	e3500000 	cmp	r0, #0
f00002a8:	03a00020 	moveq	r0, #32
f00002ac:	13a00000 	movne	r0, #0
f00002b0:	e1807007 	orr	r7, r0, r7
f00002b4:	e3a00001 	mov	r0, #1
f00002b8:	e5867000 	str	r7, [r6]
f00002bc:	eb0003bb 	bl	f00011b0 <standby_set_voltage>
f00002c0:	e5941058 	ldr	r1, [r4, #88]	; 0x58
f00002c4:	e3a00002 	mov	r0, #2
f00002c8:	eb0003b8 	bl	f00011b0 <standby_set_voltage>
f00002cc:	eb000104 	bl	f00006e4 <standby_clk_pllenable>
f00002d0:	e3a00001 	mov	r0, #1
f00002d4:	eb0005e6 	bl	f0001a74 <change_runtime_env>
f00002d8:	e3a0000a 	mov	r0, #10
f00002dc:	eb000633 	bl	f0001bb0 <delay_ms>
f00002e0:	eb0000d8 	bl	f0000648 <standby_clk_core2pll>
f00002e4:	e3a00001 	mov	r0, #1
f00002e8:	eb0005e1 	bl	f0001a74 <change_runtime_env>
f00002ec:	e3a0000a 	mov	r0, #10
f00002f0:	eb00062e 	bl	f0001bb0 <delay_ms>
f00002f4:	e2840044 	add	r0, r4, #68	; 0x44
f00002f8:	eb000175 	bl	f00008d4 <standby_clk_set_pll_factor>
f00002fc:	e3a00001 	mov	r0, #1
f0000300:	eb0005db 	bl	f0001a74 <change_runtime_env>
f0000304:	e3a00005 	mov	r0, #5
f0000308:	eb000628 	bl	f0001bb0 <delay_ms>
f000030c:	e3a00001 	mov	r0, #1
f0000310:	eb00019d 	bl	f000098c <standby_clk_dramgating>
f0000314:	eb000455 	bl	f0001470 <standby_tmr_enable_watchdog>
f0000318:	eb000736 	bl	f0001ff8 <dram_power_up_process>
f000031c:	eb00045c 	bl	f0001494 <standby_tmr_disable_watchdog>
f0000320:	e5940040 	ldr	r0, [r4, #64]	; 0x40
f0000324:	eb000032 	bl	f00003f4 <restore_sp>
f0000328:	e5963000 	ldr	r3, [r6]
f000032c:	e3130002 	tst	r3, #2
f0000330:	0a000000 	beq	f0000338 <main+0x338>
f0000334:	eb000552 	bl	f0001884 <standby_usb_exit>
f0000338:	e59f4064 	ldr	r4, [pc, #100]	; f00003a4 <main+0x3a4>
f000033c:	e5943000 	ldr	r3, [r4]
f0000340:	e3130008 	tst	r3, #8
f0000344:	0a000000 	beq	f000034c <main+0x34c>
f0000348:	eb00022b 	bl	f0000bfc <standby_ir_exit>
f000034c:	e5943000 	ldr	r3, [r4]
f0000350:	e3130004 	tst	r3, #4
f0000354:	0a000000 	beq	f000035c <main+0x35c>
f0000358:	eb000243 	bl	f0000c6c <standby_key_exit>
f000035c:	e1d400b2 	ldrh	r0, [r4, #2]
f0000360:	eb00030b 	bl	f0000f94 <standby_power_exit>
f0000364:	eb00041a 	bl	f00013d4 <standby_tmr_exit>
f0000368:	eb0001ec 	bl	f0000b20 <standby_int_exit>
f000036c:	eb0001b3 	bl	f0000a40 <standby_clk_apbexit>
f0000370:	eb00008a 	bl	f00005a0 <standby_clk_exit>
f0000374:	e3a00103 	mov	r0, #-1073741824	; 0xc0000000
f0000378:	e59f1028 	ldr	r1, [pc, #40]	; f00003a8 <main+0x3a8>
f000037c:	e3a02040 	mov	r2, #64	; 0x40
f0000380:	eb000009 	bl	f00003ac <standby_memcpy>
f0000384:	e5943000 	ldr	r3, [r4]
f0000388:	e3a00000 	mov	r0, #0
f000038c:	e5853000 	str	r3, [r5]
f0000390:	e8bd80f8 	pop	{r3, r4, r5, r6, r7, pc}
f0000394:	e3e00000 	mvn	r0, #0
f0000398:	e8bd80f8 	pop	{r3, r4, r5, r6, r7, pc}
f000039c:	f00027cc 			; <UNDEFINED> instruction: 0xf00027cc
f00003a0:	f00028dc 			; <UNDEFINED> instruction: 0xf00028dc
f00003a4:	f00028c4 			; <UNDEFINED> instruction: 0xf00028c4
f00003a8:	f00027cc 			; <UNDEFINED> instruction: 0xf00027cc

f00003ac <standby_memcpy>:
f00003ac:	e3500000 	cmp	r0, #0
f00003b0:	13510000 	cmpne	r1, #0
f00003b4:	1a000003 	bne	f00003c8 <standby_memcpy+0x1c>
f00003b8:	e12fff1e 	bx	lr
f00003bc:	e4d13001 	ldrb	r3, [r1], #1
f00003c0:	e2422001 	sub	r2, r2, #1
f00003c4:	e4c03001 	strb	r3, [r0], #1
f00003c8:	e3520000 	cmp	r2, #0
f00003cc:	cafffffa 	bgt	f00003bc <standby_memcpy+0x10>
f00003d0:	e12fff1e 	bx	lr

f00003d4 <standby_mdelay>:
f00003d4:	e59f3008 	ldr	r3, [pc, #8]	; f00003e4 <standby_mdelay+0x10>
f00003d8:	e5933000 	ldr	r3, [r3]
f00003dc:	e0000093 	mul	r0, r3, r0
f00003e0:	ea00052d 	b	f000189c <standby_delay>
f00003e4:	f00028d8 			; <UNDEFINED> instruction: 0xf00028d8

f00003e8 <save_sp>:
f00003e8:	e1a0000d 	mov	r0, sp
f00003ec:	e59fd0dc 	ldr	sp, [pc, #220]	; f00004d0 <standby_preload_tlb+0xc4>
f00003f0:	e1a0f00e 	mov	pc, lr

f00003f4 <restore_sp>:
f00003f4:	e1a0d000 	mov	sp, r0
f00003f8:	e1a0f00e 	mov	pc, lr

f00003fc <standby_flush_tlb>:
f00003fc:	e92d000f 	push	{r0, r1, r2, r3}
f0000400:	ee080f17 	mcr	15, 0, r0, cr8, cr7, {0}
f0000404:	e8bd000f 	pop	{r0, r1, r2, r3}
f0000408:	e1a0f00e 	mov	pc, lr

f000040c <standby_preload_tlb>:
f000040c:	e92d000f 	push	{r0, r1, r2, r3}
f0000410:	e59f00bc 	ldr	r0, [pc, #188]	; f00004d4 <standby_preload_tlb+0xc8>
f0000414:	ee0a0f11 	mcr	15, 0, r0, cr10, cr1, {0}
f0000418:	e59f00b8 	ldr	r0, [pc, #184]	; f00004d8 <standby_preload_tlb+0xcc>
f000041c:	ee0a0f11 	mcr	15, 0, r0, cr10, cr1, {0}
f0000420:	e59f00b4 	ldr	r0, [pc, #180]	; f00004dc <standby_preload_tlb+0xd0>
f0000424:	ee0a0f11 	mcr	15, 0, r0, cr10, cr1, {0}
f0000428:	e59f00b0 	ldr	r0, [pc, #176]	; f00004e0 <standby_preload_tlb+0xd4>
f000042c:	ee0a0f11 	mcr	15, 0, r0, cr10, cr1, {0}
f0000430:	e59f00ac 	ldr	r0, [pc, #172]	; f00004e4 <standby_preload_tlb+0xd8>
f0000434:	ee0a0f11 	mcr	15, 0, r0, cr10, cr1, {0}
f0000438:	e59f00a8 	ldr	r0, [pc, #168]	; f00004e8 <standby_preload_tlb+0xdc>
f000043c:	ee0a0f11 	mcr	15, 0, r0, cr10, cr1, {0}
f0000440:	e59f00a4 	ldr	r0, [pc, #164]	; f00004ec <standby_preload_tlb+0xe0>
f0000444:	ee0a0f11 	mcr	15, 0, r0, cr10, cr1, {0}
f0000448:	e3a0020f 	mov	r0, #-268435456	; 0xf0000000
f000044c:	ee0a0f11 	mcr	15, 0, r0, cr10, cr1, {0}
f0000450:	e59f0098 	ldr	r0, [pc, #152]	; f00004f0 <standby_preload_tlb+0xe4>
f0000454:	ee0a0f11 	mcr	15, 0, r0, cr10, cr1, {0}
f0000458:	e59f0094 	ldr	r0, [pc, #148]	; f00004f4 <standby_preload_tlb+0xe8>
f000045c:	ee0a0f11 	mcr	15, 0, r0, cr10, cr1, {0}
f0000460:	e59f0090 	ldr	r0, [pc, #144]	; f00004f8 <standby_preload_tlb+0xec>
f0000464:	ee0a0f11 	mcr	15, 0, r0, cr10, cr1, {0}
f0000468:	e59f008c 	ldr	r0, [pc, #140]	; f00004fc <standby_preload_tlb+0xf0>
f000046c:	ee0a0f11 	mcr	15, 0, r0, cr10, cr1, {0}
f0000470:	e59f0088 	ldr	r0, [pc, #136]	; f0000500 <standby_preload_tlb+0xf4>
f0000474:	ee0a0f11 	mcr	15, 0, r0, cr10, cr1, {0}
f0000478:	e59f0084 	ldr	r0, [pc, #132]	; f0000504 <standby_preload_tlb+0xf8>
f000047c:	ee0a0f11 	mcr	15, 0, r0, cr10, cr1, {0}
f0000480:	e59f0080 	ldr	r0, [pc, #128]	; f0000508 <standby_preload_tlb+0xfc>
f0000484:	ee0a0f11 	mcr	15, 0, r0, cr10, cr1, {0}
f0000488:	e3a0020f 	mov	r0, #-268435456	; 0xf0000000
f000048c:	ee0a0f31 	mcr	15, 0, r0, cr10, cr1, {1}
f0000490:	e59f0058 	ldr	r0, [pc, #88]	; f00004f0 <standby_preload_tlb+0xe4>
f0000494:	ee0a0f31 	mcr	15, 0, r0, cr10, cr1, {1}
f0000498:	e59f0054 	ldr	r0, [pc, #84]	; f00004f4 <standby_preload_tlb+0xe8>
f000049c:	ee0a0f31 	mcr	15, 0, r0, cr10, cr1, {1}
f00004a0:	e59f0050 	ldr	r0, [pc, #80]	; f00004f8 <standby_preload_tlb+0xec>
f00004a4:	ee0a0f31 	mcr	15, 0, r0, cr10, cr1, {1}
f00004a8:	e59f004c 	ldr	r0, [pc, #76]	; f00004fc <standby_preload_tlb+0xf0>
f00004ac:	ee0a0f31 	mcr	15, 0, r0, cr10, cr1, {1}
f00004b0:	e59f0048 	ldr	r0, [pc, #72]	; f0000500 <standby_preload_tlb+0xf4>
f00004b4:	ee0a0f31 	mcr	15, 0, r0, cr10, cr1, {1}
f00004b8:	e59f0044 	ldr	r0, [pc, #68]	; f0000504 <standby_preload_tlb+0xf8>
f00004bc:	ee0a0f31 	mcr	15, 0, r0, cr10, cr1, {1}
f00004c0:	e59f0040 	ldr	r0, [pc, #64]	; f0000508 <standby_preload_tlb+0xfc>
f00004c4:	ee0a0f31 	mcr	15, 0, r0, cr10, cr1, {1}
f00004c8:	e8bd000f 	pop	{r0, r1, r2, r3}
f00004cc:	e1a0f00e 	mov	pc, lr
f00004d0:	f0007ffc 			; <UNDEFINED> instruction: 0xf0007ffc
f00004d4:	f1c20000 			; <UNDEFINED> instruction: 0xf1c20000
f00004d8:	f1c2ac00 			; <UNDEFINED> instruction: 0xf1c2ac00
f00004dc:	f1c2b000 			; <UNDEFINED> instruction: 0xf1c2b000
f00004e0:	f1c2b400 			; <UNDEFINED> instruction: 0xf1c2b400
f00004e4:	f1c20400 			; <UNDEFINED> instruction: 0xf1c20400
f00004e8:	f1c20c00 			; <UNDEFINED> instruction: 0xf1c20c00
f00004ec:	f1c22800 			; <UNDEFINED> instruction: 0xf1c22800
f00004f0:	f0000400 			; <UNDEFINED> instruction: 0xf0000400
f00004f4:	f0000800 			; <UNDEFINED> instruction: 0xf0000800
f00004f8:	f0000c00 			; <UNDEFINED> instruction: 0xf0000c00
f00004fc:	f0001000 			; <UNDEFINED> instruction: 0xf0001000
f0000500:	f0001400 			; <UNDEFINED> instruction: 0xf0001400
f0000504:	f0001800 			; <UNDEFINED> instruction: 0xf0001800
f0000508:	f0001c00 			; <UNDEFINED> instruction: 0xf0001c00

f000050c <standby_clk_init>:
f000050c:	e59f3068 	ldr	r3, [pc, #104]	; f000057c <standby_clk_init+0x70>
f0000510:	e3a00000 	mov	r0, #0
f0000514:	e59f2064 	ldr	r2, [pc, #100]	; f0000580 <standby_clk_init+0x74>
f0000518:	e5832000 	str	r2, [r3]
f000051c:	e5922000 	ldr	r2, [r2]
f0000520:	e5832004 	str	r2, [r3, #4]
f0000524:	e59f2058 	ldr	r2, [pc, #88]	; f0000584 <standby_clk_init+0x78>
f0000528:	e5922000 	ldr	r2, [r2]
f000052c:	e5832008 	str	r2, [r3, #8]
f0000530:	e59f2050 	ldr	r2, [pc, #80]	; f0000588 <standby_clk_init+0x7c>
f0000534:	e5922000 	ldr	r2, [r2]
f0000538:	e583200c 	str	r2, [r3, #12]
f000053c:	e59f2048 	ldr	r2, [pc, #72]	; f000058c <standby_clk_init+0x80>
f0000540:	e5922000 	ldr	r2, [r2]
f0000544:	e5832010 	str	r2, [r3, #16]
f0000548:	e59f2040 	ldr	r2, [pc, #64]	; f0000590 <standby_clk_init+0x84>
f000054c:	e5922000 	ldr	r2, [r2]
f0000550:	e5832014 	str	r2, [r3, #20]
f0000554:	e59f2038 	ldr	r2, [pc, #56]	; f0000594 <standby_clk_init+0x88>
f0000558:	e5922000 	ldr	r2, [r2]
f000055c:	e5832018 	str	r2, [r3, #24]
f0000560:	e59f2030 	ldr	r2, [pc, #48]	; f0000598 <standby_clk_init+0x8c>
f0000564:	e5922000 	ldr	r2, [r2]
f0000568:	e583201c 	str	r2, [r3, #28]
f000056c:	e3002bb8 	movw	r2, #3000	; 0xbb8
f0000570:	e59f3024 	ldr	r3, [pc, #36]	; f000059c <standby_clk_init+0x90>
f0000574:	e5832000 	str	r2, [r3]
f0000578:	e12fff1e 	bx	lr
f000057c:	f0002830 			; <UNDEFINED> instruction: 0xf0002830
f0000580:	f1c20000 			; <UNDEFINED> instruction: 0xf1c20000
f0000584:	f1c20008 			; <UNDEFINED> instruction: 0xf1c20008
f0000588:	f1c20010 			; <UNDEFINED> instruction: 0xf1c20010
f000058c:	f1c20018 			; <UNDEFINED> instruction: 0xf1c20018
f0000590:	f1c20020 			; <UNDEFINED> instruction: 0xf1c20020
f0000594:	f1c20028 			; <UNDEFINED> instruction: 0xf1c20028
f0000598:	f1c20030 			; <UNDEFINED> instruction: 0xf1c20030
f000059c:	f00028d8 			; <UNDEFINED> instruction: 0xf00028d8

f00005a0 <standby_clk_exit>:
f00005a0:	e59f3038 	ldr	r3, [pc, #56]	; f00005e0 <standby_clk_exit+0x40>
f00005a4:	e3a00000 	mov	r0, #0
f00005a8:	e5931004 	ldr	r1, [r3, #4]
f00005ac:	e5932000 	ldr	r2, [r3]
f00005b0:	e5821000 	str	r1, [r2]
f00005b4:	e5931008 	ldr	r1, [r3, #8]
f00005b8:	e5821008 	str	r1, [r2, #8]
f00005bc:	e593100c 	ldr	r1, [r3, #12]
f00005c0:	e5821010 	str	r1, [r2, #16]
f00005c4:	e5931010 	ldr	r1, [r3, #16]
f00005c8:	e5821018 	str	r1, [r2, #24]
f00005cc:	e5931018 	ldr	r1, [r3, #24]
f00005d0:	e5821028 	str	r1, [r2, #40]	; 0x28
f00005d4:	e593301c 	ldr	r3, [r3, #28]
f00005d8:	e5823030 	str	r3, [r2, #48]	; 0x30
f00005dc:	e12fff1e 	bx	lr
f00005e0:	f0002830 			; <UNDEFINED> instruction: 0xf0002830

f00005e4 <standby_clk_core2losc>:
f00005e4:	e59f3020 	ldr	r3, [pc, #32]	; f000060c <standby_clk_core2losc+0x28>
f00005e8:	e3a00000 	mov	r0, #0
f00005ec:	e5933000 	ldr	r3, [r3]
f00005f0:	e5932054 	ldr	r2, [r3, #84]	; 0x54
f00005f4:	e7d1281f 	bfc	r2, #16, #2
f00005f8:	e5832054 	str	r2, [r3, #84]	; 0x54
f00005fc:	e59f300c 	ldr	r3, [pc, #12]	; f0000610 <standby_clk_core2losc+0x2c>
f0000600:	e3a02001 	mov	r2, #1
f0000604:	e5832000 	str	r2, [r3]
f0000608:	e12fff1e 	bx	lr
f000060c:	f0002830 			; <UNDEFINED> instruction: 0xf0002830
f0000610:	f00028d8 			; <UNDEFINED> instruction: 0xf00028d8

f0000614 <standby_clk_core2hosc>:
f0000614:	e59f3024 	ldr	r3, [pc, #36]	; f0000640 <standby_clk_core2hosc+0x2c>
f0000618:	e3a01001 	mov	r1, #1
f000061c:	e3a00000 	mov	r0, #0
f0000620:	e5933000 	ldr	r3, [r3]
f0000624:	e5932054 	ldr	r2, [r3, #84]	; 0x54
f0000628:	e7d12811 	bfi	r2, r1, #16, #2
f000062c:	e5832054 	str	r2, [r3, #84]	; 0x54
f0000630:	e59f300c 	ldr	r3, [pc, #12]	; f0000644 <standby_clk_core2hosc+0x30>
f0000634:	e3a02f96 	mov	r2, #600	; 0x258
f0000638:	e5832000 	str	r2, [r3]
f000063c:	e12fff1e 	bx	lr
f0000640:	f0002830 			; <UNDEFINED> instruction: 0xf0002830
f0000644:	f00028d8 			; <UNDEFINED> instruction: 0xf00028d8

f0000648 <standby_clk_core2pll>:
f0000648:	e59f3024 	ldr	r3, [pc, #36]	; f0000674 <standby_clk_core2pll+0x2c>
f000064c:	e3a01002 	mov	r1, #2
f0000650:	e3a00000 	mov	r0, #0
f0000654:	e5933000 	ldr	r3, [r3]
f0000658:	e5932054 	ldr	r2, [r3, #84]	; 0x54
f000065c:	e7d12811 	bfi	r2, r1, #16, #2
f0000660:	e5832054 	str	r2, [r3, #84]	; 0x54
f0000664:	e59f300c 	ldr	r3, [pc, #12]	; f0000678 <standby_clk_core2pll+0x30>
f0000668:	e3a02e7d 	mov	r2, #2000	; 0x7d0
f000066c:	e5832000 	str	r2, [r3]
f0000670:	e12fff1e 	bx	lr
f0000674:	f0002830 			; <UNDEFINED> instruction: 0xf0002830
f0000678:	f00028d8 			; <UNDEFINED> instruction: 0xf00028d8

f000067c <standby_clk_plldisable>:
f000067c:	e59f305c 	ldr	r3, [pc, #92]	; f00006e0 <standby_clk_plldisable+0x64>
f0000680:	e3a00000 	mov	r0, #0
f0000684:	e5933000 	ldr	r3, [r3]
f0000688:	e5932000 	ldr	r2, [r3]
f000068c:	e7df2f9f 	bfc	r2, #31, #1
f0000690:	e5832000 	str	r2, [r3]
f0000694:	e5932008 	ldr	r2, [r3, #8]
f0000698:	e7df2f9f 	bfc	r2, #31, #1
f000069c:	e5832008 	str	r2, [r3, #8]
f00006a0:	e5932010 	ldr	r2, [r3, #16]
f00006a4:	e7df2f9f 	bfc	r2, #31, #1
f00006a8:	e5832010 	str	r2, [r3, #16]
f00006ac:	e5932018 	ldr	r2, [r3, #24]
f00006b0:	e7df2f9f 	bfc	r2, #31, #1
f00006b4:	e5832018 	str	r2, [r3, #24]
f00006b8:	e5932020 	ldr	r2, [r3, #32]
f00006bc:	e7df2f9f 	bfc	r2, #31, #1
f00006c0:	e5832020 	str	r2, [r3, #32]
f00006c4:	e5932028 	ldr	r2, [r3, #40]	; 0x28
f00006c8:	e7df2f9f 	bfc	r2, #31, #1
f00006cc:	e5832028 	str	r2, [r3, #40]	; 0x28
f00006d0:	e5932030 	ldr	r2, [r3, #48]	; 0x30
f00006d4:	e7df2f9f 	bfc	r2, #31, #1
f00006d8:	e5832030 	str	r2, [r3, #48]	; 0x30
f00006dc:	e12fff1e 	bx	lr
f00006e0:	f0002830 			; <UNDEFINED> instruction: 0xf0002830

f00006e4 <standby_clk_pllenable>:
f00006e4:	e59f305c 	ldr	r3, [pc, #92]	; f0000748 <standby_clk_pllenable+0x64>
f00006e8:	e3a00000 	mov	r0, #0
f00006ec:	e5933000 	ldr	r3, [r3]
f00006f0:	e5932000 	ldr	r2, [r3]
f00006f4:	e3822102 	orr	r2, r2, #-2147483648	; 0x80000000
f00006f8:	e5832000 	str	r2, [r3]
f00006fc:	e5932008 	ldr	r2, [r3, #8]
f0000700:	e3822102 	orr	r2, r2, #-2147483648	; 0x80000000
f0000704:	e5832008 	str	r2, [r3, #8]
f0000708:	e5932010 	ldr	r2, [r3, #16]
f000070c:	e3822102 	orr	r2, r2, #-2147483648	; 0x80000000
f0000710:	e5832010 	str	r2, [r3, #16]
f0000714:	e5932018 	ldr	r2, [r3, #24]
f0000718:	e3822102 	orr	r2, r2, #-2147483648	; 0x80000000
f000071c:	e5832018 	str	r2, [r3, #24]
f0000720:	e5932020 	ldr	r2, [r3, #32]
f0000724:	e3822102 	orr	r2, r2, #-2147483648	; 0x80000000
f0000728:	e5832020 	str	r2, [r3, #32]
f000072c:	e5932028 	ldr	r2, [r3, #40]	; 0x28
f0000730:	e3822102 	orr	r2, r2, #-2147483648	; 0x80000000
f0000734:	e5832028 	str	r2, [r3, #40]	; 0x28
f0000738:	e5932030 	ldr	r2, [r3, #48]	; 0x30
f000073c:	e3822102 	orr	r2, r2, #-2147483648	; 0x80000000
f0000740:	e5832030 	str	r2, [r3, #48]	; 0x30
f0000744:	e12fff1e 	bx	lr
f0000748:	f0002830 			; <UNDEFINED> instruction: 0xf0002830

f000074c <standby_clk_hoscdisable>:
f000074c:	e59f3014 	ldr	r3, [pc, #20]	; f0000768 <standby_clk_hoscdisable+0x1c>
f0000750:	e3a00000 	mov	r0, #0
f0000754:	e5933000 	ldr	r3, [r3]
f0000758:	e5932050 	ldr	r2, [r3, #80]	; 0x50
f000075c:	e7c0201f 	bfc	r2, #0, #1
f0000760:	e5832050 	str	r2, [r3, #80]	; 0x50
f0000764:	e12fff1e 	bx	lr
f0000768:	f0002830 			; <UNDEFINED> instruction: 0xf0002830

f000076c <standby_clk_hoscenable>:
f000076c:	e59f3014 	ldr	r3, [pc, #20]	; f0000788 <standby_clk_hoscenable+0x1c>
f0000770:	e3a00000 	mov	r0, #0
f0000774:	e5932000 	ldr	r2, [r3]
f0000778:	e5923050 	ldr	r3, [r2, #80]	; 0x50
f000077c:	e3833001 	orr	r3, r3, #1
f0000780:	e5823050 	str	r3, [r2, #80]	; 0x50
f0000784:	e12fff1e 	bx	lr
f0000788:	f0002830 			; <UNDEFINED> instruction: 0xf0002830

f000078c <standby_clk_ldodisable>:
f000078c:	e59f303c 	ldr	r3, [pc, #60]	; f00007d0 <standby_clk_ldodisable+0x44>
f0000790:	e3001538 	movw	r1, #1336	; 0x538
f0000794:	e3a00000 	mov	r0, #0
f0000798:	e5933000 	ldr	r3, [r3]
f000079c:	e5932050 	ldr	r2, [r3, #80]	; 0x50
f00007a0:	e7df2a91 	bfi	r2, r1, #21, #11
f00007a4:	e5832050 	str	r2, [r3, #80]	; 0x50
f00007a8:	e5932050 	ldr	r2, [r3, #80]	; 0x50
f00007ac:	e7d0281f 	bfc	r2, #16, #1
f00007b0:	e5832050 	str	r2, [r3, #80]	; 0x50
f00007b4:	e5932020 	ldr	r2, [r3, #32]
f00007b8:	e7c7239f 	bfc	r2, #7, #1
f00007bc:	e5832020 	str	r2, [r3, #32]
f00007c0:	e5932050 	ldr	r2, [r3, #80]	; 0x50
f00007c4:	e7df2a9f 	bfc	r2, #21, #11
f00007c8:	e5832050 	str	r2, [r3, #80]	; 0x50
f00007cc:	e12fff1e 	bx	lr
f00007d0:	f0002830 			; <UNDEFINED> instruction: 0xf0002830

f00007d4 <standby_clk_ldoenable>:
f00007d4:	e59f303c 	ldr	r3, [pc, #60]	; f0000818 <standby_clk_ldoenable+0x44>
f00007d8:	e3001538 	movw	r1, #1336	; 0x538
f00007dc:	e3a00000 	mov	r0, #0
f00007e0:	e5933000 	ldr	r3, [r3]
f00007e4:	e5932050 	ldr	r2, [r3, #80]	; 0x50
f00007e8:	e7df2a91 	bfi	r2, r1, #21, #11
f00007ec:	e5832050 	str	r2, [r3, #80]	; 0x50
f00007f0:	e5932050 	ldr	r2, [r3, #80]	; 0x50
f00007f4:	e3822801 	orr	r2, r2, #65536	; 0x10000
f00007f8:	e5832050 	str	r2, [r3, #80]	; 0x50
f00007fc:	e5932020 	ldr	r2, [r3, #32]
f0000800:	e3822080 	orr	r2, r2, #128	; 0x80
f0000804:	e5832020 	str	r2, [r3, #32]
f0000808:	e5932050 	ldr	r2, [r3, #80]	; 0x50
f000080c:	e7df2a9f 	bfc	r2, #21, #11
f0000810:	e5832050 	str	r2, [r3, #80]	; 0x50
f0000814:	e12fff1e 	bx	lr
f0000818:	f0002830 			; <UNDEFINED> instruction: 0xf0002830

f000081c <standby_clk_setdiv>:
f000081c:	e3500000 	cmp	r0, #0
f0000820:	0a000012 	beq	f0000870 <standby_clk_setdiv+0x54>
f0000824:	e59f304c 	ldr	r3, [pc, #76]	; f0000878 <standby_clk_setdiv+0x5c>
f0000828:	e5901000 	ldr	r1, [r0]
f000082c:	e5933000 	ldr	r3, [r3]
f0000830:	e7e11251 	ubfx	r1, r1, #4, #2
f0000834:	e5932054 	ldr	r2, [r3, #84]	; 0x54
f0000838:	e7c12011 	bfi	r2, r1, #0, #2
f000083c:	e5832054 	str	r2, [r3, #84]	; 0x54
f0000840:	e5901000 	ldr	r1, [r0]
f0000844:	e5932054 	ldr	r2, [r3, #84]	; 0x54
f0000848:	e7e11451 	ubfx	r1, r1, #8, #2
f000084c:	e7c52211 	bfi	r2, r1, #4, #2
f0000850:	e5832054 	str	r2, [r3, #84]	; 0x54
f0000854:	e5901000 	ldr	r1, [r0]
f0000858:	e3a00000 	mov	r0, #0
f000085c:	e5932054 	ldr	r2, [r3, #84]	; 0x54
f0000860:	e7e11651 	ubfx	r1, r1, #12, #2
f0000864:	e7c92411 	bfi	r2, r1, #8, #2
f0000868:	e5832054 	str	r2, [r3, #84]	; 0x54
f000086c:	e12fff1e 	bx	lr
f0000870:	e3e00000 	mvn	r0, #0
f0000874:	e12fff1e 	bx	lr
f0000878:	f0002830 			; <UNDEFINED> instruction: 0xf0002830

f000087c <standby_clk_getdiv>:
f000087c:	e3500000 	cmp	r0, #0
f0000880:	0a000010 	beq	f00008c8 <standby_clk_getdiv+0x4c>
f0000884:	e59f3044 	ldr	r3, [pc, #68]	; f00008d0 <standby_clk_getdiv+0x54>
f0000888:	e5932000 	ldr	r2, [r3]
f000088c:	e5903000 	ldr	r3, [r0]
f0000890:	e5921054 	ldr	r1, [r2, #84]	; 0x54
f0000894:	e2011003 	and	r1, r1, #3
f0000898:	e7c73211 	bfi	r3, r1, #4, #4
f000089c:	e5803000 	str	r3, [r0]
f00008a0:	e5921054 	ldr	r1, [r2, #84]	; 0x54
f00008a4:	e7e11251 	ubfx	r1, r1, #4, #2
f00008a8:	e7cb3411 	bfi	r3, r1, #8, #4
f00008ac:	e5803000 	str	r3, [r0]
f00008b0:	e5922054 	ldr	r2, [r2, #84]	; 0x54
f00008b4:	e7e12452 	ubfx	r2, r2, #8, #2
f00008b8:	e7cf3612 	bfi	r3, r2, #12, #4
f00008bc:	e5803000 	str	r3, [r0]
f00008c0:	e3a00000 	mov	r0, #0
f00008c4:	e12fff1e 	bx	lr
f00008c8:	e3e00000 	mvn	r0, #0
f00008cc:	e12fff1e 	bx	lr
f00008d0:	f0002830 			; <UNDEFINED> instruction: 0xf0002830

f00008d4 <standby_clk_set_pll_factor>:
f00008d4:	e3500000 	cmp	r0, #0
f00008d8:	0a000013 	beq	f000092c <standby_clk_set_pll_factor+0x58>
f00008dc:	e59f3050 	ldr	r3, [pc, #80]	; f0000934 <standby_clk_set_pll_factor+0x60>
f00008e0:	e5d01000 	ldrb	r1, [r0]
f00008e4:	e5933000 	ldr	r3, [r3]
f00008e8:	e5932000 	ldr	r2, [r3]
f00008ec:	e7cc2411 	bfi	r2, r1, #8, #5
f00008f0:	e5832000 	str	r2, [r3]
f00008f4:	e5d01001 	ldrb	r1, [r0, #1]
f00008f8:	e5932000 	ldr	r2, [r3]
f00008fc:	e7c52211 	bfi	r2, r1, #4, #2
f0000900:	e5832000 	str	r2, [r3]
f0000904:	e5d01002 	ldrb	r1, [r0, #2]
f0000908:	e5932000 	ldr	r2, [r3]
f000090c:	e7c12011 	bfi	r2, r1, #0, #2
f0000910:	e5832000 	str	r2, [r3]
f0000914:	e5d01003 	ldrb	r1, [r0, #3]
f0000918:	e3a00000 	mov	r0, #0
f000091c:	e5932000 	ldr	r2, [r3]
f0000920:	e7d12811 	bfi	r2, r1, #16, #2
f0000924:	e5832000 	str	r2, [r3]
f0000928:	e12fff1e 	bx	lr
f000092c:	e3e00000 	mvn	r0, #0
f0000930:	e12fff1e 	bx	lr
f0000934:	f0002830 			; <UNDEFINED> instruction: 0xf0002830

f0000938 <standby_clk_get_pll_factor>:
f0000938:	e3500000 	cmp	r0, #0
f000093c:	0a00000f 	beq	f0000980 <standby_clk_get_pll_factor+0x48>
f0000940:	e59f3040 	ldr	r3, [pc, #64]	; f0000988 <standby_clk_get_pll_factor+0x50>
f0000944:	e5933000 	ldr	r3, [r3]
f0000948:	e5932000 	ldr	r2, [r3]
f000094c:	e7e42452 	ubfx	r2, r2, #8, #5
f0000950:	e5c02000 	strb	r2, [r0]
f0000954:	e5932000 	ldr	r2, [r3]
f0000958:	e7e12252 	ubfx	r2, r2, #4, #2
f000095c:	e5c02001 	strb	r2, [r0, #1]
f0000960:	e5932000 	ldr	r2, [r3]
f0000964:	e7e12052 	ubfx	r2, r2, #0, #2
f0000968:	e5c02002 	strb	r2, [r0, #2]
f000096c:	e5933000 	ldr	r3, [r3]
f0000970:	e7e13853 	ubfx	r3, r3, #16, #2
f0000974:	e5c03003 	strb	r3, [r0, #3]
f0000978:	e3a00000 	mov	r0, #0
f000097c:	e12fff1e 	bx	lr
f0000980:	e3e00000 	mvn	r0, #0
f0000984:	e12fff1e 	bx	lr
f0000988:	f0002830 			; <UNDEFINED> instruction: 0xf0002830

f000098c <standby_clk_dramgating>:
f000098c:	e59f3024 	ldr	r3, [pc, #36]	; f00009b8 <standby_clk_dramgating+0x2c>
f0000990:	e3500000 	cmp	r0, #0
f0000994:	15932000 	ldrne	r2, [r3]
f0000998:	05933000 	ldreq	r3, [r3]
f000099c:	15923020 	ldrne	r3, [r2, #32]
f00009a0:	05932020 	ldreq	r2, [r3, #32]
f00009a4:	13833202 	orrne	r3, r3, #536870912	; 0x20000000
f00009a8:	07dd2e90 	bfieq	r2, r0, #29, #1
f00009ac:	15823020 	strne	r3, [r2, #32]
f00009b0:	05832020 	streq	r2, [r3, #32]
f00009b4:	e12fff1e 	bx	lr
f00009b8:	f0002830 			; <UNDEFINED> instruction: 0xf0002830

f00009bc <standby_clk_apb2losc>:
f00009bc:	e59f3018 	ldr	r3, [pc, #24]	; f00009dc <standby_clk_apb2losc+0x20>
f00009c0:	e3a01002 	mov	r1, #2
f00009c4:	e3a00000 	mov	r0, #0
f00009c8:	e5933000 	ldr	r3, [r3]
f00009cc:	e5932058 	ldr	r2, [r3, #88]	; 0x58
f00009d0:	e7d92c11 	bfi	r2, r1, #24, #2
f00009d4:	e5832058 	str	r2, [r3, #88]	; 0x58
f00009d8:	e12fff1e 	bx	lr
f00009dc:	f0002830 			; <UNDEFINED> instruction: 0xf0002830

f00009e0 <standby_clk_apb2hosc>:
f00009e0:	e59f3014 	ldr	r3, [pc, #20]	; f00009fc <standby_clk_apb2hosc+0x1c>
f00009e4:	e3a00000 	mov	r0, #0
f00009e8:	e5933000 	ldr	r3, [r3]
f00009ec:	e5932058 	ldr	r2, [r3, #88]	; 0x58
f00009f0:	e7d92c1f 	bfc	r2, #24, #2
f00009f4:	e5832058 	str	r2, [r3, #88]	; 0x58
f00009f8:	e12fff1e 	bx	lr
f00009fc:	f0002830 			; <UNDEFINED> instruction: 0xf0002830

f0000a00 <standby_clk_apbinit>:
f0000a00:	e59f2034 	ldr	r2, [pc, #52]	; f0000a3c <standby_clk_apbinit+0x3c>
f0000a04:	e3a00000 	mov	r0, #0
f0000a08:	e5923000 	ldr	r3, [r2]
f0000a0c:	e5931058 	ldr	r1, [r3, #88]	; 0x58
f0000a10:	e5821020 	str	r1, [r2, #32]
f0000a14:	e5932058 	ldr	r2, [r3, #88]	; 0x58
f0000a18:	e7d92c1f 	bfc	r2, #24, #2
f0000a1c:	e5832058 	str	r2, [r3, #88]	; 0x58
f0000a20:	e5932058 	ldr	r2, [r3, #88]	; 0x58
f0000a24:	e7c4201f 	bfc	r2, #0, #5
f0000a28:	e5832058 	str	r2, [r3, #88]	; 0x58
f0000a2c:	e5932058 	ldr	r2, [r3, #88]	; 0x58
f0000a30:	e7d1281f 	bfc	r2, #16, #2
f0000a34:	e5832058 	str	r2, [r3, #88]	; 0x58
f0000a38:	e12fff1e 	bx	lr
f0000a3c:	f0002830 			; <UNDEFINED> instruction: 0xf0002830

f0000a40 <standby_clk_apbexit>:
f0000a40:	e59f2040 	ldr	r2, [pc, #64]	; f0000a88 <standby_clk_apbexit+0x48>
f0000a44:	e5923000 	ldr	r3, [r2]
f0000a48:	e5920020 	ldr	r0, [r2, #32]
f0000a4c:	e5931058 	ldr	r1, [r3, #88]	; 0x58
f0000a50:	e7c41010 	bfi	r1, r0, #0, #5
f0000a54:	e5831058 	str	r1, [r3, #88]	; 0x58
f0000a58:	e5920020 	ldr	r0, [r2, #32]
f0000a5c:	e5931058 	ldr	r1, [r3, #88]	; 0x58
f0000a60:	e7e10850 	ubfx	r0, r0, #16, #2
f0000a64:	e7d11810 	bfi	r1, r0, #16, #2
f0000a68:	e5831058 	str	r1, [r3, #88]	; 0x58
f0000a6c:	e5921020 	ldr	r1, [r2, #32]
f0000a70:	e3a00000 	mov	r0, #0
f0000a74:	e5932058 	ldr	r2, [r3, #88]	; 0x58
f0000a78:	e7e11c51 	ubfx	r1, r1, #24, #2
f0000a7c:	e7d92c11 	bfi	r2, r1, #24, #2
f0000a80:	e5832058 	str	r2, [r3, #88]	; 0x58
f0000a84:	e12fff1e 	bx	lr
f0000a88:	f0002830 			; <UNDEFINED> instruction: 0xf0002830

f0000a8c <standby_int_init>:
f0000a8c:	e59f3084 	ldr	r3, [pc, #132]	; f0000b18 <standby_int_init+0x8c>
f0000a90:	e3a00000 	mov	r0, #0
f0000a94:	e59f2080 	ldr	r2, [pc, #128]	; f0000b1c <standby_int_init+0x90>
f0000a98:	e5823000 	str	r3, [r2]
f0000a9c:	e5931040 	ldr	r1, [r3, #64]	; 0x40
f0000aa0:	e5821004 	str	r1, [r2, #4]
f0000aa4:	e5931044 	ldr	r1, [r3, #68]	; 0x44
f0000aa8:	e5821008 	str	r1, [r2, #8]
f0000aac:	e5931048 	ldr	r1, [r3, #72]	; 0x48
f0000ab0:	e582100c 	str	r1, [r2, #12]
f0000ab4:	e5931050 	ldr	r1, [r3, #80]	; 0x50
f0000ab8:	e5821010 	str	r1, [r2, #16]
f0000abc:	e5931054 	ldr	r1, [r3, #84]	; 0x54
f0000ac0:	e5821014 	str	r1, [r2, #20]
f0000ac4:	e5931058 	ldr	r1, [r3, #88]	; 0x58
f0000ac8:	e5821018 	str	r1, [r2, #24]
f0000acc:	e5931030 	ldr	r1, [r3, #48]	; 0x30
f0000ad0:	e582101c 	str	r1, [r2, #28]
f0000ad4:	e5931034 	ldr	r1, [r3, #52]	; 0x34
f0000ad8:	e5821020 	str	r1, [r2, #32]
f0000adc:	e5931038 	ldr	r1, [r3, #56]	; 0x38
f0000ae0:	e5821024 	str	r1, [r2, #36]	; 0x24
f0000ae4:	e3e02000 	mvn	r2, #0
f0000ae8:	e5830040 	str	r0, [r3, #64]	; 0x40
f0000aec:	e5830044 	str	r0, [r3, #68]	; 0x44
f0000af0:	e5830048 	str	r0, [r3, #72]	; 0x48
f0000af4:	e5832050 	str	r2, [r3, #80]	; 0x50
f0000af8:	e5832054 	str	r2, [r3, #84]	; 0x54
f0000afc:	e5832058 	str	r2, [r3, #88]	; 0x58
f0000b00:	e2822002 	add	r2, r2, #2
f0000b04:	e5830030 	str	r0, [r3, #48]	; 0x30
f0000b08:	e5830034 	str	r0, [r3, #52]	; 0x34
f0000b0c:	e5830038 	str	r0, [r3, #56]	; 0x38
f0000b10:	e5832010 	str	r2, [r3, #16]
f0000b14:	e12fff1e 	bx	lr
f0000b18:	f1c20400 			; <UNDEFINED> instruction: 0xf1c20400
f0000b1c:	f0002854 			; <UNDEFINED> instruction: 0xf0002854

f0000b20 <standby_int_exit>:
f0000b20:	e59f3050 	ldr	r3, [pc, #80]	; f0000b78 <standby_int_exit+0x58>
f0000b24:	e3a00000 	mov	r0, #0
f0000b28:	e5932000 	ldr	r2, [r3]
f0000b2c:	e5931004 	ldr	r1, [r3, #4]
f0000b30:	e5821040 	str	r1, [r2, #64]	; 0x40
f0000b34:	e5931008 	ldr	r1, [r3, #8]
f0000b38:	e5821044 	str	r1, [r2, #68]	; 0x44
f0000b3c:	e593100c 	ldr	r1, [r3, #12]
f0000b40:	e5821048 	str	r1, [r2, #72]	; 0x48
f0000b44:	e5931010 	ldr	r1, [r3, #16]
f0000b48:	e5821050 	str	r1, [r2, #80]	; 0x50
f0000b4c:	e5931014 	ldr	r1, [r3, #20]
f0000b50:	e5821054 	str	r1, [r2, #84]	; 0x54
f0000b54:	e5931018 	ldr	r1, [r3, #24]
f0000b58:	e5821058 	str	r1, [r2, #88]	; 0x58
f0000b5c:	e593101c 	ldr	r1, [r3, #28]
f0000b60:	e5821030 	str	r1, [r2, #48]	; 0x30
f0000b64:	e5931020 	ldr	r1, [r3, #32]
f0000b68:	e5933024 	ldr	r3, [r3, #36]	; 0x24
f0000b6c:	e5821034 	str	r1, [r2, #52]	; 0x34
f0000b70:	e5823038 	str	r3, [r2, #56]	; 0x38
f0000b74:	e12fff1e 	bx	lr
f0000b78:	f0002854 			; <UNDEFINED> instruction: 0xf0002854

f0000b7c <standby_enable_int>:
f0000b7c:	e59f303c 	ldr	r3, [pc, #60]	; f0000bc0 <standby_enable_int+0x44>
f0000b80:	e1a022a0 	lsr	r2, r0, #5
f0000b84:	e2821010 	add	r1, r2, #16
f0000b88:	e200001f 	and	r0, r0, #31
f0000b8c:	e92d4010 	push	{r4, lr}
f0000b90:	e3a04001 	mov	r4, #1
f0000b94:	e5933000 	ldr	r3, [r3]
f0000b98:	e2822014 	add	r2, r2, #20
f0000b9c:	e1a00014 	lsl	r0, r4, r0
f0000ba0:	e793c101 	ldr	ip, [r3, r1, lsl #2]
f0000ba4:	e180c00c 	orr	ip, r0, ip
f0000ba8:	e783c101 	str	ip, [r3, r1, lsl #2]
f0000bac:	e7931102 	ldr	r1, [r3, r2, lsl #2]
f0000bb0:	e1c10000 	bic	r0, r1, r0
f0000bb4:	e7830102 	str	r0, [r3, r2, lsl #2]
f0000bb8:	e3a00000 	mov	r0, #0
f0000bbc:	e8bd8010 	pop	{r4, pc}
f0000bc0:	f0002854 			; <UNDEFINED> instruction: 0xf0002854

f0000bc4 <standby_query_int>:
f0000bc4:	e59f3024 	ldr	r3, [pc, #36]	; f0000bf0 <standby_query_int+0x2c>
f0000bc8:	e1a022a0 	lsr	r2, r0, #5
f0000bcc:	e2822004 	add	r2, r2, #4
f0000bd0:	e200001f 	and	r0, r0, #31
f0000bd4:	e5933000 	ldr	r3, [r3]
f0000bd8:	e7933102 	ldr	r3, [r3, r2, lsl #2]
f0000bdc:	e3a02001 	mov	r2, #1
f0000be0:	e0132012 	ands	r2, r3, r2, lsl r0
f0000be4:	03e00000 	mvneq	r0, #0
f0000be8:	13a00000 	movne	r0, #0
f0000bec:	e12fff1e 	bx	lr
f0000bf0:	f0002854 			; <UNDEFINED> instruction: 0xf0002854

f0000bf4 <standby_ir_init>:
f0000bf4:	e3a00000 	mov	r0, #0
f0000bf8:	e12fff1e 	bx	lr

f0000bfc <standby_ir_exit>:
f0000bfc:	e3a00000 	mov	r0, #0
f0000c00:	e12fff1e 	bx	lr

f0000c04 <standby_ir_detect>:
f0000c04:	e3a00000 	mov	r0, #0
f0000c08:	e12fff1e 	bx	lr

f0000c0c <standby_ir_verify>:
f0000c0c:	e3e00000 	mvn	r0, #0
f0000c10:	e12fff1e 	bx	lr

f0000c14 <standby_key_init>:
f0000c14:	e92d4038 	push	{r3, r4, r5, lr}
f0000c18:	e3a0000a 	mov	r0, #10
f0000c1c:	e59f3040 	ldr	r3, [pc, #64]	; f0000c64 <standby_key_init+0x50>
f0000c20:	e3a05000 	mov	r5, #0
f0000c24:	e59f403c 	ldr	r4, [pc, #60]	; f0000c68 <standby_key_init+0x54>
f0000c28:	e5843000 	str	r3, [r4]
f0000c2c:	e5932000 	ldr	r2, [r3]
f0000c30:	e5842004 	str	r2, [r4, #4]
f0000c34:	e5932004 	ldr	r2, [r3, #4]
f0000c38:	e5842008 	str	r2, [r4, #8]
f0000c3c:	e5835000 	str	r5, [r3]
f0000c40:	ebfffde3 	bl	f00003d4 <standby_mdelay>
f0000c44:	e5943000 	ldr	r3, [r4]
f0000c48:	e3a02041 	mov	r2, #65	; 0x41
f0000c4c:	e1a00005 	mov	r0, r5
f0000c50:	e5832000 	str	r2, [r3]
f0000c54:	e3a02002 	mov	r2, #2
f0000c58:	e5832004 	str	r2, [r3, #4]
f0000c5c:	e5832008 	str	r2, [r3, #8]
f0000c60:	e8bd8038 	pop	{r3, r4, r5, pc}
f0000c64:	f1c22800 			; <UNDEFINED> instruction: 0xf1c22800
f0000c68:	f000287c 			; <UNDEFINED> instruction: 0xf000287c

f0000c6c <standby_key_exit>:
f0000c6c:	e59f3014 	ldr	r3, [pc, #20]	; f0000c88 <standby_key_exit+0x1c>
f0000c70:	e3a00000 	mov	r0, #0
f0000c74:	e5932000 	ldr	r2, [r3]
f0000c78:	e993000a 	ldmib	r3, {r1, r3}
f0000c7c:	e5821000 	str	r1, [r2]
f0000c80:	e5823004 	str	r3, [r2, #4]
f0000c84:	e12fff1e 	bx	lr
f0000c88:	f000287c 			; <UNDEFINED> instruction: 0xf000287c

f0000c8c <standby_query_key>:
f0000c8c:	e59f301c 	ldr	r3, [pc, #28]	; f0000cb0 <standby_query_key+0x24>
f0000c90:	e5933000 	ldr	r3, [r3]
f0000c94:	e5932008 	ldr	r2, [r3, #8]
f0000c98:	e3120002 	tst	r2, #2
f0000c9c:	13a02002 	movne	r2, #2
f0000ca0:	13a00000 	movne	r0, #0
f0000ca4:	15832008 	strne	r2, [r3, #8]
f0000ca8:	03e00000 	mvneq	r0, #0
f0000cac:	e12fff1e 	bx	lr
f0000cb0:	f000287c 			; <UNDEFINED> instruction: 0xf000287c

f0000cb4 <raw_lib_udiv>:
f0000cb4:	e2512000 	subs	r2, r1, #0
f0000cb8:	e1a03000 	mov	r3, r0
f0000cbc:	13a01000 	movne	r1, #0
f0000cc0:	1a000002 	bne	f0000cd0 <raw_lib_udiv+0x1c>
f0000cc4:	ea00000c 	b	f0000cfc <raw_lib_udiv+0x48>
f0000cc8:	e1a02082 	lsl	r2, r2, #1
f0000ccc:	e2811001 	add	r1, r1, #1
f0000cd0:	e3520000 	cmp	r2, #0
f0000cd4:	aafffffb 	bge	f0000cc8 <raw_lib_udiv+0x14>
f0000cd8:	e3a00000 	mov	r0, #0
f0000cdc:	e1530002 	cmp	r3, r2
f0000ce0:	e1a00080 	lsl	r0, r0, #1
f0000ce4:	20623003 	rsbcs	r3, r2, r3
f0000ce8:	23800001 	orrcs	r0, r0, #1
f0000cec:	e2511001 	subs	r1, r1, #1
f0000cf0:	412fff1e 	bxmi	lr
f0000cf4:	e1a020a2 	lsr	r2, r2, #1
f0000cf8:	eafffff7 	b	f0000cdc <raw_lib_udiv+0x28>
f0000cfc:	e1a00002 	mov	r0, r2
f0000d00:	e12fff1e 	bx	lr

f0000d04 <find_info>:
f0000d04:	e3a02000 	mov	r2, #0
f0000d08:	e1a0c000 	mov	ip, r0
f0000d0c:	e1a03002 	mov	r3, r2
f0000d10:	ea000007 	b	f0000d34 <find_info+0x30>
f0000d14:	e59f1028 	ldr	r1, [pc, #40]	; f0000d44 <find_info+0x40>
f0000d18:	e3a0001c 	mov	r0, #28
f0000d1c:	e0201390 	mla	r0, r0, r3, r1
f0000d20:	e7911002 	ldr	r1, [r1, r2]
f0000d24:	e282201c 	add	r2, r2, #28
f0000d28:	e151000c 	cmp	r1, ip
f0000d2c:	012fff1e 	bxeq	lr
f0000d30:	e2833001 	add	r3, r3, #1
f0000d34:	e3530006 	cmp	r3, #6
f0000d38:	1afffff5 	bne	f0000d14 <find_info+0x10>
f0000d3c:	e3a00000 	mov	r0, #0
f0000d40:	e12fff1e 	bx	lr
f0000d44:	f00026a4 			; <UNDEFINED> instruction: 0xf00026a4

f0000d48 <standby_power_init>:
f0000d48:	e92d4013 	push	{r0, r1, r4, lr}
f0000d4c:	e1a04000 	mov	r4, r0
f0000d50:	e3a00000 	mov	r0, #0
f0000d54:	eb0001f8 	bl	f000153c <standby_twi_init>
f0000d58:	e3140001 	tst	r4, #1
f0000d5c:	0a00000c 	beq	f0000d94 <standby_power_init+0x4c>
f0000d60:	e3a01034 	mov	r1, #52	; 0x34
f0000d64:	e3a02042 	mov	r2, #66	; 0x42
f0000d68:	e28d3007 	add	r3, sp, #7
f0000d6c:	e3a00000 	mov	r0, #0
f0000d70:	eb000217 	bl	f00015d4 <twi_byte_rw>
f0000d74:	e5dd3007 	ldrb	r3, [sp, #7]
f0000d78:	e3a00001 	mov	r0, #1
f0000d7c:	e3a01034 	mov	r1, #52	; 0x34
f0000d80:	e3833003 	orr	r3, r3, #3
f0000d84:	e3a02042 	mov	r2, #66	; 0x42
f0000d88:	e5cd3007 	strb	r3, [sp, #7]
f0000d8c:	e28d3007 	add	r3, sp, #7
f0000d90:	eb00020f 	bl	f00015d4 <twi_byte_rw>
f0000d94:	e3140080 	tst	r4, #128	; 0x80
f0000d98:	0a000019 	beq	f0000e04 <standby_power_init+0xbc>
f0000d9c:	e3a01034 	mov	r1, #52	; 0x34
f0000da0:	e3a02042 	mov	r2, #66	; 0x42
f0000da4:	e28d3007 	add	r3, sp, #7
f0000da8:	e3a00000 	mov	r0, #0
f0000dac:	eb000208 	bl	f00015d4 <twi_byte_rw>
f0000db0:	e5dd3007 	ldrb	r3, [sp, #7]
f0000db4:	e3a01034 	mov	r1, #52	; 0x34
f0000db8:	e3a02042 	mov	r2, #66	; 0x42
f0000dbc:	e3833001 	orr	r3, r3, #1
f0000dc0:	e3a00001 	mov	r0, #1
f0000dc4:	e5cd3007 	strb	r3, [sp, #7]
f0000dc8:	e28d3007 	add	r3, sp, #7
f0000dcc:	eb000200 	bl	f00015d4 <twi_byte_rw>
f0000dd0:	e3a01034 	mov	r1, #52	; 0x34
f0000dd4:	e3a02036 	mov	r2, #54	; 0x36
f0000dd8:	e28d3007 	add	r3, sp, #7
f0000ddc:	e3a00000 	mov	r0, #0
f0000de0:	eb0001fb 	bl	f00015d4 <twi_byte_rw>
f0000de4:	e5dd3007 	ldrb	r3, [sp, #7]
f0000de8:	e3a00001 	mov	r0, #1
f0000dec:	e3a01034 	mov	r1, #52	; 0x34
f0000df0:	e3c33030 	bic	r3, r3, #48	; 0x30
f0000df4:	e3a02036 	mov	r2, #54	; 0x36
f0000df8:	e5cd3007 	strb	r3, [sp, #7]
f0000dfc:	e28d3007 	add	r3, sp, #7
f0000e00:	eb0001f3 	bl	f00015d4 <twi_byte_rw>
f0000e04:	e3140040 	tst	r4, #64	; 0x40
f0000e08:	0a00000c 	beq	f0000e40 <standby_power_init+0xf8>
f0000e0c:	e3a01034 	mov	r1, #52	; 0x34
f0000e10:	e3a02042 	mov	r2, #66	; 0x42
f0000e14:	e28d3007 	add	r3, sp, #7
f0000e18:	e3a00000 	mov	r0, #0
f0000e1c:	eb0001ec 	bl	f00015d4 <twi_byte_rw>
f0000e20:	e5dd3007 	ldrb	r3, [sp, #7]
f0000e24:	e3a00001 	mov	r0, #1
f0000e28:	e3a01034 	mov	r1, #52	; 0x34
f0000e2c:	e3833002 	orr	r3, r3, #2
f0000e30:	e3a02042 	mov	r2, #66	; 0x42
f0000e34:	e5cd3007 	strb	r3, [sp, #7]
f0000e38:	e28d3007 	add	r3, sp, #7
f0000e3c:	eb0001e4 	bl	f00015d4 <twi_byte_rw>
f0000e40:	e3140020 	tst	r4, #32
f0000e44:	0a00000c 	beq	f0000e7c <standby_power_init+0x134>
f0000e48:	e3a01034 	mov	r1, #52	; 0x34
f0000e4c:	e3a02044 	mov	r2, #68	; 0x44
f0000e50:	e28d3007 	add	r3, sp, #7
f0000e54:	e3a00000 	mov	r0, #0
f0000e58:	eb0001dd 	bl	f00015d4 <twi_byte_rw>
f0000e5c:	e5dd3007 	ldrb	r3, [sp, #7]
f0000e60:	e3a00001 	mov	r0, #1
f0000e64:	e3a01034 	mov	r1, #52	; 0x34
f0000e68:	e3833020 	orr	r3, r3, #32
f0000e6c:	e3a02044 	mov	r2, #68	; 0x44
f0000e70:	e5cd3007 	strb	r3, [sp, #7]
f0000e74:	e28d3007 	add	r3, sp, #7
f0000e78:	eb0001d5 	bl	f00015d4 <twi_byte_rw>
f0000e7c:	e3140010 	tst	r4, #16
f0000e80:	0a00000c 	beq	f0000eb8 <standby_power_init+0x170>
f0000e84:	e3a01034 	mov	r1, #52	; 0x34
f0000e88:	e3a02044 	mov	r2, #68	; 0x44
f0000e8c:	e28d3007 	add	r3, sp, #7
f0000e90:	e3a00000 	mov	r0, #0
f0000e94:	eb0001ce 	bl	f00015d4 <twi_byte_rw>
f0000e98:	e5dd3007 	ldrb	r3, [sp, #7]
f0000e9c:	e3a00001 	mov	r0, #1
f0000ea0:	e3a01034 	mov	r1, #52	; 0x34
f0000ea4:	e3833040 	orr	r3, r3, #64	; 0x40
f0000ea8:	e3a02044 	mov	r2, #68	; 0x44
f0000eac:	e5cd3007 	strb	r3, [sp, #7]
f0000eb0:	e28d3007 	add	r3, sp, #7
f0000eb4:	eb0001c6 	bl	f00015d4 <twi_byte_rw>
f0000eb8:	e3140002 	tst	r4, #2
f0000ebc:	0a000014 	beq	f0000f14 <standby_power_init+0x1cc>
f0000ec0:	e3a01034 	mov	r1, #52	; 0x34
f0000ec4:	e3a02043 	mov	r2, #67	; 0x43
f0000ec8:	e28d3007 	add	r3, sp, #7
f0000ecc:	e3a00000 	mov	r0, #0
f0000ed0:	eb0001bf 	bl	f00015d4 <twi_byte_rw>
f0000ed4:	e5dd3007 	ldrb	r3, [sp, #7]
f0000ed8:	e3a01034 	mov	r1, #52	; 0x34
f0000edc:	e3a02043 	mov	r2, #67	; 0x43
f0000ee0:	e3833003 	orr	r3, r3, #3
f0000ee4:	e3a00001 	mov	r0, #1
f0000ee8:	e5cd3007 	strb	r3, [sp, #7]
f0000eec:	e28d3007 	add	r3, sp, #7
f0000ef0:	eb0001b7 	bl	f00015d4 <twi_byte_rw>
f0000ef4:	e5dd3007 	ldrb	r3, [sp, #7]
f0000ef8:	e3a00001 	mov	r0, #1
f0000efc:	e3a01034 	mov	r1, #52	; 0x34
f0000f00:	e3833003 	orr	r3, r3, #3
f0000f04:	e3a0204b 	mov	r2, #75	; 0x4b
f0000f08:	e5cd3007 	strb	r3, [sp, #7]
f0000f0c:	e28d3007 	add	r3, sp, #7
f0000f10:	eb0001af 	bl	f00015d4 <twi_byte_rw>
f0000f14:	e3140004 	tst	r4, #4
f0000f18:	0a00000c 	beq	f0000f50 <standby_power_init+0x208>
f0000f1c:	e3a01034 	mov	r1, #52	; 0x34
f0000f20:	e3a02040 	mov	r2, #64	; 0x40
f0000f24:	e28d3007 	add	r3, sp, #7
f0000f28:	e3a00000 	mov	r0, #0
f0000f2c:	eb0001a8 	bl	f00015d4 <twi_byte_rw>
f0000f30:	e5dd3007 	ldrb	r3, [sp, #7]
f0000f34:	e3a00001 	mov	r0, #1
f0000f38:	e3a01034 	mov	r1, #52	; 0x34
f0000f3c:	e383300c 	orr	r3, r3, #12
f0000f40:	e3a02040 	mov	r2, #64	; 0x40
f0000f44:	e5cd3007 	strb	r3, [sp, #7]
f0000f48:	e28d3007 	add	r3, sp, #7
f0000f4c:	eb0001a0 	bl	f00015d4 <twi_byte_rw>
f0000f50:	e3140008 	tst	r4, #8
f0000f54:	0a00000c 	beq	f0000f8c <standby_power_init+0x244>
f0000f58:	e3a01034 	mov	r1, #52	; 0x34
f0000f5c:	e3a02040 	mov	r2, #64	; 0x40
f0000f60:	e28d3007 	add	r3, sp, #7
f0000f64:	e3a00000 	mov	r0, #0
f0000f68:	eb000199 	bl	f00015d4 <twi_byte_rw>
f0000f6c:	e5dd3007 	ldrb	r3, [sp, #7]
f0000f70:	e3a00001 	mov	r0, #1
f0000f74:	e3a01034 	mov	r1, #52	; 0x34
f0000f78:	e3833060 	orr	r3, r3, #96	; 0x60
f0000f7c:	e3a02040 	mov	r2, #64	; 0x40
f0000f80:	e5cd3007 	strb	r3, [sp, #7]
f0000f84:	e28d3007 	add	r3, sp, #7
f0000f88:	eb000191 	bl	f00015d4 <twi_byte_rw>
f0000f8c:	e3a00000 	mov	r0, #0
f0000f90:	e8bd801c 	pop	{r2, r3, r4, pc}

f0000f94 <standby_power_exit>:
f0000f94:	e92d4013 	push	{r0, r1, r4, lr}
f0000f98:	e3a0204b 	mov	r2, #75	; 0x4b
f0000f9c:	e1a04000 	mov	r4, r0
f0000fa0:	e3a01034 	mov	r1, #52	; 0x34
f0000fa4:	e28d3007 	add	r3, sp, #7
f0000fa8:	e3a00000 	mov	r0, #0
f0000fac:	eb000188 	bl	f00015d4 <twi_byte_rw>
f0000fb0:	e3a00001 	mov	r0, #1
f0000fb4:	e3a01034 	mov	r1, #52	; 0x34
f0000fb8:	e3a0200e 	mov	r2, #14
f0000fbc:	e28d3007 	add	r3, sp, #7
f0000fc0:	eb000183 	bl	f00015d4 <twi_byte_rw>
f0000fc4:	e3140001 	tst	r4, #1
f0000fc8:	0a00000c 	beq	f0001000 <standby_power_exit+0x6c>
f0000fcc:	e3a01034 	mov	r1, #52	; 0x34
f0000fd0:	e3a02042 	mov	r2, #66	; 0x42
f0000fd4:	e28d3007 	add	r3, sp, #7
f0000fd8:	e3a00000 	mov	r0, #0
f0000fdc:	eb00017c 	bl	f00015d4 <twi_byte_rw>
f0000fe0:	e5dd3007 	ldrb	r3, [sp, #7]
f0000fe4:	e3a00001 	mov	r0, #1
f0000fe8:	e3a01034 	mov	r1, #52	; 0x34
f0000fec:	e3c33003 	bic	r3, r3, #3
f0000ff0:	e3a02042 	mov	r2, #66	; 0x42
f0000ff4:	e5cd3007 	strb	r3, [sp, #7]
f0000ff8:	e28d3007 	add	r3, sp, #7
f0000ffc:	eb000174 	bl	f00015d4 <twi_byte_rw>
f0001000:	e3140080 	tst	r4, #128	; 0x80
f0001004:	0a00000c 	beq	f000103c <standby_power_exit+0xa8>
f0001008:	e3a01034 	mov	r1, #52	; 0x34
f000100c:	e3a02042 	mov	r2, #66	; 0x42
f0001010:	e28d3007 	add	r3, sp, #7
f0001014:	e3a00000 	mov	r0, #0
f0001018:	eb00016d 	bl	f00015d4 <twi_byte_rw>
f000101c:	e5dd3007 	ldrb	r3, [sp, #7]
f0001020:	e3a00001 	mov	r0, #1
f0001024:	e3a01034 	mov	r1, #52	; 0x34
f0001028:	e3c33001 	bic	r3, r3, #1
f000102c:	e3a02042 	mov	r2, #66	; 0x42
f0001030:	e5cd3007 	strb	r3, [sp, #7]
f0001034:	e28d3007 	add	r3, sp, #7
f0001038:	eb000165 	bl	f00015d4 <twi_byte_rw>
f000103c:	e3140040 	tst	r4, #64	; 0x40
f0001040:	0a00000c 	beq	f0001078 <standby_power_exit+0xe4>
f0001044:	e3a01034 	mov	r1, #52	; 0x34
f0001048:	e3a02042 	mov	r2, #66	; 0x42
f000104c:	e28d3007 	add	r3, sp, #7
f0001050:	e3a00000 	mov	r0, #0
f0001054:	eb00015e 	bl	f00015d4 <twi_byte_rw>
f0001058:	e5dd3007 	ldrb	r3, [sp, #7]
f000105c:	e3a00001 	mov	r0, #1
f0001060:	e3a01034 	mov	r1, #52	; 0x34
f0001064:	e3c33002 	bic	r3, r3, #2
f0001068:	e3a02042 	mov	r2, #66	; 0x42
f000106c:	e5cd3007 	strb	r3, [sp, #7]
f0001070:	e28d3007 	add	r3, sp, #7
f0001074:	eb000156 	bl	f00015d4 <twi_byte_rw>
f0001078:	e3140020 	tst	r4, #32
f000107c:	0a00000c 	beq	f00010b4 <standby_power_exit+0x120>
f0001080:	e3a01034 	mov	r1, #52	; 0x34
f0001084:	e3a02044 	mov	r2, #68	; 0x44
f0001088:	e28d3007 	add	r3, sp, #7
f000108c:	e3a00000 	mov	r0, #0
f0001090:	eb00014f 	bl	f00015d4 <twi_byte_rw>
f0001094:	e5dd3007 	ldrb	r3, [sp, #7]
f0001098:	e3a00001 	mov	r0, #1
f000109c:	e3a01034 	mov	r1, #52	; 0x34
f00010a0:	e3c33020 	bic	r3, r3, #32
f00010a4:	e3a02044 	mov	r2, #68	; 0x44
f00010a8:	e5cd3007 	strb	r3, [sp, #7]
f00010ac:	e28d3007 	add	r3, sp, #7
f00010b0:	eb000147 	bl	f00015d4 <twi_byte_rw>
f00010b4:	e3140010 	tst	r4, #16
f00010b8:	0a00000c 	beq	f00010f0 <standby_power_exit+0x15c>
f00010bc:	e3a01034 	mov	r1, #52	; 0x34
f00010c0:	e3a02044 	mov	r2, #68	; 0x44
f00010c4:	e28d3007 	add	r3, sp, #7
f00010c8:	e3a00000 	mov	r0, #0
f00010cc:	eb000140 	bl	f00015d4 <twi_byte_rw>
f00010d0:	e5dd3007 	ldrb	r3, [sp, #7]
f00010d4:	e3a00001 	mov	r0, #1
f00010d8:	e3a01034 	mov	r1, #52	; 0x34
f00010dc:	e3c33040 	bic	r3, r3, #64	; 0x40
f00010e0:	e3a02044 	mov	r2, #68	; 0x44
f00010e4:	e5cd3007 	strb	r3, [sp, #7]
f00010e8:	e28d3007 	add	r3, sp, #7
f00010ec:	eb000138 	bl	f00015d4 <twi_byte_rw>
f00010f0:	e3140002 	tst	r4, #2
f00010f4:	0a00000c 	beq	f000112c <standby_power_exit+0x198>
f00010f8:	e3a01034 	mov	r1, #52	; 0x34
f00010fc:	e3a02043 	mov	r2, #67	; 0x43
f0001100:	e28d3007 	add	r3, sp, #7
f0001104:	e3a00000 	mov	r0, #0
f0001108:	eb000131 	bl	f00015d4 <twi_byte_rw>
f000110c:	e5dd3007 	ldrb	r3, [sp, #7]
f0001110:	e3a00001 	mov	r0, #1
f0001114:	e3a01034 	mov	r1, #52	; 0x34
f0001118:	e3c33003 	bic	r3, r3, #3
f000111c:	e3a02043 	mov	r2, #67	; 0x43
f0001120:	e5cd3007 	strb	r3, [sp, #7]
f0001124:	e28d3007 	add	r3, sp, #7
f0001128:	eb000129 	bl	f00015d4 <twi_byte_rw>
f000112c:	e3140004 	tst	r4, #4
f0001130:	0a00000c 	beq	f0001168 <standby_power_exit+0x1d4>
f0001134:	e3a01034 	mov	r1, #52	; 0x34
f0001138:	e3a02040 	mov	r2, #64	; 0x40
f000113c:	e28d3007 	add	r3, sp, #7
f0001140:	e3a00000 	mov	r0, #0
f0001144:	eb000122 	bl	f00015d4 <twi_byte_rw>
f0001148:	e5dd3007 	ldrb	r3, [sp, #7]
f000114c:	e3a00001 	mov	r0, #1
f0001150:	e3a01034 	mov	r1, #52	; 0x34
f0001154:	e3c3300c 	bic	r3, r3, #12
f0001158:	e3a02040 	mov	r2, #64	; 0x40
f000115c:	e5cd3007 	strb	r3, [sp, #7]
f0001160:	e28d3007 	add	r3, sp, #7
f0001164:	eb00011a 	bl	f00015d4 <twi_byte_rw>
f0001168:	e3140008 	tst	r4, #8
f000116c:	0a00000c 	beq	f00011a4 <standby_power_exit+0x210>
f0001170:	e3a01034 	mov	r1, #52	; 0x34
f0001174:	e3a02040 	mov	r2, #64	; 0x40
f0001178:	e28d3007 	add	r3, sp, #7
f000117c:	e3a00000 	mov	r0, #0
f0001180:	eb000113 	bl	f00015d4 <twi_byte_rw>
f0001184:	e5dd3007 	ldrb	r3, [sp, #7]
f0001188:	e3a00001 	mov	r0, #1
f000118c:	e3a01034 	mov	r1, #52	; 0x34
f0001190:	e3c33060 	bic	r3, r3, #96	; 0x60
f0001194:	e3a02040 	mov	r2, #64	; 0x40
f0001198:	e5cd3007 	strb	r3, [sp, #7]
f000119c:	e28d3007 	add	r3, sp, #7
f00011a0:	eb00010b 	bl	f00015d4 <twi_byte_rw>
f00011a4:	eb0000f8 	bl	f000158c <standby_twi_exit>
f00011a8:	e3a00000 	mov	r0, #0
f00011ac:	e8bd801c 	pop	{r2, r3, r4, pc}

f00011b0 <standby_set_voltage>:
f00011b0:	e92d40f7 	push	{r0, r1, r2, r4, r5, r6, r7, lr}
f00011b4:	e1a05000 	mov	r5, r0
f00011b8:	e1a06001 	mov	r6, r1
f00011bc:	ebfffed0 	bl	f0000d04 <find_info>
f00011c0:	e2504000 	subs	r4, r0, #0
f00011c4:	0a000040 	beq	f00012cc <standby_set_voltage+0x11c>
f00011c8:	e5943004 	ldr	r3, [r4, #4]
f00011cc:	e1560003 	cmp	r6, r3
f00011d0:	ba00003d 	blt	f00012cc <standby_set_voltage+0x11c>
f00011d4:	e5942008 	ldr	r2, [r4, #8]
f00011d8:	e1560002 	cmp	r6, r2
f00011dc:	da000037 	ble	f00012c0 <standby_set_voltage+0x110>
f00011e0:	ea000039 	b	f00012cc <standby_set_voltage+0x11c>
f00011e4:	e594100c 	ldr	r1, [r4, #12]
f00011e8:	e2412001 	sub	r2, r1, #1
f00011ec:	e0633002 	rsb	r3, r3, r2
f00011f0:	e0830006 	add	r0, r3, r6
f00011f4:	ebfffeae 	bl	f0000cb4 <raw_lib_udiv>
f00011f8:	ea00000f 	b	f000123c <standby_set_voltage+0x8c>
f00011fc:	e59f30cc 	ldr	r3, [pc, #204]	; f00012d0 <standby_set_voltage+0x120>
f0001200:	e1560003 	cmp	r6, r3
f0001204:	03a00000 	moveq	r0, #0
f0001208:	0a000011 	beq	f0001254 <standby_set_voltage+0xa4>
f000120c:	e594100c 	ldr	r1, [r4, #12]
f0001210:	e59f00bc 	ldr	r0, [pc, #188]	; f00012d4 <standby_set_voltage+0x124>
f0001214:	e0810000 	add	r0, r1, r0
f0001218:	e0800006 	add	r0, r0, r6
f000121c:	ebfffea4 	bl	f0000cb4 <raw_lib_udiv>
f0001220:	e6ef0070 	uxtb	r0, r0
f0001224:	e3500010 	cmp	r0, #16
f0001228:	82400006 	subhi	r0, r0, #6
f000122c:	8a000002 	bhi	f000123c <standby_set_voltage+0x8c>
f0001230:	e350000d 	cmp	r0, #13
f0001234:	9a000002 	bls	f0001244 <standby_set_voltage+0x94>
f0001238:	e2400005 	sub	r0, r0, #5
f000123c:	e6ef0070 	uxtb	r0, r0
f0001240:	ea000003 	b	f0001254 <standby_set_voltage+0xa4>
f0001244:	03a00009 	moveq	r0, #9
f0001248:	0a000001 	beq	f0001254 <standby_set_voltage+0xa4>
f000124c:	e3500008 	cmp	r0, #8
f0001250:	23a00008 	movcs	r0, #8
f0001254:	e5947018 	ldr	r7, [r4, #24]
f0001258:	e3a05001 	mov	r5, #1
f000125c:	e5943014 	ldr	r3, [r4, #20]
f0001260:	e3a01034 	mov	r1, #52	; 0x34
f0001264:	e1a07715 	lsl	r7, r5, r7
f0001268:	e5d42010 	ldrb	r2, [r4, #16]
f000126c:	e2477001 	sub	r7, r7, #1
f0001270:	e1a06310 	lsl	r6, r0, r3
f0001274:	e3a00000 	mov	r0, #0
f0001278:	e1a07317 	lsl	r7, r7, r3
f000127c:	e28d3007 	add	r3, sp, #7
f0001280:	eb0000d3 	bl	f00015d4 <twi_byte_rw>
f0001284:	e5dd3007 	ldrb	r3, [sp, #7]
f0001288:	e6ef7077 	uxtb	r7, r7
f000128c:	e6ef6076 	uxtb	r6, r6
f0001290:	e0072003 	and	r2, r7, r3
f0001294:	e1520006 	cmp	r2, r6
f0001298:	0a00000b 	beq	f00012cc <standby_set_voltage+0x11c>
f000129c:	e1c37007 	bic	r7, r3, r7
f00012a0:	e1a00005 	mov	r0, r5
f00012a4:	e1866007 	orr	r6, r6, r7
f00012a8:	e3a01034 	mov	r1, #52	; 0x34
f00012ac:	e5cd6007 	strb	r6, [sp, #7]
f00012b0:	e28d3007 	add	r3, sp, #7
f00012b4:	e5d42010 	ldrb	r2, [r4, #16]
f00012b8:	eb0000c5 	bl	f00015d4 <twi_byte_rw>
f00012bc:	ea000002 	b	f00012cc <standby_set_voltage+0x11c>
f00012c0:	e3550006 	cmp	r5, #6
f00012c4:	1affffc6 	bne	f00011e4 <standby_set_voltage+0x34>
f00012c8:	eaffffcb 	b	f00011fc <standby_set_voltage+0x4c>
f00012cc:	e8bd80fe 	pop	{r1, r2, r3, r4, r5, r6, r7, pc}
f00012d0:	001312d0 			; <UNDEFINED> instruction: 0x001312d0
f00012d4:	ffedb07f 			; <UNDEFINED> instruction: 0xffedb07f

f00012d8 <standby_get_voltage>:
f00012d8:	e92d4037 	push	{r0, r1, r2, r4, r5, lr}
f00012dc:	e1a05000 	mov	r5, r0
f00012e0:	ebfffe87 	bl	f0000d04 <find_info>
f00012e4:	e2504000 	subs	r4, r0, #0
f00012e8:	03e00000 	mvneq	r0, #0
f00012ec:	0a000014 	beq	f0001344 <standby_get_voltage+0x6c>
f00012f0:	e3a01034 	mov	r1, #52	; 0x34
f00012f4:	e5d42010 	ldrb	r2, [r4, #16]
f00012f8:	e28d3007 	add	r3, sp, #7
f00012fc:	e3a00000 	mov	r0, #0
f0001300:	eb0000b3 	bl	f00015d4 <twi_byte_rw>
f0001304:	e3e01000 	mvn	r1, #0
f0001308:	e5943018 	ldr	r3, [r4, #24]
f000130c:	e3550006 	cmp	r5, #6
f0001310:	e5942014 	ldr	r2, [r4, #20]
f0001314:	03a00ffa 	moveq	r0, #1000	; 0x3e8
f0001318:	e1e03311 	mvn	r3, r1, lsl r3
f000131c:	e5dd1007 	ldrb	r1, [sp, #7]
f0001320:	1594000c 	ldrne	r0, [r4, #12]
f0001324:	e0013213 	and	r3, r1, r3, lsl r2
f0001328:	e1a03253 	asr	r3, r3, r2
f000132c:	059f2014 	ldreq	r2, [pc, #20]	; f0001348 <standby_get_voltage+0x70>
f0001330:	15942004 	ldrne	r2, [r4, #4]
f0001334:	e6ef3073 	uxtb	r3, r3
f0001338:	07923103 	ldreq	r3, [r2, r3, lsl #2]
f000133c:	10202390 	mlane	r0, r0, r3, r2
f0001340:	00000390 	muleq	r0, r0, r3
f0001344:	e8bd803e 	pop	{r1, r2, r3, r4, r5, pc}
f0001348:	f0002658 			; <UNDEFINED> instruction: 0xf0002658

f000134c <standby_tmr_init>:
f000134c:	e92d4038 	push	{r3, r4, r5, lr}
f0001350:	e3a00ffa 	mov	r0, #1000	; 0x3e8
f0001354:	e59f3070 	ldr	r3, [pc, #112]	; f00013cc <standby_tmr_init+0x80>
f0001358:	e3a05000 	mov	r5, #0
f000135c:	e59f406c 	ldr	r4, [pc, #108]	; f00013d0 <standby_tmr_init+0x84>
f0001360:	e5843000 	str	r3, [r4]
f0001364:	e5932000 	ldr	r2, [r3]
f0001368:	e5842004 	str	r2, [r4, #4]
f000136c:	e5932010 	ldr	r2, [r3, #16]
f0001370:	e5842008 	str	r2, [r4, #8]
f0001374:	e5932014 	ldr	r2, [r3, #20]
f0001378:	e584200c 	str	r2, [r4, #12]
f000137c:	e5932018 	ldr	r2, [r3, #24]
f0001380:	e5842010 	str	r2, [r4, #16]
f0001384:	e5932020 	ldr	r2, [r3, #32]
f0001388:	e5842014 	str	r2, [r4, #20]
f000138c:	e5932024 	ldr	r2, [r3, #36]	; 0x24
f0001390:	e5842018 	str	r2, [r4, #24]
f0001394:	e5932028 	ldr	r2, [r3, #40]	; 0x28
f0001398:	e584201c 	str	r2, [r4, #28]
f000139c:	e3a02001 	mov	r2, #1
f00013a0:	e5835000 	str	r5, [r3]
f00013a4:	e5832004 	str	r2, [r3, #4]
f00013a8:	e5835020 	str	r5, [r3, #32]
f00013ac:	eb00013a 	bl	f000189c <standby_delay>
f00013b0:	e5943000 	ldr	r3, [r4]
f00013b4:	e3a020d0 	mov	r2, #208	; 0xd0
f00013b8:	e3a00ffa 	mov	r0, #1000	; 0x3e8
f00013bc:	e5832020 	str	r2, [r3, #32]
f00013c0:	eb000135 	bl	f000189c <standby_delay>
f00013c4:	e1a00005 	mov	r0, r5
f00013c8:	e8bd8038 	pop	{r3, r4, r5, pc}
f00013cc:	f1c20c00 			; <UNDEFINED> instruction: 0xf1c20c00
f00013d0:	f0002888 			; <UNDEFINED> instruction: 0xf0002888

f00013d4 <standby_tmr_exit>:
f00013d4:	e59f3040 	ldr	r3, [pc, #64]	; f000141c <standby_tmr_exit+0x48>
f00013d8:	e3a00000 	mov	r0, #0
f00013dc:	e5932000 	ldr	r2, [r3]
f00013e0:	e593100c 	ldr	r1, [r3, #12]
f00013e4:	e5821014 	str	r1, [r2, #20]
f00013e8:	e5931010 	ldr	r1, [r3, #16]
f00013ec:	e5821018 	str	r1, [r2, #24]
f00013f0:	e5931008 	ldr	r1, [r3, #8]
f00013f4:	e5821010 	str	r1, [r2, #16]
f00013f8:	e5931018 	ldr	r1, [r3, #24]
f00013fc:	e5821024 	str	r1, [r2, #36]	; 0x24
f0001400:	e593101c 	ldr	r1, [r3, #28]
f0001404:	e5821028 	str	r1, [r2, #40]	; 0x28
f0001408:	e5931014 	ldr	r1, [r3, #20]
f000140c:	e5933004 	ldr	r3, [r3, #4]
f0001410:	e5821020 	str	r1, [r2, #32]
f0001414:	e5823000 	str	r3, [r2]
f0001418:	e12fff1e 	bx	lr
f000141c:	f0002888 			; <UNDEFINED> instruction: 0xf0002888

f0001420 <standby_tmr_set>:
f0001420:	e59f3044 	ldr	r3, [pc, #68]	; f000146c <standby_tmr_set+0x4c>
f0001424:	e3a02001 	mov	r2, #1
f0001428:	e1a00500 	lsl	r0, r0, #10
f000142c:	e3a010d0 	mov	r1, #208	; 0xd0
f0001430:	e5933000 	ldr	r3, [r3]
f0001434:	e5832004 	str	r2, [r3, #4]
f0001438:	e5832000 	str	r2, [r3]
f000143c:	e3a02000 	mov	r2, #0
f0001440:	e5832010 	str	r2, [r3, #16]
f0001444:	e5830014 	str	r0, [r3, #20]
f0001448:	e1a00002 	mov	r0, r2
f000144c:	e5831010 	str	r1, [r3, #16]
f0001450:	e5931010 	ldr	r1, [r3, #16]
f0001454:	e3811002 	orr	r1, r1, #2
f0001458:	e5831010 	str	r1, [r3, #16]
f000145c:	e5931010 	ldr	r1, [r3, #16]
f0001460:	e3811001 	orr	r1, r1, #1
f0001464:	e5831010 	str	r1, [r3, #16]
f0001468:	e12fff1e 	bx	lr
f000146c:	f0002888 			; <UNDEFINED> instruction: 0xf0002888

f0001470 <standby_tmr_enable_watchdog>:
f0001470:	e59f3018 	ldr	r3, [pc, #24]	; f0001490 <standby_tmr_enable_watchdog+0x20>
f0001474:	e3a02012 	mov	r2, #18
f0001478:	e5933000 	ldr	r3, [r3]
f000147c:	e5832094 	str	r2, [r3, #148]	; 0x94
f0001480:	e5932094 	ldr	r2, [r3, #148]	; 0x94
f0001484:	e3822001 	orr	r2, r2, #1
f0001488:	e5832094 	str	r2, [r3, #148]	; 0x94
f000148c:	e12fff1e 	bx	lr
f0001490:	f0002888 			; <UNDEFINED> instruction: 0xf0002888

f0001494 <standby_tmr_disable_watchdog>:
f0001494:	e59f301c 	ldr	r3, [pc, #28]	; f00014b8 <standby_tmr_disable_watchdog+0x24>
f0001498:	e5933000 	ldr	r3, [r3]
f000149c:	e5932094 	ldr	r2, [r3, #148]	; 0x94
f00014a0:	e3c22002 	bic	r2, r2, #2
f00014a4:	e5832094 	str	r2, [r3, #148]	; 0x94
f00014a8:	e5932094 	ldr	r2, [r3, #148]	; 0x94
f00014ac:	e3c22001 	bic	r2, r2, #1
f00014b0:	e5832094 	str	r2, [r3, #148]	; 0x94
f00014b4:	e12fff1e 	bx	lr
f00014b8:	f0002888 			; <UNDEFINED> instruction: 0xf0002888

f00014bc <standby_tmr_query>:
f00014bc:	e3500000 	cmp	r0, #0
f00014c0:	13e00000 	mvnne	r0, #0
f00014c4:	112fff1e 	bxne	lr
f00014c8:	e59f3018 	ldr	r3, [pc, #24]	; f00014e8 <standby_tmr_query+0x2c>
f00014cc:	e5933000 	ldr	r3, [r3]
f00014d0:	e5932004 	ldr	r2, [r3, #4]
f00014d4:	e3120001 	tst	r2, #1
f00014d8:	13a02001 	movne	r2, #1
f00014dc:	03e00000 	mvneq	r0, #0
f00014e0:	15832004 	strne	r2, [r3, #4]
f00014e4:	e12fff1e 	bx	lr
f00014e8:	f0002888 			; <UNDEFINED> instruction: 0xf0002888

f00014ec <standby_tmr_mdlay>:
f00014ec:	e92d4010 	push	{r4, lr}
f00014f0:	e350001e 	cmp	r0, #30
f00014f4:	b3a0001e 	movlt	r0, #30
f00014f8:	e59f4038 	ldr	r4, [pc, #56]	; f0001538 <standby_tmr_mdlay+0x4c>
f00014fc:	e5943000 	ldr	r3, [r4]
f0001500:	e5830024 	str	r0, [r3, #36]	; 0x24
f0001504:	e3000bb8 	movw	r0, #3000	; 0xbb8
f0001508:	e5932020 	ldr	r2, [r3, #32]
f000150c:	e3822002 	orr	r2, r2, #2
f0001510:	e5832020 	str	r2, [r3, #32]
f0001514:	e5932020 	ldr	r2, [r3, #32]
f0001518:	e3822001 	orr	r2, r2, #1
f000151c:	e5832020 	str	r2, [r3, #32]
f0001520:	eb0000dd 	bl	f000189c <standby_delay>
f0001524:	e5943000 	ldr	r3, [r4]
f0001528:	e5932028 	ldr	r2, [r3, #40]	; 0x28
f000152c:	e3520000 	cmp	r2, #0
f0001530:	1afffffc 	bne	f0001528 <standby_tmr_mdlay+0x3c>
f0001534:	e8bd8010 	pop	{r4, pc}
f0001538:	f0002888 			; <UNDEFINED> instruction: 0xf0002888

f000153c <standby_twi_init>:
f000153c:	e59f3040 	ldr	r3, [pc, #64]	; f0001584 <standby_twi_init+0x48>
f0001540:	e59f2040 	ldr	r2, [pc, #64]	; f0001588 <standby_twi_init+0x4c>
f0001544:	e7933100 	ldr	r3, [r3, r0, lsl #2]
f0001548:	e5823000 	str	r3, [r2]
f000154c:	e5931014 	ldr	r1, [r3, #20]
f0001550:	e5821004 	str	r1, [r2, #4]
f0001554:	e593100c 	ldr	r1, [r3, #12]
f0001558:	e2011080 	and	r1, r1, #128	; 0x80
f000155c:	e5821008 	str	r1, [r2, #8]
f0001560:	e3a02028 	mov	r2, #40	; 0x28
f0001564:	e5832014 	str	r2, [r3, #20]
f0001568:	e5932018 	ldr	r2, [r3, #24]
f000156c:	e3822001 	orr	r2, r2, #1
f0001570:	e5832018 	str	r2, [r3, #24]
f0001574:	e5930018 	ldr	r0, [r3, #24]
f0001578:	e2100001 	ands	r0, r0, #1
f000157c:	1afffffc 	bne	f0001574 <standby_twi_init+0x38>
f0001580:	e12fff1e 	bx	lr
f0001584:	f0002698 			; <UNDEFINED> instruction: 0xf0002698
f0001588:	f00028a8 			; <UNDEFINED> instruction: 0xf00028a8

f000158c <standby_twi_exit>:
f000158c:	e92d4010 	push	{r4, lr}
f0001590:	e3a0000a 	mov	r0, #10
f0001594:	e59f4034 	ldr	r4, [pc, #52]	; f00015d0 <standby_twi_exit+0x44>
f0001598:	e5943000 	ldr	r3, [r4]
f000159c:	e5932018 	ldr	r2, [r3, #24]
f00015a0:	e3822001 	orr	r2, r2, #1
f00015a4:	e5832018 	str	r2, [r3, #24]
f00015a8:	ebfffb89 	bl	f00003d4 <standby_mdelay>
f00015ac:	e5943000 	ldr	r3, [r4]
f00015b0:	e5942004 	ldr	r2, [r4, #4]
f00015b4:	e3a00000 	mov	r0, #0
f00015b8:	e5832014 	str	r2, [r3, #20]
f00015bc:	e5942008 	ldr	r2, [r4, #8]
f00015c0:	e593100c 	ldr	r1, [r3, #12]
f00015c4:	e1812002 	orr	r2, r1, r2
f00015c8:	e583200c 	str	r2, [r3, #12]
f00015cc:	e8bd8010 	pop	{r4, pc}
f00015d0:	f00028a8 			; <UNDEFINED> instruction: 0xf00028a8

f00015d4 <twi_byte_rw>:
f00015d4:	e59fc29c 	ldr	ip, [pc, #668]	; f0001878 <twi_byte_rw+0x2a4>
f00015d8:	e92d4030 	push	{r4, r5, lr}
f00015dc:	e3a04000 	mov	r4, #0
f00015e0:	e59cc000 	ldr	ip, [ip]
f00015e4:	e58c401c 	str	r4, [ip, #28]
f00015e8:	e59c4010 	ldr	r4, [ip, #16]
f00015ec:	e6ef4074 	uxtb	r4, r4
f00015f0:	e35400f8 	cmp	r4, #248	; 0xf8
f00015f4:	1a00007d 	bne	f00017f0 <twi_byte_rw+0x21c>
f00015f8:	e59c400c 	ldr	r4, [ip, #12]
f00015fc:	e3844020 	orr	r4, r4, #32
f0001600:	e58c400c 	str	r4, [ip, #12]
f0001604:	e30042ff 	movw	r4, #767	; 0x2ff
f0001608:	e59c500c 	ldr	r5, [ip, #12]
f000160c:	e3150008 	tst	r5, #8
f0001610:	0a000002 	beq	f0001620 <twi_byte_rw+0x4c>
f0001614:	e3540000 	cmp	r4, #0
f0001618:	0a000074 	beq	f00017f0 <twi_byte_rw+0x21c>
f000161c:	ea000001 	b	f0001628 <twi_byte_rw+0x54>
f0001620:	e2544001 	subs	r4, r4, #1
f0001624:	2afffff7 	bcs	f0001608 <twi_byte_rw+0x34>
f0001628:	e59c4010 	ldr	r4, [ip, #16]
f000162c:	e6ef4074 	uxtb	r4, r4
f0001630:	e3540008 	cmp	r4, #8
f0001634:	1a00006d 	bne	f00017f0 <twi_byte_rw+0x21c>
f0001638:	e1a01081 	lsl	r1, r1, #1
f000163c:	e58c1008 	str	r1, [ip, #8]
f0001640:	e59c400c 	ldr	r4, [ip, #12]
f0001644:	e20440f7 	and	r4, r4, #247	; 0xf7
f0001648:	e58c400c 	str	r4, [ip, #12]
f000164c:	e30042ff 	movw	r4, #767	; 0x2ff
f0001650:	e59c500c 	ldr	r5, [ip, #12]
f0001654:	e3150008 	tst	r5, #8
f0001658:	0a000002 	beq	f0001668 <twi_byte_rw+0x94>
f000165c:	e3540000 	cmp	r4, #0
f0001660:	0a000062 	beq	f00017f0 <twi_byte_rw+0x21c>
f0001664:	ea000001 	b	f0001670 <twi_byte_rw+0x9c>
f0001668:	e2544001 	subs	r4, r4, #1
f000166c:	2afffff7 	bcs	f0001650 <twi_byte_rw+0x7c>
f0001670:	e59c4010 	ldr	r4, [ip, #16]
f0001674:	e6ef4074 	uxtb	r4, r4
f0001678:	e3540018 	cmp	r4, #24
f000167c:	1a00005b 	bne	f00017f0 <twi_byte_rw+0x21c>
f0001680:	e58c2008 	str	r2, [ip, #8]
f0001684:	e59c200c 	ldr	r2, [ip, #12]
f0001688:	e20220f7 	and	r2, r2, #247	; 0xf7
f000168c:	e58c200c 	str	r2, [ip, #12]
f0001690:	e30022ff 	movw	r2, #767	; 0x2ff
f0001694:	e59c400c 	ldr	r4, [ip, #12]
f0001698:	e3140008 	tst	r4, #8
f000169c:	0a000002 	beq	f00016ac <twi_byte_rw+0xd8>
f00016a0:	e3520000 	cmp	r2, #0
f00016a4:	0a000051 	beq	f00017f0 <twi_byte_rw+0x21c>
f00016a8:	ea000001 	b	f00016b4 <twi_byte_rw+0xe0>
f00016ac:	e2522001 	subs	r2, r2, #1
f00016b0:	2afffff7 	bcs	f0001694 <twi_byte_rw+0xc0>
f00016b4:	e59c2010 	ldr	r2, [ip, #16]
f00016b8:	e6ef2072 	uxtb	r2, r2
f00016bc:	e3520028 	cmp	r2, #40	; 0x28
f00016c0:	1a00004a 	bne	f00017f0 <twi_byte_rw+0x21c>
f00016c4:	e3500001 	cmp	r0, #1
f00016c8:	1a000011 	bne	f0001714 <twi_byte_rw+0x140>
f00016cc:	e5d33000 	ldrb	r3, [r3]
f00016d0:	e58c3008 	str	r3, [ip, #8]
f00016d4:	e59c300c 	ldr	r3, [ip, #12]
f00016d8:	e20330f7 	and	r3, r3, #247	; 0xf7
f00016dc:	e58c300c 	str	r3, [ip, #12]
f00016e0:	e30032ff 	movw	r3, #767	; 0x2ff
f00016e4:	e59c200c 	ldr	r2, [ip, #12]
f00016e8:	e3120008 	tst	r2, #8
f00016ec:	0a000002 	beq	f00016fc <twi_byte_rw+0x128>
f00016f0:	e3530000 	cmp	r3, #0
f00016f4:	0a00003d 	beq	f00017f0 <twi_byte_rw+0x21c>
f00016f8:	ea000001 	b	f0001704 <twi_byte_rw+0x130>
f00016fc:	e2533001 	subs	r3, r3, #1
f0001700:	2afffff7 	bcs	f00016e4 <twi_byte_rw+0x110>
f0001704:	e59c3010 	ldr	r3, [ip, #16]
f0001708:	e6ef3073 	uxtb	r3, r3
f000170c:	e3530028 	cmp	r3, #40	; 0x28
f0001710:	ea000033 	b	f00017e4 <twi_byte_rw+0x210>
f0001714:	e59c200c 	ldr	r2, [ip, #12]
f0001718:	e20220c0 	and	r2, r2, #192	; 0xc0
f000171c:	e3822020 	orr	r2, r2, #32
f0001720:	e58c200c 	str	r2, [ip, #12]
f0001724:	e30022ff 	movw	r2, #767	; 0x2ff
f0001728:	e59c000c 	ldr	r0, [ip, #12]
f000172c:	e3100008 	tst	r0, #8
f0001730:	0a000002 	beq	f0001740 <twi_byte_rw+0x16c>
f0001734:	e3520000 	cmp	r2, #0
f0001738:	0a00002c 	beq	f00017f0 <twi_byte_rw+0x21c>
f000173c:	ea000001 	b	f0001748 <twi_byte_rw+0x174>
f0001740:	e2522001 	subs	r2, r2, #1
f0001744:	2afffff7 	bcs	f0001728 <twi_byte_rw+0x154>
f0001748:	e59c2010 	ldr	r2, [ip, #16]
f000174c:	e6ef2072 	uxtb	r2, r2
f0001750:	e3520010 	cmp	r2, #16
f0001754:	1a000025 	bne	f00017f0 <twi_byte_rw+0x21c>
f0001758:	e3811001 	orr	r1, r1, #1
f000175c:	e58c1008 	str	r1, [ip, #8]
f0001760:	e59c200c 	ldr	r2, [ip, #12]
f0001764:	e20220f7 	and	r2, r2, #247	; 0xf7
f0001768:	e58c200c 	str	r2, [ip, #12]
f000176c:	e30022ff 	movw	r2, #767	; 0x2ff
f0001770:	e59c100c 	ldr	r1, [ip, #12]
f0001774:	e3110008 	tst	r1, #8
f0001778:	0a000002 	beq	f0001788 <twi_byte_rw+0x1b4>
f000177c:	e3520000 	cmp	r2, #0
f0001780:	0a00001a 	beq	f00017f0 <twi_byte_rw+0x21c>
f0001784:	ea000001 	b	f0001790 <twi_byte_rw+0x1bc>
f0001788:	e2522001 	subs	r2, r2, #1
f000178c:	2afffff7 	bcs	f0001770 <twi_byte_rw+0x19c>
f0001790:	e59c2010 	ldr	r2, [ip, #16]
f0001794:	e6ef2072 	uxtb	r2, r2
f0001798:	e3520040 	cmp	r2, #64	; 0x40
f000179c:	1a000013 	bne	f00017f0 <twi_byte_rw+0x21c>
f00017a0:	e59c200c 	ldr	r2, [ip, #12]
f00017a4:	e20220f7 	and	r2, r2, #247	; 0xf7
f00017a8:	e58c200c 	str	r2, [ip, #12]
f00017ac:	e30022ff 	movw	r2, #767	; 0x2ff
f00017b0:	e59c100c 	ldr	r1, [ip, #12]
f00017b4:	e3110008 	tst	r1, #8
f00017b8:	0a000002 	beq	f00017c8 <twi_byte_rw+0x1f4>
f00017bc:	e3520000 	cmp	r2, #0
f00017c0:	0a00000a 	beq	f00017f0 <twi_byte_rw+0x21c>
f00017c4:	ea000001 	b	f00017d0 <twi_byte_rw+0x1fc>
f00017c8:	e2522001 	subs	r2, r2, #1
f00017cc:	2afffff7 	bcs	f00017b0 <twi_byte_rw+0x1dc>
f00017d0:	e59c2008 	ldr	r2, [ip, #8]
f00017d4:	e5c32000 	strb	r2, [r3]
f00017d8:	e59c3010 	ldr	r3, [ip, #16]
f00017dc:	e6ef3073 	uxtb	r3, r3
f00017e0:	e3530058 	cmp	r3, #88	; 0x58
f00017e4:	03a00000 	moveq	r0, #0
f00017e8:	13e00000 	mvnne	r0, #0
f00017ec:	ea000000 	b	f00017f4 <twi_byte_rw+0x220>
f00017f0:	e3e00000 	mvn	r0, #0
f00017f4:	e59f307c 	ldr	r3, [pc, #124]	; f0001878 <twi_byte_rw+0x2a4>
f00017f8:	e5933000 	ldr	r3, [r3]
f00017fc:	e593200c 	ldr	r2, [r3, #12]
f0001800:	e20220c0 	and	r2, r2, #192	; 0xc0
f0001804:	e3822010 	orr	r2, r2, #16
f0001808:	e583200c 	str	r2, [r3, #12]
f000180c:	e593200c 	ldr	r2, [r3, #12]
f0001810:	e30022ff 	movw	r2, #767	; 0x2ff
f0001814:	e593100c 	ldr	r1, [r3, #12]
f0001818:	e3110010 	tst	r1, #16
f000181c:	1a000003 	bne	f0001830 <twi_byte_rw+0x25c>
f0001820:	e3520000 	cmp	r2, #0
f0001824:	130022ff 	movwne	r2, #767	; 0x2ff
f0001828:	08bd8030 	popeq	{r4, r5, pc}
f000182c:	ea000002 	b	f000183c <twi_byte_rw+0x268>
f0001830:	e2522001 	subs	r2, r2, #1
f0001834:	2afffff6 	bcs	f0001814 <twi_byte_rw+0x240>
f0001838:	e2822c03 	add	r2, r2, #768	; 0x300
f000183c:	e5931010 	ldr	r1, [r3, #16]
f0001840:	e35100f8 	cmp	r1, #248	; 0xf8
f0001844:	1a000002 	bne	f0001854 <twi_byte_rw+0x280>
f0001848:	e3520000 	cmp	r2, #0
f000184c:	08bd8030 	popeq	{r4, r5, pc}
f0001850:	ea000001 	b	f000185c <twi_byte_rw+0x288>
f0001854:	e2522001 	subs	r2, r2, #1
f0001858:	2afffff7 	bcs	f000183c <twi_byte_rw+0x268>
f000185c:	e3a02c03 	mov	r2, #768	; 0x300
f0001860:	e5931020 	ldr	r1, [r3, #32]
f0001864:	e351003a 	cmp	r1, #58	; 0x3a
f0001868:	08bd8030 	popeq	{r4, r5, pc}
f000186c:	e2522001 	subs	r2, r2, #1
f0001870:	1afffffa 	bne	f0001860 <twi_byte_rw+0x28c>
f0001874:	e8bd8030 	pop	{r4, r5, pc}
f0001878:	f00028a8 			; <UNDEFINED> instruction: 0xf00028a8

f000187c <standby_usb_init>:
f000187c:	e3a00000 	mov	r0, #0
f0001880:	e12fff1e 	bx	lr

f0001884 <standby_usb_exit>:
f0001884:	e3a00000 	mov	r0, #0
f0001888:	e12fff1e 	bx	lr

f000188c <standby_is_usb_status_change>:
f000188c:	e3a00000 	mov	r0, #0
f0001890:	e12fff1e 	bx	lr

f0001894 <standby_query_usb_event>:
f0001894:	e3e00000 	mvn	r0, #0
f0001898:	e12fff1e 	bx	lr

f000189c <standby_delay>:
f000189c:	e92d000f 	push	{r0, r1, r2, r3}
f00018a0:	e3a01011 	mov	r1, #17
f00018a4:	e1a03000 	mov	r3, r0

f00018a8 <loop2>:
f00018a8:	e2500001 	subs	r0, r0, #1
f00018ac:	8afffffd 	bhi	f00018a8 <loop2>
f00018b0:	e1a00003 	mov	r0, r3
f00018b4:	e2511001 	subs	r1, r1, #1
f00018b8:	8afffffa 	bhi	f00018a8 <loop2>
f00018bc:	e8bd000f 	pop	{r0, r1, r2, r3}
f00018c0:	e1a0f00e 	mov	pc, lr

f00018c4 <standby_delay_cycle>:
f00018c4:	e2500001 	subs	r0, r0, #1
f00018c8:	8afffffd 	bhi	f00018c4 <standby_delay_cycle>
f00018cc:	e1a0f00e 	mov	pc, lr

f00018d0 <raw_lib_udiv>:
f00018d0:	e2512000 	subs	r2, r1, #0
f00018d4:	e1a03000 	mov	r3, r0
f00018d8:	13a01000 	movne	r1, #0
f00018dc:	1a000002 	bne	f00018ec <raw_lib_udiv+0x1c>
f00018e0:	ea00000c 	b	f0001918 <raw_lib_udiv+0x48>
f00018e4:	e1a02082 	lsl	r2, r2, #1
f00018e8:	e2811001 	add	r1, r1, #1
f00018ec:	e3520000 	cmp	r2, #0
f00018f0:	aafffffb 	bge	f00018e4 <raw_lib_udiv+0x14>
f00018f4:	e3a00000 	mov	r0, #0
f00018f8:	e1530002 	cmp	r3, r2
f00018fc:	e1a00080 	lsl	r0, r0, #1
f0001900:	20623003 	rsbcs	r3, r2, r3
f0001904:	23800001 	orrcs	r0, r0, #1
f0001908:	e2511001 	subs	r1, r1, #1
f000190c:	412fff1e 	bxmi	lr
f0001910:	e1a020a2 	lsr	r2, r2, #1
f0001914:	eafffff7 	b	f00018f8 <raw_lib_udiv+0x28>
f0001918:	e1a00002 	mov	r0, r2
f000191c:	e12fff1e 	bx	lr

f0001920 <busy_waiting>:
f0001920:	e24dd008 	sub	sp, sp, #8
f0001924:	e3a03001 	mov	r3, #1
f0001928:	e58d3004 	str	r3, [sp, #4]
f000192c:	e59d3004 	ldr	r3, [sp, #4]
f0001930:	e3530001 	cmp	r3, #1
f0001934:	0afffffc 	beq	f000192c <busy_waiting+0xc>
f0001938:	e28dd008 	add	sp, sp, #8
f000193c:	e12fff1e 	bx	lr

f0001940 <fake_busy_waiting>:
f0001940:	e24dd008 	sub	sp, sp, #8
f0001944:	e3a03002 	mov	r3, #2
f0001948:	e58d3004 	str	r3, [sp, #4]
f000194c:	e59d3004 	ldr	r3, [sp, #4]
f0001950:	e3530001 	cmp	r3, #1
f0001954:	0afffffc 	beq	f000194c <fake_busy_waiting+0xc>
f0001958:	e28dd008 	add	sp, sp, #8
f000195c:	e12fff1e 	bx	lr

f0001960 <save_mem_flag>:
f0001960:	e59f300c 	ldr	r3, [pc, #12]	; f0001974 <save_mem_flag+0x14>
f0001964:	e593223c 	ldr	r2, [r3, #572]	; 0x23c
f0001968:	e3822001 	orr	r2, r2, #1
f000196c:	e583223c 	str	r2, [r3, #572]	; 0x23c
f0001970:	e12fff1e 	bx	lr
f0001974:	f1c01000 			; <UNDEFINED> instruction: 0xf1c01000

f0001978 <save_mem_status>:
f0001978:	e24dd008 	sub	sp, sp, #8
f000197c:	e58d0004 	str	r0, [sp, #4]
f0001980:	e28dd008 	add	sp, sp, #8
f0001984:	e12fff1e 	bx	lr

f0001988 <get_mem_status>:
f0001988:	e59f3004 	ldr	r3, [pc, #4]	; f0001994 <get_mem_status+0xc>
f000198c:	e5930004 	ldr	r0, [r3, #4]
f0001990:	e12fff1e 	bx	lr
f0001994:	c0200000 	eorgt	r0, r0, r0

f0001998 <save_mem_status_nommu>:
f0001998:	e24dd008 	sub	sp, sp, #8
f000199c:	e58d0004 	str	r0, [sp, #4]
f00019a0:	e28dd008 	add	sp, sp, #8
f00019a4:	e12fff1e 	bx	lr

f00019a8 <save_sun5i_mem_status>:
f00019a8:	e24dd008 	sub	sp, sp, #8
f00019ac:	e59f3014 	ldr	r3, [pc, #20]	; f00019c8 <save_sun5i_mem_status+0x20>
f00019b0:	e58d0004 	str	r0, [sp, #4]
f00019b4:	e5930ffc 	ldr	r0, [r3, #4092]	; 0xffc
f00019b8:	e59d2004 	ldr	r2, [sp, #4]
f00019bc:	e5832ffc 	str	r2, [r3, #4092]	; 0xffc
f00019c0:	e28dd008 	add	sp, sp, #8
f00019c4:	e12fff1e 	bx	lr
f00019c8:	c010f000 	andsgt	pc, r0, r0

f00019cc <save_sun5i_mem_status_nommu>:
f00019cc:	e24dd008 	sub	sp, sp, #8
f00019d0:	e59f3014 	ldr	r3, [pc, #20]	; f00019ec <save_sun5i_mem_status_nommu+0x20>
f00019d4:	e58d0004 	str	r0, [sp, #4]
f00019d8:	e5930ffc 	ldr	r0, [r3, #4092]	; 0xffc
f00019dc:	e59d2004 	ldr	r2, [sp, #4]
f00019e0:	e5832ffc 	str	r2, [r3, #4092]	; 0xffc
f00019e4:	e28dd008 	add	sp, sp, #8
f00019e8:	e12fff1e 	bx	lr
f00019ec:	4010f000 	andsmi	pc, r0, r0

f00019f0 <get_cyclecount>:
f00019f0:	ee190f1d 	mrc	15, 0, r0, cr9, cr13, {0}
f00019f4:	e12fff1e 	bx	lr

f00019f8 <backup_perfcounter>:
f00019f8:	ee192f1c 	mrc	15, 0, r2, cr9, cr12, {0}
f00019fc:	e59f300c 	ldr	r3, [pc, #12]	; f0001a10 <backup_perfcounter+0x18>
f0001a00:	e5832000 	str	r2, [r3]
f0001a04:	ee192f3c 	mrc	15, 0, r2, cr9, cr12, {1}
f0001a08:	e5832004 	str	r2, [r3, #4]
f0001a0c:	e12fff1e 	bx	lr
f0001a10:	f00028b4 			; <UNDEFINED> instruction: 0xf00028b4

f0001a14 <init_perfcounters>:
f0001a14:	e3500000 	cmp	r0, #0
f0001a18:	13a00007 	movne	r0, #7
f0001a1c:	03a00001 	moveq	r0, #1
f0001a20:	e3510000 	cmp	r1, #0
f0001a24:	13800008 	orrne	r0, r0, #8
f0001a28:	e3800010 	orr	r0, r0, #16
f0001a2c:	ee090f1c 	mcr	15, 0, r0, cr9, cr12, {0}
f0001a30:	e3a0313e 	mov	r3, #-2147483633	; 0x8000000f
f0001a34:	ee093f3c 	mcr	15, 0, r3, cr9, cr12, {1}
f0001a38:	ee093f7c 	mcr	15, 0, r3, cr9, cr12, {3}
f0001a3c:	e12fff1e 	bx	lr

f0001a40 <restore_perfcounter>:
f0001a40:	e59f3014 	ldr	r3, [pc, #20]	; f0001a5c <restore_perfcounter+0x1c>
f0001a44:	e5933000 	ldr	r3, [r3]
f0001a48:	ee093f1c 	mcr	15, 0, r3, cr9, cr12, {0}
f0001a4c:	e59f3008 	ldr	r3, [pc, #8]	; f0001a5c <restore_perfcounter+0x1c>
f0001a50:	e5933004 	ldr	r3, [r3, #4]
f0001a54:	ee093f3c 	mcr	15, 0, r3, cr9, cr12, {1}
f0001a58:	e12fff1e 	bx	lr
f0001a5c:	f00028b4 			; <UNDEFINED> instruction: 0xf00028b4

f0001a60 <reset_counter>:
f0001a60:	e3a03000 	mov	r3, #0
f0001a64:	ee193f1c 	mrc	15, 0, r3, cr9, cr12, {0}
f0001a68:	e2833004 	add	r3, r3, #4
f0001a6c:	ee093f1c 	mcr	15, 0, r3, cr9, cr12, {0}
f0001a70:	e12fff1e 	bx	lr

f0001a74 <change_runtime_env>:
f0001a74:	e92d4073 	push	{r0, r1, r4, r5, r6, lr}
f0001a78:	e3a03000 	mov	r3, #0
f0001a7c:	e58d3004 	str	r3, [sp, #4]
f0001a80:	e3500000 	cmp	r0, #0
f0001a84:	e59f30c4 	ldr	r3, [pc, #196]	; f0001b50 <change_runtime_env+0xdc>
f0001a88:	e59f50c4 	ldr	r5, [pc, #196]	; f0001b54 <change_runtime_env+0xe0>
f0001a8c:	11a05003 	movne	r5, r3
f0001a90:	ebffffd6 	bl	f00019f0 <get_cyclecount>
f0001a94:	e59f40bc 	ldr	r4, [pc, #188]	; f0001b58 <change_runtime_env+0xe4>
f0001a98:	e1a06000 	mov	r6, r0
f0001a9c:	ebffffd3 	bl	f00019f0 <get_cyclecount>
f0001aa0:	e0660000 	rsb	r0, r6, r0
f0001aa4:	e5840008 	str	r0, [r4, #8]
f0001aa8:	e5953054 	ldr	r3, [r5, #84]	; 0x54
f0001aac:	e58d3004 	str	r3, [sp, #4]
f0001ab0:	e59d3004 	ldr	r3, [sp, #4]
f0001ab4:	e1a03823 	lsr	r3, r3, #16
f0001ab8:	e58d3004 	str	r3, [sp, #4]
f0001abc:	e59d3004 	ldr	r3, [sp, #4]
f0001ac0:	e2033003 	and	r3, r3, #3
f0001ac4:	e58d3004 	str	r3, [sp, #4]
f0001ac8:	e59d3004 	ldr	r3, [sp, #4]
f0001acc:	e3530000 	cmp	r3, #0
f0001ad0:	02833020 	addeq	r3, r3, #32
f0001ad4:	0a000003 	beq	f0001ae8 <change_runtime_env+0x74>
f0001ad8:	e59d3004 	ldr	r3, [sp, #4]
f0001adc:	e3530001 	cmp	r3, #1
f0001ae0:	1a000002 	bne	f0001af0 <change_runtime_env+0x7c>
f0001ae4:	e3053dc0 	movw	r3, #24000	; 0x5dc0
f0001ae8:	e584300c 	str	r3, [r4, #12]
f0001aec:	ea000016 	b	f0001b4c <change_runtime_env+0xd8>
f0001af0:	e59d3004 	ldr	r3, [sp, #4]
f0001af4:	e3530002 	cmp	r3, #2
f0001af8:	1a000013 	bne	f0001b4c <change_runtime_env+0xd8>
f0001afc:	e5953000 	ldr	r3, [r5]
f0001b00:	e3a02001 	mov	r2, #1
f0001b04:	e305cdc0 	movw	ip, #24000	; 0x5dc0
f0001b08:	e58d3004 	str	r3, [sp, #4]
f0001b0c:	e59d3004 	ldr	r3, [sp, #4]
f0001b10:	e7e13853 	ubfx	r3, r3, #16, #2
f0001b14:	e1a03312 	lsl	r3, r2, r3
f0001b18:	e59d2004 	ldr	r2, [sp, #4]
f0001b1c:	e59d0004 	ldr	r0, [sp, #4]
f0001b20:	e7e42452 	ubfx	r2, r2, #8, #5
f0001b24:	e59d1004 	ldr	r1, [sp, #4]
f0001b28:	e7e10250 	ubfx	r0, r0, #4, #2
f0001b2c:	e002029c 	mul	r2, ip, r2
f0001b30:	e2011003 	and	r1, r1, #3
f0001b34:	e2800001 	add	r0, r0, #1
f0001b38:	e2811001 	add	r1, r1, #1
f0001b3c:	e0010391 	mul	r1, r1, r3
f0001b40:	e0000290 	mul	r0, r0, r2
f0001b44:	ebffff61 	bl	f00018d0 <raw_lib_udiv>
f0001b48:	e584000c 	str	r0, [r4, #12]
f0001b4c:	e8bd807c 	pop	{r2, r3, r4, r5, r6, pc}
f0001b50:	f1c20000 			; <UNDEFINED> instruction: 0xf1c20000
f0001b54:	01c20000 	biceq	r0, r2, r0
f0001b58:	f00028b4 			; <UNDEFINED> instruction: 0xf00028b4

f0001b5c <delay_us>:
f0001b5c:	e92d4070 	push	{r4, r5, r6, lr}
f0001b60:	e1a05000 	mov	r5, r0
f0001b64:	e59f4040 	ldr	r4, [pc, #64]	; f0001bac <delay_us+0x50>
f0001b68:	e594000c 	ldr	r0, [r4, #12]
f0001b6c:	e3500ffa 	cmp	r0, #1000	; 0x3e8
f0001b70:	98bd8070 	popls	{r4, r5, r6, pc}
f0001b74:	e3a01ffa 	mov	r1, #1000	; 0x3e8
f0001b78:	ebffff54 	bl	f00018d0 <raw_lib_udiv>
f0001b7c:	e1a06000 	mov	r6, r0
f0001b80:	ebffff9a 	bl	f00019f0 <get_cyclecount>
f0001b84:	e5943008 	ldr	r3, [r4, #8]
f0001b88:	e2866001 	add	r6, r6, #1
f0001b8c:	e0633000 	rsb	r3, r3, r0
f0001b90:	e0253695 	mla	r5, r5, r6, r3
f0001b94:	ea000000 	b	f0001b9c <delay_us+0x40>
f0001b98:	ebffff94 	bl	f00019f0 <get_cyclecount>
f0001b9c:	e0650000 	rsb	r0, r5, r0
f0001ba0:	e3500000 	cmp	r0, #0
f0001ba4:	bafffffb 	blt	f0001b98 <delay_us+0x3c>
f0001ba8:	e8bd8070 	pop	{r4, r5, r6, pc}
f0001bac:	f00028b4 			; <UNDEFINED> instruction: 0xf00028b4

f0001bb0 <delay_ms>:
f0001bb0:	e3a03ffa 	mov	r3, #1000	; 0x3e8
f0001bb4:	e0000093 	mul	r0, r3, r0
f0001bb8:	eaffffe7 	b	f0001b5c <delay_us>

f0001bbc <io_init>:
f0001bbc:	e59f2008 	ldr	r2, [pc, #8]	; f0001bcc <io_init+0x10>
f0001bc0:	e59f3008 	ldr	r3, [pc, #8]	; f0001bd0 <io_init+0x14>
f0001bc4:	e5832890 	str	r2, [r3, #2192]	; 0x890
f0001bc8:	e12fff1e 	bx	lr
f0001bcc:	00111111 	andseq	r1, r1, r1, lsl r1
f0001bd0:	f1c20000 			; <UNDEFINED> instruction: 0xf1c20000

f0001bd4 <io_init_high>:
f0001bd4:	e59f300c 	ldr	r3, [pc, #12]	; f0001be8 <io_init_high+0x14>
f0001bd8:	e59328a0 	ldr	r2, [r3, #2208]	; 0x8a0
f0001bdc:	e382203f 	orr	r2, r2, #63	; 0x3f
f0001be0:	e58328a0 	str	r2, [r3, #2208]	; 0x8a0
f0001be4:	e12fff1e 	bx	lr
f0001be8:	f1c20000 			; <UNDEFINED> instruction: 0xf1c20000

f0001bec <io_init_low>:
f0001bec:	e59f300c 	ldr	r3, [pc, #12]	; f0001c00 <io_init_low+0x14>
f0001bf0:	e59328a0 	ldr	r2, [r3, #2208]	; 0x8a0
f0001bf4:	e3c2203f 	bic	r2, r2, #63	; 0x3f
f0001bf8:	e58328a0 	str	r2, [r3, #2208]	; 0x8a0
f0001bfc:	e12fff1e 	bx	lr
f0001c00:	f1c20000 			; <UNDEFINED> instruction: 0xf1c20000

f0001c04 <io_high>:
f0001c04:	e92d4070 	push	{r4, r5, r6, lr}
f0001c08:	e3a05001 	mov	r5, #1
f0001c0c:	e59f4020 	ldr	r4, [pc, #32]	; f0001c34 <io_high+0x30>
f0001c10:	e1a05015 	lsl	r5, r5, r0
f0001c14:	e3020710 	movw	r0, #10000	; 0x2710
f0001c18:	e59468a0 	ldr	r6, [r4, #2208]	; 0x8a0
f0001c1c:	e1c66005 	bic	r6, r6, r5
f0001c20:	e58468a0 	str	r6, [r4, #2208]	; 0x8a0
f0001c24:	ebffffcc 	bl	f0001b5c <delay_us>
f0001c28:	e1865005 	orr	r5, r6, r5
f0001c2c:	e58458a0 	str	r5, [r4, #2208]	; 0x8a0
f0001c30:	e8bd8070 	pop	{r4, r5, r6, pc}
f0001c34:	f1c20000 			; <UNDEFINED> instruction: 0xf1c20000

f0001c38 <mctl_precharge_all>:
f0001c38:	e59f3020 	ldr	r3, [pc, #32]	; f0001c60 <mctl_precharge_all+0x28>
f0001c3c:	e5932004 	ldr	r2, [r3, #4]
f0001c40:	e3c2233e 	bic	r2, r2, #-134217728	; 0xf8000000
f0001c44:	e382232a 	orr	r2, r2, #-1476395008	; 0xa8000000
f0001c48:	e5832004 	str	r2, [r3, #4]
f0001c4c:	e5932004 	ldr	r2, [r3, #4]
f0001c50:	e3520000 	cmp	r2, #0
f0001c54:	bafffffc 	blt	f0001c4c <mctl_precharge_all+0x14>
f0001c58:	e3a00c01 	mov	r0, #256	; 0x100
f0001c5c:	eaffff0e 	b	f000189c <standby_delay>
f0001c60:	f1c01000 			; <UNDEFINED> instruction: 0xf1c01000

f0001c64 <mctl_mode_exit>:
f0001c64:	e59f3020 	ldr	r3, [pc, #32]	; f0001c8c <mctl_mode_exit+0x28>
f0001c68:	e5932004 	ldr	r2, [r3, #4]
f0001c6c:	e3c2233e 	bic	r2, r2, #-134217728	; 0xf8000000
f0001c70:	e382232e 	orr	r2, r2, #-1207959552	; 0xb8000000
f0001c74:	e5832004 	str	r2, [r3, #4]
f0001c78:	e5932004 	ldr	r2, [r3, #4]
f0001c7c:	e3520000 	cmp	r2, #0
f0001c80:	bafffffc 	blt	f0001c78 <mctl_mode_exit+0x14>
f0001c84:	e3a00c01 	mov	r0, #256	; 0x100
f0001c88:	eaffff03 	b	f000189c <standby_delay>
f0001c8c:	f1c01000 			; <UNDEFINED> instruction: 0xf1c01000

f0001c90 <DRAMC_enter_power_down>:
f0001c90:	e59f3020 	ldr	r3, [pc, #32]	; f0001cb8 <DRAMC_enter_power_down+0x28>
f0001c94:	e5932004 	ldr	r2, [r3, #4]
f0001c98:	e3c2233e 	bic	r2, r2, #-134217728	; 0xf8000000
f0001c9c:	e382220f 	orr	r2, r2, #-268435456	; 0xf0000000
f0001ca0:	e5832004 	str	r2, [r3, #4]
f0001ca4:	e5932004 	ldr	r2, [r3, #4]
f0001ca8:	e3520000 	cmp	r2, #0
f0001cac:	bafffffc 	blt	f0001ca4 <DRAMC_enter_power_down+0x14>
f0001cb0:	e3a00c01 	mov	r0, #256	; 0x100
f0001cb4:	eafffef8 	b	f000189c <standby_delay>
f0001cb8:	f1c01000 			; <UNDEFINED> instruction: 0xf1c01000

f0001cbc <DRAMC_exit_power_down>:
f0001cbc:	eaffffe8 	b	f0001c64 <mctl_mode_exit>

f0001cc0 <DRAMC_hostport_on_off>:
f0001cc0:	e350001f 	cmp	r0, #31
f0001cc4:	812fff1e 	bxhi	lr
f0001cc8:	e59f3014 	ldr	r3, [pc, #20]	; f0001ce4 <DRAMC_hostport_on_off+0x24>
f0001ccc:	e3510000 	cmp	r1, #0
f0001cd0:	e7932100 	ldr	r2, [r3, r0, lsl #2]
f0001cd4:	13822001 	orrne	r2, r2, #1
f0001cd8:	03c22001 	biceq	r2, r2, #1
f0001cdc:	e7832100 	str	r2, [r3, r0, lsl #2]
f0001ce0:	e12fff1e 	bx	lr
f0001ce4:	f1c01250 			; <UNDEFINED> instruction: 0xf1c01250

f0001ce8 <DRAMC_exit_selfrefresh>:
f0001ce8:	e92d4010 	push	{r4, lr}
f0001cec:	ebffffdc 	bl	f0001c64 <mctl_mode_exit>
f0001cf0:	e59f3050 	ldr	r3, [pc, #80]	; f0001d48 <DRAMC_exit_selfrefresh+0x60>
f0001cf4:	e5932004 	ldr	r2, [r3, #4]
f0001cf8:	e3c2233e 	bic	r2, r2, #-134217728	; 0xf8000000
f0001cfc:	e3822326 	orr	r2, r2, #-1744830464	; 0x98000000
f0001d00:	e5832004 	str	r2, [r3, #4]
f0001d04:	e5932004 	ldr	r2, [r3, #4]
f0001d08:	e59f4038 	ldr	r4, [pc, #56]	; f0001d48 <DRAMC_exit_selfrefresh+0x60>
f0001d0c:	e3520000 	cmp	r2, #0
f0001d10:	bafffffb 	blt	f0001d04 <DRAMC_exit_selfrefresh+0x1c>
f0001d14:	e3a00c01 	mov	r0, #256	; 0x100
f0001d18:	ebfffedf 	bl	f000189c <standby_delay>
f0001d1c:	e5943010 	ldr	r3, [r4, #16]
f0001d20:	e3c33102 	bic	r3, r3, #-2147483648	; 0x80000000
f0001d24:	e5843010 	str	r3, [r4, #16]
f0001d28:	e3a04000 	mov	r4, #0
f0001d2c:	e1a00004 	mov	r0, r4
f0001d30:	e3a01001 	mov	r1, #1
f0001d34:	e2844001 	add	r4, r4, #1
f0001d38:	ebffffe0 	bl	f0001cc0 <DRAMC_hostport_on_off>
f0001d3c:	e354001f 	cmp	r4, #31
f0001d40:	1afffff9 	bne	f0001d2c <DRAMC_exit_selfrefresh+0x44>
f0001d44:	e8bd8010 	pop	{r4, pc}
f0001d48:	f1c01000 			; <UNDEFINED> instruction: 0xf1c01000

f0001d4c <DRAMC_enter_selfrefresh>:
f0001d4c:	e92d4010 	push	{r4, lr}
f0001d50:	e3a04000 	mov	r4, #0
f0001d54:	e1a00004 	mov	r0, r4
f0001d58:	e3a01000 	mov	r1, #0
f0001d5c:	e2844001 	add	r4, r4, #1
f0001d60:	ebffffd6 	bl	f0001cc0 <DRAMC_hostport_on_off>
f0001d64:	e354001f 	cmp	r4, #31
f0001d68:	1afffff9 	bne	f0001d54 <DRAMC_enter_selfrefresh+0x8>
f0001d6c:	ebffffb1 	bl	f0001c38 <mctl_precharge_all>
f0001d70:	e59f3030 	ldr	r3, [pc, #48]	; f0001da8 <DRAMC_enter_selfrefresh+0x5c>
f0001d74:	e5932004 	ldr	r2, [r3, #4]
f0001d78:	e3c2233e 	bic	r2, r2, #-134217728	; 0xf8000000
f0001d7c:	e3822209 	orr	r2, r2, #-1879048192	; 0x90000000
f0001d80:	e5832004 	str	r2, [r3, #4]
f0001d84:	e5932004 	ldr	r2, [r3, #4]
f0001d88:	e3520000 	cmp	r2, #0
f0001d8c:	bafffffc 	blt	f0001d84 <DRAMC_enter_selfrefresh+0x38>
f0001d90:	e3a00c01 	mov	r0, #256	; 0x100
f0001d94:	ebfffec0 	bl	f000189c <standby_delay>
f0001d98:	e59f3008 	ldr	r3, [pc, #8]	; f0001da8 <DRAMC_enter_selfrefresh+0x5c>
f0001d9c:	e3a02001 	mov	r2, #1
f0001da0:	e583223c 	str	r2, [r3, #572]	; 0x23c
f0001da4:	e8bd8010 	pop	{r4, pc}
f0001da8:	f1c01000 			; <UNDEFINED> instruction: 0xf1c01000

f0001dac <DRAMC_hostport_check_ahb_fifo_status>:
f0001dac:	e350001f 	cmp	r0, #31
f0001db0:	83a00000 	movhi	r0, #0
f0001db4:	959f300c 	ldrls	r3, [pc, #12]	; f0001dc8 <DRAMC_hostport_check_ahb_fifo_status+0x1c>
f0001db8:	95933234 	ldrls	r3, [r3, #564]	; 0x234
f0001dbc:	91a00033 	lsrls	r0, r3, r0
f0001dc0:	92000001 	andls	r0, r0, #1
f0001dc4:	e12fff1e 	bx	lr
f0001dc8:	f1c01000 			; <UNDEFINED> instruction: 0xf1c01000

f0001dcc <DRAMC_hostport_setup>:
f0001dcc:	e350001f 	cmp	r0, #31
f0001dd0:	e92d4010 	push	{r4, lr}
f0001dd4:	88bd8010 	pophi	{r4, pc}
f0001dd8:	e59fc030 	ldr	ip, [pc, #48]	; f0001e10 <DRAMC_hostport_setup+0x44>
f0001ddc:	e2011003 	and	r1, r1, #3
f0001de0:	e1a02202 	lsl	r2, r2, #4
f0001de4:	e2033003 	and	r3, r3, #3
f0001de8:	e20220ff 	and	r2, r2, #255	; 0xff
f0001dec:	e79c4100 	ldr	r4, [ip, r0, lsl #2]
f0001df0:	e3c4400c 	bic	r4, r4, #12
f0001df4:	e1841101 	orr	r1, r4, r1, lsl #2
f0001df8:	e3c110f0 	bic	r1, r1, #240	; 0xf0
f0001dfc:	e1812002 	orr	r2, r1, r2
f0001e00:	e3c22cff 	bic	r2, r2, #65280	; 0xff00
f0001e04:	e1823403 	orr	r3, r2, r3, lsl #8
f0001e08:	e78c3100 	str	r3, [ip, r0, lsl #2]
f0001e0c:	e8bd8010 	pop	{r4, pc}
f0001e10:	f1c01250 			; <UNDEFINED> instruction: 0xf1c01250

f0001e14 <mctl_ahb_reset>:
f0001e14:	e92d4010 	push	{r4, lr}
f0001e18:	e3a00010 	mov	r0, #16
f0001e1c:	e59f401c 	ldr	r4, [pc, #28]	; f0001e40 <mctl_ahb_reset+0x2c>
f0001e20:	e5943060 	ldr	r3, [r4, #96]	; 0x60
f0001e24:	e3c33903 	bic	r3, r3, #49152	; 0xc000
f0001e28:	e5843060 	str	r3, [r4, #96]	; 0x60
f0001e2c:	ebfffe9a 	bl	f000189c <standby_delay>
f0001e30:	e5943060 	ldr	r3, [r4, #96]	; 0x60
f0001e34:	e3833903 	orr	r3, r3, #49152	; 0xc000
f0001e38:	e5843060 	str	r3, [r4, #96]	; 0x60
f0001e3c:	e8bd8010 	pop	{r4, pc}
f0001e40:	f1c20000 			; <UNDEFINED> instruction: 0xf1c20000

f0001e44 <DRAMC_retraining>:
f0001e44:	e59f3190 	ldr	r3, [pc, #400]	; f0001fdc <DRAMC_retraining+0x198>
f0001e48:	e92d4ff0 	push	{r4, r5, r6, r7, r8, r9, sl, fp, lr}
f0001e4c:	e24dd024 	sub	sp, sp, #36	; 0x24
f0001e50:	e5932004 	ldr	r2, [r3, #4]
f0001e54:	e58d2004 	str	r2, [sp, #4]
f0001e58:	e5932010 	ldr	r2, [r3, #16]
f0001e5c:	e593b014 	ldr	fp, [r3, #20]
f0001e60:	e5939018 	ldr	r9, [r3, #24]
f0001e64:	e58d2008 	str	r2, [sp, #8]
f0001e68:	e593a01c 	ldr	sl, [r3, #28]
f0001e6c:	e59381f0 	ldr	r8, [r3, #496]	; 0x1f0
f0001e70:	e59371f4 	ldr	r7, [r3, #500]	; 0x1f4
f0001e74:	e59361f8 	ldr	r6, [r3, #504]	; 0x1f8
f0001e78:	e59321fc 	ldr	r2, [r3, #508]	; 0x1fc
f0001e7c:	e59350a8 	ldr	r5, [r3, #168]	; 0xa8
f0001e80:	e58d200c 	str	r2, [sp, #12]
f0001e84:	e5932008 	ldr	r2, [r3, #8]
f0001e88:	e58d2010 	str	r2, [sp, #16]
f0001e8c:	e5932208 	ldr	r2, [r3, #520]	; 0x208
f0001e90:	e593120c 	ldr	r1, [r3, #524]	; 0x20c
f0001e94:	e5930210 	ldr	r0, [r3, #528]	; 0x210
f0001e98:	e7e32752 	ubfx	r2, r2, #14, #4
f0001e9c:	e593c214 	ldr	ip, [r3, #532]	; 0x214
f0001ea0:	e1a01521 	lsr	r1, r1, #10
f0001ea4:	e7e30750 	ubfx	r0, r0, #14, #4
f0001ea8:	e20110f0 	and	r1, r1, #240	; 0xf0
f0001eac:	e1811400 	orr	r1, r1, r0, lsl #8
f0001eb0:	e1a0c12c 	lsr	ip, ip, #2
f0001eb4:	e1812002 	orr	r2, r1, r2
f0001eb8:	e20cca0f 	and	ip, ip, #61440	; 0xf000
f0001ebc:	e182c00c 	orr	ip, r2, ip
f0001ec0:	e5932000 	ldr	r2, [r3]
f0001ec4:	e59330b0 	ldr	r3, [r3, #176]	; 0xb0
f0001ec8:	e58dc014 	str	ip, [sp, #20]
f0001ecc:	e58d2018 	str	r2, [sp, #24]
f0001ed0:	e58d301c 	str	r3, [sp, #28]
f0001ed4:	e59f4100 	ldr	r4, [pc, #256]	; f0001fdc <DRAMC_retraining+0x198>
f0001ed8:	ebffffcd 	bl	f0001e14 <mctl_ahb_reset>
f0001edc:	eb000059 	bl	f0002048 <mctl_set_drive>
f0001ee0:	eb000060 	bl	f0002068 <mctl_itm_disable>
f0001ee4:	eb00006c 	bl	f000209c <mctl_enable_dll0>
f0001ee8:	e59d3018 	ldr	r3, [sp, #24]
f0001eec:	e59d2004 	ldr	r2, [sp, #4]
f0001ef0:	e3a00001 	mov	r0, #1
f0001ef4:	e5843000 	str	r3, [r4]
f0001ef8:	e59d301c 	ldr	r3, [sp, #28]
f0001efc:	e5842004 	str	r2, [r4, #4]
f0001f00:	e3c324ff 	bic	r2, r3, #-16777216	; 0xff000000
f0001f04:	e20536ff 	and	r3, r5, #267386880	; 0xff00000
f0001f08:	e3c2260f 	bic	r2, r2, #15728640	; 0xf00000
f0001f0c:	e1822003 	orr	r2, r2, r3
f0001f10:	e2053202 	and	r3, r5, #536870912	; 0x20000000
f0001f14:	e3822205 	orr	r2, r2, #1342177280	; 0x50000000
f0001f18:	e1823003 	orr	r3, r2, r3
f0001f1c:	e58430a8 	str	r3, [r4, #168]	; 0xa8
f0001f20:	e59430b4 	ldr	r3, [r4, #180]	; 0xb4
f0001f24:	e1e038a3 	mvn	r3, r3, lsr #17
f0001f28:	e1e03883 	mvn	r3, r3, lsl #17
f0001f2c:	e58430b4 	str	r3, [r4, #180]	; 0xb4
f0001f30:	eb000117 	bl	f0002394 <DRAMC_clock_output_en>
f0001f34:	eb000037 	bl	f0002018 <mctl_ddr3_reset>
f0001f38:	e3a00010 	mov	r0, #16
f0001f3c:	ebfffe56 	bl	f000189c <standby_delay>
f0001f40:	e1a03004 	mov	r3, r4
f0001f44:	e5932000 	ldr	r2, [r3]
f0001f48:	e59f408c 	ldr	r4, [pc, #140]	; f0001fdc <DRAMC_retraining+0x198>
f0001f4c:	e3520000 	cmp	r2, #0
f0001f50:	bafffffb 	blt	f0001f44 <DRAMC_retraining+0x100>
f0001f54:	e59d0014 	ldr	r0, [sp, #20]
f0001f58:	eb000064 	bl	f00020f0 <mctl_enable_dllx>
f0001f5c:	e59d2010 	ldr	r2, [sp, #16]
f0001f60:	e59d3008 	ldr	r3, [sp, #8]
f0001f64:	e5842008 	str	r2, [r4, #8]
f0001f68:	e59d200c 	ldr	r2, [sp, #12]
f0001f6c:	e5843010 	str	r3, [r4, #16]
f0001f70:	e584b014 	str	fp, [r4, #20]
f0001f74:	e5849018 	str	r9, [r4, #24]
f0001f78:	e584a01c 	str	sl, [r4, #28]
f0001f7c:	e58481f0 	str	r8, [r4, #496]	; 0x1f0
f0001f80:	e58471f4 	str	r7, [r4, #500]	; 0x1f4
f0001f84:	e58461f8 	str	r6, [r4, #504]	; 0x1f8
f0001f88:	e58421fc 	str	r2, [r4, #508]	; 0x1fc
f0001f8c:	e5943000 	ldr	r3, [r4]
f0001f90:	e3833102 	orr	r3, r3, #-2147483648	; 0x80000000
f0001f94:	e5843000 	str	r3, [r4]
f0001f98:	e59f303c 	ldr	r3, [pc, #60]	; f0001fdc <DRAMC_retraining+0x198>
f0001f9c:	e5932000 	ldr	r2, [r3]
f0001fa0:	e3520000 	cmp	r2, #0
f0001fa4:	bafffffb 	blt	f0001f98 <DRAMC_retraining+0x154>
f0001fa8:	e3a02000 	mov	r2, #0
f0001fac:	e3a00801 	mov	r0, #65536	; 0x10000
f0001fb0:	e583223c 	str	r2, [r3, #572]	; 0x23c
f0001fb4:	ebfffe38 	bl	f000189c <standby_delay>
f0001fb8:	eb000031 	bl	f0002084 <mctl_itm_enable>
f0001fbc:	eb0000e7 	bl	f0002360 <DRAMC_scan_readpipe>
f0001fc0:	e1a04000 	mov	r4, r0
f0001fc4:	eb000096 	bl	f0002224 <mctl_configure_hostport>
f0001fc8:	e3540000 	cmp	r4, #0
f0001fcc:	1affffc0 	bne	f0001ed4 <DRAMC_retraining+0x90>
f0001fd0:	e1a00004 	mov	r0, r4
f0001fd4:	e28dd024 	add	sp, sp, #36	; 0x24
f0001fd8:	e8bd8ff0 	pop	{r4, r5, r6, r7, r8, r9, sl, fp, pc}
f0001fdc:	f1c01000 			; <UNDEFINED> instruction: 0xf1c01000

f0001fe0 <dram_power_save_process>:
f0001fe0:	e92d4008 	push	{r3, lr}
f0001fe4:	ebffff58 	bl	f0001d4c <DRAMC_enter_selfrefresh>
f0001fe8:	eb00001e 	bl	f0002068 <mctl_itm_disable>
f0001fec:	eb000075 	bl	f00021c8 <mctl_disable_dll>
f0001ff0:	e3a00000 	mov	r0, #0
f0001ff4:	e8bd8008 	pop	{r3, pc}

f0001ff8 <dram_power_up_process>:
f0001ff8:	eaffff91 	b	f0001e44 <DRAMC_retraining>

f0001ffc <dram_enter_selfrefresh>:
f0001ffc:	eaffff52 	b	f0001d4c <DRAMC_enter_selfrefresh>

f0002000 <dram_exit_selfrefresh>:
f0002000:	eaffff38 	b	f0001ce8 <DRAMC_exit_selfrefresh>

f0002004 <dram_enter_power_down>:
f0002004:	eaffff21 	b	f0001c90 <DRAMC_enter_power_down>

f0002008 <dram_exit_power_down>:
f0002008:	eaffff2b 	b	f0001cbc <DRAMC_exit_power_down>

f000200c <dram_hostport_on_off>:
f000200c:	eaffff2b 	b	f0001cc0 <DRAMC_hostport_on_off>

f0002010 <dram_hostport_check_ahb_fifo_status>:
f0002010:	eaffff65 	b	f0001dac <DRAMC_hostport_check_ahb_fifo_status>

f0002014 <dram_hostport_setup>:
f0002014:	eaffff6c 	b	f0001dcc <DRAMC_hostport_setup>

f0002018 <mctl_ddr3_reset>:
f0002018:	e92d4010 	push	{r4, lr}
f000201c:	e3a00c01 	mov	r0, #256	; 0x100
f0002020:	e59f401c 	ldr	r4, [pc, #28]	; f0002044 <mctl_ddr3_reset+0x2c>
f0002024:	e5943230 	ldr	r3, [r4, #560]	; 0x230
f0002028:	e3c33a01 	bic	r3, r3, #4096	; 0x1000
f000202c:	e5843230 	str	r3, [r4, #560]	; 0x230
f0002030:	ebfffe19 	bl	f000189c <standby_delay>
f0002034:	e5943230 	ldr	r3, [r4, #560]	; 0x230
f0002038:	e3833a01 	orr	r3, r3, #4096	; 0x1000
f000203c:	e5843230 	str	r3, [r4, #560]	; 0x230
f0002040:	e8bd8010 	pop	{r4, pc}
f0002044:	f1c01000 			; <UNDEFINED> instruction: 0xf1c01000

f0002048 <mctl_set_drive>:
f0002048:	e59f3014 	ldr	r3, [pc, #20]	; f0002064 <mctl_set_drive+0x1c>
f000204c:	e5932230 	ldr	r2, [r3, #560]	; 0x230
f0002050:	e3822c6f 	orr	r2, r2, #28416	; 0x6f00
f0002054:	e38220fc 	orr	r2, r2, #252	; 0xfc
f0002058:	e3c22003 	bic	r2, r2, #3
f000205c:	e5832230 	str	r2, [r3, #560]	; 0x230
f0002060:	e12fff1e 	bx	lr
f0002064:	f1c01000 			; <UNDEFINED> instruction: 0xf1c01000

f0002068 <mctl_itm_disable>:
f0002068:	e59f3010 	ldr	r3, [pc, #16]	; f0002080 <mctl_itm_disable+0x18>
f000206c:	e5932000 	ldr	r2, [r3]
f0002070:	e3822201 	orr	r2, r2, #268435456	; 0x10000000
f0002074:	e3c22102 	bic	r2, r2, #-2147483648	; 0x80000000
f0002078:	e5832000 	str	r2, [r3]
f000207c:	e12fff1e 	bx	lr
f0002080:	f1c01000 			; <UNDEFINED> instruction: 0xf1c01000

f0002084 <mctl_itm_enable>:
f0002084:	e59f300c 	ldr	r3, [pc, #12]	; f0002098 <mctl_itm_enable+0x14>
f0002088:	e5932000 	ldr	r2, [r3]
f000208c:	e3c22201 	bic	r2, r2, #268435456	; 0x10000000
f0002090:	e5832000 	str	r2, [r3]
f0002094:	e12fff1e 	bx	lr
f0002098:	f1c01000 			; <UNDEFINED> instruction: 0xf1c01000

f000209c <mctl_enable_dll0>:
f000209c:	e92d4010 	push	{r4, lr}
f00020a0:	e3a00c01 	mov	r0, #256	; 0x100
f00020a4:	e59f4040 	ldr	r4, [pc, #64]	; f00020ec <mctl_enable_dll0+0x50>
f00020a8:	e5943204 	ldr	r3, [r4, #516]	; 0x204
f00020ac:	e3c33103 	bic	r3, r3, #-1073741824	; 0xc0000000
f00020b0:	e3833102 	orr	r3, r3, #-2147483648	; 0x80000000
f00020b4:	e5843204 	str	r3, [r4, #516]	; 0x204
f00020b8:	ebfffdf7 	bl	f000189c <standby_delay>
f00020bc:	e5943204 	ldr	r3, [r4, #516]	; 0x204
f00020c0:	e3a00a01 	mov	r0, #4096	; 0x1000
f00020c4:	e3c33103 	bic	r3, r3, #-1073741824	; 0xc0000000
f00020c8:	e5843204 	str	r3, [r4, #516]	; 0x204
f00020cc:	ebfffdf2 	bl	f000189c <standby_delay>
f00020d0:	e5943204 	ldr	r3, [r4, #516]	; 0x204
f00020d4:	e3a00a01 	mov	r0, #4096	; 0x1000
f00020d8:	e3c33103 	bic	r3, r3, #-1073741824	; 0xc0000000
f00020dc:	e3833101 	orr	r3, r3, #1073741824	; 0x40000000
f00020e0:	e5843204 	str	r3, [r4, #516]	; 0x204
f00020e4:	e8bd4010 	pop	{r4, lr}
f00020e8:	eafffdeb 	b	f000189c <standby_delay>
f00020ec:	f1c01000 			; <UNDEFINED> instruction: 0xf1c01000

f00020f0 <mctl_enable_dllx>:
f00020f0:	e59f30c8 	ldr	r3, [pc, #200]	; f00021c0 <mctl_enable_dllx+0xd0>
f00020f4:	e3a02001 	mov	r2, #1
f00020f8:	e92d4010 	push	{r4, lr}
f00020fc:	e5934004 	ldr	r4, [r3, #4]
f0002100:	e7e24354 	ubfx	r4, r4, #6, #3
f0002104:	e3540003 	cmp	r4, #3
f0002108:	13a04003 	movne	r4, #3
f000210c:	03a04005 	moveq	r4, #5
f0002110:	e59f30ac 	ldr	r3, [pc, #172]	; f00021c4 <mctl_enable_dllx+0xd4>
f0002114:	e1a01102 	lsl	r1, r2, #2
f0002118:	e200c00f 	and	ip, r0, #15
f000211c:	e2822001 	add	r2, r2, #1
f0002120:	e0813003 	add	r3, r1, r3
f0002124:	e1520004 	cmp	r2, r4
f0002128:	e1a00220 	lsr	r0, r0, #4
f000212c:	e5931000 	ldr	r1, [r3]
f0002130:	e3c1190f 	bic	r1, r1, #245760	; 0x3c000
f0002134:	e181170c 	orr	r1, r1, ip, lsl #14
f0002138:	e5831000 	str	r1, [r3]
f000213c:	e5931000 	ldr	r1, [r3]
f0002140:	e3c11103 	bic	r1, r1, #-1073741824	; 0xc0000000
f0002144:	e3811102 	orr	r1, r1, #-2147483648	; 0x80000000
f0002148:	e5831000 	str	r1, [r3]
f000214c:	3affffef 	bcc	f0002110 <mctl_enable_dllx+0x20>
f0002150:	e3a00c01 	mov	r0, #256	; 0x100
f0002154:	ebfffdd0 	bl	f000189c <standby_delay>
f0002158:	e3a03001 	mov	r3, #1
f000215c:	e59f2060 	ldr	r2, [pc, #96]	; f00021c4 <mctl_enable_dllx+0xd4>
f0002160:	e1a01103 	lsl	r1, r3, #2
f0002164:	e2833001 	add	r3, r3, #1
f0002168:	e0812002 	add	r2, r1, r2
f000216c:	e1530004 	cmp	r3, r4
f0002170:	e5921000 	ldr	r1, [r2]
f0002174:	e3c11103 	bic	r1, r1, #-1073741824	; 0xc0000000
f0002178:	e5821000 	str	r1, [r2]
f000217c:	3afffff6 	bcc	f000215c <mctl_enable_dllx+0x6c>
f0002180:	e3a00a01 	mov	r0, #4096	; 0x1000
f0002184:	ebfffdc4 	bl	f000189c <standby_delay>
f0002188:	e3a03001 	mov	r3, #1
f000218c:	e59f2030 	ldr	r2, [pc, #48]	; f00021c4 <mctl_enable_dllx+0xd4>
f0002190:	e1a01103 	lsl	r1, r3, #2
f0002194:	e2833001 	add	r3, r3, #1
f0002198:	e0812002 	add	r2, r1, r2
f000219c:	e1530004 	cmp	r3, r4
f00021a0:	e5921000 	ldr	r1, [r2]
f00021a4:	e3c11103 	bic	r1, r1, #-1073741824	; 0xc0000000
f00021a8:	e3811101 	orr	r1, r1, #1073741824	; 0x40000000
f00021ac:	e5821000 	str	r1, [r2]
f00021b0:	3afffff5 	bcc	f000218c <mctl_enable_dllx+0x9c>
f00021b4:	e3a00a01 	mov	r0, #4096	; 0x1000
f00021b8:	e8bd4010 	pop	{r4, lr}
f00021bc:	eafffdb6 	b	f000189c <standby_delay>
f00021c0:	f1c01000 			; <UNDEFINED> instruction: 0xf1c01000
f00021c4:	f1c01204 			; <UNDEFINED> instruction: 0xf1c01204

f00021c8 <mctl_disable_dll>:
f00021c8:	e59f3050 	ldr	r3, [pc, #80]	; f0002220 <mctl_disable_dll+0x58>
f00021cc:	e5932204 	ldr	r2, [r3, #516]	; 0x204
f00021d0:	e3c22101 	bic	r2, r2, #1073741824	; 0x40000000
f00021d4:	e3822102 	orr	r2, r2, #-2147483648	; 0x80000000
f00021d8:	e5832204 	str	r2, [r3, #516]	; 0x204
f00021dc:	e5932208 	ldr	r2, [r3, #520]	; 0x208
f00021e0:	e3c22101 	bic	r2, r2, #1073741824	; 0x40000000
f00021e4:	e3822102 	orr	r2, r2, #-2147483648	; 0x80000000
f00021e8:	e5832208 	str	r2, [r3, #520]	; 0x208
f00021ec:	e593220c 	ldr	r2, [r3, #524]	; 0x20c
f00021f0:	e3c22101 	bic	r2, r2, #1073741824	; 0x40000000
f00021f4:	e3822102 	orr	r2, r2, #-2147483648	; 0x80000000
f00021f8:	e583220c 	str	r2, [r3, #524]	; 0x20c
f00021fc:	e5932210 	ldr	r2, [r3, #528]	; 0x210
f0002200:	e3c22101 	bic	r2, r2, #1073741824	; 0x40000000
f0002204:	e3822102 	orr	r2, r2, #-2147483648	; 0x80000000
f0002208:	e5832210 	str	r2, [r3, #528]	; 0x210
f000220c:	e5932214 	ldr	r2, [r3, #532]	; 0x214
f0002210:	e3c22101 	bic	r2, r2, #1073741824	; 0x40000000
f0002214:	e3822102 	orr	r2, r2, #-2147483648	; 0x80000000
f0002218:	e5832214 	str	r2, [r3, #532]	; 0x214
f000221c:	e12fff1e 	bx	lr
f0002220:	f1c01000 			; <UNDEFINED> instruction: 0xf1c01000

f0002224 <mctl_configure_hostport>:
f0002224:	e59f1024 	ldr	r1, [pc, #36]	; f0002250 <mctl_configure_hostport+0x2c>
f0002228:	e3a03000 	mov	r3, #0
f000222c:	e59f2020 	ldr	r2, [pc, #32]	; f0002254 <mctl_configure_hostport+0x30>
f0002230:	e1a00103 	lsl	r0, r3, #2
f0002234:	e2833001 	add	r3, r3, #1
f0002238:	e0802002 	add	r2, r0, r2
f000223c:	e5b10004 	ldr	r0, [r1, #4]!
f0002240:	e3530020 	cmp	r3, #32
f0002244:	e5820000 	str	r0, [r2]
f0002248:	1afffff7 	bne	f000222c <mctl_configure_hostport+0x8>
f000224c:	e12fff1e 	bx	lr
f0002250:	f0002748 			; <UNDEFINED> instruction: 0xf0002748
f0002254:	f1c01250 			; <UNDEFINED> instruction: 0xf1c01250

f0002258 <mctl_setup_dram_clock>:
f0002258:	e59f30f0 	ldr	r3, [pc, #240]	; f0002350 <mctl_setup_dram_clock+0xf8>
f000225c:	e3a01000 	mov	r1, #0
f0002260:	e92d41f0 	push	{r4, r5, r6, r7, r8, lr}
f0002264:	e3a0e000 	mov	lr, #0
f0002268:	e593c020 	ldr	ip, [r3, #32]
f000226c:	e3a04018 	mov	r4, #24
f0002270:	e3a05000 	mov	r5, #0
f0002274:	e3ccc033 	bic	ip, ip, #51	; 0x33
f0002278:	e38cc011 	orr	ip, ip, #17
f000227c:	e3cccc1f 	bic	ip, ip, #7936	; 0x1f00
f0002280:	ea000002 	b	f0002290 <mctl_setup_dram_clock+0x38>
f0002284:	e0944004 	adds	r4, r4, r4
f0002288:	e28ee001 	add	lr, lr, #1
f000228c:	e0a55005 	adc	r5, r5, r5
f0002290:	e35e003b 	cmp	lr, #59	; 0x3b
f0002294:	1afffffa 	bne	f0002284 <mctl_setup_dram_clock+0x2c>
f0002298:	e3a02000 	mov	r2, #0
f000229c:	e3a03000 	mov	r3, #0
f00022a0:	e1510005 	cmp	r1, r5
f00022a4:	01500004 	cmpeq	r0, r4
f00022a8:	3a000008 	bcc	f00022d0 <mctl_setup_dram_clock+0x78>
f00022ac:	e0500004 	subs	r0, r0, r4
f00022b0:	e0c11005 	sbc	r1, r1, r5
f00022b4:	e0922002 	adds	r2, r2, r2
f00022b8:	e0a33003 	adc	r3, r3, r3
f00022bc:	e3a06001 	mov	r6, #1
f00022c0:	e3a07000 	mov	r7, #0
f00022c4:	e1822006 	orr	r2, r2, r6
f00022c8:	e1833007 	orr	r3, r3, r7
f00022cc:	ea000001 	b	f00022d8 <mctl_setup_dram_clock+0x80>
f00022d0:	e0922002 	adds	r2, r2, r2
f00022d4:	e0a33003 	adc	r3, r3, r3
f00022d8:	e25ee001 	subs	lr, lr, #1
f00022dc:	4a000002 	bmi	f00022ec <mctl_setup_dram_clock+0x94>
f00022e0:	e1b050a5 	lsrs	r5, r5, #1
f00022e4:	e1a04064 	rrx	r4, r4
f00022e8:	eaffffec 	b	f00022a0 <mctl_setup_dram_clock+0x48>
f00022ec:	e202301f 	and	r3, r2, #31
f00022f0:	e59f4058 	ldr	r4, [pc, #88]	; f0002350 <mctl_setup_dram_clock+0xf8>
f00022f4:	e3a00601 	mov	r0, #1048576	; 0x100000
f00022f8:	e18c3403 	orr	r3, ip, r3, lsl #8
f00022fc:	e3c33803 	bic	r3, r3, #196608	; 0x30000
f0002300:	e3833801 	orr	r3, r3, #65536	; 0x10000
f0002304:	e3c33202 	bic	r3, r3, #536870912	; 0x20000000
f0002308:	e3833102 	orr	r3, r3, #-2147483648	; 0x80000000
f000230c:	e5843020 	str	r3, [r4, #32]
f0002310:	ebfffd61 	bl	f000189c <standby_delay>
f0002314:	e5943020 	ldr	r3, [r4, #32]
f0002318:	e3a00a01 	mov	r0, #4096	; 0x1000
f000231c:	e3833202 	orr	r3, r3, #536870912	; 0x20000000
f0002320:	e5843020 	str	r3, [r4, #32]
f0002324:	e59f3028 	ldr	r3, [pc, #40]	; f0002354 <mctl_setup_dram_clock+0xfc>
f0002328:	e584315c 	str	r3, [r4, #348]	; 0x15c
f000232c:	e5945060 	ldr	r5, [r4, #96]	; 0x60
f0002330:	e3c55903 	bic	r5, r5, #49152	; 0xc000
f0002334:	e5845060 	str	r5, [r4, #96]	; 0x60
f0002338:	ebfffd57 	bl	f000189c <standby_delay>
f000233c:	e3855903 	orr	r5, r5, #49152	; 0xc000
f0002340:	e3a00a01 	mov	r0, #4096	; 0x1000
f0002344:	e5845060 	str	r5, [r4, #96]	; 0x60
f0002348:	e8bd41f0 	pop	{r4, r5, r6, r7, r8, lr}
f000234c:	eafffd52 	b	f000189c <standby_delay>
f0002350:	f1c20000 			; <UNDEFINED> instruction: 0xf1c20000
f0002354:	82000001 	andhi	r0, r0, #1

f0002358 <DRAMC_exit>:
f0002358:	e3a00000 	mov	r0, #0
f000235c:	e12fff1e 	bx	lr

f0002360 <DRAMC_scan_readpipe>:
f0002360:	e59f3028 	ldr	r3, [pc, #40]	; f0002390 <DRAMC_scan_readpipe+0x30>
f0002364:	e5932000 	ldr	r2, [r3]
f0002368:	e3822101 	orr	r2, r2, #1073741824	; 0x40000000
f000236c:	e5832000 	str	r2, [r3]
f0002370:	e5932000 	ldr	r2, [r3]
f0002374:	e3120101 	tst	r2, #1073741824	; 0x40000000
f0002378:	1afffffc 	bne	f0002370 <DRAMC_scan_readpipe+0x10>
f000237c:	e59f300c 	ldr	r3, [pc, #12]	; f0002390 <DRAMC_scan_readpipe+0x30>
f0002380:	e593000c 	ldr	r0, [r3, #12]
f0002384:	e2100601 	ands	r0, r0, #1048576	; 0x100000
f0002388:	13e00000 	mvnne	r0, #0
f000238c:	e12fff1e 	bx	lr
f0002390:	f1c01000 			; <UNDEFINED> instruction: 0xf1c01000

f0002394 <DRAMC_clock_output_en>:
f0002394:	e59f2014 	ldr	r2, [pc, #20]	; f00023b0 <DRAMC_clock_output_en+0x1c>
f0002398:	e3500000 	cmp	r0, #0
f000239c:	e5923230 	ldr	r3, [r2, #560]	; 0x230
f00023a0:	13833801 	orrne	r3, r3, #65536	; 0x10000
f00023a4:	03c33801 	biceq	r3, r3, #65536	; 0x10000
f00023a8:	e5823230 	str	r3, [r2, #560]	; 0x230
f00023ac:	e12fff1e 	bx	lr
f00023b0:	f1c01000 			; <UNDEFINED> instruction: 0xf1c01000

f00023b4 <DRAMC_set_autorefresh_cycle>:
f00023b4:	e3013f33 	movw	r3, #7987	; 0x1f33
f00023b8:	e0030093 	mul	r3, r3, r0
f00023bc:	e1a03523 	lsr	r3, r3, #10
f00023c0:	e0833183 	add	r3, r3, r3, lsl #3
f00023c4:	e24320c8 	sub	r2, r3, #200	; 0xc8
f00023c8:	e59f3010 	ldr	r3, [pc, #16]	; f00023e0 <DRAMC_set_autorefresh_cycle+0x2c>
f00023cc:	e1a02402 	lsl	r2, r2, #8
f00023d0:	e3822302 	orr	r2, r2, #134217728	; 0x8000000
f00023d4:	e3822083 	orr	r2, r2, #131	; 0x83
f00023d8:	e5832010 	str	r2, [r3, #16]
f00023dc:	e12fff1e 	bx	lr
f00023e0:	f1c01000 			; <UNDEFINED> instruction: 0xf1c01000

f00023e4 <DRAMC_get_dram_size>:
f00023e4:	e59f3068 	ldr	r3, [pc, #104]	; f0002454 <DRAMC_get_dram_size+0x70>
f00023e8:	e5933004 	ldr	r3, [r3, #4]
f00023ec:	e7e201d3 	ubfx	r0, r3, #3, #3
f00023f0:	e3500000 	cmp	r0, #0
f00023f4:	03a00020 	moveq	r0, #32
f00023f8:	0a00000b 	beq	f000242c <DRAMC_get_dram_size+0x48>
f00023fc:	e3500001 	cmp	r0, #1
f0002400:	03a00040 	moveq	r0, #64	; 0x40
f0002404:	0a000008 	beq	f000242c <DRAMC_get_dram_size+0x48>
f0002408:	e3500002 	cmp	r0, #2
f000240c:	03a00080 	moveq	r0, #128	; 0x80
f0002410:	0a000005 	beq	f000242c <DRAMC_get_dram_size+0x48>
f0002414:	e3500003 	cmp	r0, #3
f0002418:	03a00c01 	moveq	r0, #256	; 0x100
f000241c:	0a000002 	beq	f000242c <DRAMC_get_dram_size+0x48>
f0002420:	e3500004 	cmp	r0, #4
f0002424:	13a00b01 	movne	r0, #1024	; 0x400
f0002428:	03a00c02 	moveq	r0, #512	; 0x200
f000242c:	e7e120d3 	ubfx	r2, r3, #1, #2
f0002430:	e3520001 	cmp	r2, #1
f0002434:	e7e22353 	ubfx	r2, r3, #6, #3
f0002438:	01a00080 	lsleq	r0, r0, #1
f000243c:	e3520003 	cmp	r2, #3
f0002440:	e7e13553 	ubfx	r3, r3, #10, #2
f0002444:	01a00080 	lsleq	r0, r0, #1
f0002448:	e3530001 	cmp	r3, #1
f000244c:	01a00080 	lsleq	r0, r0, #1
f0002450:	e12fff1e 	bx	lr
f0002454:	f1c01000 			; <UNDEFINED> instruction: 0xf1c01000

f0002458 <DRAMC_init>:
f0002458:	e92d41f0 	push	{r4, r5, r6, r7, r8, lr}
f000245c:	e2504000 	subs	r4, r0, #0
f0002460:	03e00000 	mvneq	r0, #0
f0002464:	08bd81f0 	popeq	{r4, r5, r6, r7, r8, pc}
f0002468:	e5940004 	ldr	r0, [r4, #4]
f000246c:	e3a05000 	mov	r5, #0
f0002470:	ebffff78 	bl	f0002258 <mctl_setup_dram_clock>
f0002474:	e59f31b4 	ldr	r3, [pc, #436]	; f0002630 <DRAMC_init+0x1d8>
f0002478:	e583523c 	str	r5, [r3, #572]	; 0x23c
f000247c:	ebfffef1 	bl	f0002048 <mctl_set_drive>
f0002480:	e1a00005 	mov	r0, r5
f0002484:	ebffffc2 	bl	f0002394 <DRAMC_clock_output_en>
f0002488:	ebfffef6 	bl	f0002068 <mctl_itm_disable>
f000248c:	ebffff02 	bl	f000209c <mctl_enable_dll0>
f0002490:	e5943008 	ldr	r3, [r4, #8]
f0002494:	e5942014 	ldr	r2, [r4, #20]
f0002498:	e2431003 	sub	r1, r3, #3
f000249c:	e2713000 	rsbs	r3, r1, #0
f00024a0:	e1a021a2 	lsr	r2, r2, #3
f00024a4:	e0a33001 	adc	r3, r3, r1
f00024a8:	e1833082 	orr	r3, r3, r2, lsl #1
f00024ac:	e5942010 	ldr	r2, [r4, #16]
f00024b0:	e3520c01 	cmp	r2, #256	; 0x100
f00024b4:	0a00000d 	beq	f00024f0 <DRAMC_init+0x98>
f00024b8:	e3520c02 	cmp	r2, #512	; 0x200
f00024bc:	03833008 	orreq	r3, r3, #8
f00024c0:	0a00000a 	beq	f00024f0 <DRAMC_init+0x98>
f00024c4:	e3520b01 	cmp	r2, #1024	; 0x400
f00024c8:	03833010 	orreq	r3, r3, #16
f00024cc:	0a000007 	beq	f00024f0 <DRAMC_init+0x98>
f00024d0:	e3520b02 	cmp	r2, #2048	; 0x800
f00024d4:	03833018 	orreq	r3, r3, #24
f00024d8:	0a000004 	beq	f00024f0 <DRAMC_init+0x98>
f00024dc:	e3520a01 	cmp	r2, #4096	; 0x1000
f00024e0:	03833020 	orreq	r3, r3, #32
f00024e4:	0a000001 	beq	f00024f0 <DRAMC_init+0x98>
f00024e8:	e3520a02 	cmp	r2, #8192	; 0x2000
f00024ec:	03833028 	orreq	r3, r3, #40	; 0x28
f00024f0:	e594100c 	ldr	r1, [r4, #12]
f00024f4:	e3a00001 	mov	r0, #1
f00024f8:	e5942018 	ldr	r2, [r4, #24]
f00024fc:	e2411001 	sub	r1, r1, #1
f0002500:	e59f6128 	ldr	r6, [pc, #296]	; f0002630 <DRAMC_init+0x1d8>
f0002504:	e1a021a2 	lsr	r2, r2, #3
f0002508:	e1a01501 	lsl	r1, r1, #10
f000250c:	e2422001 	sub	r2, r2, #1
f0002510:	e3811a03 	orr	r1, r1, #12288	; 0x3000
f0002514:	e1812302 	orr	r2, r1, r2, lsl #6
f0002518:	e1823003 	orr	r3, r2, r3
f000251c:	e5863004 	str	r3, [r6, #4]
f0002520:	e5943020 	ldr	r3, [r4, #32]
f0002524:	e20310ff 	and	r1, r3, #255	; 0xff
f0002528:	e7f32453 	ubfx	r2, r3, #8, #20
f000252c:	e203320f 	and	r3, r3, #-268435456	; 0xf0000000
f0002530:	e1822a01 	orr	r2, r2, r1, lsl #20
f0002534:	e1823003 	orr	r3, r2, r3
f0002538:	e58630a8 	str	r3, [r6, #168]	; 0xa8
f000253c:	e59650b4 	ldr	r5, [r6, #180]	; 0xb4
f0002540:	e1e058a5 	mvn	r5, r5, lsr #17
f0002544:	e1e05885 	mvn	r5, r5, lsl #17
f0002548:	e58650b4 	str	r5, [r6, #180]	; 0xb4
f000254c:	ebffff90 	bl	f0002394 <DRAMC_clock_output_en>
f0002550:	ebfffeb0 	bl	f0002018 <mctl_ddr3_reset>
f0002554:	e3a00010 	mov	r0, #16
f0002558:	ebfffccf 	bl	f000189c <standby_delay>
f000255c:	e5963000 	ldr	r3, [r6]
f0002560:	e59f70c8 	ldr	r7, [pc, #200]	; f0002630 <DRAMC_init+0x1d8>
f0002564:	e3530000 	cmp	r3, #0
f0002568:	bafffffb 	blt	f000255c <DRAMC_init+0x104>
f000256c:	e5940038 	ldr	r0, [r4, #56]	; 0x38
f0002570:	ebfffede 	bl	f00020f0 <mctl_enable_dllx>
f0002574:	e5940004 	ldr	r0, [r4, #4]
f0002578:	ebffff8d 	bl	f00023b4 <DRAMC_set_autorefresh_cycle>
f000257c:	e594302c 	ldr	r3, [r4, #44]	; 0x2c
f0002580:	e5873014 	str	r3, [r7, #20]
f0002584:	e5943030 	ldr	r3, [r4, #48]	; 0x30
f0002588:	e5873018 	str	r3, [r7, #24]
f000258c:	e5943034 	ldr	r3, [r4, #52]	; 0x34
f0002590:	e587301c 	str	r3, [r7, #28]
f0002594:	e5943008 	ldr	r3, [r4, #8]
f0002598:	e3530003 	cmp	r3, #3
f000259c:	0594501c 	ldreq	r5, [r4, #28]
f00025a0:	02455004 	subeq	r5, r5, #4
f00025a4:	01a05205 	lsleq	r5, r5, #4
f00025a8:	03855c1a 	orreq	r5, r5, #6656	; 0x1a00
f00025ac:	0a000004 	beq	f00025c4 <DRAMC_init+0x16c>
f00025b0:	e3530002 	cmp	r3, #2
f00025b4:	0594501c 	ldreq	r5, [r4, #28]
f00025b8:	01a05205 	lsleq	r5, r5, #4
f00025bc:	03855c0a 	orreq	r5, r5, #2560	; 0xa00
f00025c0:	03855002 	orreq	r5, r5, #2
f00025c4:	e59f3064 	ldr	r3, [pc, #100]	; f0002630 <DRAMC_init+0x1d8>
f00025c8:	e58351f0 	str	r5, [r3, #496]	; 0x1f0
f00025cc:	e5942044 	ldr	r2, [r4, #68]	; 0x44
f00025d0:	e58321f4 	str	r2, [r3, #500]	; 0x1f4
f00025d4:	e5942048 	ldr	r2, [r4, #72]	; 0x48
f00025d8:	e58321f8 	str	r2, [r3, #504]	; 0x1f8
f00025dc:	e594204c 	ldr	r2, [r4, #76]	; 0x4c
f00025e0:	e58321fc 	str	r2, [r3, #508]	; 0x1fc
f00025e4:	e5932000 	ldr	r2, [r3]
f00025e8:	e3822901 	orr	r2, r2, #16384	; 0x4000
f00025ec:	e3c22802 	bic	r2, r2, #131072	; 0x20000
f00025f0:	e5832000 	str	r2, [r3]
f00025f4:	e5932000 	ldr	r2, [r3]
f00025f8:	e3822102 	orr	r2, r2, #-2147483648	; 0x80000000
f00025fc:	e5832000 	str	r2, [r3]
f0002600:	e5932000 	ldr	r2, [r3]
f0002604:	e3520000 	cmp	r2, #0
f0002608:	bafffffc 	blt	f0002600 <DRAMC_init+0x1a8>
f000260c:	ebfffe9c 	bl	f0002084 <mctl_itm_enable>
f0002610:	ebffff52 	bl	f0002360 <DRAMC_scan_readpipe>
f0002614:	e3500000 	cmp	r0, #0
f0002618:	ba000002 	blt	f0002628 <DRAMC_init+0x1d0>
f000261c:	ebffff00 	bl	f0002224 <mctl_configure_hostport>
f0002620:	e8bd41f0 	pop	{r4, r5, r6, r7, r8, lr}
f0002624:	eaffff6e 	b	f00023e4 <DRAMC_get_dram_size>
f0002628:	e3a00000 	mov	r0, #0
f000262c:	e8bd81f0 	pop	{r4, r5, r6, r7, r8, pc}
f0002630:	f1c01000 			; <UNDEFINED> instruction: 0xf1c01000

f0002634 <dram_init>:
f0002634:	e3a00000 	mov	r0, #0
f0002638:	e12fff1e 	bx	lr

f000263c <dram_exit>:
f000263c:	e3a00000 	mov	r0, #0
f0002640:	e12fff1e 	bx	lr

f0002644 <dram_get_size>:
f0002644:	eaffff66 	b	f00023e4 <DRAMC_get_dram_size>

f0002648 <dram_set_clock>:
f0002648:	eaffff02 	b	f0002258 <mctl_setup_dram_clock>

f000264c <dram_set_drive>:
f000264c:	eafffe7d 	b	f0002048 <mctl_set_drive>

f0002650 <dram_set_autorefresh_cycle>:
f0002650:	eaffff57 	b	f00023b4 <DRAMC_set_autorefresh_cycle>

f0002654 <dram_scan_readpipe>:
f0002654:	eaffff41 	b	f0002360 <DRAMC_scan_readpipe>

Disassembly of section .rodata:

f0002658 <axp20_ldo4_data>:
f0002658:	000004e2 	andeq	r0, r0, r2, ror #9
f000265c:	00000514 	andeq	r0, r0, r4, lsl r5
f0002660:	00000578 	andeq	r0, r0, r8, ror r5
f0002664:	000005dc 	ldrdeq	r0, [r0], -ip
f0002668:	00000640 	andeq	r0, r0, r0, asr #12
f000266c:	000006a4 	andeq	r0, r0, r4, lsr #13
f0002670:	00000708 	andeq	r0, r0, r8, lsl #14
f0002674:	0000076c 	andeq	r0, r0, ip, ror #14
f0002678:	000007d0 	ldrdeq	r0, [r0], -r0	; <UNPREDICTABLE>
f000267c:	000009c4 	andeq	r0, r0, r4, asr #19
f0002680:	00000a8c 	andeq	r0, r0, ip, lsl #21
f0002684:	00000af0 	strdeq	r0, [r0], -r0	; <UNPREDICTABLE>
f0002688:	00000bb8 			; <UNDEFINED> instruction: 0x00000bb8
f000268c:	00000c1c 	andeq	r0, r0, ip, lsl ip
f0002690:	00000c80 	andeq	r0, r0, r0, lsl #25
f0002694:	00000ce4 	andeq	r0, r0, r4, ror #25

f0002698 <TWI_REG_BASE>:
f0002698:	f1c2ac00 			; <UNDEFINED> instruction: 0xf1c2ac00
f000269c:	f1c2b000 			; <UNDEFINED> instruction: 0xf1c2b000
f00026a0:	f1c2b400 			; <UNDEFINED> instruction: 0xf1c2b400

Disassembly of section .data:

f00026a4 <axp20_info>:
f00026a4:	00000003 	andeq	r0, r0, r3
f00026a8:	00000514 	andeq	r0, r0, r4, lsl r5
f00026ac:	00000514 	andeq	r0, r0, r4, lsl r5
	...
f00026c0:	00000004 	andeq	r0, r0, r4
f00026c4:	00000708 	andeq	r0, r0, r8, lsl #14
f00026c8:	00000ce4 	andeq	r0, r0, r4, ror #25
f00026cc:	00000064 	andeq	r0, r0, r4, rrx
f00026d0:	00000028 	andeq	r0, r0, r8, lsr #32
f00026d4:	00000004 	andeq	r0, r0, r4
f00026d8:	00000004 	andeq	r0, r0, r4
f00026dc:	00000005 	andeq	r0, r0, r5
f00026e0:	000002bc 			; <UNDEFINED> instruction: 0x000002bc
f00026e4:	00000dac 	andeq	r0, r0, ip, lsr #27
f00026e8:	00000019 	andeq	r0, r0, r9, lsl r0
f00026ec:	00000029 	andeq	r0, r0, r9, lsr #32
f00026f0:	00000000 	andeq	r0, r0, r0
f00026f4:	00000007 	andeq	r0, r0, r7
f00026f8:	00000006 	andeq	r0, r0, r6
f00026fc:	000004e2 	andeq	r0, r0, r2, ror #9
f0002700:	00000ce4 	andeq	r0, r0, r4, ror #25
f0002704:	00000064 	andeq	r0, r0, r4, rrx
f0002708:	00000028 	andeq	r0, r0, r8, lsr #32
f000270c:	00000000 	andeq	r0, r0, r0
f0002710:	00000004 	andeq	r0, r0, r4
f0002714:	00000001 	andeq	r0, r0, r1
f0002718:	000002bc 			; <UNDEFINED> instruction: 0x000002bc
f000271c:	000008e3 	andeq	r0, r0, r3, ror #17
f0002720:	00000019 	andeq	r0, r0, r9, lsl r0
f0002724:	00000023 	andeq	r0, r0, r3, lsr #32
f0002728:	00000000 	andeq	r0, r0, r0
f000272c:	00000006 	andeq	r0, r0, r6
f0002730:	00000002 	andeq	r0, r0, r2
f0002734:	000002bc 			; <UNDEFINED> instruction: 0x000002bc
f0002738:	00000dac 	andeq	r0, r0, ip, lsr #27
f000273c:	00000019 	andeq	r0, r0, r9, lsl r0
f0002740:	00000027 	andeq	r0, r0, r7, lsr #32
f0002744:	00000000 	andeq	r0, r0, r0
f0002748:	00000007 	andeq	r0, r0, r7

f000274c <hpcr_value>:
	...
f000278c:	00001031 	andeq	r1, r0, r1, lsr r0
f0002790:	00001031 	andeq	r1, r0, r1, lsr r0
f0002794:	00000735 	andeq	r0, r0, r5, lsr r7
f0002798:	00001035 	andeq	r1, r0, r5, lsr r0
f000279c:	00001035 	andeq	r1, r0, r5, lsr r0
f00027a0:	00000731 	andeq	r0, r0, r1, lsr r7
f00027a4:	00001031 	andeq	r1, r0, r1, lsr r0
f00027a8:	00000000 	andeq	r0, r0, r0
f00027ac:	00000301 	andeq	r0, r0, r1, lsl #6
f00027b0:	00000301 	andeq	r0, r0, r1, lsl #6
f00027b4:	00000301 	andeq	r0, r0, r1, lsl #6
f00027b8:	00000301 	andeq	r0, r0, r1, lsl #6
f00027bc:	00000301 	andeq	r0, r0, r1, lsl #6
f00027c0:	00000301 	andeq	r0, r0, r1, lsl #6
f00027c4:	00000301 	andeq	r0, r0, r1, lsl #6
f00027c8:	00000000 	andeq	r0, r0, r0

Disassembly of section .bss:

f00027cc <dram_traning_area_back>:
	...

f000280c <sp_backup>:
f000280c:	00000000 	andeq	r0, r0, r0

f0002810 <orig_pll>:
	...

f0002818 <local_pll>:
	...

f0002820 <dcdc2>:
f0002820:	00000000 	andeq	r0, r0, r0

f0002824 <dcdc3>:
f0002824:	00000000 	andeq	r0, r0, r0

f0002828 <clk_div>:
f0002828:	00000000 	andeq	r0, r0, r0

f000282c <tmp_clk_div>:
f000282c:	00000000 	andeq	r0, r0, r0

f0002830 <CmuReg>:
f0002830:	00000000 	andeq	r0, r0, r0

f0002834 <ccu_reg_back>:
	...

f0002850 <apbclkbak>:
f0002850:	00000000 	andeq	r0, r0, r0

f0002854 <IntcReg>:
f0002854:	00000000 	andeq	r0, r0, r0

f0002858 <IrqEnReg>:
	...

f0002864 <IrqMaskReg>:
	...

f0002870 <IrqSelReg>:
	...

f000287c <KeyReg>:
f000287c:	00000000 	andeq	r0, r0, r0

f0002880 <KeyCtrl>:
f0002880:	00000000 	andeq	r0, r0, r0

f0002884 <KeyIntc>:
f0002884:	00000000 	andeq	r0, r0, r0

f0002888 <TmrReg>:
f0002888:	00000000 	andeq	r0, r0, r0

f000288c <TmrIntCtl>:
f000288c:	00000000 	andeq	r0, r0, r0

f0002890 <Tmr0Ctl>:
f0002890:	00000000 	andeq	r0, r0, r0

f0002894 <Tmr0IntVal>:
f0002894:	00000000 	andeq	r0, r0, r0

f0002898 <Tmr0CntVal>:
f0002898:	00000000 	andeq	r0, r0, r0

f000289c <Tmr1Ctl>:
f000289c:	00000000 	andeq	r0, r0, r0

f00028a0 <Tmr1IntVal>:
f00028a0:	00000000 	andeq	r0, r0, r0

f00028a4 <Tmr1CntVal>:
f00028a4:	00000000 	andeq	r0, r0, r0

f00028a8 <twi_reg>:
f00028a8:	00000000 	andeq	r0, r0, r0

f00028ac <TwiClkRegBak>:
f00028ac:	00000000 	andeq	r0, r0, r0

f00028b0 <TwiCtlRegBak>:
f00028b0:	00000000 	andeq	r0, r0, r0

f00028b4 <backup_perf_counter_ctrl_reg>:
f00028b4:	00000000 	andeq	r0, r0, r0

f00028b8 <backup_perf_counter_enable_reg>:
f00028b8:	00000000 	andeq	r0, r0, r0

f00028bc <overhead>:
f00028bc:	00000000 	andeq	r0, r0, r0

f00028c0 <cpu_freq>:
f00028c0:	00000000 	andeq	r0, r0, r0

f00028c4 <pm_info>:
	...

f00028d8 <cpu_ms_loopcnt>:
f00028d8:	00000000 	andeq	r0, r0, r0

Disassembly of section .debug_abbrev:

00000000 <.debug_abbrev>:
       0:	25011101 	strcs	r1, [r1, #-257]	; 0xfffffeff
       4:	030b130e 	movweq	r1, #45838	; 0xb30e
       8:	110e1b0e 	tstne	lr, lr, lsl #22
       c:	10011201 	andne	r1, r1, r1, lsl #4
      10:	02000006 	andeq	r0, r0, #6
      14:	0e030113 	mcreq	1, 0, r0, cr3, cr3, {0}
      18:	0b3a0b0b 	bleq	e82c4c <__standby_start+0xe82c4c>
      1c:	13010b3b 	movwne	r0, #6971	; 0x1b3b
      20:	0d030000 	stceq	0, cr0, [r3, #-0]
      24:	3a0e0300 	bcc	380c2c <__standby_start+0x380c2c>
      28:	490b3b0b 	stmdbmi	fp, {r0, r1, r3, r8, r9, fp, ip, sp}
      2c:	000a3813 	andeq	r3, sl, r3, lsl r8
      30:	00240400 	eoreq	r0, r4, r0, lsl #8
      34:	0b3e0b0b 	bleq	f82c68 <__standby_start+0xf82c68>
      38:	00000e03 	andeq	r0, r0, r3, lsl #28
      3c:	0b002405 	bleq	9058 <__standby_start+0x9058>
      40:	030b3e0b 	movweq	r3, #48651	; 0xbe0b
      44:	06000008 	streq	r0, [r0], -r8
      48:	0e030016 	mcreq	0, 0, r0, cr3, cr6, {0}
      4c:	0b3b0b3a 	bleq	ec2d3c <__standby_start+0xec2d3c>
      50:	00001349 	andeq	r1, r0, r9, asr #6
      54:	03000d07 	movweq	r0, #3335	; 0xd07
      58:	3b0b3a0e 	blcc	2ce898 <__standby_start+0x2ce898>
      5c:	0b13490b 	bleq	4d2490 <__standby_start+0x4d2490>
      60:	0c0b0d0b 	stceq	13, cr0, [fp], {11}
      64:	000a380b 	andeq	r3, sl, fp, lsl #16
      68:	01040800 	tsteq	r4, r0, lsl #16
      6c:	0b0b0e03 	bleq	2c3880 <__standby_start+0x2c3880>
      70:	0b3b0b3a 	bleq	ec2d60 <__standby_start+0xec2d60>
      74:	00001301 	andeq	r1, r0, r1, lsl #6
      78:	03002809 	movweq	r2, #2057	; 0x809
      7c:	000d1c0e 	andeq	r1, sp, lr, lsl #24
      80:	000d0a00 	andeq	r0, sp, r0, lsl #20
      84:	0b3a0803 	bleq	e82098 <__standby_start+0xe82098>
      88:	13490b3b 	movtne	r0, #39739	; 0x9b3b
      8c:	00000a38 	andeq	r0, r0, r8, lsr sl
      90:	4901010b 	stmdbmi	r1, {r0, r1, r3, r8}
      94:	00130113 	andseq	r0, r3, r3, lsl r1
      98:	00210c00 	eoreq	r0, r1, r0, lsl #24
      9c:	0b2f1349 	bleq	bc4dc8 <__standby_start+0xbc4dc8>
      a0:	2e0d0000 	cdpcs	0, 0, cr0, cr13, cr0, {0}
      a4:	3a0e0301 	bcc	380cb0 <__standby_start+0x380cb0>
      a8:	270b3b0b 	strcs	r3, [fp, -fp, lsl #22]
      ac:	010b200c 	tsteq	fp, ip
      b0:	0e000013 	mcreq	0, 0, r0, cr0, cr3, {0}
      b4:	0c3f012e 	ldfeqs	f0, [pc], #-184	; 4 <__standby_start+0x4>
      b8:	0b3a0e03 	bleq	e838cc <__standby_start+0xe838cc>
      bc:	13490b3b 	movtne	r0, #39739	; 0x9b3b
      c0:	13010c3c 	movwne	r0, #7228	; 0x1c3c
      c4:	180f0000 	stmdane	pc, {}	; <UNPREDICTABLE>
      c8:	10000000 	andne	r0, r0, r0
      cc:	0c3f012e 	ldfeqs	f0, [pc], #-184	; 1c <__standby_start+0x1c>
      d0:	0b3a0e03 	bleq	e838e4 <__standby_start+0xe838e4>
      d4:	13490b3b 	movtne	r0, #39739	; 0x9b3b
      d8:	00000c3c 	andeq	r0, r0, ip, lsr ip
      dc:	3f012e11 	svccc	0x00012e11
      e0:	3a0e030c 	bcc	380d18 <__standby_start+0x380d18>
      e4:	270b3b0b 	strcs	r3, [fp, -fp, lsl #22]
      e8:	1113490c 	tstne	r3, ip, lsl #18
      ec:	40011201 	andmi	r1, r1, r1, lsl #4
      f0:	00130106 	andseq	r0, r3, r6, lsl #2
      f4:	00051200 	andeq	r1, r5, r0, lsl #4
      f8:	0b3a0803 	bleq	e8210c <__standby_start+0xe8210c>
      fc:	13490b3b 	movtne	r0, #39739	; 0x9b3b
     100:	00000602 	andeq	r0, r0, r2, lsl #12
     104:	03003413 	movweq	r3, #1043	; 0x413
     108:	3b0b3a0e 	blcc	2ce948 <__standby_start+0x2ce948>
     10c:	0213490b 	andseq	r4, r3, #180224	; 0x2c000
     110:	14000006 	strne	r0, [r0], #-6
     114:	0111010b 	tsteq	r1, fp, lsl #2
     118:	13010112 	movwne	r0, #4370	; 0x1112
     11c:	1d150000 	ldcne	0, cr0, [r5, #-0]
     120:	52133101 	andspl	r3, r3, #1073741824	; 0x40000000
     124:	58065501 	stmdapl	r6, {r0, r8, sl, ip, lr}
     128:	000b590b 	andeq	r5, fp, fp, lsl #18
     12c:	000b1600 	andeq	r1, fp, r0, lsl #12
     130:	00000655 	andeq	r0, r0, r5, asr r6
     134:	0b000f17 	bleq	3d98 <__standby_start+0x3d98>
     138:	0013490b 	andseq	r4, r3, fp, lsl #18
     13c:	00341800 	eorseq	r1, r4, r0, lsl #16
     140:	0b3a0e03 	bleq	e83954 <__standby_start+0xe83954>
     144:	13490b3b 	movtne	r0, #39739	; 0x9b3b
     148:	0c3c0c3f 	ldceq	12, cr0, [ip], #-252	; 0xffffff04
     14c:	34190000 	ldrcc	r0, [r9], #-0
     150:	3a0e0300 	bcc	380d58 <__standby_start+0x380d58>
     154:	490b3b0b 	stmdbmi	fp, {r0, r1, r3, r8, r9, fp, ip, sp}
     158:	000a0213 	andeq	r0, sl, r3, lsl r2
     15c:	00341a00 	eorseq	r1, r4, r0, lsl #20
     160:	0b3a0e03 	bleq	e83974 <__standby_start+0xe83974>
     164:	13490b3b 	movtne	r0, #39739	; 0x9b3b
     168:	0a020c3f 	beq	8326c <__standby_start+0x8326c>
     16c:	01000000 	tsteq	r0, r0
     170:	0e250111 	mcreq	1, 1, r0, cr5, cr1, {0}
     174:	0e030b13 	vmoveq.32	d3[0], r0
     178:	01110e1b 	tsteq	r1, fp, lsl lr
     17c:	06100112 			; <UNDEFINED> instruction: 0x06100112
     180:	24020000 	strcs	r0, [r2], #-0
     184:	3e0b0b00 	vmlacc.f64	d0, d11, d0
     188:	000e030b 	andeq	r0, lr, fp, lsl #6
     18c:	00240300 	eoreq	r0, r4, r0, lsl #6
     190:	0b3e0b0b 	bleq	f82dc4 <__standby_start+0xf82dc4>
     194:	00000803 	andeq	r0, r0, r3, lsl #16
     198:	03001604 	movweq	r1, #1540	; 0x604
     19c:	3b0b3a0e 	blcc	2ce9dc <__standby_start+0x2ce9dc>
     1a0:	0013490b 	andseq	r4, r3, fp, lsl #18
     1a4:	000f0500 	andeq	r0, pc, r0, lsl #10
     1a8:	00000b0b 	andeq	r0, r0, fp, lsl #22
     1ac:	3f012e06 	svccc	0x00012e06
     1b0:	3a0e030c 	bcc	380de8 <__standby_start+0x380de8>
     1b4:	270b3b0b 	strcs	r3, [fp, -fp, lsl #22]
     1b8:	1201110c 	andne	r1, r1, #12, 2
     1bc:	010a4001 	tsteq	sl, r1
     1c0:	07000013 	smladeq	r0, r3, r0, r0
     1c4:	0e030005 	cdpeq	0, 0, cr0, cr3, cr5, {0}
     1c8:	0b3b0b3a 	bleq	ec2eb8 <__standby_start+0xec2eb8>
     1cc:	06021349 	streq	r1, [r2], -r9, asr #6
     1d0:	05080000 	streq	r0, [r8, #-0]
     1d4:	3a080300 	bcc	200ddc <__standby_start+0x200ddc>
     1d8:	490b3b0b 	stmdbmi	fp, {r0, r1, r3, r8, r9, fp, ip, sp}
     1dc:	00060213 	andeq	r0, r6, r3, lsl r2
     1e0:	00340900 	eorseq	r0, r4, r0, lsl #18
     1e4:	0b3a0e03 	bleq	e839f8 <__standby_start+0xe839f8>
     1e8:	13490b3b 	movtne	r0, #39739	; 0x9b3b
     1ec:	00000602 	andeq	r0, r0, r2, lsl #12
     1f0:	0b000f0a 	bleq	3e20 <__standby_start+0x3e20>
     1f4:	0013490b 	andseq	r4, r3, fp, lsl #18
     1f8:	00340b00 	eorseq	r0, r4, r0, lsl #22
     1fc:	0b3a0e03 	bleq	e83a10 <__standby_start+0xe83a10>
     200:	13490b3b 	movtne	r0, #39739	; 0x9b3b
     204:	0c3c0c3f 	ldceq	12, cr0, [ip], #-252	; 0xffffff04
     208:	01000000 	tsteq	r0, r0
     20c:	06100011 			; <UNDEFINED> instruction: 0x06100011
     210:	01120111 	tsteq	r2, r1, lsl r1
     214:	081b0803 	ldmdaeq	fp, {r0, r1, fp}
     218:	05130825 	ldreq	r0, [r3, #-2085]	; 0xfffff7db
     21c:	01000000 	tsteq	r0, r0
     220:	0e250111 	mcreq	1, 1, r0, cr5, cr1, {0}
     224:	0e030b13 	vmoveq.32	d3[0], r0
     228:	01110e1b 	tsteq	r1, fp, lsl lr
     22c:	06100112 			; <UNDEFINED> instruction: 0x06100112
     230:	24020000 	strcs	r0, [r2], #-0
     234:	3e0b0b00 	vmlacc.f64	d0, d11, d0
     238:	000e030b 	andeq	r0, lr, fp, lsl #6
     23c:	00240300 	eoreq	r0, r4, r0, lsl #6
     240:	0b3e0b0b 	bleq	f82e74 <__standby_start+0xf82e74>
     244:	00000803 	andeq	r0, r0, r3, lsl #16
     248:	03001604 	movweq	r1, #1540	; 0x604
     24c:	3b0b3a0e 	blcc	2cea8c <__standby_start+0x2cea8c>
     250:	0013490b 	andseq	r4, r3, fp, lsl #18
     254:	01130500 	tsteq	r3, r0, lsl #10
     258:	0b0b0e03 	bleq	2c3a6c <__standby_start+0x2c3a6c>
     25c:	0b3b0b3a 	bleq	ec2f4c <__standby_start+0xec2f4c>
     260:	00001301 	andeq	r1, r0, r1, lsl #6
     264:	03000d06 	movweq	r0, #3334	; 0xd06
     268:	3b0b3a0e 	blcc	2ceaa8 <__standby_start+0x2ceaa8>
     26c:	0b13490b 	bleq	4d26a0 <__standby_start+0x4d26a0>
     270:	0c0b0d0b 	stceq	13, cr0, [fp], {11}
     274:	000a380b 	andeq	r3, sl, fp, lsl #16
     278:	000d0700 	andeq	r0, sp, r0, lsl #14
     27c:	0b3a0e03 	bleq	e83a90 <__standby_start+0xe83a90>
     280:	1349053b 	movtne	r0, #38203	; 0x953b
     284:	0b0d0b0b 	bleq	342eb8 <__standby_start+0x342eb8>
     288:	0a380b0c 	beq	e02ec0 <__standby_start+0xe02ec0>
     28c:	16080000 	strne	r0, [r8], -r0
     290:	3a0e0300 	bcc	380e98 <__standby_start+0x380e98>
     294:	49053b0b 	stmdbmi	r5, {r0, r1, r3, r8, r9, fp, ip, sp}
     298:	09000013 	stmdbeq	r0, {r0, r1, r4}
     29c:	0e030113 	mcreq	1, 0, r0, cr3, cr3, {0}
     2a0:	0b3a0b0b 	bleq	e82ed4 <__standby_start+0xe82ed4>
     2a4:	1301053b 	movwne	r0, #5435	; 0x153b
     2a8:	130a0000 	movwne	r0, #40960	; 0xa000
     2ac:	0b0e0301 	bleq	380eb8 <__standby_start+0x380eb8>
     2b0:	3b0b3a05 	blcc	2ceacc <__standby_start+0x2ceacc>
     2b4:	00130105 	andseq	r0, r3, r5, lsl #2
     2b8:	000d0b00 	andeq	r0, sp, r0, lsl #22
     2bc:	0b3a0e03 	bleq	e83ad0 <__standby_start+0xe83ad0>
     2c0:	1349053b 	movtne	r0, #38203	; 0x953b
     2c4:	00000a38 	andeq	r0, r0, r8, lsr sl
     2c8:	4900350c 	stmdbmi	r0, {r2, r3, r8, sl, ip, sp}
     2cc:	0d000013 	stceq	0, cr0, [r0, #-76]	; 0xffffffb4
     2d0:	13490101 	movtne	r0, #37121	; 0x9101
     2d4:	00001301 	andeq	r1, r0, r1, lsl #6
     2d8:	4900210e 	stmdbmi	r0, {r1, r2, r3, r8, sp}
     2dc:	000b2f13 	andeq	r2, fp, r3, lsl pc
     2e0:	000d0f00 	andeq	r0, sp, r0, lsl #30
     2e4:	0b3a0e03 	bleq	e83af8 <__standby_start+0xe83af8>
     2e8:	13490b3b 	movtne	r0, #39739	; 0x9b3b
     2ec:	00000a38 	andeq	r0, r0, r8, lsr sl
     2f0:	03000d10 	movweq	r0, #3344	; 0xd10
     2f4:	3b0b3a08 	blcc	2ceb1c <__standby_start+0x2ceb1c>
     2f8:	3813490b 	ldmdacc	r3, {r0, r1, r3, r8, fp, lr}
     2fc:	1100000a 	tstne	r0, sl
     300:	0c3f002e 	ldceq	0, cr0, [pc], #-184	; 250 <__standby_start+0x250>
     304:	0b3a0e03 	bleq	e83b18 <__standby_start+0xe83b18>
     308:	0c270b3b 	stceq	11, cr0, [r7], #-236	; 0xffffff14
     30c:	01111349 	tsteq	r1, r9, asr #6
     310:	0a400112 	beq	1000760 <__standby_start+0x1000760>
     314:	2e120000 	cdpcs	0, 1, cr0, cr2, cr0, {0}
     318:	030c3f00 	movweq	r3, #52992	; 0xcf00
     31c:	3b0b3a0e 	blcc	2ceb5c <__standby_start+0x2ceb5c>
     320:	490c2705 	stmdbmi	ip, {r0, r2, r8, r9, sl, sp}
     324:	12011113 	andne	r1, r1, #-1073741820	; 0xc0000004
     328:	000a4001 	andeq	r4, sl, r1
     32c:	012e1300 	teqeq	lr, r0, lsl #6
     330:	0e030c3f 	mcreq	12, 0, r0, cr3, cr15, {1}
     334:	053b0b3a 	ldreq	r0, [fp, #-2874]!	; 0xfffff4c6
     338:	13490c27 	movtne	r0, #39975	; 0x9c27
     33c:	01120111 	tsteq	r2, r1, lsl r1
     340:	13010a40 	movwne	r0, #6720	; 0x1a40
     344:	05140000 	ldreq	r0, [r4, #-0]
     348:	3a0e0300 	bcc	380f50 <__standby_start+0x380f50>
     34c:	49053b0b 	stmdbmi	r5, {r0, r1, r3, r8, r9, fp, ip, sp}
     350:	00060213 	andeq	r0, r6, r3, lsl r2
     354:	000f1500 	andeq	r1, pc, r0, lsl #10
     358:	13490b0b 	movtne	r0, #39691	; 0x9b0b
     35c:	2e160000 	cdpcs	0, 1, cr0, cr6, cr0, {0}
     360:	030c3f01 	movweq	r3, #52993	; 0xcf01
     364:	3b0b3a0e 	blcc	2ceba4 <__standby_start+0x2ceba4>
     368:	110c2705 	tstne	ip, r5, lsl #14
     36c:	40011201 	andmi	r1, r1, r1, lsl #4
     370:	0013010a 	andseq	r0, r3, sl, lsl #2
     374:	00051700 	andeq	r1, r5, r0, lsl #14
     378:	0b3a0e03 	bleq	e83b8c <__standby_start+0xe83b8c>
     37c:	1349053b 	movtne	r0, #38203	; 0x953b
     380:	00000a02 	andeq	r0, r0, r2, lsl #20
     384:	03003418 	movweq	r3, #1048	; 0x418
     388:	3b0b3a0e 	blcc	2cebc8 <__standby_start+0x2cebc8>
     38c:	3f13490b 	svccc	0x0013490b
     390:	000c3c0c 	andeq	r3, ip, ip, lsl #24
     394:	00341900 	eorseq	r1, r4, r0, lsl #18
     398:	0b3a0e03 	bleq	e83bac <__standby_start+0xe83bac>
     39c:	13490b3b 	movtne	r0, #39739	; 0x9b3b
     3a0:	00000a02 	andeq	r0, r0, r2, lsl #20
     3a4:	0300341a 	movweq	r3, #1050	; 0x41a
     3a8:	3b0b3a0e 	blcc	2cebe8 <__standby_start+0x2cebe8>
     3ac:	02134905 	andseq	r4, r3, #81920	; 0x14000
     3b0:	1b00000a 	blne	3e0 <__standby_start+0x3e0>
     3b4:	0e030034 	mcreq	0, 0, r0, cr3, cr4, {1}
     3b8:	0b3b0b3a 	bleq	ec30a8 <__standby_start+0xec30a8>
     3bc:	0c3f1349 	ldceq	3, cr1, [pc], #-292	; 2a0 <__standby_start+0x2a0>
     3c0:	00000a02 	andeq	r0, r0, r2, lsl #20
     3c4:	01110100 	tsteq	r1, r0, lsl #2
     3c8:	0b130e25 	bleq	4c3c64 <__standby_start+0x4c3c64>
     3cc:	0e1b0e03 	cdpeq	14, 1, cr0, cr11, cr3, {0}
     3d0:	01120111 	tsteq	r2, r1, lsl r1
     3d4:	00000610 	andeq	r0, r0, r0, lsl r6
     3d8:	0b002402 	bleq	93e8 <__standby_start+0x93e8>
     3dc:	030b3e0b 	movweq	r3, #48651	; 0xbe0b
     3e0:	0300000e 	movweq	r0, #14
     3e4:	0b0b0024 	bleq	2c047c <__standby_start+0x2c047c>
     3e8:	08030b3e 	stmdaeq	r3, {r1, r2, r3, r4, r5, r8, r9, fp}
     3ec:	16040000 	strne	r0, [r4], -r0
     3f0:	3a0e0300 	bcc	380ff8 <__standby_start+0x380ff8>
     3f4:	490b3b0b 	stmdbmi	fp, {r0, r1, r3, r8, r9, fp, ip, sp}
     3f8:	05000013 	streq	r0, [r0, #-19]	; 0xffffffed
     3fc:	13490035 	movtne	r0, #36917	; 0x9035
     400:	01060000 	tsteq	r6, r0
     404:	01134901 	tsteq	r3, r1, lsl #18
     408:	07000013 	smladeq	r0, r3, r0, r0
     40c:	13490021 	movtne	r0, #36897	; 0x9021
     410:	00000b2f 	andeq	r0, r0, pc, lsr #22
     414:	03010408 	movweq	r0, #5128	; 0x1408
     418:	3a0b0b0e 	bcc	2c3058 <__standby_start+0x2c3058>
     41c:	010b3b0b 	tsteq	fp, fp, lsl #22
     420:	09000013 	stmdbeq	r0, {r0, r1, r4}
     424:	0e030028 	cdpeq	0, 0, cr0, cr3, cr8, {1}
     428:	00000d1c 	andeq	r0, r0, ip, lsl sp
     42c:	0301130a 	movweq	r1, #4874	; 0x130a
     430:	3a0b0b0e 	bcc	2c3070 <__standby_start+0x2c3070>
     434:	010b3b0b 	tsteq	fp, fp, lsl #22
     438:	0b000013 	bleq	48c <__standby_start+0x48c>
     43c:	0e03000d 	cdpeq	0, 0, cr0, cr3, cr13, {0}
     440:	0b3b0b3a 	bleq	ec3130 <__standby_start+0xec3130>
     444:	0a381349 	beq	e05170 <__standby_start+0xe05170>
     448:	2e0c0000 	cdpcs	0, 0, cr0, cr12, cr0, {0}
     44c:	030c3f00 	movweq	r3, #52992	; 0xcf00
     450:	3b0b3a0e 	blcc	2cec90 <__standby_start+0x2cec90>
     454:	490c270b 	stmdbmi	ip, {r0, r1, r3, r8, r9, sl, sp}
     458:	12011113 	andne	r1, r1, #-1073741820	; 0xc0000004
     45c:	000a4001 	andeq	r4, sl, r1
     460:	012e0d00 	teqeq	lr, r0, lsl #26
     464:	0e030c3f 	mcreq	12, 0, r0, cr3, cr15, {1}
     468:	0b3b0b3a 	bleq	ec3158 <__standby_start+0xec3158>
     46c:	13490c27 	movtne	r0, #39975	; 0x9c27
     470:	01120111 	tsteq	r2, r1, lsl r1
     474:	13010640 	movwne	r0, #5696	; 0x1640
     478:	050e0000 	streq	r0, [lr, #-0]
     47c:	3a080300 	bcc	201084 <__standby_start+0x201084>
     480:	490b3b0b 	stmdbmi	fp, {r0, r1, r3, r8, r9, fp, ip, sp}
     484:	00060213 	andeq	r0, r6, r3, lsl r2
     488:	00340f00 	eorseq	r0, r4, r0, lsl #30
     48c:	0b3a0e03 	bleq	e83ca0 <__standby_start+0xe83ca0>
     490:	13490b3b 	movtne	r0, #39739	; 0x9b3b
     494:	00000602 	andeq	r0, r0, r2, lsl #12
     498:	3f012e10 	svccc	0x00012e10
     49c:	3a0e030c 	bcc	3810d4 <__standby_start+0x3810d4>
     4a0:	270b3b0b 	strcs	r3, [fp, -fp, lsl #22]
     4a4:	1113490c 	tstne	r3, ip, lsl #18
     4a8:	40011201 	andmi	r1, r1, r1, lsl #4
     4ac:	0013010a 	andseq	r0, r3, sl, lsl #2
     4b0:	00341100 	eorseq	r1, r4, r0, lsl #2
     4b4:	0b3a0e03 	bleq	e83cc8 <__standby_start+0xe83cc8>
     4b8:	13490b3b 	movtne	r0, #39739	; 0x9b3b
     4bc:	00000a02 	andeq	r0, r0, r2, lsl #20
     4c0:	0b000f12 	bleq	4110 <__standby_start+0x4110>
     4c4:	0013490b 	andseq	r4, r3, fp, lsl #18
     4c8:	11010000 	tstne	r1, r0
     4cc:	130e2501 	movwne	r2, #58625	; 0xe501
     4d0:	1b0e030b 	blne	381104 <__standby_start+0x381104>
     4d4:	1201110e 	andne	r1, r1, #-2147483645	; 0x80000003
     4d8:	00061001 	andeq	r1, r6, r1
     4dc:	00240200 	eoreq	r0, r4, r0, lsl #4
     4e0:	0b3e0b0b 	bleq	f83114 <__standby_start+0xf83114>
     4e4:	00000e03 	andeq	r0, r0, r3, lsl #28
     4e8:	0b002403 	bleq	94fc <__standby_start+0x94fc>
     4ec:	030b3e0b 	movweq	r3, #48651	; 0xbe0b
     4f0:	04000008 	streq	r0, [r0], #-8
     4f4:	0e030016 	mcreq	0, 0, r0, cr3, cr6, {0}
     4f8:	0b3b0b3a 	bleq	ec31e8 <__standby_start+0xec31e8>
     4fc:	00001349 	andeq	r1, r0, r9, asr #6
     500:	3f002e05 	svccc	0x00002e05
     504:	3a0e030c 	bcc	38113c <__standby_start+0x38113c>
     508:	270b3b0b 	strcs	r3, [fp, -fp, lsl #22]
     50c:	1113490c 	tstne	r3, ip, lsl #18
     510:	40011201 	andmi	r1, r1, r1, lsl #4
     514:	0000000a 	andeq	r0, r0, sl
     518:	25011101 	strcs	r1, [r1, #-257]	; 0xfffffeff
     51c:	030b130e 	movweq	r1, #45838	; 0xb30e
     520:	110e1b0e 	tstne	lr, lr, lsl #22
     524:	10011201 	andne	r1, r1, r1, lsl #4
     528:	02000006 	andeq	r0, r0, #6
     52c:	0b0b0024 	bleq	2c05c4 <__standby_start+0x2c05c4>
     530:	0e030b3e 	vmoveq.16	d3[0], r0
     534:	24030000 	strcs	r0, [r3], #-0
     538:	3e0b0b00 	vmlacc.f64	d0, d11, d0
     53c:	0008030b 	andeq	r0, r8, fp, lsl #6
     540:	00160400 	andseq	r0, r6, r0, lsl #8
     544:	0b3a0e03 	bleq	e83d58 <__standby_start+0xe83d58>
     548:	13490b3b 	movtne	r0, #39739	; 0x9b3b
     54c:	35050000 	strcc	r0, [r5, #-0]
     550:	00134900 	andseq	r4, r3, r0, lsl #18
     554:	01130600 	tsteq	r3, r0, lsl #12
     558:	0b0b0e03 	bleq	2c3d6c <__standby_start+0x2c3d6c>
     55c:	0b3b0b3a 	bleq	ec324c <__standby_start+0xec324c>
     560:	00001301 	andeq	r1, r0, r1, lsl #6
     564:	03000d07 	movweq	r0, #3335	; 0xd07
     568:	3b0b3a0e 	blcc	2ceda8 <__standby_start+0x2ceda8>
     56c:	3813490b 	ldmdacc	r3, {r0, r1, r3, r8, fp, lr}
     570:	0800000a 	stmdaeq	r0, {r1, r3}
     574:	0c3f002e 	ldceq	0, cr0, [pc], #-184	; 4c4 <__standby_start+0x4c4>
     578:	0b3a0e03 	bleq	e83d8c <__standby_start+0xe83d8c>
     57c:	0c270b3b 	stceq	11, cr0, [r7], #-236	; 0xffffff14
     580:	01111349 	tsteq	r1, r9, asr #6
     584:	06400112 			; <UNDEFINED> instruction: 0x06400112
     588:	2e090000 	cdpcs	0, 0, cr0, cr9, cr0, {0}
     58c:	030c3f00 	movweq	r3, #52992	; 0xcf00
     590:	3b0b3a0e 	blcc	2cedd0 <__standby_start+0x2cedd0>
     594:	490c270b 	stmdbmi	ip, {r0, r1, r3, r8, r9, sl, sp}
     598:	12011113 	andne	r1, r1, #-1073741820	; 0xc0000004
     59c:	000a4001 	andeq	r4, sl, r1
     5a0:	00340a00 	eorseq	r0, r4, r0, lsl #20
     5a4:	0b3a0e03 	bleq	e83db8 <__standby_start+0xe83db8>
     5a8:	13490b3b 	movtne	r0, #39739	; 0x9b3b
     5ac:	00000a02 	andeq	r0, r0, r2, lsl #20
     5b0:	0b000f0b 	bleq	41e4 <__standby_start+0x41e4>
     5b4:	0013490b 	andseq	r4, r3, fp, lsl #18
     5b8:	00340c00 	eorseq	r0, r4, r0, lsl #24
     5bc:	0b3a0e03 	bleq	e83dd0 <__standby_start+0xe83dd0>
     5c0:	13490b3b 	movtne	r0, #39739	; 0x9b3b
     5c4:	01000000 	tsteq	r0, r0
     5c8:	0e250111 	mcreq	1, 1, r0, cr5, cr1, {0}
     5cc:	0e030b13 	vmoveq.32	d3[0], r0
     5d0:	01110e1b 	tsteq	r1, fp, lsl lr
     5d4:	06100112 			; <UNDEFINED> instruction: 0x06100112
     5d8:	24020000 	strcs	r0, [r2], #-0
     5dc:	3e0b0b00 	vmlacc.f64	d0, d11, d0
     5e0:	000e030b 	andeq	r0, lr, fp, lsl #6
     5e4:	00240300 	eoreq	r0, r4, r0, lsl #6
     5e8:	0b3e0b0b 	bleq	f8321c <__standby_start+0xf8321c>
     5ec:	00000803 	andeq	r0, r0, r3, lsl #16
     5f0:	03001604 	movweq	r1, #1540	; 0x604
     5f4:	3b0b3a0e 	blcc	2cee34 <__standby_start+0x2cee34>
     5f8:	0013490b 	andseq	r4, r3, fp, lsl #18
     5fc:	01040500 	tsteq	r4, r0, lsl #10
     600:	0b0b0e03 	bleq	2c3e14 <__standby_start+0x2c3e14>
     604:	0b3b0b3a 	bleq	ec32f4 <__standby_start+0xec32f4>
     608:	00001301 	andeq	r1, r0, r1, lsl #6
     60c:	03002806 	movweq	r2, #2054	; 0x806
     610:	000d1c0e 	andeq	r1, sp, lr, lsl #24
     614:	01130700 	tsteq	r3, r0, lsl #14
     618:	0b0b0e03 	bleq	2c3e2c <__standby_start+0x2c3e2c>
     61c:	0b3b0b3a 	bleq	ec330c <__standby_start+0xec330c>
     620:	00001301 	andeq	r1, r0, r1, lsl #6
     624:	03000d08 	movweq	r0, #3336	; 0xd08
     628:	3b0b3a08 	blcc	2cee50 <__standby_start+0x2cee50>
     62c:	3813490b 	ldmdacc	r3, {r0, r1, r3, r8, fp, lr}
     630:	0900000a 	stmdbeq	r0, {r1, r3}
     634:	0e03000d 	cdpeq	0, 0, cr0, cr3, cr13, {0}
     638:	0b3b0b3a 	bleq	ec3328 <__standby_start+0xec3328>
     63c:	0a381349 	beq	e05368 <__standby_start+0xe05368>
     640:	2e0a0000 	cdpcs	0, 0, cr0, cr10, cr0, {0}
     644:	3a0e0301 	bcc	381250 <__standby_start+0x381250>
     648:	270b3b0b 	strcs	r3, [fp, -fp, lsl #22]
     64c:	1113490c 	tstne	r3, ip, lsl #18
     650:	40011201 	andmi	r1, r1, r1, lsl #4
     654:	0013010a 	andseq	r0, r3, sl, lsl #2
     658:	00050b00 	andeq	r0, r5, r0, lsl #22
     65c:	0b3a0e03 	bleq	e83e70 <__standby_start+0xe83e70>
     660:	13490b3b 	movtne	r0, #39739	; 0x9b3b
     664:	00000602 	andeq	r0, r0, r2, lsl #12
     668:	0300340c 	movweq	r3, #1036	; 0x40c
     66c:	3b0b3a0e 	blcc	2ceeac <__standby_start+0x2ceeac>
     670:	0213490b 	andseq	r4, r3, #180224	; 0x2c000
     674:	0d000006 	stceq	0, cr0, [r0, #-24]	; 0xffffffe8
     678:	08030005 	stmdaeq	r3, {r0, r2}
     67c:	0b3b0b3a 	bleq	ec336c <__standby_start+0xec336c>
     680:	06021349 	streq	r1, [r2], -r9, asr #6
     684:	340e0000 	strcc	r0, [lr], #-0
     688:	3a080300 	bcc	201290 <__standby_start+0x201290>
     68c:	490b3b0b 	stmdbmi	fp, {r0, r1, r3, r8, r9, fp, ip, sp}
     690:	00060213 	andeq	r0, r6, r3, lsl r2
     694:	000f0f00 	andeq	r0, pc, r0, lsl #30
     698:	13490b0b 	movtne	r0, #39691	; 0x9b0b
     69c:	2e100000 	cdpcs	0, 1, cr0, cr0, cr0, {0}
     6a0:	030c3f01 	movweq	r3, #52993	; 0xcf01
     6a4:	3b0b3a0e 	blcc	2ceee4 <__standby_start+0x2ceee4>
     6a8:	490c270b 	stmdbmi	ip, {r0, r1, r3, r8, r9, sl, sp}
     6ac:	12011113 	andne	r1, r1, #-1073741820	; 0xc0000004
     6b0:	01064001 	tsteq	r6, r1
     6b4:	11000013 	tstne	r0, r3, lsl r0
     6b8:	0e03012e 	adfeqsp	f0, f3, #0.5
     6bc:	0b3b0b3a 	bleq	ec33ac <__standby_start+0xec33ac>
     6c0:	13490c27 	movtne	r0, #39975	; 0x9c27
     6c4:	13010b20 	movwne	r0, #6944	; 0x1b20
     6c8:	05120000 	ldreq	r0, [r2, #-0]
     6cc:	3a0e0300 	bcc	3812d4 <__standby_start+0x3812d4>
     6d0:	490b3b0b 	stmdbmi	fp, {r0, r1, r3, r8, r9, fp, ip, sp}
     6d4:	13000013 	movwne	r0, #19
     6d8:	0c3f012e 	ldfeqs	f0, [pc], #-184	; 628 <__standby_start+0x628>
     6dc:	0b3a0e03 	bleq	e83ef0 <__standby_start+0xe83ef0>
     6e0:	0c270b3b 	stceq	11, cr0, [r7], #-236	; 0xffffff14
     6e4:	01120111 	tsteq	r2, r1, lsl r1
     6e8:	13010640 	movwne	r0, #5696	; 0x1640
     6ec:	1d140000 	ldcne	0, cr0, [r4, #-0]
     6f0:	11133101 	tstne	r3, r1, lsl #2
     6f4:	58011201 	stmdapl	r1, {r0, r9, ip}
     6f8:	000b590b 	andeq	r5, fp, fp, lsl #18
     6fc:	00051500 	andeq	r1, r5, r0, lsl #10
     700:	06021331 			; <UNDEFINED> instruction: 0x06021331
     704:	2e160000 	cdpcs	0, 1, cr0, cr6, cr0, {0}
     708:	030c3f01 	movweq	r3, #52993	; 0xcf01
     70c:	3b0b3a0e 	blcc	2cef4c <__standby_start+0x2cef4c>
     710:	490c2705 	stmdbmi	ip, {r0, r2, r8, r9, sl, sp}
     714:	12011113 	andne	r1, r1, #-1073741820	; 0xc0000004
     718:	01064001 	tsteq	r6, r1
     71c:	17000013 	smladne	r0, r3, r0, r0
     720:	0e030005 	cdpeq	0, 0, cr0, cr3, cr5, {0}
     724:	053b0b3a 	ldreq	r0, [fp, #-2874]!	; 0xfffff4c6
     728:	06021349 	streq	r1, [r2], -r9, asr #6
     72c:	34180000 	ldrcc	r0, [r8], #-0
     730:	3a0e0300 	bcc	381338 <__standby_start+0x381338>
     734:	49053b0b 	stmdbmi	r5, {r0, r1, r3, r8, r9, fp, ip, sp}
     738:	00060213 	andeq	r0, r6, r3, lsl r2
     73c:	00341900 	eorseq	r1, r4, r0, lsl #18
     740:	0b3a0803 	bleq	e82754 <__standby_start+0xe82754>
     744:	1349053b 	movtne	r0, #38203	; 0x953b
     748:	00000602 	andeq	r0, r0, r2, lsl #12
     74c:	0300341a 	movweq	r3, #1050	; 0x41a
     750:	3b0b3a0e 	blcc	2cef90 <__standby_start+0x2cef90>
     754:	00134905 	andseq	r4, r3, r5, lsl #18
     758:	01011b00 	tsteq	r1, r0, lsl #22
     75c:	13011349 	movwne	r1, #4937	; 0x1349
     760:	211c0000 	tstcs	ip, r0
     764:	2f134900 	svccs	0x00134900
     768:	1d00000b 	stcne	0, cr0, [r0, #-44]	; 0xffffffd4
     76c:	0e030034 	mcreq	0, 0, r0, cr3, cr4, {1}
     770:	0b3b0b3a 	bleq	ec3460 <__standby_start+0xec3460>
     774:	0a021349 	beq	854a0 <__standby_start+0x854a0>
     778:	261e0000 	ldrcs	r0, [lr], -r0
     77c:	00134900 	andseq	r4, r3, r0, lsl #18
     780:	11010000 	tstne	r1, r0
     784:	130e2501 	movwne	r2, #58625	; 0xe501
     788:	1b0e030b 	blne	3813bc <__standby_start+0x3813bc>
     78c:	1201110e 	andne	r1, r1, #-2147483645	; 0x80000003
     790:	00061001 	andeq	r1, r6, r1
     794:	00240200 	eoreq	r0, r4, r0, lsl #4
     798:	0b3e0b0b 	bleq	f833cc <__standby_start+0xf833cc>
     79c:	00000e03 	andeq	r0, r0, r3, lsl #28
     7a0:	0b002403 	bleq	97b4 <__standby_start+0x97b4>
     7a4:	030b3e0b 	movweq	r3, #48651	; 0xbe0b
     7a8:	04000008 	streq	r0, [r0], #-8
     7ac:	0e030016 	mcreq	0, 0, r0, cr3, cr6, {0}
     7b0:	0b3b0b3a 	bleq	ec34a0 <__standby_start+0xec34a0>
     7b4:	00001349 	andeq	r1, r0, r9, asr #6
     7b8:	49003505 	stmdbmi	r0, {r0, r2, r8, sl, ip, sp}
     7bc:	06000013 			; <UNDEFINED> instruction: 0x06000013
     7c0:	13490101 	movtne	r0, #37121	; 0x9101
     7c4:	00001301 	andeq	r1, r0, r1, lsl #6
     7c8:	49002107 	stmdbmi	r0, {r0, r1, r2, r8, sp}
     7cc:	000b2f13 	andeq	r2, fp, r3, lsl pc
     7d0:	01130800 	tsteq	r3, r0, lsl #16
     7d4:	050b0e03 	streq	r0, [fp, #-3587]	; 0xfffff1fd
     7d8:	0b3b0b3a 	bleq	ec34c8 <__standby_start+0xec34c8>
     7dc:	00001301 	andeq	r1, r0, r1, lsl #6
     7e0:	03000d09 	movweq	r0, #3337	; 0xd09
     7e4:	3b0b3a0e 	blcc	2cf024 <__standby_start+0x2cf024>
     7e8:	3813490b 	ldmdacc	r3, {r0, r1, r3, r8, fp, lr}
     7ec:	0a00000a 	beq	81c <__standby_start+0x81c>
     7f0:	0e030104 	adfeqs	f0, f3, f4
     7f4:	0b3a0b0b 	bleq	e83428 <__standby_start+0xe83428>
     7f8:	13010b3b 	movwne	r0, #6971	; 0x1b3b
     7fc:	280b0000 	stmdacs	fp, {}	; <UNPREDICTABLE>
     800:	1c0e0300 	stcne	3, cr0, [lr], {-0}
     804:	0c00000d 	stceq	0, cr0, [r0], {13}
     808:	0c3f012e 	ldfeqs	f0, [pc], #-184	; 758 <__standby_start+0x758>
     80c:	0b3a0e03 	bleq	e84020 <__standby_start+0xe84020>
     810:	0c270b3b 	stceq	11, cr0, [r7], #-236	; 0xffffff14
     814:	01111349 	tsteq	r1, r9, asr #6
     818:	06400112 			; <UNDEFINED> instruction: 0x06400112
     81c:	00001301 	andeq	r1, r0, r1, lsl #6
     820:	0300340d 	movweq	r3, #1037	; 0x40d
     824:	3b0b3a08 	blcc	2cf04c <__standby_start+0x2cf04c>
     828:	0013490b 	andseq	r4, r3, fp, lsl #18
     82c:	012e0e00 	teqeq	lr, r0, lsl #28
     830:	0e030c3f 	mcreq	12, 0, r0, cr3, cr15, {1}
     834:	0b3b0b3a 	bleq	ec3524 <__standby_start+0xec3524>
     838:	13490c27 	movtne	r0, #39975	; 0x9c27
     83c:	01120111 	tsteq	r2, r1, lsl r1
     840:	13010a40 	movwne	r0, #6720	; 0x1a40
     844:	050f0000 	streq	r0, [pc, #-0]	; 84c <__standby_start+0x84c>
     848:	3a0e0300 	bcc	381450 <__standby_start+0x381450>
     84c:	490b3b0b 	stmdbmi	fp, {r0, r1, r3, r8, r9, fp, ip, sp}
     850:	00060213 	andeq	r0, r6, r3, lsl r2
     854:	002e1000 	eoreq	r1, lr, r0
     858:	0e030c3f 	mcreq	12, 0, r0, cr3, cr15, {1}
     85c:	0b3b0b3a 	bleq	ec354c <__standby_start+0xec354c>
     860:	01110c27 	tsteq	r1, r7, lsr #24
     864:	0a400112 	beq	1000cb4 <__standby_start+0x1000cb4>
     868:	34110000 	ldrcc	r0, [r1], #-0
     86c:	3a0e0300 	bcc	381474 <__standby_start+0x381474>
     870:	490b3b0b 	stmdbmi	fp, {r0, r1, r3, r8, r9, fp, ip, sp}
     874:	12000013 	andne	r0, r0, #19
     878:	0c3f012e 	ldfeqs	f0, [pc], #-184	; 7c8 <__standby_start+0x7c8>
     87c:	0b3a0e03 	bleq	e84090 <__standby_start+0xe84090>
     880:	0c270b3b 	stceq	11, cr0, [r7], #-236	; 0xffffff14
     884:	01120111 	tsteq	r2, r1, lsl r1
     888:	13010640 	movwne	r0, #5696	; 0x1640
     88c:	05130000 	ldreq	r0, [r3, #-0]
     890:	3a080300 	bcc	201498 <__standby_start+0x201498>
     894:	490b3b0b 	stmdbmi	fp, {r0, r1, r3, r8, r9, fp, ip, sp}
     898:	00060213 	andeq	r0, r6, r3, lsl r2
     89c:	00341400 	eorseq	r1, r4, r0, lsl #8
     8a0:	0b3a0e03 	bleq	e840b4 <__standby_start+0xe840b4>
     8a4:	13490b3b 	movtne	r0, #39739	; 0x9b3b
     8a8:	00000a02 	andeq	r0, r0, r2, lsl #20
     8ac:	0b000f15 	bleq	4508 <__standby_start+0x4508>
     8b0:	0013490b 	andseq	r4, r3, fp, lsl #18
     8b4:	11010000 	tstne	r1, r0
     8b8:	130e2501 	movwne	r2, #58625	; 0xe501
     8bc:	1b0e030b 	blne	3814f0 <__standby_start+0x3814f0>
     8c0:	1201110e 	andne	r1, r1, #-2147483645	; 0x80000003
     8c4:	00061001 	andeq	r1, r6, r1
     8c8:	00240200 	eoreq	r0, r4, r0, lsl #4
     8cc:	0b3e0b0b 	bleq	f83500 <__standby_start+0xf83500>
     8d0:	00000e03 	andeq	r0, r0, r3, lsl #28
     8d4:	0b002403 	bleq	98e8 <__standby_start+0x98e8>
     8d8:	030b3e0b 	movweq	r3, #48651	; 0xbe0b
     8dc:	04000008 	streq	r0, [r0], #-8
     8e0:	0e030016 	mcreq	0, 0, r0, cr3, cr6, {0}
     8e4:	0b3b0b3a 	bleq	ec35d4 <__standby_start+0xec35d4>
     8e8:	00001349 	andeq	r1, r0, r9, asr #6
     8ec:	03011305 	movweq	r1, #4869	; 0x1305
     8f0:	3a0b0b0e 	bcc	2c3530 <__standby_start+0x2c3530>
     8f4:	010b3b0b 	tsteq	fp, fp, lsl #22
     8f8:	06000013 			; <UNDEFINED> instruction: 0x06000013
     8fc:	0e03000d 	cdpeq	0, 0, cr0, cr3, cr13, {0}
     900:	0b3b0b3a 	bleq	ec35f0 <__standby_start+0xec35f0>
     904:	0a381349 	beq	e05630 <__standby_start+0xe05630>
     908:	35070000 	strcc	r0, [r7, #-0]
     90c:	00134900 	andseq	r4, r3, r0, lsl #18
     910:	01040800 	tsteq	r4, r0, lsl #16
     914:	0b0b0e03 	bleq	2c4128 <__standby_start+0x2c4128>
     918:	0b3b0b3a 	bleq	ec3608 <__standby_start+0xec3608>
     91c:	00001301 	andeq	r1, r0, r1, lsl #6
     920:	03002809 	movweq	r2, #2057	; 0x809
     924:	000d1c0e 	andeq	r1, sp, lr, lsl #24
     928:	012e0a00 	teqeq	lr, r0, lsl #20
     92c:	0e030c3f 	mcreq	12, 0, r0, cr3, cr15, {1}
     930:	0b3b0b3a 	bleq	ec3620 <__standby_start+0xec3620>
     934:	13490c27 	movtne	r0, #39975	; 0x9c27
     938:	01120111 	tsteq	r2, r1, lsl r1
     93c:	13010a40 	movwne	r0, #6720	; 0x1a40
     940:	050b0000 	streq	r0, [fp, #-0]
     944:	3a0e0300 	bcc	38154c <__standby_start+0x38154c>
     948:	490b3b0b 	stmdbmi	fp, {r0, r1, r3, r8, r9, fp, ip, sp}
     94c:	00060213 	andeq	r0, r6, r3, lsl r2
     950:	002e0c00 	eoreq	r0, lr, r0, lsl #24
     954:	0e030c3f 	mcreq	12, 0, r0, cr3, cr15, {1}
     958:	0b3b0b3a 	bleq	ec3648 <__standby_start+0xec3648>
     95c:	13490c27 	movtne	r0, #39975	; 0x9c27
     960:	01120111 	tsteq	r2, r1, lsl r1
     964:	00000640 	andeq	r0, r0, r0, asr #12
     968:	03012e0d 	movweq	r2, #7693	; 0x1e0d
     96c:	3b0b3a0e 	blcc	2cf1ac <__standby_start+0x2cf1ac>
     970:	490c270b 	stmdbmi	ip, {r0, r1, r3, r8, r9, sl, sp}
     974:	010b2013 	tsteq	fp, r3, lsl r0
     978:	0e000013 	mcreq	0, 0, r0, cr0, cr3, {0}
     97c:	0e030034 	mcreq	0, 0, r0, cr3, cr4, {1}
     980:	0b3b0b3a 	bleq	ec3670 <__standby_start+0xec3670>
     984:	00001349 	andeq	r1, r0, r9, asr #6
     988:	3f012e0f 	svccc	0x00012e0f
     98c:	3a0e030c 	bcc	3815c4 <__standby_start+0x3815c4>
     990:	270b3b0b 	strcs	r3, [fp, -fp, lsl #22]
     994:	1113490c 	tstne	r3, ip, lsl #18
     998:	40011201 	andmi	r1, r1, r1, lsl #4
     99c:	00130106 	andseq	r0, r3, r6, lsl #2
     9a0:	00051000 	andeq	r1, r5, r0
     9a4:	0b3a0803 	bleq	e829b8 <__standby_start+0xe829b8>
     9a8:	13490b3b 	movtne	r0, #39739	; 0x9b3b
     9ac:	00000602 	andeq	r0, r0, r2, lsl #12
     9b0:	03003411 	movweq	r3, #1041	; 0x411
     9b4:	3b0b3a0e 	blcc	2cf1f4 <__standby_start+0x2cf1f4>
     9b8:	0213490b 	andseq	r4, r3, #180224	; 0x2c000
     9bc:	12000006 	andne	r0, r0, #6
     9c0:	08030034 	stmdaeq	r3, {r2, r4, r5}
     9c4:	0b3b0b3a 	bleq	ec36b4 <__standby_start+0xec36b4>
     9c8:	06021349 	streq	r1, [r2], -r9, asr #6
     9cc:	0a130000 	beq	4c09d4 <__standby_start+0x4c09d4>
     9d0:	3a0e0300 	bcc	3815d8 <__standby_start+0x3815d8>
     9d4:	11053b0b 	tstne	r5, fp, lsl #22
     9d8:	14000001 	strne	r0, [r0], #-1
     9dc:	1331011d 	teqne	r1, #1073741831	; 0x40000007
     9e0:	01120111 	tsteq	r2, r1, lsl r1
     9e4:	05590b58 	ldrbeq	r0, [r9, #-2904]	; 0xfffff4a8
     9e8:	0b150000 	bleq	5409f0 <__standby_start+0x5409f0>
     9ec:	12011101 	andne	r1, r1, #1073741824	; 0x40000000
     9f0:	16000001 	strne	r0, [r0], -r1
     9f4:	13310034 	teqne	r1, #52	; 0x34
     9f8:	34170000 	ldrcc	r0, [r7], #-0
     9fc:	02133100 	andseq	r3, r3, #0, 2
     a00:	18000006 	stmdane	r0, {r1, r2}
     a04:	0b0b000f 	bleq	2c0a48 <__standby_start+0x2c0a48>
     a08:	00001349 	andeq	r1, r0, r9, asr #6
     a0c:	49010119 	stmdbmi	r1, {r0, r3, r4, r8}
     a10:	00130113 	andseq	r0, r3, r3, lsl r1
     a14:	00211a00 	eoreq	r1, r1, r0, lsl #20
     a18:	0b2f1349 	bleq	bc5744 <__standby_start+0xbc5744>
     a1c:	341b0000 	ldrcc	r0, [fp], #-0
     a20:	3a0e0300 	bcc	381628 <__standby_start+0x381628>
     a24:	490b3b0b 	stmdbmi	fp, {r0, r1, r3, r8, r9, fp, ip, sp}
     a28:	000a0213 	andeq	r0, sl, r3, lsl r2
     a2c:	00261c00 	eoreq	r1, r6, r0, lsl #24
     a30:	00001349 	andeq	r1, r0, r9, asr #6
     a34:	01110100 	tsteq	r1, r0, lsl #2
     a38:	0b130e25 	bleq	4c42d4 <__standby_start+0x4c42d4>
     a3c:	0e1b0e03 	cdpeq	14, 1, cr0, cr11, cr3, {0}
     a40:	01120111 	tsteq	r2, r1, lsl r1
     a44:	00000610 	andeq	r0, r0, r0, lsl r6
     a48:	0b002402 	bleq	9a58 <__standby_start+0x9a58>
     a4c:	030b3e0b 	movweq	r3, #48651	; 0xbe0b
     a50:	0300000e 	movweq	r0, #14
     a54:	0b0b0024 	bleq	2c0aec <__standby_start+0x2c0aec>
     a58:	08030b3e 	stmdaeq	r3, {r1, r2, r3, r4, r5, r8, r9, fp}
     a5c:	16040000 	strne	r0, [r4], -r0
     a60:	3a0e0300 	bcc	381668 <__standby_start+0x381668>
     a64:	490b3b0b 	stmdbmi	fp, {r0, r1, r3, r8, r9, fp, ip, sp}
     a68:	05000013 	streq	r0, [r0, #-19]	; 0xffffffed
     a6c:	0c3f002e 	ldceq	0, cr0, [pc], #-184	; 9bc <__standby_start+0x9bc>
     a70:	0b3a0e03 	bleq	e84284 <__standby_start+0xe84284>
     a74:	0c270b3b 	stceq	11, cr0, [r7], #-236	; 0xffffff14
     a78:	01111349 	tsteq	r1, r9, asr #6
     a7c:	0a400112 	beq	1000ecc <__standby_start+0x1000ecc>
     a80:	2e060000 	cdpcs	0, 0, cr0, cr6, cr0, {0}
     a84:	030c3f01 	movweq	r3, #52993	; 0xcf01
     a88:	3b0b3a0e 	blcc	2cf2c8 <__standby_start+0x2cf2c8>
     a8c:	490c270b 	stmdbmi	ip, {r0, r1, r3, r8, r9, sl, sp}
     a90:	12011113 	andne	r1, r1, #-1073741820	; 0xc0000004
     a94:	010a4001 	tsteq	sl, r1
     a98:	07000013 	smladeq	r0, r3, r0, r0
     a9c:	0e030005 	cdpeq	0, 0, cr0, cr3, cr5, {0}
     aa0:	0b3b0b3a 	bleq	ec3790 <__standby_start+0xec3790>
     aa4:	06021349 	streq	r1, [r2], -r9, asr #6
     aa8:	01000000 	tsteq	r0, r0
     aac:	06100011 			; <UNDEFINED> instruction: 0x06100011
     ab0:	01120111 	tsteq	r2, r1, lsl r1
     ab4:	081b0803 	ldmdaeq	fp, {r0, r1, fp}
     ab8:	05130825 	ldreq	r0, [r3, #-2085]	; 0xfffff7db
     abc:	01000000 	tsteq	r0, r0
     ac0:	0e250111 	mcreq	1, 1, r0, cr5, cr1, {0}
     ac4:	0e030b13 	vmoveq.32	d3[0], r0
     ac8:	01110e1b 	tsteq	r1, fp, lsl lr
     acc:	06100112 			; <UNDEFINED> instruction: 0x06100112
     ad0:	24020000 	strcs	r0, [r2], #-0
     ad4:	3e0b0b00 	vmlacc.f64	d0, d11, d0
     ad8:	000e030b 	andeq	r0, lr, fp, lsl #6
     adc:	00160300 	andseq	r0, r6, r0, lsl #6
     ae0:	0b3a0e03 	bleq	e842f4 <__standby_start+0xe842f4>
     ae4:	13490b3b 	movtne	r0, #39739	; 0x9b3b
     ae8:	24040000 	strcs	r0, [r4], #-0
     aec:	3e0b0b00 	vmlacc.f64	d0, d11, d0
     af0:	0008030b 	andeq	r0, r8, fp, lsl #6
     af4:	012e0500 	teqeq	lr, r0, lsl #10
     af8:	0b3a0e03 	bleq	e8430c <__standby_start+0xe8430c>
     afc:	0c270b3b 	stceq	11, cr0, [r7], #-236	; 0xffffff14
     b00:	01111349 	tsteq	r1, r9, asr #6
     b04:	0a400112 	beq	1000f54 <__standby_start+0x1000f54>
     b08:	00001301 	andeq	r1, r0, r1, lsl #6
     b0c:	03000506 	movweq	r0, #1286	; 0x506
     b10:	3b0b3a0e 	blcc	2cf350 <__standby_start+0x2cf350>
     b14:	0213490b 	andseq	r4, r3, #180224	; 0x2c000
     b18:	07000006 	streq	r0, [r0, -r6]
     b1c:	0e030034 	mcreq	0, 0, r0, cr3, cr4, {1}
     b20:	0b3b0b3a 	bleq	ec3810 <__standby_start+0xec3810>
     b24:	06021349 	streq	r1, [r2], -r9, asr #6
     b28:	2e080000 	cdpcs	0, 0, cr0, cr8, cr0, {0}
     b2c:	030c3f01 	movweq	r3, #52993	; 0xcf01
     b30:	3b0b3a0e 	blcc	2cf370 <__standby_start+0x2cf370>
     b34:	110c270b 	tstne	ip, fp, lsl #14
     b38:	40011201 	andmi	r1, r1, r1, lsl #4
     b3c:	00130106 	andseq	r0, r3, r6, lsl #2
     b40:	00340900 	eorseq	r0, r4, r0, lsl #18
     b44:	0b3a0e03 	bleq	e84358 <__standby_start+0xe84358>
     b48:	13490b3b 	movtne	r0, #39739	; 0x9b3b
     b4c:	00000a02 	andeq	r0, r0, r2, lsl #20
     b50:	4900350a 	stmdbmi	r0, {r1, r3, r8, sl, ip, sp}
     b54:	0b000013 	bleq	ba8 <__standby_start+0xba8>
     b58:	0c3f012e 	ldfeqs	f0, [pc], #-184	; aa8 <__standby_start+0xaa8>
     b5c:	0b3a0e03 	bleq	e84370 <__standby_start+0xe84370>
     b60:	0c270b3b 	stceq	11, cr0, [r7], #-236	; 0xffffff14
     b64:	01120111 	tsteq	r2, r1, lsl r1
     b68:	13010a40 	movwne	r0, #6720	; 0x1a40
     b6c:	050c0000 	streq	r0, [ip, #-0]
     b70:	3a080300 	bcc	201778 <__standby_start+0x201778>
     b74:	490b3b0b 	stmdbmi	fp, {r0, r1, r3, r8, r9, fp, ip, sp}
     b78:	000a0213 	andeq	r0, sl, r3, lsl r2
     b7c:	002e0d00 	eoreq	r0, lr, r0, lsl #26
     b80:	0e030c3f 	mcreq	12, 0, r0, cr3, cr15, {1}
     b84:	0b3b0b3a 	bleq	ec3874 <__standby_start+0xec3874>
     b88:	13490c27 	movtne	r0, #39975	; 0x9c27
     b8c:	01120111 	tsteq	r2, r1, lsl r1
     b90:	00000a40 	andeq	r0, r0, r0, asr #20
     b94:	3f012e0e 	svccc	0x00012e0e
     b98:	3a0e030c 	bcc	3817d0 <__standby_start+0x3817d0>
     b9c:	270b3b0b 	strcs	r3, [fp, -fp, lsl #22]
     ba0:	1113490c 	tstne	r3, ip, lsl #18
     ba4:	40011201 	andmi	r1, r1, r1, lsl #4
     ba8:	00130106 	andseq	r0, r3, r6, lsl #2
     bac:	00050f00 	andeq	r0, r5, r0, lsl #30
     bb0:	0b3a0803 	bleq	e82bc4 <__standby_start+0xe82bc4>
     bb4:	13490b3b 	movtne	r0, #39739	; 0x9b3b
     bb8:	00000602 	andeq	r0, r0, r2, lsl #12
     bbc:	03003410 	movweq	r3, #1040	; 0x410
     bc0:	3b0b3a08 	blcc	2cf3e8 <__standby_start+0x2cf3e8>
     bc4:	0213490b 	andseq	r4, r3, #180224	; 0x2c000
     bc8:	1100000a 	tstne	r0, sl
     bcc:	0c3f012e 	ldfeqs	f0, [pc], #-184	; b1c <__standby_start+0xb1c>
     bd0:	0b3a0e03 	bleq	e843e4 <__standby_start+0xe843e4>
     bd4:	0c270b3b 	stceq	11, cr0, [r7], #-236	; 0xffffff14
     bd8:	01111349 	tsteq	r1, r9, asr #6
     bdc:	0a400112 	beq	100102c <__standby_start+0x100102c>
     be0:	00001301 	andeq	r1, r0, r1, lsl #6
     be4:	3f002e12 	svccc	0x00002e12
     be8:	3a0e030c 	bcc	381820 <__standby_start+0x381820>
     bec:	270b3b0b 	strcs	r3, [fp, -fp, lsl #22]
     bf0:	1201110c 	andne	r1, r1, #12, 2
     bf4:	000a4001 	andeq	r4, sl, r1
     bf8:	00051300 	andeq	r1, r5, r0, lsl #6
     bfc:	0b3a0e03 	bleq	e84410 <__standby_start+0xe84410>
     c00:	13490b3b 	movtne	r0, #39739	; 0x9b3b
     c04:	00000a02 	andeq	r0, r0, r2, lsl #20
     c08:	03003414 	movweq	r3, #1044	; 0x414
     c0c:	3b0b3a08 	blcc	2cf434 <__standby_start+0x2cf434>
     c10:	0213490b 	andseq	r4, r3, #180224	; 0x2c000
     c14:	15000006 	strne	r0, [r0, #-6]
     c18:	0c3f012e 	ldfeqs	f0, [pc], #-184	; b68 <__standby_start+0xb68>
     c1c:	0b3a0e03 	bleq	e84430 <__standby_start+0xe84430>
     c20:	0c27053b 	cfstr32eq	mvfx0, [r7], #-236	; 0xffffff14
     c24:	01120111 	tsteq	r2, r1, lsl r1
     c28:	13010a40 	movwne	r0, #6720	; 0x1a40
     c2c:	05160000 	ldreq	r0, [r6, #-0]
     c30:	3a080300 	bcc	201838 <__standby_start+0x201838>
     c34:	49053b0b 	stmdbmi	r5, {r0, r1, r3, r8, r9, fp, ip, sp}
     c38:	00060213 	andeq	r0, r6, r3, lsl r2
     c3c:	002e1700 	eoreq	r1, lr, r0, lsl #14
     c40:	0e030c3f 	mcreq	12, 0, r0, cr3, cr15, {1}
     c44:	053b0b3a 	ldreq	r0, [fp, #-2874]!	; 0xfffff4c6
     c48:	01110c27 	tsteq	r1, r7, lsr #24
     c4c:	0a400112 	beq	100109c <__standby_start+0x100109c>
     c50:	34180000 	ldrcc	r0, [r8], #-0
     c54:	3a0e0300 	bcc	38185c <__standby_start+0x38185c>
     c58:	49053b0b 	stmdbmi	r5, {r0, r1, r3, r8, r9, fp, ip, sp}
     c5c:	00060213 	andeq	r0, r6, r3, lsl r2
     c60:	012e1900 	teqeq	lr, r0, lsl #18
     c64:	0e030c3f 	mcreq	12, 0, r0, cr3, cr15, {1}
     c68:	053b0b3a 	ldreq	r0, [fp, #-2874]!	; 0xfffff4c6
     c6c:	01110c27 	tsteq	r1, r7, lsr #24
     c70:	06400112 			; <UNDEFINED> instruction: 0x06400112
     c74:	00001301 	andeq	r1, r0, r1, lsl #6
     c78:	01110100 	tsteq	r1, r0, lsl #2
     c7c:	0b130e25 	bleq	4c4518 <__standby_start+0x4c4518>
     c80:	0e1b0e03 	cdpeq	14, 1, cr0, cr11, cr3, {0}
     c84:	01120111 	tsteq	r2, r1, lsl r1
     c88:	00000610 	andeq	r0, r0, r0, lsl r6
     c8c:	0b002402 	bleq	9c9c <__standby_start+0x9c9c>
     c90:	030b3e0b 	movweq	r3, #48651	; 0xbe0b
     c94:	0300000e 	movweq	r0, #14
     c98:	0b0b0024 	bleq	2c0d30 <__standby_start+0x2c0d30>
     c9c:	08030b3e 	stmdaeq	r3, {r1, r2, r3, r4, r5, r8, r9, fp}
     ca0:	16040000 	strne	r0, [r4], -r0
     ca4:	3a0e0300 	bcc	3818ac <__standby_start+0x3818ac>
     ca8:	490b3b0b 	stmdbmi	fp, {r0, r1, r3, r8, r9, fp, ip, sp}
     cac:	05000013 	streq	r0, [r0, #-19]	; 0xffffffed
     cb0:	0c3f012e 	ldfeqs	f0, [pc], #-184	; c00 <__standby_start+0xc00>
     cb4:	0b3a0e03 	bleq	e844c8 <__standby_start+0xe844c8>
     cb8:	0c270b3b 	stceq	11, cr0, [r7], #-236	; 0xffffff14
     cbc:	01120111 	tsteq	r2, r1, lsl r1
     cc0:	13010a40 	movwne	r0, #6720	; 0x1a40
     cc4:	34060000 	strcc	r0, [r6], #-0
     cc8:	3a080300 	bcc	2018d0 <__standby_start+0x2018d0>
     ccc:	490b3b0b 	stmdbmi	fp, {r0, r1, r3, r8, r9, fp, ip, sp}
     cd0:	07000013 	smladeq	r0, r3, r0, r0
     cd4:	0e030034 	mcreq	0, 0, r0, cr3, cr4, {1}
     cd8:	0b3b0b3a 	bleq	ec39c8 <__standby_start+0xec39c8>
     cdc:	06021349 	streq	r1, [r2], -r9, asr #6
     ce0:	2e080000 	cdpcs	0, 0, cr0, cr8, cr0, {0}
     ce4:	030c3f00 	movweq	r3, #52992	; 0xcf00
     ce8:	3b0b3a0e 	blcc	2cf528 <__standby_start+0x2cf528>
     cec:	110c270b 	tstne	ip, fp, lsl #14
     cf0:	40011201 	andmi	r1, r1, r1, lsl #4
     cf4:	0900000a 	stmdbeq	r0, {r1, r3}
     cf8:	0e030005 	cdpeq	0, 0, cr0, cr3, cr5, {0}
     cfc:	0b3b0b3a 	bleq	ec39ec <__standby_start+0xec39ec>
     d00:	0a021349 	beq	85a2c <__standby_start+0x85a2c>
     d04:	050a0000 	streq	r0, [sl, #-0]
     d08:	3a080300 	bcc	201910 <__standby_start+0x201910>
     d0c:	490b3b0b 	stmdbmi	fp, {r0, r1, r3, r8, r9, fp, ip, sp}
     d10:	000a0213 	andeq	r0, sl, r3, lsl r2
     d14:	012e0b00 	teqeq	lr, r0, lsl #22
     d18:	0e030c3f 	mcreq	12, 0, r0, cr3, cr15, {1}
     d1c:	0b3b0b3a 	bleq	ec3a0c <__standby_start+0xec3a0c>
     d20:	01110c27 	tsteq	r1, r7, lsr #24
     d24:	06400112 			; <UNDEFINED> instruction: 0x06400112
     d28:	00001301 	andeq	r1, r0, r1, lsl #6
     d2c:	0300340c 	movweq	r3, #1036	; 0x40c
     d30:	3b0b3a08 	blcc	2cf558 <__standby_start+0x2cf558>
     d34:	0213490b 	andseq	r4, r3, #180224	; 0x2c000
     d38:	0d000006 	stceq	0, cr0, [r0, #-24]	; 0xffffffe8
     d3c:	0c3f012e 	ldfeqs	f0, [pc], #-184	; c8c <__standby_start+0xc8c>
     d40:	0b3a0e03 	bleq	e84554 <__standby_start+0xe84554>
     d44:	0c270b3b 	stceq	11, cr0, [r7], #-236	; 0xffffff14
     d48:	01111349 	tsteq	r1, r9, asr #6
     d4c:	0a400112 	beq	100119c <__standby_start+0x100119c>
     d50:	00001301 	andeq	r1, r0, r1, lsl #6
     d54:	0300050e 	movweq	r0, #1294	; 0x50e
     d58:	3b0b3a0e 	blcc	2cf598 <__standby_start+0x2cf598>
     d5c:	0213490b 	andseq	r4, r3, #180224	; 0x2c000
     d60:	0f000006 	svceq	0x00000006
     d64:	0e030034 	mcreq	0, 0, r0, cr3, cr4, {1}
     d68:	0b3b0b3a 	bleq	ec3a58 <__standby_start+0xec3a58>
     d6c:	0a021349 	beq	85a98 <__standby_start+0x85a98>
     d70:	2e100000 	cdpcs	0, 1, cr0, cr0, cr0, {0}
     d74:	030c3f01 	movweq	r3, #52993	; 0xcf01
     d78:	3b0b3a0e 	blcc	2cf5b8 <__standby_start+0x2cf5b8>
     d7c:	490c270b 	stmdbmi	ip, {r0, r1, r3, r8, r9, sl, sp}
     d80:	12011113 	andne	r1, r1, #-1073741820	; 0xc0000004
     d84:	01064001 	tsteq	r6, r1
     d88:	11000013 	tstne	r0, r3, lsl r0
     d8c:	0c3f012e 	ldfeqs	f0, [pc], #-184	; cdc <__standby_start+0xcdc>
     d90:	0b3a0e03 	bleq	e845a4 <__standby_start+0xe845a4>
     d94:	0c27053b 	cfstr32eq	mvfx0, [r7], #-236	; 0xffffff14
     d98:	01111349 	tsteq	r1, r9, asr #6
     d9c:	06400112 			; <UNDEFINED> instruction: 0x06400112
     da0:	00001301 	andeq	r1, r0, r1, lsl #6
     da4:	03003412 	movweq	r3, #1042	; 0x412
     da8:	3b0b3a08 	blcc	2cf5d0 <__standby_start+0x2cf5d0>
     dac:	00134905 	andseq	r4, r3, r5, lsl #18
     db0:	00341300 	eorseq	r1, r4, r0, lsl #6
     db4:	0b3a0e03 	bleq	e845c8 <__standby_start+0xe845c8>
     db8:	1349053b 	movtne	r0, #38203	; 0x953b
     dbc:	00000602 	andeq	r0, r0, r2, lsl #12
     dc0:	03003414 	movweq	r3, #1044	; 0x414
     dc4:	3b0b3a0e 	blcc	2cf604 <__standby_start+0x2cf604>
     dc8:	02134905 	andseq	r4, r3, #81920	; 0x14000
     dcc:	1500000a 	strne	r0, [r0, #-10]
     dd0:	0111010b 	tsteq	r1, fp, lsl #2
     dd4:	00000112 	andeq	r0, r0, r2, lsl r1
     dd8:	3f012e16 	svccc	0x00012e16
     ddc:	3a0e030c 	bcc	381a14 <__standby_start+0x381a14>
     de0:	49053b0b 	stmdbmi	r5, {r0, r1, r3, r8, r9, fp, ip, sp}
     de4:	010c3c13 	tsteq	ip, r3, lsl ip
     de8:	17000013 	smladne	r0, r3, r0, r0
     dec:	00000018 	andeq	r0, r0, r8, lsl r0
     df0:	3f012e18 	svccc	0x00012e18
     df4:	3a0e030c 	bcc	381a2c <__standby_start+0x381a2c>
     df8:	49053b0b 	stmdbmi	r5, {r0, r1, r3, r8, r9, fp, ip, sp}
     dfc:	000c3c13 	andeq	r3, ip, r3, lsl ip
     e00:	00341900 	eorseq	r1, r4, r0, lsl #18
     e04:	0b3a0e03 	bleq	e84618 <__standby_start+0xe84618>
     e08:	1349053b 	movtne	r0, #38203	; 0x953b
     e0c:	2e1a0000 	cdpcs	0, 1, cr0, cr10, cr0, {0}
     e10:	030c3f00 	movweq	r3, #52992	; 0xcf00
     e14:	3b0b3a0e 	blcc	2cf654 <__standby_start+0x2cf654>
     e18:	490c2705 	stmdbmi	ip, {r0, r2, r8, r9, sl, sp}
     e1c:	12011113 	andne	r1, r1, #-1073741820	; 0xc0000004
     e20:	000a4001 	andeq	r4, sl, r1
     e24:	002e1b00 	eoreq	r1, lr, r0, lsl #22
     e28:	0e030c3f 	mcreq	12, 0, r0, cr3, cr15, {1}
     e2c:	053b0b3a 	ldreq	r0, [fp, #-2874]!	; 0xfffff4c6
     e30:	01110c27 	tsteq	r1, r7, lsr #24
     e34:	0a400112 	beq	1001284 <__standby_start+0x1001284>
     e38:	2e1c0000 	cdpcs	0, 1, cr0, cr12, cr0, {0}
     e3c:	030c3f01 	movweq	r3, #52993	; 0xcf01
     e40:	3b0b3a0e 	blcc	2cf680 <__standby_start+0x2cf680>
     e44:	110c2705 	tstne	ip, r5, lsl #14
     e48:	40011201 	andmi	r1, r1, r1, lsl #4
     e4c:	0013010a 	andseq	r0, r3, sl, lsl #2
     e50:	00051d00 	andeq	r1, r5, r0, lsl #26
     e54:	0b3a0e03 	bleq	e84668 <__standby_start+0xe84668>
     e58:	1349053b 	movtne	r0, #38203	; 0x953b
     e5c:	00000a02 	andeq	r0, r0, r2, lsl #20
     e60:	0300051e 	movweq	r0, #1310	; 0x51e
     e64:	3b0b3a08 	blcc	2cf68c <__standby_start+0x2cf68c>
     e68:	02134905 	andseq	r4, r3, #81920	; 0x14000
     e6c:	1f00000a 	svcne	0x0000000a
     e70:	0c3f012e 	ldfeqs	f0, [pc], #-184	; dc0 <__standby_start+0xdc0>
     e74:	0b3a0e03 	bleq	e84688 <__standby_start+0xe84688>
     e78:	0c27053b 	cfstr32eq	mvfx0, [r7], #-236	; 0xffffff14
     e7c:	01111349 	tsteq	r1, r9, asr #6
     e80:	0a400112 	beq	10012d0 <__standby_start+0x10012d0>
     e84:	00001301 	andeq	r1, r0, r1, lsl #6
     e88:	3f012e20 	svccc	0x00012e20
     e8c:	3a0e030c 	bcc	381ac4 <__standby_start+0x381ac4>
     e90:	27053b0b 	strcs	r3, [r5, -fp, lsl #22]
     e94:	1201110c 	andne	r1, r1, #12, 2
     e98:	000a4001 	andeq	r4, sl, r1
     e9c:	11010000 	tstne	r1, r0
     ea0:	130e2501 	movwne	r2, #58625	; 0xe501
     ea4:	1b0e030b 	blne	381ad8 <__standby_start+0x381ad8>
     ea8:	1201110e 	andne	r1, r1, #-2147483645	; 0x80000003
     eac:	00061001 	andeq	r1, r6, r1
     eb0:	00240200 	eoreq	r0, r4, r0, lsl #4
     eb4:	0b3e0b0b 	bleq	f83ae8 <__standby_start+0xf83ae8>
     eb8:	00000e03 	andeq	r0, r0, r3, lsl #28
     ebc:	03011303 	movweq	r1, #4867	; 0x1303
     ec0:	3a0b0b0e 	bcc	2c3b00 <__standby_start+0x2c3b00>
     ec4:	010b3b0b 	tsteq	fp, fp, lsl #22
     ec8:	04000013 	streq	r0, [r0], #-19	; 0xffffffed
     ecc:	0e03000d 	cdpeq	0, 0, cr0, cr3, cr13, {0}
     ed0:	0b3b0b3a 	bleq	ec3bc0 <__standby_start+0xec3bc0>
     ed4:	0a381349 	beq	e05c00 <__standby_start+0xe05c00>
     ed8:	24050000 	strcs	r0, [r5], #-0
     edc:	3e0b0b00 	vmlacc.f64	d0, d11, d0
     ee0:	0008030b 	andeq	r0, r8, fp, lsl #6
     ee4:	00160600 	andseq	r0, r6, r0, lsl #12
     ee8:	0b3a0e03 	bleq	e846fc <__standby_start+0xe846fc>
     eec:	13490b3b 	movtne	r0, #39739	; 0x9b3b
     ef0:	2e070000 	cdpcs	0, 0, cr0, cr7, cr0, {0}
     ef4:	030c3f00 	movweq	r3, #52992	; 0xcf00
     ef8:	3b0b3a0e 	blcc	2cf738 <__standby_start+0x2cf738>
     efc:	490c2705 	stmdbmi	ip, {r0, r2, r8, r9, sl, sp}
     f00:	000b2013 	andeq	r2, fp, r3, lsl r0
     f04:	012e0800 	teqeq	lr, r0, lsl #16
     f08:	0b3a0e03 	bleq	e8471c <__standby_start+0xe8471c>
     f0c:	0c270b3b 	stceq	11, cr0, [r7], #-236	; 0xffffff14
     f10:	0b201349 	bleq	805c3c <__standby_start+0x805c3c>
     f14:	00001301 	andeq	r1, r0, r1, lsl #6
     f18:	03000509 	movweq	r0, #1289	; 0x509
     f1c:	3b0b3a0e 	blcc	2cf75c <__standby_start+0x2cf75c>
     f20:	0013490b 	andseq	r4, r3, fp, lsl #18
     f24:	00340a00 	eorseq	r0, r4, r0, lsl #20
     f28:	0b3a0e03 	bleq	e8473c <__standby_start+0xe8473c>
     f2c:	13490b3b 	movtne	r0, #39739	; 0x9b3b
     f30:	2e0b0000 	cdpcs	0, 0, cr0, cr11, cr0, {0}
     f34:	030c3f01 	movweq	r3, #52993	; 0xcf01
     f38:	3b0b3a0e 	blcc	2cf778 <__standby_start+0x2cf778>
     f3c:	110c270b 	tstne	ip, fp, lsl #14
     f40:	40011201 	andmi	r1, r1, r1, lsl #4
     f44:	00130106 	andseq	r0, r3, r6, lsl #2
     f48:	00340c00 	eorseq	r0, r4, r0, lsl #24
     f4c:	0b3a0e03 	bleq	e84760 <__standby_start+0xe84760>
     f50:	13490b3b 	movtne	r0, #39739	; 0x9b3b
     f54:	00000602 	andeq	r0, r0, r2, lsl #12
     f58:	3f012e0d 	svccc	0x00012e0d
     f5c:	3a0e030c 	bcc	381b94 <__standby_start+0x381b94>
     f60:	270b3b0b 	strcs	r3, [fp, -fp, lsl #22]
     f64:	1201110c 	andne	r1, r1, #12, 2
     f68:	010a4001 	tsteq	sl, r1
     f6c:	0e000013 	mcreq	0, 0, r0, cr0, cr3, {0}
     f70:	08030034 	stmdaeq	r3, {r2, r4, r5}
     f74:	0b3b0b3a 	bleq	ec3c64 <__standby_start+0xec3c64>
     f78:	0b1c1349 	bleq	705ca4 <__standby_start+0x705ca4>
     f7c:	050f0000 	streq	r0, [pc, #-0]	; f84 <__standby_start+0xf84>
     f80:	3a0e0300 	bcc	381b88 <__standby_start+0x381b88>
     f84:	490b3b0b 	stmdbmi	fp, {r0, r1, r3, r8, r9, fp, ip, sp}
     f88:	00060213 	andeq	r0, r6, r3, lsl r2
     f8c:	00341000 	eorseq	r1, r4, r0
     f90:	0b3a0803 	bleq	e82fa4 <__standby_start+0xe82fa4>
     f94:	13490b3b 	movtne	r0, #39739	; 0x9b3b
     f98:	00000602 	andeq	r0, r0, r2, lsl #12
     f9c:	03003411 	movweq	r3, #1041	; 0x411
     fa0:	3b0b3a0e 	blcc	2cf7e0 <__standby_start+0x2cf7e0>
     fa4:	0213490b 	andseq	r4, r3, #180224	; 0x2c000
     fa8:	1200000a 	andne	r0, r0, #10
     fac:	08030005 	stmdaeq	r3, {r0, r2}
     fb0:	0b3b0b3a 	bleq	ec3ca0 <__standby_start+0xec3ca0>
     fb4:	06021349 	streq	r1, [r2], -r9, asr #6
     fb8:	1d130000 	ldcne	0, cr0, [r3, #-0]
     fbc:	11133101 	tstne	r3, r1, lsl #2
     fc0:	58011201 	stmdapl	r1, {r0, r9, ip}
     fc4:	000b590b 	andeq	r5, fp, fp, lsl #18
     fc8:	00051400 	andeq	r1, r5, r0, lsl #8
     fcc:	06021331 			; <UNDEFINED> instruction: 0x06021331
     fd0:	0b150000 	bleq	540fd8 <__standby_start+0x540fd8>
     fd4:	12011101 	andne	r1, r1, #1073741824	; 0x40000000
     fd8:	16000001 	strne	r0, [r0], -r1
     fdc:	13310034 	teqne	r1, #52	; 0x34
     fe0:	00000602 	andeq	r0, r0, r2, lsl #12
     fe4:	31000517 	tstcc	r0, r7, lsl r5
     fe8:	000b1c13 	andeq	r1, fp, r3, lsl ip
     fec:	002e1800 	eoreq	r1, lr, r0, lsl #16
     ff0:	01111331 	tsteq	r1, r1, lsr r3
     ff4:	0a400112 	beq	1001444 <__standby_start+0x1001444>
     ff8:	2e190000 	cdpcs	0, 1, cr0, cr9, cr0, {0}
     ffc:	030c3f01 	movweq	r3, #52993	; 0xcf01
    1000:	3b0b3a0e 	blcc	2cf840 <__standby_start+0x2cf840>
    1004:	490c2705 	stmdbmi	ip, {r0, r2, r8, r9, sl, sp}
    1008:	12011113 	andne	r1, r1, #-1073741820	; 0xc0000004
    100c:	010a4001 	tsteq	sl, r1
    1010:	1a000013 	bne	1064 <__standby_start+0x1064>
    1014:	0e030034 	mcreq	0, 0, r0, cr3, cr4, {1}
    1018:	053b0b3a 	ldreq	r0, [fp, #-2874]!	; 0xfffff4c6
    101c:	06021349 	streq	r1, [r2], -r9, asr #6
    1020:	2e1b0000 	cdpcs	0, 1, cr0, cr11, cr0, {0}
    1024:	030c3f01 	movweq	r3, #52993	; 0xcf01
    1028:	3b0b3a0e 	blcc	2cf868 <__standby_start+0x2cf868>
    102c:	110c2705 	tstne	ip, r5, lsl #14
    1030:	40011201 	andmi	r1, r1, r1, lsl #4
    1034:	0013010a 	andseq	r0, r3, sl, lsl #2
    1038:	00051c00 	andeq	r1, r5, r0, lsl #24
    103c:	0b3a0803 	bleq	e83050 <__standby_start+0xe83050>
    1040:	1349053b 	movtne	r0, #38203	; 0x953b
    1044:	00000a02 	andeq	r0, r0, r2, lsl #20
    1048:	3f012e1d 	svccc	0x00012e1d
    104c:	3a0e030c 	bcc	381c84 <__standby_start+0x381c84>
    1050:	270b3b0b 	strcs	r3, [fp, -fp, lsl #22]
    1054:	1113490c 	tstne	r3, ip, lsl #18
    1058:	40011201 	andmi	r1, r1, r1, lsl #4
    105c:	00130106 	andseq	r0, r3, r6, lsl #2
    1060:	00341e00 	eorseq	r1, r4, r0, lsl #28
    1064:	0b3a0803 	bleq	e83078 <__standby_start+0xe83078>
    1068:	13490b3b 	movtne	r0, #39739	; 0x9b3b
    106c:	0f1f0000 	svceq	0x001f0000
    1070:	490b0b00 	stmdbmi	fp, {r8, r9, fp}
    1074:	20000013 	andcs	r0, r0, r3, lsl r0
    1078:	0c3f002e 	ldceq	0, cr0, [pc], #-184	; fc8 <__standby_start+0xfc8>
    107c:	0b3a0e03 	bleq	e84890 <__standby_start+0xe84890>
    1080:	0c27053b 	cfstr32eq	mvfx0, [r7], #-236	; 0xffffff14
    1084:	01111349 	tsteq	r1, r9, asr #6
    1088:	0a400112 	beq	10014d8 <__standby_start+0x10014d8>
    108c:	2e210000 	cdpcs	0, 2, cr0, cr1, cr0, {0}
    1090:	030c3f00 	movweq	r3, #52992	; 0xcf00
    1094:	3b0b3a0e 	blcc	2cf8d4 <__standby_start+0x2cf8d4>
    1098:	110c2705 	tstne	ip, r5, lsl #14
    109c:	40011201 	andmi	r1, r1, r1, lsl #4
    10a0:	2200000a 	andcs	r0, r0, #10
    10a4:	13490101 	movtne	r0, #37121	; 0x9101
    10a8:	00001301 	andeq	r1, r0, r1, lsl #6
    10ac:	49002123 	stmdbmi	r0, {r0, r1, r5, r8, sp}
    10b0:	000b2f13 	andeq	r2, fp, r3, lsl pc
    10b4:	00342400 	eorseq	r2, r4, r0, lsl #8
    10b8:	0b3a0e03 	bleq	e848cc <__standby_start+0xe848cc>
    10bc:	13490b3b 	movtne	r0, #39739	; 0x9b3b
    10c0:	0c3c0c3f 	ldceq	12, cr0, [ip], #-252	; 0xffffff04
    10c4:	34250000 	strtcc	r0, [r5], #-0
    10c8:	3a0e0300 	bcc	381cd0 <__standby_start+0x381cd0>
    10cc:	490b3b0b 	stmdbmi	fp, {r0, r1, r3, r8, r9, fp, ip, sp}
    10d0:	020c3f13 	andeq	r3, ip, #19, 30	; 0x4c
    10d4:	0000000a 	andeq	r0, r0, sl

Disassembly of section .debug_info:

00000000 <.debug_info>:
       0:	0000040a 	andeq	r0, r0, sl, lsl #8
       4:	00000002 	andeq	r0, r0, r2
       8:	01040000 	tsteq	r4, r0
       c:	00000328 	andeq	r0, r0, r8, lsr #6
      10:	00027001 	andeq	r7, r2, r1
      14:	0002ba00 	andeq	fp, r2, r0, lsl #20
      18:	00000000 	andeq	r0, r0, r0
      1c:	0003acf0 	strdeq	sl, [r3], -r0
      20:	000000f0 	strdeq	r0, [r0], -r0	; <UNPREDICTABLE>
      24:	01880200 	orreq	r0, r8, r0, lsl #4
      28:	02080000 	andeq	r0, r8, #0
      2c:	00004e32 	andeq	r4, r0, r2, lsr lr
      30:	01580300 	cmpeq	r8, r0, lsl #6
      34:	33020000 	movwcc	r0, #8192	; 0x2000
      38:	0000004e 	andeq	r0, r0, lr, asr #32
      3c:	03002302 	movweq	r2, #770	; 0x302
      40:	00000241 	andeq	r0, r0, r1, asr #4
      44:	00553402 	subseq	r3, r5, r2, lsl #8
      48:	23020000 	movwcs	r0, #8192	; 0x2000
      4c:	04040004 	streq	r0, [r4], #-4
      50:	00022a07 	andeq	r2, r2, r7, lsl #20
      54:	08010400 	stmdaeq	r1, {sl}
      58:	000001a6 	andeq	r0, r0, r6, lsr #3
      5c:	00034602 	andeq	r4, r3, r2, lsl #12
      60:	3b020c00 	blcc	83068 <__standby_start+0x83068>
      64:	00000093 	muleq	r0, r3, r0
      68:	001a5903 	andseq	r5, sl, r3, lsl #18
      6c:	4e3c0200 	cdpmi	2, 3, cr0, cr12, cr0, {0}
      70:	02000000 	andeq	r0, r0, #0
      74:	37030023 	strcc	r0, [r3, -r3, lsr #32]
      78:	02000002 	andeq	r0, r0, #2
      7c:	00004e3d 	andeq	r4, r0, sp, lsr lr
      80:	04230200 	strteq	r0, [r3], #-512	; 0xfffffe00
      84:	00008d03 	andeq	r8, r0, r3, lsl #26
      88:	933e0200 	teqls	lr, #0, 4
      8c:	02000000 	andeq	r0, r0, #0
      90:	05000823 	streq	r0, [r0, #-2083]	; 0xfffff7dd
      94:	6e690504 	cdpvs	5, 6, cr0, cr9, cr4, {0}
      98:	54020074 	strpl	r0, [r2], #-116	; 0xffffff8c
      9c:	14000002 	strne	r0, [r0], #-2
      a0:	00c34502 	sbceq	r4, r3, r2, lsl #10
      a4:	49030000 	stmdbmi	r3, {}	; <UNPREDICTABLE>
      a8:	02000003 	andeq	r0, r0, #3
      ac:	00005c46 	andeq	r5, r0, r6, asr #24
      b0:	00230200 	eoreq	r0, r3, r0, lsl #4
      b4:	00018b03 	andeq	r8, r1, r3, lsl #22
      b8:	25470200 	strbcs	r0, [r7, #-512]	; 0xfffffe00
      bc:	02000000 	andeq	r0, r0, #0
      c0:	04000c23 	streq	r0, [r0], #-3107	; 0xfffff3dd
      c4:	01a80601 			; <UNDEFINED> instruction: 0x01a80601
      c8:	ff060000 			; <UNDEFINED> instruction: 0xff060000
      cc:	03000002 	movweq	r0, #2
      d0:	00005516 	andeq	r5, r0, r6, lsl r5
      d4:	05020400 	streq	r0, [r2, #-1024]	; 0xfffffc00
      d8:	000001da 	ldrdeq	r0, [r0], -sl
      dc:	8c070204 	sfmhi	f0, 4, [r7], {4}
      e0:	06000002 	streq	r0, [r0], -r2
      e4:	0000013a 	andeq	r0, r0, sl, lsr r1
      e8:	004e1a03 	subeq	r1, lr, r3, lsl #20
      ec:	08040000 	stmdaeq	r4, {}	; <UNPREDICTABLE>
      f0:	00016905 	andeq	r6, r1, r5, lsl #18
      f4:	07080400 	streq	r0, [r8, -r0, lsl #8]
      f8:	00000220 	andeq	r0, r0, r0, lsr #4
      fc:	0000b002 	andeq	fp, r0, r2
     100:	19040400 	stmdbne	r4, {sl}
     104:	0000015e 	andeq	r0, r0, lr, asr r1
     108:	00002107 	andeq	r2, r0, r7, lsl #2
     10c:	e31a0400 	tst	sl, #0, 8
     110:	04000000 	streq	r0, [r0], #-0
     114:	23021c04 	movwcs	r1, #11268	; 0x2c04
     118:	00db0700 	sbcseq	r0, fp, r0, lsl #14
     11c:	1b040000 	blne	100124 <__standby_start+0x100124>
     120:	000000e3 	andeq	r0, r0, r3, ror #1
     124:	02180404 	andseq	r0, r8, #4, 8	; 0x4000000
     128:	77070023 	strvc	r0, [r7, -r3, lsr #32]
     12c:	04000001 	streq	r0, [r0], #-1
     130:	0000e31c 	andeq	lr, r0, ip, lsl r3
     134:	14040400 	strne	r0, [r4], #-1024	; 0xfffffc00
     138:	07002302 	streq	r2, [r0, -r2, lsl #6]
     13c:	00000161 	andeq	r0, r0, r1, ror #2
     140:	00e31d04 	rsceq	r1, r3, r4, lsl #26
     144:	04040000 	streq	r0, [r4], #-0
     148:	00230210 	eoreq	r0, r3, r0, lsl r2
     14c:	00017f07 	andeq	r7, r1, r7, lsl #30
     150:	e31e0400 	tst	lr, #0, 8
     154:	04000000 	streq	r0, [r0], #-0
     158:	23020010 	movwcs	r0, #8208	; 0x2010
     15c:	5f080000 	svcpl	0x00080000
     160:	04000002 	streq	r0, [r0], #-2
     164:	01951705 	orrseq	r1, r5, r5, lsl #14
     168:	0a090000 	beq	240170 <__standby_start+0x240170>
     16c:	00000001 	andeq	r0, r0, r1
     170:	00011a09 	andeq	r1, r1, r9, lsl #20
     174:	2a090100 	bcs	24057c <__standby_start+0x24057c>
     178:	02000001 	andeq	r0, r0, #1
     17c:	0001e409 	andeq	lr, r1, r9, lsl #8
     180:	f3090300 	vcgt.u8	d0, d9, d0
     184:	04000001 	streq	r0, [r0], #-1
     188:	00020209 	andeq	r0, r2, r9, lsl #4
     18c:	11090500 	tstne	r9, r0, lsl #10
     190:	06000002 	streq	r0, [r0], -r2
     194:	00f70800 	rscseq	r0, r7, r0, lsl #16
     198:	06040000 	streq	r0, [r4], -r0
     19c:	0001f819 	andeq	pc, r1, r9, lsl r8	; <UNPREDICTABLE>
     1a0:	027a0900 	rsbseq	r0, sl, #0, 18
     1a4:	09000000 	stmdbeq	r0, {}	; <UNPREDICTABLE>
     1a8:	00000362 	andeq	r0, r0, r2, ror #6
     1ac:	03710905 	cmneq	r1, #81920	; 0x14000
     1b0:	09060000 	stmdbeq	r6, {}	; <UNPREDICTABLE>
     1b4:	00000334 	andeq	r0, r0, r4, lsr r3
     1b8:	03040915 	movweq	r0, #18709	; 0x4915
     1bc:	09160000 	ldmdbeq	r6, {}	; <UNPREDICTABLE>
     1c0:	00000316 	andeq	r0, r0, r6, lsl r3
     1c4:	039b0917 	orrseq	r0, fp, #376832	; 0x5c000
     1c8:	09180000 	ldmdbeq	r8, {}	; <UNPREDICTABLE>
     1cc:	000000e3 	andeq	r0, r0, r3, ror #1
     1d0:	02ee091d 	rsceq	r0, lr, #475136	; 0x74000
     1d4:	091f0000 	ldmdbeq	pc, {}	; <UNPREDICTABLE>
     1d8:	00000036 	andeq	r0, r0, r6, lsr r0
     1dc:	00460926 	subeq	r0, r6, r6, lsr #18
     1e0:	09270000 	stmdbeq	r7!, {}	; <UNPREDICTABLE>
     1e4:	00000096 	muleq	r0, r6, r0
     1e8:	006d0928 	rsbeq	r0, sp, r8, lsr #18
     1ec:	00c00000 	sbceq	r0, r0, r0
     1f0:	00007d09 	andeq	r7, r0, r9, lsl #26
     1f4:	0000c100 	andeq	ip, r0, r0, lsl #2
     1f8:	00002902 	andeq	r2, r0, r2, lsl #18
     1fc:	18070800 	stmdane	r7, {fp}
     200:	0000024b 	andeq	r0, r0, fp, asr #4
     204:	00001103 	andeq	r1, r0, r3, lsl #2
     208:	ca190700 	bgt	641e10 <__standby_start+0x641e10>
     20c:	02000000 	andeq	r0, r0, #0
     210:	ac030023 	stcge	0, cr0, [r3], {35}	; 0x23
     214:	07000003 	streq	r0, [r0, -r3]
     218:	0000ca1a 	andeq	ip, r0, sl, lsl sl
     21c:	01230200 	teqeq	r3, r0, lsl #4
     220:	00000903 	andeq	r0, r0, r3, lsl #18
     224:	ca1b0700 	bgt	6c1e2c <__standby_start+0x6c1e2c>
     228:	02000000 	andeq	r0, r0, #0
     22c:	19030223 	stmdbne	r3, {r0, r1, r5, r9}
     230:	07000000 	streq	r0, [r0, -r0]
     234:	0000ca1c 	andeq	ip, r0, ip, lsl sl
     238:	03230200 	teqeq	r3, #0, 4
     23c:	6c6c500a 	stclvs	0, cr5, [ip], #-40	; 0xffffffd8
     240:	e31d0700 	tst	sp, #0, 14
     244:	02000000 	andeq	r0, r0, #0
     248:	0b000423 	bleq	12dc <__standby_start+0x12dc>
     24c:	000000e3 	andeq	r0, r0, r3, ror #1
     250:	0000025b 	andeq	r0, r0, fp, asr r2
     254:	00004e0c 	andeq	r4, r0, ip, lsl #28
     258:	0d000f00 	stceq	15, cr0, [r0, #-0]
     25c:	000002e6 	andeq	r0, r0, r6, ror #5
     260:	0101c001 	tsteq	r1, r1
     264:	0000028b 	andeq	r0, r0, fp, lsl #5
     268:	029f010e 	addseq	r0, pc, #-2147483645	; 0x80000003
     26c:	c6010000 	strgt	r0, [r1], -r0
     270:	00000093 	muleq	r0, r3, r0
     274:	00027b01 	andeq	r7, r2, r1, lsl #22
     278:	10000f00 	andne	r0, r0, r0, lsl #30
     27c:	00038001 	andeq	r8, r3, r1
     280:	93cd0100 	bicls	r0, sp, #0, 2
     284:	01000000 	tsteq	r0, r0
     288:	1100000f 	tstne	r0, pc
     28c:	0000d601 	andeq	sp, r0, r1, lsl #12
     290:	013d0100 	teqeq	sp, r0, lsl #2
     294:	00000093 	muleq	r0, r3, r0
     298:	f0000000 			; <UNDEFINED> instruction: 0xf0000000
     29c:	f00003ac 			; <UNDEFINED> instruction: 0xf00003ac
     2a0:	00000000 	andeq	r0, r0, r0
     2a4:	0000031f 	andeq	r0, r0, pc, lsl r3
     2a8:	67726112 			; <UNDEFINED> instruction: 0x67726112
     2ac:	1f3d0100 	svcne	0x003d0100
     2b0:	20000003 	andcs	r0, r0, r3
     2b4:	13000000 	movwne	r0, #0
     2b8:	00000193 	muleq	r0, r3, r1
     2bc:	03253f01 	teqeq	r5, #1, 30
     2c0:	003e0000 	eorseq	r0, lr, r0
     2c4:	010e0000 	tsteq	lr, r0
     2c8:	00000140 	andeq	r0, r0, r0, asr #2
     2cc:	00938001 	addseq	r8, r3, r1
     2d0:	d9010000 	stmdble	r1, {}	; <UNPREDICTABLE>
     2d4:	0f000002 	svceq	0x00000002
     2d8:	c0010e00 	andgt	r0, r1, r0, lsl #28
     2dc:	01000000 	tsteq	r0, r0
     2e0:	00009391 	muleq	r0, r1, r3
     2e4:	02ec0100 	rsceq	r0, ip, #0, 2
     2e8:	000f0000 	andeq	r0, pc, r0
     2ec:	00010014 	andeq	r0, r1, r4, lsl r0
     2f0:	00010cf0 	strdeq	r0, [r1], -r0	; <UNPREDICTABLE>
     2f4:	000309f0 	strdeq	r0, [r3], -r0	; <UNPREDICTABLE>
     2f8:	b4011000 	strlt	r1, [r1], #-0
     2fc:	01000001 	tsteq	r0, r1
     300:	00009378 	andeq	r9, r0, r8, ror r3
     304:	000f0100 	andeq	r0, pc, r0, lsl #2
     308:	025b1500 	subseq	r1, fp, #0, 10
     30c:	01140000 	tsteq	r4, r0
     310:	0000f000 	andeq	pc, r0, r0
     314:	82010000 	andhi	r0, r1, #0
     318:	00001816 	andeq	r1, r0, r6, lsl r8
     31c:	17000000 	strne	r0, [r0, -r0]
     320:	00009a04 	andeq	r9, r0, r4, lsl #20
     324:	2b041700 	blcs	105f2c <__standby_start+0x105f2c>
     328:	04000003 	streq	r0, [r0], #-3
     32c:	01af0801 			; <UNDEFINED> instruction: 0x01af0801
     330:	57180000 	ldrpl	r0, [r8, -r0]
     334:	08000002 	stmdaeq	r0, {r1}
     338:	00009a24 	andeq	r9, r0, r4, lsr #20
     33c:	18010100 	stmdane	r1, {r8}
     340:	000001c4 	andeq	r0, r0, r4, asr #3
     344:	03251901 	teqeq	r5, #16384	; 0x4000
     348:	01010000 	tsteq	r1, r0
     34c:	0000a618 	andeq	sl, r0, r8, lsl r6
     350:	251a0100 	ldrcs	r0, [sl, #-256]	; 0xffffff00
     354:	01000003 	tsteq	r0, r3
     358:	024a1901 	subeq	r1, sl, #16384	; 0x4000
     35c:	1e010000 	cdpne	0, 0, cr0, cr1, cr0, {0}
     360:	000000e3 	andeq	r0, r0, r3, ror #1
     364:	280c0305 	stmdacs	ip, {r0, r2, r8, r9}
     368:	5619f000 	ldrpl	pc, [r9], -r0
     36c:	01000003 	tsteq	r0, r3
     370:	0000e320 	andeq	lr, r0, r0, lsr #6
     374:	20030500 	andcs	r0, r3, r0, lsl #10
     378:	19f00028 	ldmibne	r0!, {r3, r5}^
     37c:	0000035c 	andeq	r0, r0, ip, asr r3
     380:	00e32001 	rsceq	r2, r3, r1
     384:	03050000 	movweq	r0, #20480	; 0x5000
     388:	f0002824 			; <UNDEFINED> instruction: 0xf0002824
     38c:	00000019 	andeq	r0, r0, r9, lsl r0
     390:	f8210100 			; <UNDEFINED> instruction: 0xf8210100
     394:	05000001 	streq	r0, [r0, #-1]
     398:	00281003 	eoreq	r1, r8, r3
     39c:	01d019f0 	ldrsheq	r1, [r0, #144]	; 0x90
     3a0:	22010000 	andcs	r0, r1, #0
     3a4:	000001f8 	strdeq	r0, [r0], -r8
     3a8:	28180305 	ldmdacs	r8, {r0, r2, r8, r9}
     3ac:	9e19f000 	cdpls	0, 1, cr15, cr9, cr0, {0}
     3b0:	01000001 	tsteq	r0, r1
     3b4:	0000fc24 	andeq	pc, r0, r4, lsr #24
     3b8:	28030500 	stmdacs	r3, {r8, sl}
     3bc:	19f00028 	ldmibne	r0!, {r3, r5}^
     3c0:	0000019a 	muleq	r0, sl, r1
     3c4:	00fc2501 	rscseq	r2, ip, r1, lsl #10
     3c8:	03050000 	movweq	r0, #20480	; 0x5000
     3cc:	f000282c 			; <UNDEFINED> instruction: 0xf000282c
     3d0:	00005619 	andeq	r5, r0, r9, lsl r6
     3d4:	4b2c0100 	blmi	b007dc <__standby_start+0xb007dc>
     3d8:	05000002 	streq	r0, [r0, #-2]
     3dc:	0027cc03 	eoreq	ip, r7, r3, lsl #24
     3e0:	02571af0 	subseq	r1, r7, #240, 20	; 0xf0000
     3e4:	28010000 	stmdacs	r1, {}	; <UNPREDICTABLE>
     3e8:	0000009a 	muleq	r0, sl, r0
     3ec:	c4030501 	strgt	r0, [r3], #-1281	; 0xfffffaff
     3f0:	18f00028 	ldmne	r0!, {r3, r5}^
     3f4:	000001c4 	andeq	r0, r0, r4, asr #3
     3f8:	03251901 	teqeq	r5, #16384	; 0x4000
     3fc:	01010000 	tsteq	r1, r0
     400:	0000a618 	andeq	sl, r0, r8, lsl r6
     404:	251a0100 	ldrcs	r0, [sl, #-256]	; 0xffffff00
     408:	01000003 	tsteq	r0, r3
     40c:	01170001 	tsteq	r7, r1
     410:	00020000 	andeq	r0, r2, r0
     414:	0000016f 	andeq	r0, r0, pc, ror #2
     418:	03280104 	teqeq	r8, #4, 2
     41c:	f6010000 			; <UNDEFINED> instruction: 0xf6010000
     420:	ba000003 	blt	434 <__standby_start+0x434>
     424:	ac000002 	stcge	0, cr0, [r0], {2}
     428:	e8f00003 	ldm	r0!, {r0, r1}^
     42c:	6bf00003 	blvs	ffc00440 <__bss_end+0xfbfdb64>
     430:	02000001 	andeq	r0, r0, #1
     434:	022a0704 	eoreq	r0, sl, #4, 14	; 0x100000
     438:	01020000 	tsteq	r2, r0
     43c:	0001a608 	andeq	sl, r1, r8, lsl #12
     440:	05040300 	streq	r0, [r4, #-768]	; 0xfffffd00
     444:	00746e69 	rsbseq	r6, r4, r9, ror #28
     448:	a8060102 	stmdage	r6, {r1, r8}
     44c:	02000001 	andeq	r0, r0, #1
     450:	01da0502 	bicseq	r0, sl, r2, lsl #10
     454:	02020000 	andeq	r0, r2, #0
     458:	00028c07 	andeq	r8, r2, r7, lsl #24
     45c:	013a0400 	teqeq	sl, r0, lsl #8
     460:	1a030000 	bne	c0468 <__standby_start+0xc0468>
     464:	00000025 	andeq	r0, r0, r5, lsr #32
     468:	69050802 	stmdbvs	r5, {r1, fp}
     46c:	02000001 	andeq	r0, r0, #1
     470:	02200708 	eoreq	r0, r0, #8, 14	; 0x200000
     474:	04050000 	streq	r0, [r5], #-0
     478:	03df0106 	bicseq	r0, pc, #-2147483647	; 0x80000001
     47c:	23010000 	movwcs	r0, #4096	; 0x1000
     480:	0003ac01 	andeq	sl, r3, r1, lsl #24
     484:	0003d4f0 	strdeq	sp, [r3], -r0
     488:	007d02f0 	ldrshteq	r0, [sp], #-32	; 0xffffffe0
     48c:	000000cc 	andeq	r0, r0, ip, asr #1
     490:	0003b407 	andeq	fp, r3, r7, lsl #8
     494:	68230100 	stmdavs	r3!, {r8}
     498:	5c000000 	stcpl	0, cr0, [r0], {-0}
     49c:	08000000 	stmdaeq	r0, {}	; <UNPREDICTABLE>
     4a0:	00637273 	rsbeq	r7, r3, r3, ror r2
     4a4:	00682301 	rsbeq	r2, r8, r1, lsl #6
     4a8:	006f0000 	rsbeq	r0, pc, r0
     4ac:	6e080000 	cdpvs	0, 0, cr0, cr8, cr0, {0}
     4b0:	33230100 	teqcc	r3, #0, 2
     4b4:	82000000 	andhi	r0, r0, #0
     4b8:	09000000 	stmdbeq	r0, {}	; <UNPREDICTABLE>
     4bc:	000003ee 	andeq	r0, r0, lr, ror #7
     4c0:	00cc2501 	sbceq	r2, ip, r1, lsl #10
     4c4:	00ad0000 	adceq	r0, sp, r0
     4c8:	c8090000 	stmdagt	r9, {}	; <UNPREDICTABLE>
     4cc:	01000003 	tsteq	r0, r3
     4d0:	0000cc26 	andeq	ip, r0, r6, lsr #24
     4d4:	0000c000 	andeq	ip, r0, r0
     4d8:	040a0000 	streq	r0, [sl], #-0
     4dc:	000000d2 	ldrdeq	r0, [r0], -r2
     4e0:	af080102 	svcge	0x00080102
     4e4:	06000001 	streq	r0, [r0], -r1
     4e8:	0003b901 	andeq	fp, r3, r1, lsl #18
     4ec:	01430100 	mrseq	r0, SPSR
     4f0:	f00003d4 			; <UNDEFINED> instruction: 0xf00003d4
     4f4:	f00003e8 			; <UNDEFINED> instruction: 0xf00003e8
     4f8:	00007d02 	andeq	r7, r0, r2, lsl #26
     4fc:	08000001 	stmdaeq	r0, {r0}
     500:	0100736d 	tsteq	r0, sp, ror #6
     504:	00003343 	andeq	r3, r0, r3, asr #6
     508:	0000de00 	andeq	sp, r0, r0, lsl #28
     50c:	d00b0000 	andle	r0, fp, r0
     510:	02000003 	andeq	r0, r0, #3
     514:	00004f35 	andeq	r4, r0, r5, lsr pc
     518:	0b010100 	bleq	40920 <__standby_start+0x40920>
     51c:	000003d0 	ldrdeq	r0, [r0], -r0	; <UNPREDICTABLE>
     520:	004f3502 	subeq	r3, pc, r2, lsl #10
     524:	01010000 	tsteq	r1, r0
     528:	00006100 	andeq	r6, r0, r0, lsl #2
     52c:	0b000200 	bleq	d34 <__standby_start+0xd34>
     530:	04000002 	streq	r0, [r0], #-2
     534:	0001dd01 	andeq	sp, r1, r1, lsl #26
     538:	0003e800 	andeq	lr, r3, r0, lsl #16
     53c:	00050cf0 	strdeq	r0, [r5], -r0	; <UNPREDICTABLE>
     540:	617473f0 	ldrshvs	r7, [r4, #-48]!	; 0xffffffd0
     544:	532e6b63 	teqpl	lr, #101376	; 0x18c00
     548:	6f682f00 	svcvs	0x00682f00
     54c:	612f656d 	teqvs	pc, sp, ror #10
     550:	6f72646e 	svcvs	0x0072646e
     554:	6b2f6469 	blvs	bd9700 <__standby_start+0xbd9700>
     558:	656e7265 	strbvs	r7, [lr, #-613]!	; 0xfffffd9b
     55c:	72612f6c 	rsbvc	r2, r1, #108, 30	; 0x1b0
     560:	612f6863 	teqvs	pc, r3, ror #16
     564:	6d2f6d72 	stcvs	13, cr6, [pc, #-456]!	; 3a4 <__standby_start+0x3a4>
     568:	2d686361 	stclcs	3, cr6, [r8, #-388]!	; 0xfffffe7c
     56c:	356e7573 	strbcc	r7, [lr, #-1395]!	; 0xfffffa8d
     570:	6d702f69 	ldclvs	15, cr2, [r0, #-420]!	; 0xfffffe5c
     574:	6174732f 	cmnvs	r4, pc, lsr #6
     578:	7962646e 	stmdbvc	r2!, {r1, r2, r3, r5, r6, sl, sp, lr}^
     57c:	554e4700 	strbpl	r4, [lr, #-1792]	; 0xfffff900
     580:	20534120 	subscs	r4, r3, r0, lsr #2
     584:	30322e32 	eorscc	r2, r2, r2, lsr lr
     588:	0031352e 	eorseq	r3, r1, lr, lsr #10
     58c:	21f18001 	mvnscs	r8, r1
     590:	00020000 	andeq	r0, r2, r0
     594:	0000021f 	andeq	r0, r0, pc, lsl r2
     598:	03280104 	teqeq	r8, #4, 2
     59c:	6f010000 	svcvs	0x00010000
     5a0:	ba00000b 	blt	5d4 <__standby_start+0x5d4>
     5a4:	0c000002 	stceq	0, cr0, [r0], {2}
     5a8:	8cf00005 	ldclhi	0, cr0, [r0], #20
     5ac:	4bf0000a 	blmi	ffc005dc <__bss_end+0xfbfdd00>
     5b0:	02000002 	andeq	r0, r0, #2
     5b4:	022a0704 	eoreq	r0, sl, #4, 14	; 0x100000
     5b8:	01020000 	tsteq	r2, r0
     5bc:	0001a608 	andeq	sl, r1, r8, lsl #12
     5c0:	05040300 	streq	r0, [r4, #-768]	; 0xfffffd00
     5c4:	00746e69 	rsbseq	r6, r4, r9, ror #28
     5c8:	a8060102 	stmdage	r6, {r1, r8}
     5cc:	04000001 	streq	r0, [r0], #-1
     5d0:	000002ff 	strdeq	r0, [r0], -pc	; <UNPREDICTABLE>
     5d4:	002c1602 	eoreq	r1, ip, r2, lsl #12
     5d8:	02020000 	andeq	r0, r2, #0
     5dc:	0001da05 	andeq	sp, r1, r5, lsl #20
     5e0:	07020200 	streq	r0, [r2, -r0, lsl #4]
     5e4:	0000028c 	andeq	r0, r0, ip, lsl #5
     5e8:	000dd704 	andeq	sp, sp, r4, lsl #14
     5ec:	33190200 	tstcc	r9, #0, 4
     5f0:	04000000 	streq	r0, [r0], #-0
     5f4:	0000013a 	andeq	r0, r0, sl, lsr r1
     5f8:	00251a02 	eoreq	r1, r5, r2, lsl #20
     5fc:	08020000 	stmdaeq	r2, {}	; <UNPREDICTABLE>
     600:	00016905 	andeq	r6, r1, r5, lsl #18
     604:	07080200 	streq	r0, [r8, -r0, lsl #4]
     608:	00000220 	andeq	r0, r0, r0, lsr #4
     60c:	000ca605 	andeq	sl, ip, r5, lsl #12
     610:	16030400 	strne	r0, [r3], -r0, lsl #8
     614:	00000179 	andeq	r0, r0, r9, ror r1
     618:	00000906 	andeq	r0, r0, r6, lsl #18
     61c:	65180300 	ldrvs	r0, [r8, #-768]	; 0xfffffd00
     620:	04000000 	streq	r0, [r0], #-0
     624:	23021e02 	movwcs	r1, #11778	; 0x2e02
     628:	0ade0600 	beq	ff781e30 <__bss_end+0xf77f554>
     62c:	19030000 	stmdbne	r3, {}	; <UNPREDICTABLE>
     630:	00000065 	andeq	r0, r0, r5, rrx
     634:	021d0104 	andseq	r0, sp, #4, 2
     638:	ad060023 	stcge	0, cr0, [r6, #-140]	; 0xffffff74
     63c:	0300000e 	movweq	r0, #14
     640:	0000651a 	andeq	r6, r0, sl, lsl r5
     644:	1c010400 	cfstrsne	mvf0, [r1], {-0}
     648:	06002302 	streq	r2, [r0], -r2, lsl #6
     64c:	000003ac 	andeq	r0, r0, ip, lsr #7
     650:	00651b03 	rsbeq	r1, r5, r3, lsl #22
     654:	02040000 	andeq	r0, r4, #0
     658:	0023021a 	eoreq	r0, r3, sl, lsl r2
     65c:	000f8b06 	andeq	r8, pc, r6, lsl #22
     660:	651c0300 	ldrvs	r0, [ip, #-768]	; 0xfffffd00
     664:	04000000 	streq	r0, [r0], #-0
     668:	23021802 	movwcs	r1, #10242	; 0x2802
     66c:	00110600 	andseq	r0, r1, r0, lsl #12
     670:	1d030000 	stcne	0, cr0, [r3, #-0]
     674:	00000065 	andeq	r0, r0, r5, rrx
     678:	02130504 	andseq	r0, r3, #4, 10	; 0x1000000
     67c:	38060023 	stmdacc	r6, {r0, r1, r5}
     680:	03000012 	movweq	r0, #18
     684:	0000651e 	andeq	r6, r0, lr, lsl r5
     688:	10030400 	andne	r0, r3, r0, lsl #8
     68c:	06002302 	streq	r2, [r0], -r2, lsl #6
     690:	00000849 	andeq	r0, r0, r9, asr #16
     694:	00651f03 	rsbeq	r1, r5, r3, lsl #30
     698:	02040000 	andeq	r0, r4, #0
     69c:	0023020e 	eoreq	r0, r3, lr, lsl #4
     6a0:	000f9506 	andeq	r9, pc, r6, lsl #10
     6a4:	65200300 	strvs	r0, [r0, #-768]!	; 0xfffffd00
     6a8:	04000000 	streq	r0, [r0], #-0
     6ac:	23020c02 	movwcs	r0, #11266	; 0x2c02
     6b0:	10a60600 	adcne	r0, r6, r0, lsl #12
     6b4:	21030000 	tstcs	r3, r0
     6b8:	00000065 	andeq	r0, r0, r5, rrx
     6bc:	02070504 	andeq	r0, r7, #4, 10	; 0x1000000
     6c0:	9f060023 	svcls	0x00060023
     6c4:	0300000f 	movweq	r0, #15
     6c8:	00006522 	andeq	r6, r0, r2, lsr #10
     6cc:	06010400 	streq	r0, [r1], -r0, lsl #8
     6d0:	06002302 	streq	r2, [r0], -r2, lsl #6
     6d4:	00000f10 	andeq	r0, r0, r0, lsl pc
     6d8:	00652303 	rsbeq	r2, r5, r3, lsl #6
     6dc:	04040000 	streq	r0, [r4], #-0
     6e0:	00230202 	eoreq	r0, r3, r2, lsl #4
     6e4:	000bfe06 	andeq	pc, fp, r6, lsl #28
     6e8:	65240300 	strvs	r0, [r4, #-768]!	; 0xfffffd00
     6ec:	04000000 	streq	r0, [r0], #-0
     6f0:	23020101 	movwcs	r0, #8449	; 0x2101
     6f4:	103f0600 	eorsne	r0, pc, r0, lsl #12
     6f8:	25030000 	strcs	r0, [r3, #-0]
     6fc:	00000065 	andeq	r0, r0, r5, rrx
     700:	02000104 	andeq	r0, r0, #4, 2
     704:	04000023 	streq	r0, [r0], #-35	; 0xffffffdd
     708:	000009ee 	andeq	r0, r0, lr, ror #19
     70c:	007e2703 	rsbseq	r2, lr, r3, lsl #14
     710:	75050000 	strvc	r0, [r5, #-0]
     714:	04000011 	streq	r0, [r0], #-17	; 0xffffffef
     718:	01f72903 	mvnseq	r2, r3, lsl #18
     71c:	8b060000 	blhi	180724 <__standby_start+0x180724>
     720:	0300000f 	movweq	r0, #15
     724:	0000652b 	andeq	r6, r0, fp, lsr #10
     728:	10100400 	andsne	r0, r0, r0, lsl #8
     72c:	06002302 	streq	r2, [r0], -r2, lsl #6
     730:	00001093 	muleq	r0, r3, r0
     734:	00652c03 	rsbeq	r2, r5, r3, lsl #24
     738:	07040000 	streq	r0, [r4, -r0]
     73c:	00230209 	eoreq	r0, r3, r9, lsl #4
     740:	0004bb06 	andeq	fp, r4, r6, lsl #22
     744:	652d0300 	strvs	r0, [sp, #-768]!	; 0xfffffd00
     748:	04000000 	streq	r0, [r0], #-0
     74c:	23020603 	movwcs	r0, #9731	; 0x2603
     750:	12b20600 	adcsne	r0, r2, #0, 12
     754:	2e030000 	cdpcs	0, 0, cr0, cr3, cr0, {0}
     758:	00000065 	andeq	r0, r0, r5, rrx
     75c:	02050104 	andeq	r0, r5, #4, 2
     760:	15060023 	strne	r0, [r6, #-35]	; 0xffffffdd
     764:	03000006 	movweq	r0, #6
     768:	0000652f 	andeq	r6, r0, pc, lsr #10
     76c:	04010400 	streq	r0, [r1], #-1024	; 0xfffffc00
     770:	06002302 	streq	r2, [r0], -r2, lsl #6
     774:	000009a2 	andeq	r0, r0, r2, lsr #19
     778:	00653003 	rsbeq	r3, r5, r3
     77c:	04040000 	streq	r0, [r4], #-0
     780:	00230200 	eoreq	r0, r3, r0, lsl #4
     784:	06c60400 	strbeq	r0, [r6], r0, lsl #8
     788:	31030000 	tstcc	r3, r0
     78c:	00000184 	andeq	r0, r0, r4, lsl #3
     790:	000c5d05 	andeq	r5, ip, r5, lsl #26
     794:	34030400 	strcc	r0, [r3], #-1024	; 0xfffffc00
     798:	000002a8 	andeq	r0, r0, r8, lsr #5
     79c:	00126906 	andseq	r6, r2, r6, lsl #18
     7a0:	65360300 	ldrvs	r0, [r6, #-768]!	; 0xfffffd00
     7a4:	04000000 	streq	r0, [r0], #-0
     7a8:	23021b05 	movwcs	r1, #11013	; 0x2b05
     7ac:	0f8b0600 	svceq	0x008b0600
     7b0:	37030000 	strcc	r0, [r3, -r0]
     7b4:	00000065 	andeq	r0, r0, r5, rrx
     7b8:	02180304 	andseq	r0, r8, #4, 6	; 0x10000000
     7bc:	11060023 	tstne	r6, r3, lsr #32
     7c0:	03000000 	movweq	r0, #0
     7c4:	00006538 	andeq	r6, r0, r8, lsr r5
     7c8:	11070400 	tstne	r7, r0, lsl #8
     7cc:	06002302 	streq	r2, [r0], -r2, lsl #6
     7d0:	00000f95 	muleq	r0, r5, pc	; <UNPREDICTABLE>
     7d4:	00653903 	rsbeq	r3, r5, r3, lsl #18
     7d8:	01040000 	tsteq	r4, r0
     7dc:	00230210 	eoreq	r0, r3, r0, lsl r2
     7e0:	0010a606 	andseq	sl, r0, r6, lsl #12
     7e4:	653a0300 	ldrvs	r0, [sl, #-768]!	; 0xfffffd00
     7e8:	04000000 	streq	r0, [r0], #-0
     7ec:	23020b05 	movwcs	r0, #11013	; 0x2b05
     7f0:	12610600 	rsbne	r0, r1, #0, 12
     7f4:	3b030000 	blcc	c07fc <__standby_start+0xc07fc>
     7f8:	00000065 	andeq	r0, r0, r5, rrx
     7fc:	02060504 	andeq	r0, r6, #4, 10	; 0x1000000
     800:	37060023 	strcc	r0, [r6, -r3, lsr #32]
     804:	03000005 	movweq	r0, #5
     808:	0000653c 	andeq	r6, r0, ip, lsr r5
     80c:	02040400 	andeq	r0, r4, #0, 8
     810:	06002302 	streq	r2, [r0], -r2, lsl #6
     814:	00000f9f 	muleq	r0, pc, pc	; <UNPREDICTABLE>
     818:	00653d03 	rsbeq	r3, r5, r3, lsl #26
     81c:	01040000 	tsteq	r4, r0
     820:	00230201 	eoreq	r0, r3, r1, lsl #4
     824:	00103f06 	andseq	r3, r0, r6, lsl #30
     828:	653e0300 	ldrvs	r0, [lr, #-768]!	; 0xfffffd00
     82c:	04000000 	streq	r0, [r0], #-0
     830:	23020001 	movwcs	r0, #8193	; 0x2001
     834:	0d040000 	stceq	0, cr0, [r4, #-0]
     838:	03000008 	movweq	r0, #8
     83c:	0002023f 	andeq	r0, r2, pc, lsr r2
     840:	04a00500 	strteq	r0, [r0], #1280	; 0x500
     844:	03040000 	movweq	r0, #16384	; 0x4000
     848:	00032642 	andeq	r2, r3, r2, asr #12
     84c:	0aff0600 	beq	fffc2054 <__bss_end+0xffbf778>
     850:	44030000 	strmi	r0, [r3], #-0
     854:	00000065 	andeq	r0, r0, r5, rrx
     858:	020f1104 	andeq	r1, pc, #4, 2
     85c:	d9060023 	stmdble	r6, {r0, r1, r5}
     860:	03000012 	movweq	r0, #18
     864:	00006545 	andeq	r6, r0, r5, asr #10
     868:	0d020400 	cfstrseq	mvf0, [r2, #-0]
     86c:	06002302 	streq	r2, [r0], -r2, lsl #6
     870:	00000f8b 	andeq	r0, r0, fp, lsl #31
     874:	00654603 	rsbeq	r4, r5, r3, lsl #12
     878:	01040000 	tsteq	r4, r0
     87c:	0023020c 	eoreq	r0, r3, ip, lsl #4
     880:	00040806 	andeq	r0, r4, r6, lsl #16
     884:	65470300 	strbvs	r0, [r7, #-768]	; 0xfffffd00
     888:	04000000 	streq	r0, [r0], #-0
     88c:	23020309 	movwcs	r0, #8969	; 0x2309
     890:	08400600 	stmdaeq	r0, {r9, sl}^
     894:	48030000 	stmdami	r3, {}	; <UNPREDICTABLE>
     898:	00000065 	andeq	r0, r0, r5, rrx
     89c:	02010204 	andeq	r0, r1, #4, 4	; 0x40000000
     8a0:	de060023 	cdple	0, 0, cr0, cr6, cr3, {1}
     8a4:	0300000a 	movweq	r0, #10
     8a8:	00006549 	andeq	r6, r0, r9, asr #10
     8ac:	00010400 	andeq	r0, r1, r0, lsl #8
     8b0:	00002302 	andeq	r2, r0, r2, lsl #6
     8b4:	000e9004 	andeq	r9, lr, r4
     8b8:	b34b0300 	movtlt	r0, #45824	; 0xb300
     8bc:	05000002 	streq	r0, [r0, #-2]
     8c0:	00000ed1 	ldrdeq	r0, [r0], -r1
     8c4:	f94e0304 			; <UNDEFINED> instruction: 0xf94e0304
     8c8:	06000003 	streq	r0, [r0], -r3
     8cc:	00000009 	andeq	r0, r0, r9
     8d0:	00655003 	rsbeq	r5, r5, r3
     8d4:	07040000 	streq	r0, [r4, -r0]
     8d8:	00230219 	eoreq	r0, r3, r9, lsl r2
     8dc:	000f8b06 	andeq	r8, pc, r6, lsl #22
     8e0:	65510300 	ldrbvs	r0, [r1, #-768]	; 0xfffffd00
     8e4:	04000000 	streq	r0, [r0], #-0
     8e8:	23021801 	movwcs	r1, #10241	; 0x2801
     8ec:	10a60600 	adcne	r0, r6, r0, lsl #12
     8f0:	52030000 	andpl	r0, r3, #0
     8f4:	00000065 	andeq	r0, r0, r5, rrx
     8f8:	02130504 	andseq	r0, r3, #4, 10	; 0x1000000
     8fc:	95060023 	strls	r0, [r6, #-35]	; 0xffffffdd
     900:	0300000f 	movweq	r0, #15
     904:	00006553 	andeq	r6, r0, r3, asr r5
     908:	12010400 	andne	r0, r1, #0, 8
     90c:	06002302 	streq	r2, [r0], -r2, lsl #6
     910:	00000bd0 	ldrdeq	r0, [r0], -r0	; <UNPREDICTABLE>
     914:	00655403 	rsbeq	r5, r5, r3, lsl #8
     918:	01040000 	tsteq	r4, r0
     91c:	00230211 	eoreq	r0, r3, r1, lsl r2
     920:	000db406 	andeq	fp, sp, r6, lsl #8
     924:	65550300 	ldrbvs	r0, [r5, #-768]	; 0xfffffd00
     928:	04000000 	streq	r0, [r0], #-0
     92c:	23021001 	movwcs	r1, #8193	; 0x2001
     930:	0f100600 	svceq	0x00100600
     934:	56030000 	strpl	r0, [r3], -r0
     938:	00000065 	andeq	r0, r0, r5, rrx
     93c:	020b0504 	andeq	r0, fp, #4, 10	; 0x1000000
     940:	9f060023 	svcls	0x00060023
     944:	0300000f 	movweq	r0, #15
     948:	00006557 	andeq	r6, r0, r7, asr r5
     94c:	08030400 	stmdaeq	r3, {sl}
     950:	06002302 	streq	r2, [r0], -r2, lsl #6
     954:	000009a2 	andeq	r0, r0, r2, lsr #19
     958:	00655803 	rsbeq	r5, r5, r3, lsl #16
     95c:	03040000 	movweq	r0, #16384	; 0x4000
     960:	00230205 	eoreq	r0, r3, r5, lsl #4
     964:	000fa906 	andeq	sl, pc, r6, lsl #18
     968:	65590300 	ldrbvs	r0, [r9, #-768]	; 0xfffffd00
     96c:	04000000 	streq	r0, [r0], #-0
     970:	23020104 	movwcs	r0, #8452	; 0x2104
     974:	103f0600 	eorsne	r0, pc, r0, lsl #12
     978:	5a030000 	bpl	c0980 <__standby_start+0xc0980>
     97c:	00000065 	andeq	r0, r0, r5, rrx
     980:	02000104 	andeq	r0, r0, #4, 2
     984:	04000023 	streq	r0, [r0], #-35	; 0xffffffdd
     988:	00000cf2 	strdeq	r0, [r0], -r2
     98c:	03315b03 	teqeq	r1, #3072	; 0xc00
     990:	e3050000 	movw	r0, #20480	; 0x5000
     994:	04000006 	streq	r0, [r0], #-6
     998:	04ff5e03 	ldrbteq	r5, [pc], #3587	; 9a0 <__standby_start+0x9a0>
     99c:	09060000 	stmdbeq	r6, {}	; <UNPREDICTABLE>
     9a0:	03000000 	movweq	r0, #0
     9a4:	00006560 	andeq	r6, r0, r0, ror #10
     9a8:	1e020400 	cfcpysne	mvf0, mvf2
     9ac:	06002302 	streq	r2, [r0], -r2, lsl #6
     9b0:	00000f8b 	andeq	r0, r0, fp, lsl #31
     9b4:	00656103 	rsbeq	r6, r5, r3, lsl #2
     9b8:	02040000 	andeq	r0, r4, #0
     9bc:	0023021c 	eoreq	r0, r3, ip, lsl r2
     9c0:	0003ac06 	andeq	sl, r3, r6, lsl #24
     9c4:	65620300 	strbvs	r0, [r2, #-768]!	; 0xfffffd00
     9c8:	04000000 	streq	r0, [r0], #-0
     9cc:	23021a02 	movwcs	r1, #10754	; 0x2a02
     9d0:	0f950600 	svceq	0x00950600
     9d4:	63030000 	movwvs	r0, #12288	; 0x3000
     9d8:	00000065 	andeq	r0, r0, r5, rrx
     9dc:	02180204 	andseq	r0, r8, #4, 4	; 0x40000000
     9e0:	11060023 	tstne	r6, r3, lsr #32
     9e4:	03000000 	movweq	r0, #0
     9e8:	00006564 	andeq	r6, r0, r4, ror #10
     9ec:	13050400 	movwne	r0, #21504	; 0x5400
     9f0:	06002302 	streq	r2, [r0], -r2, lsl #6
     9f4:	00000f9f 	muleq	r0, pc, pc	; <UNPREDICTABLE>
     9f8:	00656503 	rsbeq	r6, r5, r3, lsl #10
     9fc:	01040000 	tsteq	r4, r0
     a00:	00230212 	eoreq	r0, r3, r2, lsl r2
     a04:	0009ca06 	andeq	ip, r9, r6, lsl #20
     a08:	65660300 	strbvs	r0, [r6, #-768]!	; 0xfffffd00
     a0c:	04000000 	streq	r0, [r0], #-0
     a10:	23021002 	movwcs	r1, #8194	; 0x2002
     a14:	00190600 	andseq	r0, r9, r0, lsl #12
     a18:	67030000 	strvs	r0, [r3, -r0]
     a1c:	00000065 	andeq	r0, r0, r5, rrx
     a20:	020e0204 	andeq	r0, lr, #4, 4	; 0x40000000
     a24:	a9060023 	stmdbge	r6, {r0, r1, r5}
     a28:	0300000f 	movweq	r0, #15
     a2c:	00006568 	andeq	r6, r0, r8, ror #10
     a30:	0d010400 	cfstrseq	mvf0, [r1, #-0]
     a34:	06002302 	streq	r2, [r0], -r2, lsl #6
     a38:	000012b2 			; <UNDEFINED> instruction: 0x000012b2
     a3c:	00656903 	rsbeq	r6, r5, r3, lsl #18
     a40:	01040000 	tsteq	r4, r0
     a44:	0023020c 	eoreq	r0, r3, ip, lsl #4
     a48:	0010a606 	andseq	sl, r0, r6, lsl #12
     a4c:	656a0300 	strbvs	r0, [sl, #-768]!	; 0xfffffd00
     a50:	04000000 	streq	r0, [r0], #-0
     a54:	23020705 	movwcs	r0, #9989	; 0x2705
     a58:	0f100600 	svceq	0x00100600
     a5c:	6b030000 	blvs	c0a64 <__standby_start+0xc0a64>
     a60:	00000065 	andeq	r0, r0, r5, rrx
     a64:	02020504 	andeq	r0, r2, #4, 10	; 0x1000000
     a68:	bb060023 	bllt	180afc <__standby_start+0x180afc>
     a6c:	0300000b 	movweq	r0, #11
     a70:	0000656c 	andeq	r6, r0, ip, ror #10
     a74:	01010400 	tsteq	r1, r0, lsl #8
     a78:	06002302 	streq	r2, [r0], -r2, lsl #6
     a7c:	0000103f 	andeq	r1, r0, pc, lsr r0
     a80:	00656d03 	rsbeq	r6, r5, r3, lsl #26
     a84:	01040000 	tsteq	r4, r0
     a88:	00230200 	eoreq	r0, r3, r0, lsl #4
     a8c:	13040400 	movwne	r0, #17408	; 0x4400
     a90:	6e030000 	cdpvs	0, 0, cr0, cr3, cr0, {0}
     a94:	00000404 	andeq	r0, r0, r4, lsl #8
     a98:	0006a605 	andeq	sl, r6, r5, lsl #12
     a9c:	71030400 	tstvc	r3, r0, lsl #8
     aa0:	00000616 	andeq	r0, r0, r6, lsl r6
     aa4:	00000906 	andeq	r0, r0, r6, lsl #18
     aa8:	65730300 	ldrbvs	r0, [r3, #-768]!	; 0xfffffd00
     aac:	04000000 	streq	r0, [r0], #-0
     ab0:	23021e02 	movwcs	r1, #11778	; 0x2e02
     ab4:	11390600 	teqne	r9, r0, lsl #12
     ab8:	74030000 	strvc	r0, [r3], #-0
     abc:	00000065 	andeq	r0, r0, r5, rrx
     ac0:	021c0204 	andseq	r0, ip, #4, 4	; 0x40000000
     ac4:	ac060023 	stcge	0, cr0, [r6], {35}	; 0x23
     ac8:	03000003 	movweq	r0, #3
     acc:	00006575 	andeq	r6, r0, r5, ror r5
     ad0:	1a020400 	bne	81ad8 <__standby_start+0x81ad8>
     ad4:	06002302 	streq	r2, [r0], -r2, lsl #6
     ad8:	00000f8b 	andeq	r0, r0, fp, lsl #31
     adc:	00657603 	rsbeq	r7, r5, r3, lsl #12
     ae0:	01040000 	tsteq	r4, r0
     ae4:	00230219 	eoreq	r0, r3, r9, lsl r2
     ae8:	00113206 	andseq	r3, r1, r6, lsl #4
     aec:	65770300 	ldrbvs	r0, [r7, #-768]!	; 0xfffffd00
     af0:	04000000 	streq	r0, [r0], #-0
     af4:	23021801 	movwcs	r1, #10241	; 0x2801
     af8:	00110600 	andseq	r0, r1, r0, lsl #12
     afc:	78030000 	stmdavc	r3, {}	; <UNPREDICTABLE>
     b00:	00000065 	andeq	r0, r0, r5, rrx
     b04:	02130504 	andseq	r0, r3, #4, 10	; 0x1000000
     b08:	b2060023 	andlt	r0, r6, #35	; 0x23
     b0c:	03000012 	movweq	r0, #18
     b10:	00006579 	andeq	r6, r0, r9, ror r5
     b14:	10030400 	andne	r0, r3, r0, lsl #8
     b18:	06002302 	streq	r2, [r0], -r2, lsl #6
     b1c:	00000019 	andeq	r0, r0, r9, lsl r0
     b20:	00657a03 	rsbeq	r7, r5, r3, lsl #20
     b24:	02040000 	andeq	r0, r4, #0
     b28:	0023020e 	eoreq	r0, r3, lr, lsl #4
     b2c:	00061506 	andeq	r1, r6, r6, lsl #10
     b30:	657b0300 	ldrbvs	r0, [fp, #-768]!	; 0xfffffd00
     b34:	04000000 	streq	r0, [r0], #-0
     b38:	23020d01 	movwcs	r0, #11521	; 0x2d01
     b3c:	055c0600 	ldrbeq	r0, [ip, #-1536]	; 0xfffffa00
     b40:	7c030000 	stcvc	0, cr0, [r3], {-0}
     b44:	00000065 	andeq	r0, r0, r5, rrx
     b48:	020c0104 	andeq	r0, ip, #4, 2
     b4c:	a6060023 	strge	r0, [r6], -r3, lsr #32
     b50:	03000010 	movweq	r0, #16
     b54:	0000657d 	andeq	r6, r0, sp, ror r5
     b58:	07050400 	streq	r0, [r5, -r0, lsl #8]
     b5c:	06002302 	streq	r2, [r0], -r2, lsl #6
     b60:	00000f10 	andeq	r0, r0, r0, lsl pc
     b64:	00657e03 	rsbeq	r7, r5, r3, lsl #28
     b68:	04040000 	streq	r0, [r4], #-0
     b6c:	00230203 	eoreq	r0, r3, r3, lsl #4
     b70:	000eb506 	andeq	fp, lr, r6, lsl #10
     b74:	657f0300 	ldrbvs	r0, [pc, #-768]!	; 87c <__standby_start+0x87c>
     b78:	04000000 	streq	r0, [r0], #-0
     b7c:	23020201 	movwcs	r0, #8705	; 0x2201
     b80:	0bbb0600 	bleq	feec2388 <__bss_end+0xeebfaac>
     b84:	80030000 	andhi	r0, r3, r0
     b88:	00000065 	andeq	r0, r0, r5, rrx
     b8c:	02010104 	andeq	r0, r1, #4, 2
     b90:	3f060023 	svccc	0x00060023
     b94:	03000010 	movweq	r0, #16
     b98:	00006581 	andeq	r6, r0, r1, lsl #11
     b9c:	00010400 	andeq	r0, r1, r0, lsl #8
     ba0:	00002302 	andeq	r2, r0, r2, lsl #6
     ba4:	0007f304 	andeq	pc, r7, r4, lsl #6
     ba8:	0a820300 	beq	fe0817b0 <__bss_end+0xe07eed4>
     bac:	05000005 	streq	r0, [r0, #-5]
     bb0:	00001297 	muleq	r0, r7, r2
     bb4:	a5850304 	strge	r0, [r5, #772]	; 0x304
     bb8:	06000006 	streq	r0, [r0], -r6
     bbc:	00000f8b 	andeq	r0, r0, fp, lsl #31
     bc0:	00658703 	rsbeq	r8, r5, r3, lsl #14
     bc4:	10040000 	andne	r0, r4, r0
     bc8:	00230210 	eoreq	r0, r3, r0, lsl r2
     bcc:	00109306 	andseq	r9, r0, r6, lsl #6
     bd0:	65880300 	strvs	r0, [r8, #768]	; 0x300
     bd4:	04000000 	streq	r0, [r0], #-0
     bd8:	23020907 	movwcs	r0, #10503	; 0x2907
     bdc:	0bfe0600 	bleq	fff823e4 <__bss_end+0xff7fb08>
     be0:	89030000 	stmdbhi	r3, {}	; <UNPREDICTABLE>
     be4:	00000065 	andeq	r0, r0, r5, rrx
     be8:	02080104 	andeq	r0, r8, #4, 2
     bec:	38060023 	stmdacc	r6, {r0, r1, r5}
     bf0:	03000012 	movweq	r0, #18
     bf4:	0000658a 	andeq	r6, r0, sl, lsl #11
     bf8:	05030400 	streq	r0, [r3, #-1024]	; 0xfffffc00
     bfc:	06002302 	streq	r2, [r0], -r2, lsl #6
     c00:	00000f95 	muleq	r0, r5, pc	; <UNPREDICTABLE>
     c04:	00658b03 	rsbeq	r8, r5, r3, lsl #22
     c08:	01040000 	tsteq	r4, r0
     c0c:	00230204 	eoreq	r0, r3, r4, lsl #4
     c10:	0010e306 	andseq	lr, r0, r6, lsl #6
     c14:	658c0300 	strvs	r0, [ip, #768]	; 0x300
     c18:	04000000 	streq	r0, [r0], #-0
     c1c:	23020301 	movwcs	r0, #8961	; 0x2301
     c20:	09a20600 	stmibeq	r2!, {r9, sl}
     c24:	8d030000 	stchi	0, cr0, [r3, #-0]
     c28:	00000065 	andeq	r0, r0, r5, rrx
     c2c:	02000304 	andeq	r0, r0, #4, 6	; 0x10000000
     c30:	04000023 	streq	r0, [r0], #-35	; 0xffffffdd
     c34:	00000c89 	andeq	r0, r0, r9, lsl #25
     c38:	06218e03 	strteq	r8, [r1], -r3, lsl #28
     c3c:	64050000 	strvs	r0, [r5], #-0
     c40:	04000007 	streq	r0, [r0], #-7
     c44:	07899003 	streq	r9, [r9, r3]
     c48:	09060000 	stmdbeq	r6, {}	; <UNPREDICTABLE>
     c4c:	03000000 	movweq	r0, #0
     c50:	00006592 	muleq	r0, r2, r5
     c54:	1e020400 	cfcpysne	mvf0, mvf2
     c58:	06002302 	streq	r2, [r0], -r2, lsl #6
     c5c:	00000f8b 	andeq	r0, r0, fp, lsl #31
     c60:	00659303 	rsbeq	r9, r5, r3, lsl #6
     c64:	02040000 	andeq	r0, r4, #0
     c68:	0023021c 	eoreq	r0, r3, ip, lsl r2
     c6c:	0003ac06 	andeq	sl, r3, r6, lsl #24
     c70:	65940300 	ldrvs	r0, [r4, #768]	; 0x300
     c74:	04000000 	streq	r0, [r0], #-0
     c78:	23021a02 	movwcs	r1, #10754	; 0x2a02
     c7c:	09a20600 	stmibeq	r2!, {r9, sl}
     c80:	95030000 	strls	r0, [r3, #-0]
     c84:	00000065 	andeq	r0, r0, r5, rrx
     c88:	02180204 	andseq	r0, r8, #4, 4	; 0x40000000
     c8c:	11060023 	tstne	r6, r3, lsr #32
     c90:	03000000 	movweq	r0, #0
     c94:	00006596 	muleq	r0, r6, r5
     c98:	13050400 	movwne	r0, #21504	; 0x5400
     c9c:	06002302 	streq	r2, [r0], -r2, lsl #6
     ca0:	00000f95 	muleq	r0, r5, pc	; <UNPREDICTABLE>
     ca4:	00659703 	rsbeq	r9, r5, r3, lsl #14
     ca8:	02040000 	andeq	r0, r4, #0
     cac:	00230211 	eoreq	r0, r3, r1, lsl r2
     cb0:	00061506 	andeq	r1, r6, r6, lsl #10
     cb4:	65980300 	ldrvs	r0, [r8, #768]	; 0x300
     cb8:	04000000 	streq	r0, [r0], #-0
     cbc:	23021001 	movwcs	r1, #8193	; 0x2001
     cc0:	0f9f0600 	svceq	0x009f0600
     cc4:	99030000 	stmdbls	r3, {}	; <UNPREDICTABLE>
     cc8:	00000065 	andeq	r0, r0, r5, rrx
     ccc:	020c0404 	andeq	r0, ip, #4, 8	; 0x4000000
     cd0:	a6060023 	strge	r0, [r6], -r3, lsr #32
     cd4:	03000010 	movweq	r0, #16
     cd8:	0000659a 	muleq	r0, sl, r5
     cdc:	07050400 	streq	r0, [r5, -r0, lsl #8]
     ce0:	06002302 	streq	r2, [r0], -r2, lsl #6
     ce4:	00000f10 	andeq	r0, r0, r0, lsl pc
     ce8:	00659b03 	rsbeq	r9, r5, r3, lsl #22
     cec:	05040000 	streq	r0, [r4, #-0]
     cf0:	00230202 	eoreq	r0, r3, r2, lsl #4
     cf4:	000bbb06 	andeq	fp, fp, r6, lsl #22
     cf8:	659c0300 	ldrvs	r0, [ip, #768]	; 0x300
     cfc:	04000000 	streq	r0, [r0], #-0
     d00:	23020101 	movwcs	r0, #8449	; 0x2101
     d04:	103f0600 	eorsne	r0, pc, r0, lsl #12
     d08:	9d030000 	stcls	0, cr0, [r3, #-0]
     d0c:	00000065 	andeq	r0, r0, r5, rrx
     d10:	02000104 	andeq	r0, r0, #4, 2
     d14:	04000023 	streq	r0, [r0], #-35	; 0xffffffdd
     d18:	000005fa 	strdeq	r0, [r0], -sl
     d1c:	06b09e03 	ldrteq	r9, [r0], r3, lsl #28
     d20:	bc050000 	stclt	0, cr0, [r5], {-0}
     d24:	0400000d 	streq	r0, [r0], #-13
     d28:	085ca103 	ldmdaeq	ip, {r0, r1, r8, sp, pc}^
     d2c:	09060000 	stmdbeq	r6, {}	; <UNPREDICTABLE>
     d30:	03000000 	movweq	r0, #0
     d34:	000065a3 	andeq	r6, r0, r3, lsr #11
     d38:	19070400 	stmdbne	r7, {sl}
     d3c:	06002302 	streq	r2, [r0], -r2, lsl #6
     d40:	00000f8b 	andeq	r0, r0, fp, lsl #31
     d44:	0065a403 	rsbeq	sl, r5, r3, lsl #8
     d48:	01040000 	tsteq	r4, r0
     d4c:	00230218 	eoreq	r0, r3, r8, lsl r2
     d50:	0010a606 	andseq	sl, r0, r6, lsl #12
     d54:	65a50300 	strvs	r0, [r5, #768]!	; 0x300
     d58:	04000000 	streq	r0, [r0], #-0
     d5c:	23021305 	movwcs	r1, #8965	; 0x2305
     d60:	0f950600 	svceq	0x00950600
     d64:	a6030000 	strge	r0, [r3], -r0
     d68:	00000065 	andeq	r0, r0, r5, rrx
     d6c:	02120104 	andseq	r0, r2, #4, 2
     d70:	d0060023 	andle	r0, r6, r3, lsr #32
     d74:	0300000b 	movweq	r0, #11
     d78:	000065a7 	andeq	r6, r0, r7, lsr #11
     d7c:	11010400 	tstne	r1, r0, lsl #8
     d80:	06002302 	streq	r2, [r0], -r2, lsl #6
     d84:	00000db4 			; <UNDEFINED> instruction: 0x00000db4
     d88:	0065a803 	rsbeq	sl, r5, r3, lsl #16
     d8c:	01040000 	tsteq	r4, r0
     d90:	00230210 	eoreq	r0, r3, r0, lsl r2
     d94:	000f1006 	andeq	r1, pc, r6
     d98:	65a90300 	strvs	r0, [r9, #768]!	; 0x300
     d9c:	04000000 	streq	r0, [r0], #-0
     da0:	23020b05 	movwcs	r0, #11013	; 0x2b05
     da4:	0f9f0600 	svceq	0x009f0600
     da8:	aa030000 	bge	c0db0 <__standby_start+0xc0db0>
     dac:	00000065 	andeq	r0, r0, r5, rrx
     db0:	02080304 	andeq	r0, r8, #4, 6	; 0x10000000
     db4:	a2060023 	andge	r0, r6, #35	; 0x23
     db8:	03000009 	movweq	r0, #9
     dbc:	000065ab 	andeq	r6, r0, fp, lsr #11
     dc0:	05030400 	streq	r0, [r3, #-1024]	; 0xfffffc00
     dc4:	06002302 	streq	r2, [r0], -r2, lsl #6
     dc8:	00000fa9 	andeq	r0, r0, r9, lsr #31
     dcc:	0065ac03 	rsbeq	sl, r5, r3, lsl #24
     dd0:	04040000 	streq	r0, [r4], #-0
     dd4:	00230201 	eoreq	r0, r3, r1, lsl #4
     dd8:	00103f06 	andseq	r3, r0, r6, lsl #30
     ddc:	65ad0300 	strvs	r0, [sp, #768]!	; 0x300
     de0:	04000000 	streq	r0, [r0], #-0
     de4:	23020001 	movwcs	r0, #8193	; 0x2001
     de8:	8e040000 	cdphi	0, 0, cr0, cr4, cr0, {0}
     dec:	0300000d 	movweq	r0, #13
     df0:	000794ae 	andeq	r9, r7, lr, lsr #9
     df4:	0fbd0500 	svceq	0x00bd0500
     df8:	03040000 	movweq	r0, #16384	; 0x4000
     dfc:	0008dab1 			; <UNDEFINED> instruction: 0x0008dab1
     e00:	0aff0600 	beq	fffc2608 <__bss_end+0xffbfd2c>
     e04:	b3030000 	movwlt	r0, #12288	; 0x3000
     e08:	00000065 	andeq	r0, r0, r5, rrx
     e0c:	020f1104 	andeq	r1, pc, #4, 2
     e10:	d9060023 	stmdble	r6, {r0, r1, r5}
     e14:	03000012 	movweq	r0, #18
     e18:	000065b4 			; <UNDEFINED> instruction: 0x000065b4
     e1c:	0d020400 	cfstrseq	mvf0, [r2, #-0]
     e20:	06002302 	streq	r2, [r0], -r2, lsl #6
     e24:	00000f8b 	andeq	r0, r0, fp, lsl #31
     e28:	0065b503 	rsbeq	fp, r5, r3, lsl #10
     e2c:	01040000 	tsteq	r4, r0
     e30:	0023020c 	eoreq	r0, r3, ip, lsl #4
     e34:	00040806 	andeq	r0, r4, r6, lsl #16
     e38:	65b60300 	ldrvs	r0, [r6, #768]!	; 0x300
     e3c:	04000000 	streq	r0, [r0], #-0
     e40:	23020309 	movwcs	r0, #8969	; 0x2309
     e44:	08400600 	stmdaeq	r0, {r9, sl}^
     e48:	b7030000 	strlt	r0, [r3, -r0]
     e4c:	00000065 	andeq	r0, r0, r5, rrx
     e50:	02010204 	andeq	r0, r1, #4, 4	; 0x40000000
     e54:	de060023 	cdple	0, 0, cr0, cr6, cr3, {1}
     e58:	0300000a 	movweq	r0, #10
     e5c:	000065b8 			; <UNDEFINED> instruction: 0x000065b8
     e60:	00010400 	andeq	r0, r1, r0, lsl #8
     e64:	00002302 	andeq	r2, r0, r2, lsl #6
     e68:	0005af04 	andeq	sl, r5, r4, lsl #30
     e6c:	67b90300 	ldrvs	r0, [r9, r0, lsl #6]!
     e70:	05000008 	streq	r0, [r0, #-8]
     e74:	00000eeb 	andeq	r0, r0, fp, ror #29
     e78:	58bc0304 	ldmpl	ip!, {r2, r8, r9}
     e7c:	06000009 	streq	r0, [r0], -r9
     e80:	00000aff 	strdeq	r0, [r0], -pc	; <UNPREDICTABLE>
     e84:	0065be03 	rsbeq	fp, r5, r3, lsl #28
     e88:	11040000 	tstne	r4, r0
     e8c:	0023020f 	eoreq	r0, r3, pc, lsl #4
     e90:	0012d906 	andseq	sp, r2, r6, lsl #18
     e94:	65bf0300 	ldrvs	r0, [pc, #768]!	; 119c <__standby_start+0x119c>
     e98:	04000000 	streq	r0, [r0], #-0
     e9c:	23020d02 	movwcs	r0, #11522	; 0x2d02
     ea0:	0f8b0600 	svceq	0x008b0600
     ea4:	c0030000 	andgt	r0, r3, r0
     ea8:	00000065 	andeq	r0, r0, r5, rrx
     eac:	020c0104 	andeq	r0, ip, #4, 2
     eb0:	08060023 	stmdaeq	r6, {r0, r1, r5}
     eb4:	03000004 	movweq	r0, #4
     eb8:	000065c1 	andeq	r6, r0, r1, asr #11
     ebc:	03090400 	movweq	r0, #37888	; 0x9400
     ec0:	06002302 	streq	r2, [r0], -r2, lsl #6
     ec4:	00000840 	andeq	r0, r0, r0, asr #16
     ec8:	0065c203 	rsbeq	ip, r5, r3, lsl #4
     ecc:	02040000 	andeq	r0, r4, #0
     ed0:	00230201 	eoreq	r0, r3, r1, lsl #4
     ed4:	000ade06 	andeq	sp, sl, r6, lsl #28
     ed8:	65c30300 	strbvs	r0, [r3, #768]	; 0x300
     edc:	04000000 	streq	r0, [r0], #-0
     ee0:	23020001 	movwcs	r0, #8193	; 0x2001
     ee4:	ee040000 	cdp	0, 0, cr0, cr4, cr0, {0}
     ee8:	03000010 	movweq	r0, #16
     eec:	0008e5c4 	andeq	lr, r8, r4, asr #11
     ef0:	0e1b0500 	cfmul32eq	mvfx0, mvfx11, mvfx0
     ef4:	03040000 	movweq	r0, #16384	; 0x4000
     ef8:	000a1ac7 	andeq	r1, sl, r7, asr #21
     efc:	102e0600 	eorne	r0, lr, r0, lsl #12
     f00:	c9030000 	stmdbgt	r3, {}	; <UNPREDICTABLE>
     f04:	00000065 	andeq	r0, r0, r5, rrx
     f08:	021f0104 	andseq	r0, pc, #4, 2
     f0c:	65060023 	strvs	r0, [r6, #-35]	; 0xffffffdd
     f10:	0300000d 	movweq	r0, #13
     f14:	000065ca 	andeq	r6, r0, sl, asr #11
     f18:	1e010400 	cfcpysne	mvf0, mvf1
     f1c:	06002302 	streq	r2, [r0], -r2, lsl #6
     f20:	00000f8b 	andeq	r0, r0, fp, lsl #31
     f24:	0065cb03 	rsbeq	ip, r5, r3, lsl #22
     f28:	02040000 	andeq	r0, r4, #0
     f2c:	0023021c 	eoreq	r0, r3, ip, lsl r2
     f30:	00091e06 	andeq	r1, r9, r6, lsl #28
     f34:	65cc0300 	strbvs	r0, [ip, #768]	; 0x300
     f38:	04000000 	streq	r0, [r0], #-0
     f3c:	23021b01 	movwcs	r1, #11009	; 0x2b01
     f40:	0f950600 	svceq	0x00950600
     f44:	cd030000 	stcgt	0, cr0, [r3, #-0]
     f48:	00000065 	andeq	r0, r0, r5, rrx
     f4c:	02110a04 	andseq	r0, r1, #4, 20	; 0x4000
     f50:	53060023 	movwpl	r0, #24611	; 0x6023
     f54:	0300000c 	movweq	r0, #12
     f58:	000065ce 	andeq	r6, r0, lr, asr #11
     f5c:	10010400 	andne	r0, r1, r0, lsl #8
     f60:	06002302 	streq	r2, [r0], -r2, lsl #6
     f64:	000005f4 	strdeq	r0, [r0], -r4
     f68:	0065cf03 	rsbeq	ip, r5, r3, lsl #30
     f6c:	01040000 	tsteq	r4, r0
     f70:	0023020f 	eoreq	r0, r3, pc, lsl #4
     f74:	00056606 	andeq	r6, r5, r6, lsl #12
     f78:	65d00300 	ldrbvs	r0, [r0, #768]	; 0x300
     f7c:	04000000 	streq	r0, [r0], #-0
     f80:	23020e01 	movwcs	r0, #11777	; 0x2e01
     f84:	07310600 	ldreq	r0, [r1, -r0, lsl #12]!
     f88:	d1030000 	tstle	r3, r0
     f8c:	00000065 	andeq	r0, r0, r5, rrx
     f90:	020b0304 	andeq	r0, fp, #4, 6	; 0x10000000
     f94:	4d060023 	stcmi	0, cr0, [r6, #-140]	; 0xffffff74
     f98:	0300000e 	movweq	r0, #14
     f9c:	000065d2 	ldrdeq	r6, [r0], -r2
     fa0:	000b0400 	andeq	r0, fp, r0, lsl #8
     fa4:	00002302 	andeq	r2, r0, r2, lsl #6
     fa8:	0007a204 	andeq	sl, r7, r4, lsl #4
     fac:	63d50300 	bicsvs	r0, r5, #0, 6
     fb0:	05000009 	streq	r0, [r0, #-9]
     fb4:	0000105f 	andeq	r1, r0, pc, asr r0
     fb8:	bad80304 	blt	ff601bd0 <__bss_end+0xf5ff2f4>
     fbc:	0600000a 	streq	r0, [r0], -sl
     fc0:	0000128d 	andeq	r1, r0, sp, lsl #5
     fc4:	0065da03 	rsbeq	sp, r5, r3, lsl #20
     fc8:	02040000 	andeq	r0, r4, #0
     fcc:	0023021e 	eoreq	r0, r3, lr, lsl r2
     fd0:	000f8b06 	andeq	r8, pc, r6, lsl #22
     fd4:	65db0300 	ldrbvs	r0, [fp, #768]	; 0x300
     fd8:	04000000 	streq	r0, [r0], #-0
     fdc:	23021c02 	movwcs	r1, #11266	; 0x2c02
     fe0:	08af0600 	stmiaeq	pc!, {r9, sl}	; <UNPREDICTABLE>
     fe4:	dc030000 	stcle	0, cr0, [r3], {-0}
     fe8:	00000065 	andeq	r0, r0, r5, rrx
     fec:	021a0204 	andseq	r0, sl, #4, 4	; 0x40000000
     ff0:	28060023 	stmdacs	r6, {r0, r1, r5}
     ff4:	03000013 	movweq	r0, #19
     ff8:	000065dd 	ldrdeq	r6, [r0], -sp
     ffc:	18020400 	stmdane	r2, {sl}
    1000:	06002302 	streq	r2, [r0], -r2, lsl #6
    1004:	0000131d 	andeq	r1, r0, sp, lsl r3
    1008:	0065de03 	rsbeq	sp, r5, r3, lsl #28
    100c:	02040000 	andeq	r0, r4, #0
    1010:	00230216 	eoreq	r0, r3, r6, lsl r2
    1014:	000f9506 	andeq	r9, pc, r6, lsl #10
    1018:	65df0300 	ldrbvs	r0, [pc, #768]	; 1320 <__standby_start+0x1320>
    101c:	04000000 	streq	r0, [r0], #-0
    1020:	23021006 	movwcs	r1, #8198	; 0x2006
    1024:	12cd0600 	sbcne	r0, sp, #0, 12
    1028:	e0030000 	and	r0, r3, r0
    102c:	00000065 	andeq	r0, r0, r5, rrx
    1030:	020e0204 	andeq	r0, lr, #4, 4	; 0x40000000
    1034:	9f060023 	svcls	0x00060023
    1038:	0300000f 	movweq	r0, #15
    103c:	000065e1 	andeq	r6, r0, r1, ror #11
    1040:	000e0400 	andeq	r0, lr, r0, lsl #8
    1044:	00002302 	andeq	r2, r0, r2, lsl #6
    1048:	0011d304 	andseq	sp, r1, r4, lsl #6
    104c:	25e20300 	strbcs	r0, [r2, #768]!	; 0x300
    1050:	0500000a 	streq	r0, [r0, #-10]
    1054:	00000f6e 	andeq	r0, r0, lr, ror #30
    1058:	38e40304 	stmiacc	r4!, {r2, r8, r9}^
    105c:	0600000b 	streq	r0, [r0], -fp
    1060:	00001321 	andeq	r1, r0, r1, lsr #6
    1064:	0065e603 	rsbeq	lr, r5, r3, lsl #12
    1068:	05040000 	streq	r0, [r4, #-0]
    106c:	0023021b 	eoreq	r0, r3, fp, lsl r2
    1070:	000f8b06 	andeq	r8, pc, r6, lsl #22
    1074:	65e70300 	strbvs	r0, [r7, #768]!	; 0x300
    1078:	04000000 	streq	r0, [r0], #-0
    107c:	2302100b 	movwcs	r1, #8203	; 0x200b
    1080:	05550600 	ldrbeq	r0, [r5, #-1536]	; 0xfffffa00
    1084:	e8030000 	stmda	r3, {}	; <UNPREDICTABLE>
    1088:	00000065 	andeq	r0, r0, r5, rrx
    108c:	020e0204 	andeq	r0, lr, #4, 4	; 0x40000000
    1090:	95060023 	strls	r0, [r6, #-35]	; 0xffffffdd
    1094:	0300000f 	movweq	r0, #15
    1098:	000065e9 	andeq	r6, r0, r9, ror #11
    109c:	08060400 	stmdaeq	r6, {sl}
    10a0:	06002302 	streq	r2, [r0], -r2, lsl #6
    10a4:	000012d2 	ldrdeq	r1, [r0], -r2
    10a8:	0065ea03 	rsbeq	lr, r5, r3, lsl #20
    10ac:	02040000 	andeq	r0, r4, #0
    10b0:	00230206 	eoreq	r0, r3, r6, lsl #4
    10b4:	000f9f06 	andeq	r9, pc, r6, lsl #30
    10b8:	65eb0300 	strbvs	r0, [fp, #768]!	; 0x300
    10bc:	04000000 	streq	r0, [r0], #-0
    10c0:	23020006 	movwcs	r0, #8198	; 0x2006
    10c4:	fa040000 	blx	1010cc <__standby_start+0x1010cc>
    10c8:	03000006 	movweq	r0, #6
    10cc:	000ac5ec 	andeq	ip, sl, ip, ror #11
    10d0:	0c070500 	cfstr32eq	mvfx0, [r7], {-0}
    10d4:	03040000 	movweq	r0, #16384	; 0x4000
    10d8:	000b72ef 	andeq	r7, fp, pc, ror #5
    10dc:	0d0e0600 	stceq	6, cr0, [lr, #-0]
    10e0:	f1030000 			; <UNDEFINED> instruction: 0xf1030000
    10e4:	00000065 	andeq	r0, r0, r5, rrx
    10e8:	021f0104 	andseq	r0, pc, #4, 2
    10ec:	8b060023 	blhi	181180 <__standby_start+0x181180>
    10f0:	0300000f 	movweq	r0, #15
    10f4:	000065f2 	strdeq	r6, [r0], -r2
    10f8:	001f0400 	andseq	r0, pc, r0, lsl #8
    10fc:	00002302 	andeq	r2, r0, r2, lsl #6
    1100:	00111504 	andseq	r1, r1, r4, lsl #10
    1104:	43f30300 	mvnsmi	r0, #0, 6
    1108:	0500000b 	streq	r0, [r0, #-11]
    110c:	00000462 	andeq	r0, r0, r2, ror #8
    1110:	56f60304 	ldrbtpl	r0, [r6], r4, lsl #6
    1114:	0600000d 	streq	r0, [r0], -sp
    1118:	000007ea 	andeq	r0, r0, sl, ror #15
    111c:	0065f803 	rsbeq	pc, r5, r3, lsl #16
    1120:	01040000 	tsteq	r4, r0
    1124:	0023021f 	eoreq	r0, r3, pc, lsl r2
    1128:	00108906 	andseq	r8, r0, r6, lsl #18
    112c:	65f90300 	ldrbvs	r0, [r9, #768]!	; 0x300
    1130:	04000000 	streq	r0, [r0], #-0
    1134:	23021e01 	movwcs	r1, #11777	; 0x2e01
    1138:	0ddd0600 	ldcleq	6, cr0, [sp]
    113c:	fa030000 	blx	c1144 <__standby_start+0xc1144>
    1140:	00000065 	andeq	r0, r0, r5, rrx
    1144:	021d0104 	andseq	r0, sp, #4, 2
    1148:	8b060023 	blhi	1811dc <__standby_start+0x1811dc>
    114c:	0300000f 	movweq	r0, #15
    1150:	000065fb 	strdeq	r6, [r0], -fp
    1154:	1b020400 	blne	8215c <__standby_start+0x8215c>
    1158:	06002302 	streq	r2, [r0], -r2, lsl #6
    115c:	000010b7 	strheq	r1, [r0], -r7
    1160:	0065fc03 	rsbeq	pc, r5, r3, lsl #24
    1164:	01040000 	tsteq	r4, r0
    1168:	0023021a 	eoreq	r0, r3, sl, lsl r2
    116c:	00103706 	andseq	r3, r0, r6, lsl #14
    1170:	65fd0300 	ldrbvs	r0, [sp, #768]!	; 0x300
    1174:	04000000 	streq	r0, [r0], #-0
    1178:	23021901 	movwcs	r1, #10497	; 0x2901
    117c:	08950600 	ldmeq	r5, {r9, sl}
    1180:	fe030000 	cdp2	0, 0, cr0, cr3, cr0, {0}
    1184:	00000065 	andeq	r0, r0, r5, rrx
    1188:	02180104 	andseq	r0, r8, #4, 2
    118c:	b9060023 	stmdblt	r6, {r0, r1, r5}
    1190:	03000008 	movweq	r0, #8
    1194:	000065ff 	strdeq	r6, [r0], -pc	; <UNPREDICTABLE>
    1198:	17010400 	strne	r0, [r1, -r0, lsl #8]
    119c:	07002302 	streq	r2, [r0, -r2, lsl #6]
    11a0:	0000133b 	andeq	r1, r0, fp, lsr r3
    11a4:	65010003 	strvs	r0, [r1, #-3]
    11a8:	04000000 	streq	r0, [r0], #-0
    11ac:	23021601 	movwcs	r1, #9729	; 0x2601
    11b0:	0d830700 	stceq	7, cr0, [r3]
    11b4:	01030000 	tsteq	r3, r0
    11b8:	00006501 	andeq	r6, r0, r1, lsl #10
    11bc:	15010400 	strne	r0, [r1, #-1024]	; 0xfffffc00
    11c0:	07002302 	streq	r2, [r0, -r2, lsl #6]
    11c4:	00000f95 	muleq	r0, r5, pc	; <UNPREDICTABLE>
    11c8:	65010203 	strvs	r0, [r1, #-515]	; 0xfffffdfd
    11cc:	04000000 	streq	r0, [r0], #-0
    11d0:	23021401 	movwcs	r1, #9217	; 0x2401
    11d4:	07540700 	ldrbeq	r0, [r4, -r0, lsl #14]
    11d8:	03030000 	movweq	r0, #12288	; 0x3000
    11dc:	00006501 	andeq	r6, r0, r1, lsl #10
    11e0:	13010400 	movwne	r0, #5120	; 0x1400
    11e4:	07002302 	streq	r2, [r0, -r2, lsl #6]
    11e8:	000010ae 	andeq	r1, r0, lr, lsr #1
    11ec:	65010403 	strvs	r0, [r1, #-1027]	; 0xfffffbfd
    11f0:	04000000 	streq	r0, [r0], #-0
    11f4:	23021201 	movwcs	r1, #8705	; 0x2201
    11f8:	0d0e0700 	stceq	7, cr0, [lr, #-0]
    11fc:	05030000 	streq	r0, [r3, #-0]
    1200:	00006501 	andeq	r6, r0, r1, lsl #10
    1204:	11010400 	tstne	r1, r0, lsl #8
    1208:	07002302 	streq	r2, [r0, -r2, lsl #6]
    120c:	00000f9f 	muleq	r0, pc, pc	; <UNPREDICTABLE>
    1210:	65010603 	strvs	r0, [r1, #-1539]	; 0xfffff9fd
    1214:	04000000 	streq	r0, [r0], #-0
    1218:	23020f02 	movwcs	r0, #12034	; 0x2f02
    121c:	0e440700 	cdpeq	7, 4, cr0, cr4, cr0, {0}
    1220:	07030000 	streq	r0, [r3, -r0]
    1224:	00006501 	andeq	r6, r0, r1, lsl #10
    1228:	0e010400 	cfcpyseq	mvf0, mvf1
    122c:	07002302 	streq	r2, [r0, -r2, lsl #6]
    1230:	00000486 	andeq	r0, r0, r6, lsl #9
    1234:	65010803 	strvs	r0, [r1, #-2051]	; 0xfffff7fd
    1238:	04000000 	streq	r0, [r0], #-0
    123c:	23020d01 	movwcs	r0, #11521	; 0x2d01
    1240:	0fa90700 	svceq	0x00a90700
    1244:	09030000 	stmdbeq	r3, {}	; <UNPREDICTABLE>
    1248:	00006501 	andeq	r6, r0, r1, lsl #10
    124c:	0c010400 	cfstrseq	mvf0, [r1], {-0}
    1250:	07002302 	streq	r2, [r0, -r2, lsl #6]
    1254:	0000053f 	andeq	r0, r0, pc, lsr r5
    1258:	65010a03 	strvs	r0, [r1, #-2563]	; 0xfffff5fd
    125c:	04000000 	streq	r0, [r0], #-0
    1260:	23020b01 	movwcs	r0, #11009	; 0x2b01
    1264:	088c0700 	stmeq	ip, {r8, r9, sl}
    1268:	0b030000 	bleq	c1270 <__standby_start+0xc1270>
    126c:	00006501 	andeq	r6, r0, r1, lsl #10
    1270:	0a010400 	beq	42278 <__standby_start+0x42278>
    1274:	07002302 	streq	r2, [r0, -r2, lsl #6]
    1278:	000009b8 			; <UNDEFINED> instruction: 0x000009b8
    127c:	65010c03 	strvs	r0, [r1, #-3075]	; 0xfffff3fd
    1280:	04000000 	streq	r0, [r0], #-0
    1284:	23020901 	movwcs	r0, #10497	; 0x2901
    1288:	0fb30700 	svceq	0x00b30700
    128c:	0d030000 	stceq	0, cr0, [r3, #-0]
    1290:	00006501 	andeq	r6, r0, r1, lsl #10
    1294:	06030400 	streq	r0, [r3], -r0, lsl #8
    1298:	07002302 	streq	r2, [r0, -r2, lsl #6]
    129c:	00001216 	andeq	r1, r0, r6, lsl r2
    12a0:	65010e03 	strvs	r0, [r1, #-3587]	; 0xfffff1fd
    12a4:	04000000 	streq	r0, [r0], #-0
    12a8:	23020501 	movwcs	r0, #9473	; 0x2501
    12ac:	067d0700 	ldrbteq	r0, [sp], -r0, lsl #14
    12b0:	0f030000 	svceq	0x00030000
    12b4:	00006501 	andeq	r6, r0, r1, lsl #10
    12b8:	04010400 	streq	r0, [r1], #-1024	; 0xfffffc00
    12bc:	07002302 	streq	r2, [r0, -r2, lsl #6]
    12c0:	00000e3b 	andeq	r0, r0, fp, lsr lr
    12c4:	65011003 	strvs	r1, [r1, #-3]
    12c8:	04000000 	streq	r0, [r0], #-0
    12cc:	23020301 	movwcs	r0, #8961	; 0x2301
    12d0:	0fd90700 	svceq	0x00d90700
    12d4:	11030000 	tstne	r3, r0
    12d8:	00006501 	andeq	r6, r0, r1, lsl #10
    12dc:	00030400 	andeq	r0, r3, r0, lsl #8
    12e0:	00002302 	andeq	r2, r0, r2, lsl #6
    12e4:	00041108 	andeq	r1, r4, r8, lsl #2
    12e8:	01120300 	tsteq	r2, r0, lsl #6
    12ec:	00000b7d 	andeq	r0, r0, sp, ror fp
    12f0:	00087009 	andeq	r7, r8, r9
    12f4:	15030400 	strne	r0, [r3, #-1024]	; 0xfffffc00
    12f8:	000e9001 	andeq	r9, lr, r1
    12fc:	0bac0700 	bleq	feb02f04 <__bss_end+0xeb00628>
    1300:	17030000 	strne	r0, [r3, -r0]
    1304:	00006501 	andeq	r6, r0, r1, lsl #10
    1308:	1f010400 	svcne	0x00010400
    130c:	07002302 	streq	r2, [r0, -r2, lsl #6]
    1310:	00000f8b 	andeq	r0, r0, fp, lsl #31
    1314:	65011803 	strvs	r1, [r1, #-2051]	; 0xfffff7fd
    1318:	04000000 	streq	r0, [r0], #-0
    131c:	23021e01 	movwcs	r1, #11777	; 0x2e01
    1320:	09d40700 	ldmibeq	r4, {r8, r9, sl}^
    1324:	19030000 	stmdbne	r3, {}	; <UNPREDICTABLE>
    1328:	00006501 	andeq	r6, r0, r1, lsl #10
    132c:	1d010400 	cfstrsne	mvf0, [r1, #-0]
    1330:	07002302 	streq	r2, [r0, -r2, lsl #6]
    1334:	00000f95 	muleq	r0, r5, pc	; <UNPREDICTABLE>
    1338:	65011a03 	strvs	r1, [r1, #-2563]	; 0xfffff5fd
    133c:	04000000 	streq	r0, [r0], #-0
    1340:	23021c01 	movwcs	r1, #11265	; 0x2c01
    1344:	07dc0700 	ldrbeq	r0, [ip, r0, lsl #14]
    1348:	1b030000 	blne	c1350 <__standby_start+0xc1350>
    134c:	00006501 	andeq	r6, r0, r1, lsl #10
    1350:	1b010400 	blne	42358 <__standby_start+0x42358>
    1354:	07002302 	streq	r2, [r0, -r2, lsl #6]
    1358:	00000f9f 	muleq	r0, pc, pc	; <UNPREDICTABLE>
    135c:	65011c03 	strvs	r1, [r1, #-3075]	; 0xfffff3fd
    1360:	04000000 	streq	r0, [r0], #-0
    1364:	23021803 	movwcs	r1, #10243	; 0x2803
    1368:	13320700 	teqne	r2, #0, 14
    136c:	1d030000 	stcne	0, cr0, [r3, #-0]
    1370:	00006501 	andeq	r6, r0, r1, lsl #10
    1374:	17010400 	strne	r0, [r1, -r0, lsl #8]
    1378:	07002302 	streq	r2, [r0, -r2, lsl #6]
    137c:	00000fa9 	andeq	r0, r0, r9, lsr #31
    1380:	65011e03 	strvs	r1, [r1, #-3587]	; 0xfffff1fd
    1384:	04000000 	streq	r0, [r0], #-0
    1388:	23021502 	movwcs	r1, #9474	; 0x2502
    138c:	10d90700 	sbcsne	r0, r9, r0, lsl #14
    1390:	1f030000 	svcne	0x00030000
    1394:	00006501 	andeq	r6, r0, r1, lsl #10
    1398:	14010400 	strne	r0, [r1], #-1024	; 0xfffffc00
    139c:	07002302 	streq	r2, [r0, -r2, lsl #6]
    13a0:	00000f2c 	andeq	r0, r0, ip, lsr #30
    13a4:	65012003 	strvs	r2, [r1, #-3]
    13a8:	04000000 	streq	r0, [r0], #-0
    13ac:	23021301 	movwcs	r1, #8961	; 0x2301
    13b0:	0fb30700 	svceq	0x00b30700
    13b4:	21030000 	tstcs	r3, r0
    13b8:	00006501 	andeq	r6, r0, r1, lsl #10
    13bc:	12010400 	andne	r0, r1, #0, 8
    13c0:	07002302 	streq	r2, [r0, -r2, lsl #6]
    13c4:	000011fc 	strdeq	r1, [r0], -ip
    13c8:	65012203 	strvs	r2, [r1, #-515]	; 0xfffffdfd
    13cc:	04000000 	streq	r0, [r0], #-0
    13d0:	23021101 	movwcs	r1, #8449	; 0x2101
    13d4:	067d0700 	ldrbteq	r0, [sp], -r0, lsl #14
    13d8:	23030000 	movwcs	r0, #12288	; 0x3000
    13dc:	00006501 	andeq	r6, r0, r1, lsl #10
    13e0:	0d040400 	cfstrseq	mvf0, [r4, #-0]
    13e4:	07002302 	streq	r2, [r0, -r2, lsl #6]
    13e8:	00000b39 	andeq	r0, r0, r9, lsr fp
    13ec:	65012403 	strvs	r2, [r1, #-1027]	; 0xfffffbfd
    13f0:	04000000 	streq	r0, [r0], #-0
    13f4:	23020c01 	movwcs	r0, #11265	; 0x2c01
    13f8:	0d470700 	stcleq	7, cr0, [r7, #-0]
    13fc:	25030000 	strcs	r0, [r3, #-0]
    1400:	00006501 	andeq	r6, r0, r1, lsl #10
    1404:	0b010400 	bleq	4240c <__standby_start+0x4240c>
    1408:	07002302 	streq	r2, [r0, -r2, lsl #6]
    140c:	00000fd9 	ldrdeq	r0, [r0], -r9
    1410:	65012603 	strvs	r2, [r1, #-1539]	; 0xfffff9fd
    1414:	04000000 	streq	r0, [r0], #-0
    1418:	2302000b 	movwcs	r0, #8203	; 0x200b
    141c:	c4080000 	strgt	r0, [r8], #-0
    1420:	03000008 	movweq	r0, #8
    1424:	0d620127 	stfeqe	f0, [r2, #-156]!	; 0xffffff64
    1428:	46090000 	strmi	r0, [r9], -r0
    142c:	04000013 	streq	r0, [r0], #-19	; 0xffffffed
    1430:	5e012a03 	vmlapl.f32	s4, s2, s6
    1434:	0700000f 	streq	r0, [r0, -pc]
    1438:	00000f07 	andeq	r0, r0, r7, lsl #30
    143c:	65012c03 	strvs	r2, [r1, #-3075]	; 0xfffff3fd
    1440:	04000000 	streq	r0, [r0], #-0
    1444:	23021f01 	movwcs	r1, #12033	; 0x2f01
    1448:	0af50700 	beq	ffd43050 <__bss_end+0xfd40774>
    144c:	2d030000 	stccs	0, cr0, [r3, #-0]
    1450:	00006501 	andeq	r6, r0, r1, lsl #10
    1454:	1e010400 	cfcpysne	mvf0, mvf1
    1458:	07002302 	streq	r2, [r0, -r2, lsl #6]
    145c:	00000f8b 	andeq	r0, r0, fp, lsl #31
    1460:	65012e03 	strvs	r2, [r1, #-3587]	; 0xfffff1fd
    1464:	04000000 	streq	r0, [r0], #-0
    1468:	23021d01 	movwcs	r1, #11521	; 0x2d01
    146c:	10260700 	eorne	r0, r6, r0, lsl #14
    1470:	2f030000 	svccs	0x00030000
    1474:	00006501 	andeq	r6, r0, r1, lsl #10
    1478:	1c010400 	cfstrsne	mvf0, [r1], {-0}
    147c:	07002302 	streq	r2, [r0, -r2, lsl #6]
    1480:	00000f95 	muleq	r0, r5, pc	; <UNPREDICTABLE>
    1484:	65013003 	strvs	r3, [r1, #-3]
    1488:	04000000 	streq	r0, [r0], #-0
    148c:	23021b01 	movwcs	r1, #11009	; 0x2b01
    1490:	05890700 	streq	r0, [r9, #1792]	; 0x700
    1494:	31030000 	tstcc	r3, r0
    1498:	00006501 	andeq	r6, r0, r1, lsl #10
    149c:	1a010400 	bne	424a4 <__standby_start+0x424a4>
    14a0:	07002302 	streq	r2, [r0, -r2, lsl #6]
    14a4:	00000de7 	andeq	r0, r0, r7, ror #27
    14a8:	65013203 	strvs	r3, [r1, #-515]	; 0xfffffdfd
    14ac:	04000000 	streq	r0, [r0], #-0
    14b0:	23021901 	movwcs	r1, #10497	; 0x2901
    14b4:	0f9f0700 	svceq	0x009f0700
    14b8:	33030000 	movwcc	r0, #12288	; 0x3000
    14bc:	00006501 	andeq	r6, r0, r1, lsl #10
    14c0:	16030400 	strne	r0, [r3], -r0, lsl #8
    14c4:	07002302 	streq	r2, [r0, -r2, lsl #6]
    14c8:	000009ad 	andeq	r0, r0, sp, lsr #19
    14cc:	65013403 	strvs	r3, [r1, #-1027]	; 0xfffffbfd
    14d0:	04000000 	streq	r0, [r0], #-0
    14d4:	23021501 	movwcs	r1, #9473	; 0x2501
    14d8:	0fa90700 	svceq	0x00a90700
    14dc:	35030000 	strcc	r0, [r3, #-0]
    14e0:	00006501 	andeq	r6, r0, r1, lsl #10
    14e4:	00150400 	andseq	r0, r5, r0, lsl #8
    14e8:	00002302 	andeq	r2, r0, r2, lsl #6
    14ec:	000d2108 	andeq	r2, sp, r8, lsl #2
    14f0:	01360300 	teqeq	r6, r0, lsl #6
    14f4:	00000e9c 	muleq	r0, ip, lr
    14f8:	00127109 	andseq	r7, r2, r9, lsl #2
    14fc:	39030400 	stmdbcc	r3, {sl}
    1500:	00101a01 	andseq	r1, r0, r1, lsl #20
    1504:	08510700 	ldmdaeq	r1, {r8, r9, sl}^
    1508:	3b030000 	blcc	c1510 <__standby_start+0xc1510>
    150c:	00006501 	andeq	r6, r0, r1, lsl #10
    1510:	1f010400 	svcne	0x00010400
    1514:	07002302 	streq	r2, [r0, -r2, lsl #6]
    1518:	000012e3 	andeq	r1, r0, r3, ror #5
    151c:	65013c03 	strvs	r3, [r1, #-3075]	; 0xfffff3fd
    1520:	04000000 	streq	r0, [r0], #-0
    1524:	23021e01 	movwcs	r1, #11777	; 0x2e01
    1528:	0d180700 	ldceq	7, cr0, [r8, #-0]
    152c:	3d030000 	stccc	0, cr0, [r3, #-0]
    1530:	00006501 	andeq	r6, r0, r1, lsl #10
    1534:	1d010400 	cfstrsne	mvf0, [r1, #-0]
    1538:	07002302 	streq	r2, [r0, -r2, lsl #6]
    153c:	00000f8b 	andeq	r0, r0, fp, lsl #31
    1540:	65013e03 	strvs	r3, [r1, #-3587]	; 0xfffff1fd
    1544:	04000000 	streq	r0, [r0], #-0
    1548:	2302100d 	movwcs	r1, #8205	; 0x200d
    154c:	12570700 	subsne	r0, r7, #0, 14
    1550:	3f030000 	svccc	0x00030000
    1554:	00006501 	andeq	r6, r0, r1, lsl #10
    1558:	0f010400 	svceq	0x00010400
    155c:	07002302 	streq	r2, [r0, -r2, lsl #6]
    1560:	00000cc0 	andeq	r0, r0, r0, asr #25
    1564:	65014003 	strvs	r4, [r1, #-3]
    1568:	04000000 	streq	r0, [r0], #-0
    156c:	23020e01 	movwcs	r0, #11777	; 0x2e01
    1570:	077d0700 	ldrbeq	r0, [sp, -r0, lsl #14]!
    1574:	41030000 	tstmi	r3, r0
    1578:	00006501 	andeq	r6, r0, r1, lsl #10
    157c:	0d010400 	cfstrseq	mvf0, [r1, #-0]
    1580:	07002302 	streq	r2, [r0, -r2, lsl #6]
    1584:	000011f2 	strdeq	r1, [r0], -r2
    1588:	65014203 	strvs	r4, [r1, #-515]	; 0xfffffdfd
    158c:	04000000 	streq	r0, [r0], #-0
    1590:	23020c01 	movwcs	r0, #11265	; 0x2c01
    1594:	0f950700 	svceq	0x00950700
    1598:	43030000 	movwmi	r0, #12288	; 0x3000
    159c:	00006501 	andeq	r6, r0, r1, lsl #10
    15a0:	000c0400 	andeq	r0, ip, r0, lsl #8
    15a4:	00002302 	andeq	r2, r0, r2, lsl #6
    15a8:	000bd808 	andeq	sp, fp, r8, lsl #16
    15ac:	01440300 	mrseq	r0, SPSR
    15b0:	00000f6a 	andeq	r0, r0, sl, ror #30
    15b4:	000b2609 	andeq	r2, fp, r9, lsl #12
    15b8:	49030400 	stmdbmi	r3, {sl}
    15bc:	0010b201 	andseq	fp, r0, r1, lsl #4
    15c0:	13210700 	teqne	r1, #0, 14
    15c4:	4b030000 	blmi	c15cc <__standby_start+0xc15cc>
    15c8:	00006501 	andeq	r6, r0, r1, lsl #10
    15cc:	1c040400 	cfstrsne	mvf0, [r4], {-0}
    15d0:	07002302 	streq	r2, [r0, -r2, lsl #6]
    15d4:	00000f8b 	andeq	r0, r0, fp, lsl #31
    15d8:	65014c03 	strvs	r4, [r1, #-3075]	; 0xfffff3fd
    15dc:	04000000 	streq	r0, [r0], #-0
    15e0:	2302100c 	movwcs	r1, #8204	; 0x200c
    15e4:	05520700 	ldrbeq	r0, [r2, #-1792]	; 0xfffff900
    15e8:	4d030000 	stcmi	0, cr0, [r3, #-0]
    15ec:	00006501 	andeq	r6, r0, r1, lsl #10
    15f0:	0e020400 	cfcpyseq	mvf0, mvf2
    15f4:	07002302 	streq	r2, [r0, -r2, lsl #6]
    15f8:	00000f95 	muleq	r0, r5, pc	; <UNPREDICTABLE>
    15fc:	65014e03 	strvs	r4, [r1, #-3587]	; 0xfffff1fd
    1600:	04000000 	streq	r0, [r0], #-0
    1604:	23020806 	movwcs	r0, #10246	; 0x2806
    1608:	12d20700 	sbcsne	r0, r2, #0, 14
    160c:	4f030000 	svcmi	0x00030000
    1610:	00006501 	andeq	r6, r0, r1, lsl #10
    1614:	06020400 	streq	r0, [r2], -r0, lsl #8
    1618:	07002302 	streq	r2, [r0, -r2, lsl #6]
    161c:	00000f9f 	muleq	r0, pc, pc	; <UNPREDICTABLE>
    1620:	65015003 	strvs	r5, [r1, #-3]
    1624:	04000000 	streq	r0, [r0], #-0
    1628:	23020105 	movwcs	r0, #8453	; 0x2105
    162c:	11690700 	cmnne	r9, r0, lsl #14
    1630:	51030000 	tstpl	r3, r0
    1634:	00006501 	andeq	r6, r0, r1, lsl #10
    1638:	00010400 	andeq	r0, r1, r0, lsl #8
    163c:	00002302 	andeq	r2, r0, r2, lsl #6
    1640:	000e0608 	andeq	r0, lr, r8, lsl #12
    1644:	01520300 	cmpeq	r2, r0, lsl #6
    1648:	00001026 	andeq	r1, r0, r6, lsr #32
    164c:	0005cd09 	andeq	ip, r5, r9, lsl #26
    1650:	57030400 	strpl	r0, [r3, -r0, lsl #8]
    1654:	00111401 	andseq	r1, r1, r1, lsl #8
    1658:	0f8b0700 	svceq	0x008b0700
    165c:	59030000 	stmdbpl	r3, {}	; <UNPREDICTABLE>
    1660:	00006501 	andeq	r6, r0, r1, lsl #10
    1664:	10100400 	andsne	r0, r0, r0, lsl #8
    1668:	07002302 	streq	r2, [r0, -r2, lsl #6]
    166c:	00001321 	andeq	r1, r0, r1, lsr #6
    1670:	65015a03 	strvs	r5, [r1, #-2563]	; 0xfffff5fd
    1674:	04000000 	streq	r0, [r0], #-0
    1678:	23020e02 	movwcs	r0, #11778	; 0x2e02
    167c:	0f950700 	svceq	0x00950700
    1680:	5b030000 	blpl	c1688 <__standby_start+0xc1688>
    1684:	00006501 	andeq	r6, r0, r1, lsl #10
    1688:	010d0400 	tsteq	sp, r0, lsl #8
    168c:	07002302 	streq	r2, [r0, -r2, lsl #6]
    1690:	00001169 	andeq	r1, r0, r9, ror #2
    1694:	65015c03 	strvs	r5, [r1, #-3075]	; 0xfffff3fd
    1698:	04000000 	streq	r0, [r0], #-0
    169c:	23020001 	movwcs	r0, #8193	; 0x2001
    16a0:	8d080000 	stchi	0, cr0, [r8, #-0]
    16a4:	03000007 	movweq	r0, #7
    16a8:	10be015e 	adcsne	r0, lr, lr, asr r1
    16ac:	45090000 	strmi	r0, [r9, #-0]
    16b0:	04000010 	streq	r0, [r0], #-16
    16b4:	ac016103 	stfges	f6, [r1], {3}
    16b8:	07000011 	smladeq	r0, r1, r0, r0
    16bc:	00001321 	andeq	r1, r0, r1, lsr #6
    16c0:	65016303 	strvs	r6, [r1, #-771]	; 0xfffffcfd
    16c4:	04000000 	streq	r0, [r0], #-0
    16c8:	23021b05 	movwcs	r1, #11013	; 0x2b05
    16cc:	0f8b0700 	svceq	0x008b0700
    16d0:	64030000 	strvs	r0, [r3], #-0
    16d4:	00006501 	andeq	r6, r0, r1, lsl #10
    16d8:	100b0400 	andne	r0, fp, r0, lsl #8
    16dc:	07002302 	streq	r2, [r0, -r2, lsl #6]
    16e0:	00000552 	andeq	r0, r0, r2, asr r5
    16e4:	65016503 	strvs	r6, [r1, #-1283]	; 0xfffffafd
    16e8:	04000000 	streq	r0, [r0], #-0
    16ec:	23020e02 	movwcs	r0, #11778	; 0x2e02
    16f0:	0f950700 	svceq	0x00950700
    16f4:	66030000 	strvs	r0, [r3], -r0
    16f8:	00006501 	andeq	r6, r0, r1, lsl #10
    16fc:	08060400 	stmdaeq	r6, {sl}
    1700:	07002302 	streq	r2, [r0, -r2, lsl #6]
    1704:	000012d2 	ldrdeq	r1, [r0], -r2
    1708:	65016703 	strvs	r6, [r1, #-1795]	; 0xfffff8fd
    170c:	04000000 	streq	r0, [r0], #-0
    1710:	23020602 	movwcs	r0, #9730	; 0x2602
    1714:	0f9f0700 	svceq	0x009f0700
    1718:	68030000 	stmdavs	r3, {}	; <UNPREDICTABLE>
    171c:	00006501 	andeq	r6, r0, r1, lsl #10
    1720:	01050400 	tsteq	r5, r0, lsl #8
    1724:	07002302 	streq	r2, [r0, -r2, lsl #6]
    1728:	00001169 	andeq	r1, r0, r9, ror #2
    172c:	65016903 	strvs	r6, [r1, #-2307]	; 0xfffff6fd
    1730:	04000000 	streq	r0, [r0], #-0
    1734:	23020001 	movwcs	r0, #8193	; 0x2001
    1738:	7e080000 	cdpvc	0, 0, cr0, cr8, cr0, {0}
    173c:	03000009 	movweq	r0, #9
    1740:	1120016a 	teqne	r0, sl, ror #2
    1744:	90090000 	andls	r0, r9, r0
    1748:	0400000a 	streq	r0, [r0], #-10
    174c:	44016d03 	strmi	r6, [r1], #-3331	; 0xfffff2fd
    1750:	07000012 	smladeq	r0, r2, r0, r0
    1754:	00000d78 	andeq	r0, r0, r8, ror sp
    1758:	65016f03 	strvs	r6, [r1, #-3843]	; 0xfffff0fd
    175c:	04000000 	streq	r0, [r0], #-0
    1760:	23021f01 	movwcs	r1, #12033	; 0x2f01
    1764:	11c80700 	bicne	r0, r8, r0, lsl #14
    1768:	70030000 	andvc	r0, r3, r0
    176c:	00006501 	andeq	r6, r0, r1, lsl #10
    1770:	1e010400 	cfcpysne	mvf0, mvf1
    1774:	07002302 	streq	r2, [r0, -r2, lsl #6]
    1778:	00000f8b 	andeq	r0, r0, fp, lsl #31
    177c:	65017103 	strvs	r7, [r1, #-259]	; 0xfffffefd
    1780:	04000000 	streq	r0, [r0], #-0
    1784:	23021a04 	movwcs	r1, #10756	; 0x2a04
    1788:	11640700 	cmnne	r4, r0, lsl #14
    178c:	72030000 	andvc	r0, r3, #0
    1790:	00006501 	andeq	r6, r0, r1, lsl #10
    1794:	19010400 	stmdbne	r1, {sl}
    1798:	07002302 	streq	r2, [r0, -r2, lsl #6]
    179c:	00000f95 	muleq	r0, r5, pc	; <UNPREDICTABLE>
    17a0:	65017303 	strvs	r7, [r1, #-771]	; 0xfffffcfd
    17a4:	04000000 	streq	r0, [r0], #-0
    17a8:	23021801 	movwcs	r1, #10241	; 0x2801
    17ac:	0ae60700 	beq	ff9833b4 <__bss_end+0xf980ad8>
    17b0:	74030000 	strvc	r0, [r3], #-0
    17b4:	00006501 	andeq	r6, r0, r1, lsl #10
    17b8:	17010400 	strne	r0, [r1, -r0, lsl #8]
    17bc:	07002302 	streq	r2, [r0, -r2, lsl #6]
    17c0:	00000f9f 	muleq	r0, pc, pc	; <UNPREDICTABLE>
    17c4:	65017503 	strvs	r7, [r1, #-1283]	; 0xfffffafd
    17c8:	04000000 	streq	r0, [r0], #-0
    17cc:	23020017 	movwcs	r0, #8215	; 0x2017
    17d0:	3b080000 	blcc	2017d8 <__standby_start+0x2017d8>
    17d4:	03000007 	movweq	r0, #7
    17d8:	11b80176 			; <UNDEFINED> instruction: 0x11b80176
    17dc:	ef090000 	svc	0x00090000
    17e0:	0400000d 	streq	r0, [r0], #-13
    17e4:	ca017903 	bgt	5fbf8 <__standby_start+0x5fbf8>
    17e8:	07000012 	smladeq	r0, r2, r0, r0
    17ec:	000007e5 	andeq	r0, r0, r5, ror #15
    17f0:	65017b03 	strvs	r7, [r1, #-2819]	; 0xfffff4fd
    17f4:	04000000 	streq	r0, [r0], #-0
    17f8:	23021d03 	movwcs	r1, #11523	; 0x2d03
    17fc:	0f8b0700 	svceq	0x008b0700
    1800:	7c030000 	stcvc	0, cr0, [r3], {-0}
    1804:	00006501 	andeq	r6, r0, r1, lsl #10
    1808:	08150400 	ldmdaeq	r5, {sl}
    180c:	07002302 	streq	r2, [r0, -r2, lsl #6]
    1810:	000012d2 	ldrdeq	r1, [r0], -r2
    1814:	65017d03 	strvs	r7, [r1, #-3331]	; 0xfffff2fd
    1818:	04000000 	streq	r0, [r0], #-0
    181c:	23020602 	movwcs	r0, #9730	; 0x2602
    1820:	0f950700 	svceq	0x00950700
    1824:	7e030000 	cdpvc	0, 0, cr0, cr3, cr0, {0}
    1828:	00006501 	andeq	r6, r0, r1, lsl #10
    182c:	02040400 	andeq	r0, r4, #0, 8
    1830:	07002302 	streq	r2, [r0, -r2, lsl #6]
    1834:	000011c2 	andeq	r1, r0, r2, asr #3
    1838:	65017f03 	strvs	r7, [r1, #-3843]	; 0xfffff0fd
    183c:	04000000 	streq	r0, [r0], #-0
    1840:	23020101 	movwcs	r0, #8449	; 0x2101
    1844:	11690700 	cmnne	r9, r0, lsl #14
    1848:	80030000 	andhi	r0, r3, r0
    184c:	00006501 	andeq	r6, r0, r1, lsl #10
    1850:	00010400 	andeq	r0, r1, r0, lsl #8
    1854:	00002302 	andeq	r2, r0, r2, lsl #6
    1858:	00093d08 	andeq	r3, r9, r8, lsl #26
    185c:	01810300 	orreq	r0, r1, r0, lsl #6
    1860:	00001250 	andeq	r1, r0, r0, asr r2
    1864:	0004e909 	andeq	lr, r4, r9, lsl #18
    1868:	84030400 	strhi	r0, [r3], #-1024	; 0xfffffc00
    186c:	0013aa01 	andseq	sl, r3, r1, lsl #20
    1870:	0bac0700 	bleq	feb03478 <__bss_end+0xeb00b9c>
    1874:	86030000 	strhi	r0, [r3], -r0
    1878:	00006501 	andeq	r6, r0, r1, lsl #10
    187c:	1f010400 	svcne	0x00010400
    1880:	07002302 	streq	r2, [r0, -r2, lsl #6]
    1884:	00001332 	andeq	r1, r0, r2, lsr r3
    1888:	65018703 	strvs	r8, [r1, #-1795]	; 0xfffff8fd
    188c:	04000000 	streq	r0, [r0], #-0
    1890:	23021e01 	movwcs	r1, #11777	; 0x2e01
    1894:	0f8b0700 	svceq	0x008b0700
    1898:	88030000 	stmdahi	r3, {}	; <UNPREDICTABLE>
    189c:	00006501 	andeq	r6, r0, r1, lsl #10
    18a0:	1d010400 	cfstrsne	mvf0, [r1, #-0]
    18a4:	07002302 	streq	r2, [r0, -r2, lsl #6]
    18a8:	00000486 	andeq	r0, r0, r6, lsl #9
    18ac:	65018903 	strvs	r8, [r1, #-2307]	; 0xfffff6fd
    18b0:	04000000 	streq	r0, [r0], #-0
    18b4:	23021c01 	movwcs	r1, #11265	; 0x2c01
    18b8:	0f950700 	svceq	0x00950700
    18bc:	8a030000 	bhi	c18c4 <__standby_start+0xc18c4>
    18c0:	00006501 	andeq	r6, r0, r1, lsl #10
    18c4:	1b010400 	blne	428cc <__standby_start+0x428cc>
    18c8:	07002302 	streq	r2, [r0, -r2, lsl #6]
    18cc:	000009d4 	ldrdeq	r0, [r0], -r4
    18d0:	65018b03 	strvs	r8, [r1, #-2819]	; 0xfffff4fd
    18d4:	04000000 	streq	r0, [r0], #-0
    18d8:	23021a01 	movwcs	r1, #10753	; 0x2a01
    18dc:	0f9f0700 	svceq	0x009f0700
    18e0:	8c030000 	stchi	0, cr0, [r3], {-0}
    18e4:	00006501 	andeq	r6, r0, r1, lsl #10
    18e8:	07130400 	ldreq	r0, [r3, -r0, lsl #8]
    18ec:	07002302 	streq	r2, [r0, -r2, lsl #6]
    18f0:	000011fc 	strdeq	r1, [r0], -ip
    18f4:	65018d03 	strvs	r8, [r1, #-3331]	; 0xfffff2fd
    18f8:	04000000 	streq	r0, [r0], #-0
    18fc:	23020601 	movwcs	r0, #9729	; 0x2601
    1900:	0f2c0700 	svceq	0x002c0700
    1904:	8e030000 	cdphi	0, 0, cr0, cr3, cr0, {0}
    1908:	00006501 	andeq	r6, r0, r1, lsl #10
    190c:	05010400 	streq	r0, [r1, #-1024]	; 0xfffffc00
    1910:	07002302 	streq	r2, [r0, -r2, lsl #6]
    1914:	00000fa9 	andeq	r0, r0, r9, lsr #31
    1918:	65018f03 	strvs	r8, [r1, #-3843]	; 0xfffff0fd
    191c:	04000000 	streq	r0, [r0], #-0
    1920:	23020104 	movwcs	r0, #8452	; 0x2104
    1924:	0b390700 	bleq	e4352c <__standby_start+0xe4352c>
    1928:	90030000 	andls	r0, r3, r0
    192c:	00006501 	andeq	r6, r0, r1, lsl #10
    1930:	00010400 	andeq	r0, r1, r0, lsl #8
    1934:	00002302 	andeq	r2, r0, r2, lsl #6
    1938:	00051c08 	andeq	r1, r5, r8, lsl #24
    193c:	01910300 	orrseq	r0, r1, r0, lsl #6
    1940:	000012d6 	ldrdeq	r1, [r0], -r6
    1944:	0004d709 	andeq	sp, r4, r9, lsl #14
    1948:	96030400 	strls	r0, [r3], -r0, lsl #8
    194c:	00143001 	andseq	r3, r4, r1
    1950:	13210700 	teqne	r1, #0, 14
    1954:	98030000 	stmdals	r3, {}	; <UNPREDICTABLE>
    1958:	00006501 	andeq	r6, r0, r1, lsl #10
    195c:	1c040400 	cfstrsne	mvf0, [r4], {-0}
    1960:	07002302 	streq	r2, [r0, -r2, lsl #6]
    1964:	00000f8b 	andeq	r0, r0, fp, lsl #31
    1968:	65019903 	strvs	r9, [r1, #-2307]	; 0xfffff6fd
    196c:	04000000 	streq	r0, [r0], #-0
    1970:	23020814 	movwcs	r0, #10260	; 0x2814
    1974:	12d20700 	sbcsne	r0, r2, #0, 14
    1978:	9a030000 	bls	c1980 <__standby_start+0xc1980>
    197c:	00006501 	andeq	r6, r0, r1, lsl #10
    1980:	06020400 	streq	r0, [r2], -r0, lsl #8
    1984:	07002302 	streq	r2, [r0, -r2, lsl #6]
    1988:	00000f95 	muleq	r0, r5, pc	; <UNPREDICTABLE>
    198c:	65019b03 	strvs	r9, [r1, #-2819]	; 0xfffff4fd
    1990:	04000000 	streq	r0, [r0], #-0
    1994:	23020204 	movwcs	r0, #8708	; 0x2204
    1998:	11c20700 	bicne	r0, r2, r0, lsl #14
    199c:	9c030000 	stcls	0, cr0, [r3], {-0}
    19a0:	00006501 	andeq	r6, r0, r1, lsl #10
    19a4:	01010400 	tsteq	r1, r0, lsl #8
    19a8:	07002302 	streq	r2, [r0, -r2, lsl #6]
    19ac:	00001169 	andeq	r1, r0, r9, ror #2
    19b0:	65019d03 	strvs	r9, [r1, #-3331]	; 0xfffff2fd
    19b4:	04000000 	streq	r0, [r0], #-0
    19b8:	23020001 	movwcs	r0, #8193	; 0x2001
    19bc:	be080000 	cdplt	0, 0, cr0, cr8, cr0, {0}
    19c0:	03000010 	movweq	r0, #16
    19c4:	13b6019f 			; <UNDEFINED> instruction: 0x13b6019f
    19c8:	26090000 	strcs	r0, [r9], -r0
    19cc:	04000012 	streq	r0, [r0], #-18	; 0xffffffee
    19d0:	b601a403 	strlt	sl, [r1], -r3, lsl #8
    19d4:	07000014 	smladeq	r0, r4, r0, r0
    19d8:	00000f8b 	andeq	r0, r0, fp, lsl #31
    19dc:	6501a603 	strvs	sl, [r1, #-1539]	; 0xfffff9fd
    19e0:	04000000 	streq	r0, [r0], #-0
    19e4:	23020818 	movwcs	r0, #10264	; 0x2818
    19e8:	12d20700 	sbcsne	r0, r2, #0, 14
    19ec:	a7030000 	strge	r0, [r3, -r0]
    19f0:	00006501 	andeq	r6, r0, r1, lsl #10
    19f4:	06020400 	streq	r0, [r2], -r0, lsl #8
    19f8:	07002302 	streq	r2, [r0, -r2, lsl #6]
    19fc:	00000f95 	muleq	r0, r5, pc	; <UNPREDICTABLE>
    1a00:	6501a803 	strvs	sl, [r1, #-2051]	; 0xfffff7fd
    1a04:	04000000 	streq	r0, [r0], #-0
    1a08:	23020303 	movwcs	r0, #8963	; 0x2303
    1a0c:	043f0700 	ldrteq	r0, [pc], #-1792	; 1a14 <__standby_start+0x1a14>
    1a10:	a9030000 	stmdbge	r3, {}	; <UNPREDICTABLE>
    1a14:	00006501 	andeq	r6, r0, r1, lsl #10
    1a18:	02010400 	andeq	r0, r1, #0, 8
    1a1c:	07002302 	streq	r2, [r0, -r2, lsl #6]
    1a20:	000011bf 			; <UNDEFINED> instruction: 0x000011bf
    1a24:	6501aa03 	strvs	sl, [r1, #-2563]	; 0xfffff5fd
    1a28:	04000000 	streq	r0, [r0], #-0
    1a2c:	23020101 	movwcs	r0, #8449	; 0x2101
    1a30:	11690700 	cmnne	r9, r0, lsl #14
    1a34:	ab030000 	blge	c1a3c <__standby_start+0xc1a3c>
    1a38:	00006501 	andeq	r6, r0, r1, lsl #10
    1a3c:	00010400 	andeq	r0, r1, r0, lsl #8
    1a40:	00002302 	andeq	r2, r0, r2, lsl #6
    1a44:	00062c08 	andeq	r2, r6, r8, lsl #24
    1a48:	01ad0300 			; <UNDEFINED> instruction: 0x01ad0300
    1a4c:	0000143c 	andeq	r1, r0, ip, lsr r4
    1a50:	000c7709 	andeq	r7, ip, r9, lsl #14
    1a54:	b2030400 	andlt	r0, r3, #0, 8
    1a58:	00157201 	andseq	r7, r5, r1, lsl #4
    1a5c:	13210700 	teqne	r1, #0, 14
    1a60:	b4030000 	strlt	r0, [r3], #-0
    1a64:	00006501 	andeq	r6, r0, r1, lsl #10
    1a68:	1c040400 	cfstrsne	mvf0, [r4], {-0}
    1a6c:	07002302 	streq	r2, [r0, -r2, lsl #6]
    1a70:	00000f8b 	andeq	r0, r0, fp, lsl #31
    1a74:	6501b503 	strvs	fp, [r1, #-1283]	; 0xfffffafd
    1a78:	04000000 	streq	r0, [r0], #-0
    1a7c:	23021507 	movwcs	r1, #9479	; 0x2507
    1a80:	069a0700 	ldreq	r0, [sl], r0, lsl #14
    1a84:	b6030000 	strlt	r0, [r3], -r0
    1a88:	00006501 	andeq	r6, r0, r1, lsl #10
    1a8c:	14010400 	strne	r0, [r1], #-1024	; 0xfffffc00
    1a90:	07002302 	streq	r2, [r0, -r2, lsl #6]
    1a94:	00000f95 	muleq	r0, r5, pc	; <UNPREDICTABLE>
    1a98:	6501b703 	strvs	fp, [r1, #-1795]	; 0xfffff8fd
    1a9c:	04000000 	streq	r0, [r0], #-0
    1aa0:	23021103 	movwcs	r1, #8451	; 0x2103
    1aa4:	0fed0700 	svceq	0x00ed0700
    1aa8:	b8030000 	stmdalt	r3, {}	; <UNPREDICTABLE>
    1aac:	00006501 	andeq	r6, r0, r1, lsl #10
    1ab0:	10010400 	andne	r0, r1, r0, lsl #8
    1ab4:	07002302 	streq	r2, [r0, -r2, lsl #6]
    1ab8:	00000f9f 	muleq	r0, pc, pc	; <UNPREDICTABLE>
    1abc:	6501b903 	strvs	fp, [r1, #-2307]	; 0xfffff6fd
    1ac0:	04000000 	streq	r0, [r0], #-0
    1ac4:	23020808 	movwcs	r0, #10248	; 0x2808
    1ac8:	10040700 	andne	r0, r4, r0, lsl #14
    1acc:	ba030000 	blt	c1ad4 <__standby_start+0xc1ad4>
    1ad0:	00006501 	andeq	r6, r0, r1, lsl #10
    1ad4:	06020400 	streq	r0, [r2], -r0, lsl #8
    1ad8:	07002302 	streq	r2, [r0, -r2, lsl #6]
    1adc:	00000fa9 	andeq	r0, r0, r9, lsr #31
    1ae0:	6501bb03 	strvs	fp, [r1, #-2819]	; 0xfffff4fd
    1ae4:	04000000 	streq	r0, [r0], #-0
    1ae8:	23020105 	movwcs	r0, #8453	; 0x2105
    1aec:	0a090700 	beq	2436f4 <__standby_start+0x2436f4>
    1af0:	bc030000 	stclt	0, cr0, [r3], {-0}
    1af4:	00006501 	andeq	r6, r0, r1, lsl #10
    1af8:	00010400 	andeq	r0, r1, r0, lsl #8
    1afc:	00002302 	andeq	r2, r0, r2, lsl #6
    1b00:	000f1808 	andeq	r1, pc, r8, lsl #16
    1b04:	01be0300 			; <UNDEFINED> instruction: 0x01be0300
    1b08:	000014c2 	andeq	r1, r0, r2, asr #9
    1b0c:	00096f09 	andeq	r6, r9, r9, lsl #30
    1b10:	c3030400 	movwgt	r0, #13312	; 0x3400
    1b14:	0015f801 	andseq	pc, r5, r1, lsl #16
    1b18:	13210700 	teqne	r1, #0, 14
    1b1c:	c5030000 	strgt	r0, [r3, #-0]
    1b20:	00006501 	andeq	r6, r0, r1, lsl #10
    1b24:	1b050400 	blne	142b2c <__standby_start+0x142b2c>
    1b28:	07002302 	streq	r2, [r0, -r2, lsl #6]
    1b2c:	00000f8b 	andeq	r0, r0, fp, lsl #31
    1b30:	6501c603 	strvs	ip, [r1, #-1539]	; 0xfffff9fd
    1b34:	04000000 	streq	r0, [r0], #-0
    1b38:	23020813 	movwcs	r0, #10259	; 0x2813
    1b3c:	12d20700 	sbcsne	r0, r2, #0, 14
    1b40:	c7030000 	strgt	r0, [r3, -r0]
    1b44:	00006501 	andeq	r6, r0, r1, lsl #10
    1b48:	05030400 	streq	r0, [r3, #-1024]	; 0xfffffc00
    1b4c:	07002302 	streq	r2, [r0, -r2, lsl #6]
    1b50:	00000f95 	muleq	r0, r5, pc	; <UNPREDICTABLE>
    1b54:	6501c803 	strvs	ip, [r1, #-2051]	; 0xfffff7fd
    1b58:	04000000 	streq	r0, [r0], #-0
    1b5c:	23020203 	movwcs	r0, #8707	; 0x2203
    1b60:	11c20700 	bicne	r0, r2, r0, lsl #14
    1b64:	c9030000 	stmdbgt	r3, {}	; <UNPREDICTABLE>
    1b68:	00006501 	andeq	r6, r0, r1, lsl #10
    1b6c:	01010400 	tsteq	r1, r0, lsl #8
    1b70:	07002302 	streq	r2, [r0, -r2, lsl #6]
    1b74:	00001169 	andeq	r1, r0, r9, ror #2
    1b78:	6501ca03 	strvs	ip, [r1, #-2563]	; 0xfffff5fd
    1b7c:	04000000 	streq	r0, [r0], #-0
    1b80:	23020001 	movwcs	r0, #8193	; 0x2001
    1b84:	9e080000 	cdpls	0, 0, cr0, cr8, cr0, {0}
    1b88:	03000008 	movweq	r0, #8
    1b8c:	157e01cb 	ldrbne	r0, [lr, #-459]!	; 0xfffffe35
    1b90:	41090000 	tstmi	r9, r0
    1b94:	04000012 	streq	r0, [r0], #-18	; 0xffffffee
    1b98:	6c01ce03 	stcvs	14, cr12, [r1], {3}
    1b9c:	07000016 	smladeq	r0, r6, r0, r0
    1ba0:	000011c2 	andeq	r1, r0, r2, asr #3
    1ba4:	6501d003 	strvs	sp, [r1, #-3]
    1ba8:	04000000 	streq	r0, [r0], #-0
    1bac:	23021f01 	movwcs	r1, #12033	; 0x2f01
    1bb0:	0f8b0700 	svceq	0x008b0700
    1bb4:	d1030000 	tstle	r3, r0
    1bb8:	00006501 	andeq	r6, r0, r1, lsl #10
    1bbc:	100f0400 	andne	r0, pc, r0, lsl #8
    1bc0:	07002302 	streq	r2, [r0, -r2, lsl #6]
    1bc4:	00001321 	andeq	r1, r0, r1, lsr #6
    1bc8:	6501d203 	strvs	sp, [r1, #-515]	; 0xfffffdfd
    1bcc:	04000000 	streq	r0, [r0], #-0
    1bd0:	23020d03 	movwcs	r0, #11523	; 0x2d03
    1bd4:	0f950700 	svceq	0x00950700
    1bd8:	d3030000 	movwle	r0, #12288	; 0x3000
    1bdc:	00006501 	andeq	r6, r0, r1, lsl #10
    1be0:	010c0400 	tsteq	ip, r0, lsl #8
    1be4:	07002302 	streq	r2, [r0, -r2, lsl #6]
    1be8:	00001169 	andeq	r1, r0, r9, ror #2
    1bec:	6501d403 	strvs	sp, [r1, #-1027]	; 0xfffffbfd
    1bf0:	04000000 	streq	r0, [r0], #-0
    1bf4:	23020001 	movwcs	r0, #8193	; 0x2001
    1bf8:	78080000 	stmdavc	r8, {}	; <UNPREDICTABLE>
    1bfc:	0300000e 	movweq	r0, #14
    1c00:	160401d5 			; <UNDEFINED> instruction: 0x160401d5
    1c04:	d1090000 	tstle	r9, r0
    1c08:	0400000c 	streq	r0, [r0], #-12
    1c0c:	aa01d703 	bge	77820 <__standby_start+0x77820>
    1c10:	07000016 	smladeq	r0, r6, r0, r0
    1c14:	00000f8b 	andeq	r0, r0, fp, lsl #31
    1c18:	6501d903 	strvs	sp, [r1, #-2307]	; 0xfffff6fd
    1c1c:	04000000 	streq	r0, [r0], #-0
    1c20:	2302011f 	movwcs	r0, #8479	; 0x211f
    1c24:	11690700 	cmnne	r9, r0, lsl #14
    1c28:	da030000 	ble	c1c30 <__standby_start+0xc1c30>
    1c2c:	00006501 	andeq	r6, r0, r1, lsl #10
    1c30:	00010400 	andeq	r0, r1, r0, lsl #8
    1c34:	00002302 	andeq	r2, r0, r2, lsl #6
    1c38:	00050208 	andeq	r0, r5, r8, lsl #4
    1c3c:	01db0300 	bicseq	r0, fp, r0, lsl #6
    1c40:	00001678 	andeq	r1, r0, r8, ror r6
    1c44:	00082909 	andeq	r2, r8, r9, lsl #18
    1c48:	dd030400 	cfstrsle	mvf0, [r3, #-0]
    1c4c:	0016e801 	andseq	lr, r6, r1, lsl #16
    1c50:	0f8b0700 	svceq	0x008b0700
    1c54:	df030000 	svcle	0x00030000
    1c58:	00006501 	andeq	r6, r0, r1, lsl #10
    1c5c:	011f0400 	tsteq	pc, r0, lsl #8
    1c60:	07002302 	streq	r2, [r0, -r2, lsl #6]
    1c64:	00001169 	andeq	r1, r0, r9, ror #2
    1c68:	6501e003 	strvs	lr, [r1, #-3]
    1c6c:	04000000 	streq	r0, [r0], #-0
    1c70:	23020001 	movwcs	r0, #8193	; 0x2001
    1c74:	97080000 	strls	r0, [r8, -r0]
    1c78:	03000011 	movweq	r0, #17
    1c7c:	16b601e1 	ldrtne	r0, [r6], r1, ror #3
    1c80:	71090000 	tstvc	r9, r0
    1c84:	04000005 	streq	r0, [r0], #-5
    1c88:	2601e403 	strcs	lr, [r1], -r3, lsl #8
    1c8c:	07000017 	smladeq	r0, r7, r0, r0
    1c90:	000011c2 	andeq	r1, r0, r2, asr #3
    1c94:	6501e603 	strvs	lr, [r1, #-1539]	; 0xfffff9fd
    1c98:	04000000 	streq	r0, [r0], #-0
    1c9c:	23021f01 	movwcs	r1, #12033	; 0x2f01
    1ca0:	017f0700 	cmneq	pc, r0, lsl #14
    1ca4:	e7030000 	str	r0, [r3, -r0]
    1ca8:	00006501 	andeq	r6, r0, r1, lsl #10
    1cac:	001f0400 	andseq	r0, pc, r0, lsl #8
    1cb0:	00002302 	andeq	r2, r0, r2, lsl #6
    1cb4:	000e5608 	andeq	r5, lr, r8, lsl #12
    1cb8:	01e80300 	mvneq	r0, r0, lsl #6
    1cbc:	000016f4 	strdeq	r1, [r0], -r4
    1cc0:	00066509 	andeq	r6, r6, r9, lsl #10
    1cc4:	eb030400 	bl	c2ccc <__standby_start+0xc2ccc>
    1cc8:	00179a01 	andseq	r9, r7, r1, lsl #20
    1ccc:	13210700 	teqne	r1, #0, 14
    1cd0:	ed030000 	stc	0, cr0, [r3, #-0]
    1cd4:	00006501 	andeq	r6, r0, r1, lsl #10
    1cd8:	1c040400 	cfstrsne	mvf0, [r4], {-0}
    1cdc:	07002302 	streq	r2, [r0, -r2, lsl #6]
    1ce0:	00000f8b 	andeq	r0, r0, fp, lsl #31
    1ce4:	6501ee03 	strvs	lr, [r1, #-3587]	; 0xfffff1fd
    1ce8:	04000000 	streq	r0, [r0], #-0
    1cec:	23020814 	movwcs	r0, #10260	; 0x2814
    1cf0:	12d20700 	sbcsne	r0, r2, #0, 14
    1cf4:	ef030000 	svc	0x00030000
    1cf8:	00006501 	andeq	r6, r0, r1, lsl #10
    1cfc:	06020400 	streq	r0, [r2], -r0, lsl #8
    1d00:	07002302 	streq	r2, [r0, -r2, lsl #6]
    1d04:	00000f95 	muleq	r0, r5, pc	; <UNPREDICTABLE>
    1d08:	6501f003 	strvs	pc, [r1, #-3]
    1d0c:	04000000 	streq	r0, [r0], #-0
    1d10:	23020105 	movwcs	r0, #8453	; 0x2105
    1d14:	11690700 	cmnne	r9, r0, lsl #14
    1d18:	f1030000 			; <UNDEFINED> instruction: 0xf1030000
    1d1c:	00006501 	andeq	r6, r0, r1, lsl #10
    1d20:	00010400 	andeq	r0, r1, r0, lsl #8
    1d24:	00002302 	andeq	r2, r0, r2, lsl #6
    1d28:	00044808 	andeq	r4, r4, r8, lsl #16
    1d2c:	01f20300 	mvnseq	r0, r0, lsl #6
    1d30:	00001732 	andeq	r1, r0, r2, lsr r7
    1d34:	000a3e09 	andeq	r3, sl, r9, lsl #28
    1d38:	f5030400 			; <UNDEFINED> instruction: 0xf5030400
    1d3c:	00182001 	andseq	r2, r8, r1
    1d40:	13210700 	teqne	r1, #0, 14
    1d44:	f7030000 			; <UNDEFINED> instruction: 0xf7030000
    1d48:	00006501 	andeq	r6, r0, r1, lsl #10
    1d4c:	1c040400 	cfstrsne	mvf0, [r4], {-0}
    1d50:	07002302 	streq	r2, [r0, -r2, lsl #6]
    1d54:	00000f8b 	andeq	r0, r0, fp, lsl #31
    1d58:	6501f803 	strvs	pc, [r1, #-2051]	; 0xfffff7fd
    1d5c:	04000000 	streq	r0, [r0], #-0
    1d60:	23020814 	movwcs	r0, #10260	; 0x2814
    1d64:	12d20700 	sbcsne	r0, r2, #0, 14
    1d68:	f9030000 			; <UNDEFINED> instruction: 0xf9030000
    1d6c:	00006501 	andeq	r6, r0, r1, lsl #10
    1d70:	05030400 	streq	r0, [r3, #-1024]	; 0xfffffc00
    1d74:	07002302 	streq	r2, [r0, -r2, lsl #6]
    1d78:	00000f95 	muleq	r0, r5, pc	; <UNPREDICTABLE>
    1d7c:	6501fa03 	strvs	pc, [r1, #-2563]	; 0xfffff5fd
    1d80:	04000000 	streq	r0, [r0], #-0
    1d84:	23020203 	movwcs	r0, #8707	; 0x2203
    1d88:	11c20700 	bicne	r0, r2, r0, lsl #14
    1d8c:	fb030000 	blx	c1d96 <__standby_start+0xc1d96>
    1d90:	00006501 	andeq	r6, r0, r1, lsl #10
    1d94:	01010400 	tsteq	r1, r0, lsl #8
    1d98:	07002302 	streq	r2, [r0, -r2, lsl #6]
    1d9c:	00001169 	andeq	r1, r0, r9, ror #2
    1da0:	6501fc03 	strvs	pc, [r1, #-3075]	; 0xfffff3fd
    1da4:	04000000 	streq	r0, [r0], #-0
    1da8:	23020001 	movwcs	r0, #8193	; 0x2001
    1dac:	e2080000 	and	r0, r8, #0
    1db0:	03000008 	movweq	r0, #8
    1db4:	17a601fd 			; <UNDEFINED> instruction: 0x17a601fd
    1db8:	c4090000 	strgt	r0, [r9], #-0
    1dbc:	04000007 	streq	r0, [r0], #-7
    1dc0:	b8020003 	stmdalt	r2, {r0, r1}
    1dc4:	07000018 	smladeq	r0, r8, r0, r0
    1dc8:	00001321 	andeq	r1, r0, r1, lsr #6
    1dcc:	65020203 	strvs	r0, [r2, #-515]	; 0xfffffdfd
    1dd0:	04000000 	streq	r0, [r0], #-0
    1dd4:	23021c04 	movwcs	r1, #11268	; 0x2c04
    1dd8:	0f8b0700 	svceq	0x008b0700
    1ddc:	03030000 	movweq	r0, #12288	; 0x3000
    1de0:	00006502 	andeq	r6, r0, r2, lsl #10
    1de4:	100c0400 	andne	r0, ip, r0, lsl #8
    1de8:	07002302 	streq	r2, [r0, -r2, lsl #6]
    1dec:	00000555 	andeq	r0, r0, r5, asr r5
    1df0:	65020403 	strvs	r0, [r2, #-1027]	; 0xfffffbfd
    1df4:	04000000 	streq	r0, [r0], #-0
    1df8:	23020e02 	movwcs	r0, #11778	; 0x2e02
    1dfc:	0f950700 	svceq	0x00950700
    1e00:	05030000 	streq	r0, [r3, #-0]
    1e04:	00006502 	andeq	r6, r0, r2, lsl #10
    1e08:	08060400 	stmdaeq	r6, {sl}
    1e0c:	07002302 	streq	r2, [r0, -r2, lsl #6]
    1e10:	000012d2 	ldrdeq	r1, [r0], -r2
    1e14:	65020603 	strvs	r0, [r2, #-1539]	; 0xfffff9fd
    1e18:	04000000 	streq	r0, [r0], #-0
    1e1c:	23020602 	movwcs	r0, #9730	; 0x2602
    1e20:	0f9f0700 	svceq	0x009f0700
    1e24:	07030000 	streq	r0, [r3, -r0]
    1e28:	00006502 	andeq	r6, r0, r2, lsl #10
    1e2c:	01050400 	tsteq	r5, r0, lsl #8
    1e30:	07002302 	streq	r2, [r0, -r2, lsl #6]
    1e34:	0000116d 	andeq	r1, r0, sp, ror #2
    1e38:	65020803 	strvs	r0, [r2, #-2051]	; 0xfffff7fd
    1e3c:	04000000 	streq	r0, [r0], #-0
    1e40:	23020001 	movwcs	r0, #8193	; 0x2001
    1e44:	4b080000 	blmi	201e4c <__standby_start+0x201e4c>
    1e48:	03000006 	movweq	r0, #6
    1e4c:	182c020a 	stmdane	ip!, {r1, r3, r9}
    1e50:	40090000 	andmi	r0, r9, r0
    1e54:	0400000f 	streq	r0, [r0], #-15
    1e58:	08020d03 	stmdaeq	r2, {r0, r1, r8, sl, fp}
    1e5c:	07000019 	smladeq	r0, r9, r0, r0
    1e60:	0000017f 	andeq	r0, r0, pc, ror r1
    1e64:	65020f03 	strvs	r0, [r2, #-3843]	; 0xfffff0fd
    1e68:	04000000 	streq	r0, [r0], #-0
    1e6c:	2302021e 	movwcs	r0, #8734	; 0x221e
    1e70:	11c20700 	bicne	r0, r2, r0, lsl #14
    1e74:	10030000 	andne	r0, r3, r0
    1e78:	00006502 	andeq	r6, r0, r2, lsl #10
    1e7c:	01010400 	tsteq	r1, r0, lsl #8
    1e80:	07002302 	streq	r2, [r0, -r2, lsl #6]
    1e84:	0000116d 	andeq	r1, r0, sp, ror #2
    1e88:	65021103 	strvs	r1, [r2, #-259]	; 0xfffffefd
    1e8c:	04000000 	streq	r0, [r0], #-0
    1e90:	23020001 	movwcs	r0, #8193	; 0x2001
    1e94:	56080000 	strpl	r0, [r8], -r0
    1e98:	0300000b 	movweq	r0, #11
    1e9c:	18c40213 	stmiane	r4, {r0, r1, r4, r9}^
    1ea0:	f40a0000 	vst4.8	{d0-d3}, [sl], r0
    1ea4:	64000012 	strvs	r0, [r0], #-18	; 0xffffffee
    1ea8:	02150301 	andseq	r0, r5, #67108864	; 0x4000000
    1eac:	00001d79 	andeq	r1, r0, r9, ror sp
    1eb0:	00099a0b 	andeq	r9, r9, fp, lsl #20
    1eb4:	02170300 	andseq	r0, r7, #0, 6
    1eb8:	00001d79 	andeq	r1, r0, r9, ror sp
    1ebc:	0b002302 	bleq	aacc <__standby_start+0xaacc>
    1ec0:	0000085a 	andeq	r0, r0, sl, asr r8
    1ec4:	7e021803 	cdpvc	8, 0, cr1, cr2, cr3, {0}
    1ec8:	0200001d 	andeq	r0, r0, #29
    1ecc:	ec0b0423 	cfstrs	mvf0, [fp], {35}	; 0x23
    1ed0:	03000012 	movweq	r0, #18
    1ed4:	1d830219 	sfmne	f0, 4, [r3, #100]	; 0x64
    1ed8:	23020000 	movwcs	r0, #8192	; 0x2000
    1edc:	110c0b08 	tstne	ip, r8, lsl #22
    1ee0:	1a030000 	bne	c1ee8 <__standby_start+0xc1ee8>
    1ee4:	001d8802 	andseq	r8, sp, r2, lsl #16
    1ee8:	0c230200 	sfmeq	f0, 4, [r3], #-0
    1eec:	0012060b 	andseq	r0, r2, fp, lsl #12
    1ef0:	021b0300 	andseq	r0, fp, #0, 6
    1ef4:	00001d8d 	andeq	r1, r0, sp, lsl #27
    1ef8:	0b102302 	bleq	40ab08 <__standby_start+0x40ab08>
    1efc:	00000f8b 	andeq	r0, r0, fp, lsl #31
    1f00:	92021c03 	andls	r1, r2, #768	; 0x300
    1f04:	0200001d 	andeq	r0, r0, #29
    1f08:	910b1423 	tstls	fp, r3, lsr #8
    1f0c:	03000005 	movweq	r0, #5
    1f10:	1d97021d 	lfmne	f0, 4, [r7, #116]	; 0x74
    1f14:	23020000 	movwcs	r0, #8192	; 0x2000
    1f18:	0f950b18 	svceq	0x00950b18
    1f1c:	1e030000 	cdpne	0, 0, cr0, cr3, cr0, {0}
    1f20:	001d9202 	andseq	r9, sp, r2, lsl #4
    1f24:	1c230200 	sfmne	f0, 4, [r3], #-0
    1f28:	000e700b 	andeq	r7, lr, fp
    1f2c:	021f0300 	andseq	r0, pc, #0, 6
    1f30:	00001d9c 	muleq	r0, ip, sp
    1f34:	0b202302 	bleq	80ab44 <__standby_start+0x80ab44>
    1f38:	000003ff 	strdeq	r0, [r0], -pc	; <UNPREDICTABLE>
    1f3c:	a1022003 	tstge	r2, r3
    1f40:	0200001d 	andeq	r0, r0, #29
    1f44:	1e0b2423 	cdpne	4, 0, cr2, cr11, cr3, {1}
    1f48:	03000012 	movweq	r0, #18
    1f4c:	1da60221 	sfmne	f0, 4, [r6, #132]!	; 0x84
    1f50:	23020000 	movwcs	r0, #8192	; 0x2000
    1f54:	0f9f0b28 	svceq	0x009f0b28
    1f58:	22030000 	andcs	r0, r3, #0
    1f5c:	001d9202 	andseq	r9, sp, r2, lsl #4
    1f60:	2c230200 	sfmcs	f0, 4, [r3], #-0
    1f64:	0011420b 	andseq	r4, r1, fp, lsl #4
    1f68:	02230300 	eoreq	r0, r3, #0, 6
    1f6c:	00001dab 	andeq	r1, r0, fp, lsr #27
    1f70:	0b302302 	bleq	c0ab80 <__standby_start+0xc0ab80>
    1f74:	00000fa9 	andeq	r0, r0, r9, lsr #31
    1f78:	92022403 	andls	r2, r2, #50331648	; 0x3000000
    1f7c:	0200001d 	andeq	r0, r0, #29
    1f80:	310b3423 	tstcc	fp, r3, lsr #8
    1f84:	0300000e 	movweq	r0, #14
    1f88:	1db00225 	lfmne	f0, 4, [r0, #148]!	; 0x94
    1f8c:	23020000 	movwcs	r0, #8192	; 0x2000
    1f90:	042f0b38 	strteq	r0, [pc], #-2872	; 1f98 <__standby_start+0x1f98>
    1f94:	26030000 	strcs	r0, [r3], -r0
    1f98:	001db502 	andseq	fp, sp, r2, lsl #10
    1f9c:	3c230200 	sfmcc	f0, 4, [r3], #-0
    1fa0:	000fb30b 	andeq	fp, pc, fp, lsl #6
    1fa4:	02270300 	eoreq	r0, r7, #0, 6
    1fa8:	00001dca 	andeq	r1, r0, sl, asr #27
    1fac:	0b402302 	bleq	100abbc <__standby_start+0x100abbc>
    1fb0:	000006be 			; <UNDEFINED> instruction: 0x000006be
    1fb4:	cf022803 	svcgt	0x00022803
    1fb8:	0200001d 	andeq	r0, r0, #29
    1fbc:	220b5023 	andcs	r5, fp, #35	; 0x23
    1fc0:	0300000c 	movweq	r0, #12
    1fc4:	1dd40229 	lfmne	f0, 2, [r4, #164]	; 0xa4
    1fc8:	23020000 	movwcs	r0, #8192	; 0x2000
    1fcc:	0a1d0b54 	beq	744d24 <__standby_start+0x744d24>
    1fd0:	2a030000 	bcs	c1fd8 <__standby_start+0xc1fd8>
    1fd4:	001dd902 	andseq	sp, sp, r2, lsl #18
    1fd8:	58230200 	stmdapl	r3!, {r9}
    1fdc:	00120e0b 	andseq	r0, r2, fp, lsl #28
    1fe0:	022b0300 	eoreq	r0, fp, #0, 6
    1fe4:	00001dde 	ldrdeq	r1, [r0], -lr
    1fe8:	0b5c2302 	bleq	170abf8 <__standby_start+0x170abf8>
    1fec:	00000956 	andeq	r0, r0, r6, asr r9
    1ff0:	e3022c03 	movw	r2, #11267	; 0x2c03
    1ff4:	0200001d 	andeq	r0, r0, #29
    1ff8:	5f0b6023 	svcpl	0x000b6023
    1ffc:	03000009 	movweq	r0, #9
    2000:	1de8022d 	sfmne	f0, 2, [r8, #180]!	; 0xb4
    2004:	23020000 	movwcs	r0, #8192	; 0x2000
    2008:	06870b64 	streq	r0, [r7], r4, ror #22
    200c:	2e030000 	cdpcs	0, 0, cr0, cr3, cr0, {0}
    2010:	001ded02 	andseq	lr, sp, r2, lsl #26
    2014:	68230200 	stmdavs	r3!, {r9}
    2018:	00075b0b 	andeq	r5, r7, fp, lsl #22
    201c:	022f0300 	eoreq	r0, pc, #0, 6
    2020:	00001df2 	strdeq	r1, [r0], -r2
    2024:	0b6c2302 	bleq	1b0ac34 <__standby_start+0x1b0ac34>
    2028:	0000067d 	andeq	r0, r0, sp, ror r6
    202c:	f7023003 			; <UNDEFINED> instruction: 0xf7023003
    2030:	0200001d 	andeq	r0, r0, #29
    2034:	5c0b7023 	stcpl	0, cr7, [fp], {35}	; 0x23
    2038:	03000011 	movweq	r0, #17
    203c:	1dfc0231 	lfmne	f0, 2, [ip, #196]!	; 0xc4
    2040:	23030000 	movwcs	r0, #12288	; 0x3000
    2044:	870b0180 	strhi	r0, [fp, -r0, lsl #3]
    2048:	03000007 	movweq	r0, #7
    204c:	1dfc0232 	lfmne	f0, 2, [ip, #200]!	; 0xc8
    2050:	23030000 	movwcs	r0, #12288	; 0x3000
    2054:	480b0184 	stmdami	fp, {r2, r7, r8}
    2058:	03000005 	movweq	r0, #5
    205c:	1dfc0233 	lfmne	f0, 2, [ip, #204]!	; 0xcc
    2060:	23030000 	movwcs	r0, #12288	; 0x3000
    2064:	360b0188 	strcc	r0, [fp], -r8, lsl #3
    2068:	0300000f 	movweq	r0, #15
    206c:	1dfc0234 	lfmne	f0, 2, [ip, #208]!	; 0xd0
    2070:	23030000 	movwcs	r0, #12288	; 0x3000
    2074:	ba0b018c 	blt	2c26ac <__standby_start+0x2c26ac>
    2078:	03000007 	movweq	r0, #7
    207c:	1dfc0235 	lfmne	f0, 2, [ip, #212]!	; 0xd4
    2080:	23030000 	movwcs	r0, #12288	; 0x3000
    2084:	d90b0190 	stmdble	fp, {r4, r7, r8}
    2088:	0300000f 	movweq	r0, #15
    208c:	1d920236 	lfmne	f0, 4, [r2, #216]	; 0xd8
    2090:	23030000 	movwcs	r0, #12288	; 0x3000
    2094:	830b0194 	movwhi	r0, #45460	; 0xb194
    2098:	03000010 	movweq	r0, #16
    209c:	1dfc0237 	lfmne	f0, 2, [ip, #220]!	; 0xdc
    20a0:	23030000 	movwcs	r0, #12288	; 0x3000
    20a4:	1f0b0198 	svcne	0x000b0198
    20a8:	03000006 	movweq	r0, #6
    20ac:	1dfc0238 	lfmne	f0, 2, [ip, #224]!	; 0xe0
    20b0:	23030000 	movwcs	r0, #12288	; 0x3000
    20b4:	1e0b019c 	mcrne	1, 0, r0, cr11, cr12, {4}
    20b8:	0300000b 	movweq	r0, #11
    20bc:	1dfc0239 	lfmne	f0, 2, [ip, #228]!	; 0xe4
    20c0:	23030000 	movwcs	r0, #12288	; 0x3000
    20c4:	8d0b01a0 	stfhis	f0, [fp, #-640]	; 0xfffffd80
    20c8:	03000004 	movweq	r0, #4
    20cc:	1dfc023a 	lfmne	f0, 2, [ip, #232]!	; 0xe8
    20d0:	23030000 	movwcs	r0, #12288	; 0x3000
    20d4:	3f0b01a4 	svccc	0x000b01a4
    20d8:	0300000d 	movweq	r0, #13
    20dc:	1dfc023b 	lfmne	f0, 2, [ip, #236]!	; 0xec
    20e0:	23030000 	movwcs	r0, #12288	; 0x3000
    20e4:	e30b01a8 	movw	r0, #45480	; 0xb1a8
    20e8:	0300000f 	movweq	r0, #15
    20ec:	1d92023c 	lfmne	f0, 4, [r2, #240]	; 0xf0
    20f0:	23030000 	movwcs	r0, #12288	; 0x3000
    20f4:	160b01ac 	strne	r0, [fp], -ip, lsr #3
    20f8:	0300000a 	movweq	r0, #10
    20fc:	1dfc023d 	lfmne	f0, 2, [ip, #244]!	; 0xf4
    2100:	23030000 	movwcs	r0, #12288	; 0x3000
    2104:	900b01b0 			; <UNDEFINED> instruction: 0x900b01b0
    2108:	03000006 	movweq	r0, #6
    210c:	1d92023e 	lfmne	f0, 4, [r2, #248]	; 0xf8
    2110:	23030000 	movwcs	r0, #12288	; 0x3000
    2114:	680b01b4 	stmdavs	fp, {r2, r4, r5, r7, r8}
    2118:	03000009 	movweq	r0, #9
    211c:	1e01023f 	mcrne	2, 0, r0, cr1, cr15, {1}
    2120:	23030000 	movwcs	r0, #12288	; 0x3000
    2124:	fa0b01b8 	blx	2c280c <__standby_start+0x2c280c>
    2128:	0300000f 	movweq	r0, #15
    212c:	1d920240 	lfmne	f0, 4, [r2, #256]	; 0x100
    2130:	23030000 	movwcs	r0, #12288	; 0x3000
    2134:	e90b01bc 	stmdb	fp, {r2, r3, r4, r5, r7, r8}
    2138:	0300000c 	movweq	r0, #12
    213c:	1e010241 	cdpne	2, 0, cr0, cr1, cr1, {2}
    2140:	23030000 	movwcs	r0, #12288	; 0x3000
    2144:	9c0b01c0 	stflss	f0, [fp], {192}	; 0xc0
    2148:	03000010 	movweq	r0, #16
    214c:	1e060242 	cdpne	2, 0, cr0, cr6, cr2, {2}
    2150:	23030000 	movwcs	r0, #12288	; 0x3000
    2154:	6f0b01c4 	svcvs	0x000b01c4
    2158:	0300000a 	movweq	r0, #10
    215c:	1d920243 	lfmne	f0, 4, [r2, #268]	; 0x10c
    2160:	23030000 	movwcs	r0, #12288	; 0x3000
    2164:	250b01c8 	strcs	r0, [fp, #-456]	; 0xfffffe38
    2168:	03000006 	movweq	r0, #6
    216c:	1e0b0244 	cdpne	2, 0, cr0, cr11, cr4, {2}
    2170:	23030000 	movwcs	r0, #12288	; 0x3000
    2174:	ca0b01cc 	bgt	2c28ac <__standby_start+0x2c28ac>
    2178:	0300000c 	movweq	r0, #12
    217c:	1e100245 	cdpne	2, 1, cr0, cr0, cr5, {2}
    2180:	23030000 	movwcs	r0, #12288	; 0x3000
    2184:	7a0b01d0 	bvc	2c28cc <__standby_start+0x2c28cc>
    2188:	0300000a 	movweq	r0, #10
    218c:	1d920246 	lfmne	f0, 4, [r2, #280]	; 0x118
    2190:	23030000 	movwcs	r0, #12288	; 0x3000
    2194:	850b01d4 	strhi	r0, [fp, #-468]	; 0xfffffe2c
    2198:	0300000a 	movweq	r0, #10
    219c:	1e250247 	cdpne	2, 2, cr0, cr5, cr7, {2}
    21a0:	23030000 	movwcs	r0, #12288	; 0x3000
    21a4:	6f0b01d8 	svcvs	0x000b01d8
    21a8:	0300000d 	movweq	r0, #13
    21ac:	1e2a0248 	cdpne	2, 2, cr0, cr10, cr8, {2}
    21b0:	23030000 	movwcs	r0, #12288	; 0x3000
    21b4:	ab0b0280 	blge	2c2bbc <__standby_start+0x2c2bbc>
    21b8:	0300000d 	movweq	r0, #13
    21bc:	1e2f0249 	cdpne	2, 2, cr0, cr15, cr9, {2}
    21c0:	23030000 	movwcs	r0, #12288	; 0x3000
    21c4:	c50b0284 	strgt	r0, [fp, #-644]	; 0xfffffd7c
    21c8:	0300000b 	movweq	r0, #11
    21cc:	1d92024a 	lfmne	f0, 4, [r2, #296]	; 0x128
    21d0:	23030000 	movwcs	r0, #12288	; 0x3000
    21d4:	c10b0288 	smlabbgt	fp, r8, r2, r0
    21d8:	03000009 	movweq	r0, #9
    21dc:	1e2f024b 	cdpne	2, 2, cr0, cr15, cr11, {2}
    21e0:	23030000 	movwcs	r0, #12288	; 0x3000
    21e4:	a70b028c 	strge	r0, [fp, -ip, lsl #5]
    21e8:	0300000a 	movweq	r0, #10
    21ec:	1d92024c 	lfmne	f0, 4, [r2, #304]	; 0x130
    21f0:	23030000 	movwcs	r0, #12288	; 0x3000
    21f4:	b20b0290 	andlt	r0, fp, #144, 4
    21f8:	0300000a 	movweq	r0, #10
    21fc:	1d92024d 	lfmne	f0, 4, [r2, #308]	; 0x134
    2200:	23030000 	movwcs	r0, #12288	; 0x3000
    2204:	950b0294 	strls	r0, [fp, #-660]	; 0xfffffd6c
    2208:	03000004 	movweq	r0, #4
    220c:	1e34024e 	cdpne	2, 3, cr0, cr4, cr14, {2}
    2210:	23030000 	movwcs	r0, #12288	; 0x3000
    2214:	bd0b0298 	sfmlt	f0, 4, [fp, #-608]	; 0xfffffda0
    2218:	0300000a 	movweq	r0, #10
    221c:	1e39024f 	cdpne	2, 3, cr0, cr9, cr15, {2}
    2220:	23030000 	movwcs	r0, #12288	; 0x3000
    2224:	400b029c 	mulmi	fp, ip, r2
    2228:	03000006 	movweq	r0, #6
    222c:	1e3e0250 	mrcne	2, 1, r0, cr14, cr0, {2}
    2230:	23030000 	movwcs	r0, #12288	; 0x3000
    2234:	c80b02ac 	stmdagt	fp, {r2, r3, r5, r7, r9}
    2238:	0300000a 	movweq	r0, #10
    223c:	1d920251 	lfmne	f0, 4, [r2, #324]	; 0x144
    2240:	23030000 	movwcs	r0, #12288	; 0x3000
    2244:	ff0b02b0 			; <UNDEFINED> instruction: 0xff0b02b0
    2248:	03000008 	movweq	r0, #8
    224c:	1e430252 	mcrne	2, 2, r0, cr3, cr2, {2}
    2250:	23030000 	movwcs	r0, #12288	; 0x3000
    2254:	d30b02b4 	movwle	r0, #45748	; 0xb2b4
    2258:	0300000a 	movweq	r0, #10
    225c:	1d920253 	lfmne	f0, 4, [r2, #332]	; 0x14c
    2260:	23030000 	movwcs	r0, #12288	; 0x3000
    2264:	390b02b8 	stmdbcc	fp, {r3, r4, r5, r7, r9}
    2268:	03000004 	movweq	r0, #4
    226c:	1e480254 	mcrne	2, 2, r0, cr8, cr4, {2}
    2270:	23030000 	movwcs	r0, #12288	; 0x3000
    2274:	7b0b02bc 	blvc	2c2d6c <__standby_start+0x2c2d6c>
    2278:	03000010 	movweq	r0, #16
    227c:	1e4d0255 	mcrne	2, 2, r0, cr13, cr5, {2}
    2280:	23030000 	movwcs	r0, #12288	; 0x3000
    2284:	b80b02c0 	stmdalt	fp, {r6, r7, r9}
    2288:	03000011 	movweq	r0, #17
    228c:	1e520256 	mrcne	2, 2, r0, cr2, cr6, {2}
    2290:	23030000 	movwcs	r0, #12288	; 0x3000
    2294:	7f0b02c4 	svcvc	0x000b02c4
    2298:	0300000b 	movweq	r0, #11
    229c:	1d920257 	lfmne	f0, 4, [r2, #348]	; 0x15c
    22a0:	23030000 	movwcs	r0, #12288	; 0x3000
    22a4:	f60b02c8 			; <UNDEFINED> instruction: 0xf60b02c8
    22a8:	0300000b 	movweq	r0, #11
    22ac:	1e570258 	mrcne	2, 2, r0, cr7, cr8, {2}
    22b0:	23030000 	movwcs	r0, #12288	; 0x3000
    22b4:	b30b02cc 	movwlt	r0, #45772	; 0xb2cc
    22b8:	0300000b 	movweq	r0, #11
    22bc:	1e5c0259 	mrcne	2, 2, r0, cr12, cr9, {2}
    22c0:	23030000 	movwcs	r0, #12288	; 0x3000
    22c4:	b00b02d0 	ldrdlt	r0, [fp], -r0	; <UNPREDICTABLE>
    22c8:	03000011 	movweq	r0, #17
    22cc:	1e61025a 	mcrne	2, 3, r0, cr1, cr10, {2}
    22d0:	23030000 	movwcs	r0, #12288	; 0x3000
    22d4:	8a0b02d4 	bhi	2c2e2c <__standby_start+0x2c2e2c>
    22d8:	0300000b 	movweq	r0, #11
    22dc:	1d92025b 	lfmne	f0, 4, [r2, #364]	; 0x16c
    22e0:	23030000 	movwcs	r0, #12288	; 0x3000
    22e4:	7e0b02d8 	mcrvc	2, 0, r0, cr11, cr8, {6}
    22e8:	03000004 	movweq	r0, #4
    22ec:	1e66025c 	mcrne	2, 3, r0, cr6, cr12, {2}
    22f0:	23030000 	movwcs	r0, #12288	; 0x3000
    22f4:	900b02dc 	ldrdls	r0, [fp], -ip
    22f8:	03000011 	movweq	r0, #17
    22fc:	1e6b025d 	mcrne	2, 3, r0, cr11, cr13, {2}
    2300:	23030000 	movwcs	r0, #12288	; 0x3000
    2304:	0c0002e0 	sfmeq	f0, 4, [r0], {224}	; 0xe0
    2308:	00000179 	andeq	r0, r0, r9, ror r1
    230c:	0001f70c 	andeq	pc, r1, ip, lsl #14
    2310:	02a80c00 	adceq	r0, r8, #0, 24
    2314:	260c0000 	strcs	r0, [ip], -r0
    2318:	0c000003 	stceq	0, cr0, [r0], {3}
    231c:	000003f9 	strdeq	r0, [r0], -r9
    2320:	0000650c 	andeq	r6, r0, ip, lsl #10
    2324:	04ff0c00 	ldrbteq	r0, [pc], #3072	; 232c <__standby_start+0x232c>
    2328:	160c0000 	strne	r0, [ip], -r0
    232c:	0c000006 	stceq	0, cr0, [r0], {6}
    2330:	000006a5 	andeq	r0, r0, r5, lsr #13
    2334:	0007890c 	andeq	r8, r7, ip, lsl #18
    2338:	085c0c00 	ldmdaeq	ip, {sl, fp}^
    233c:	da0c0000 	ble	302344 <__standby_start+0x302344>
    2340:	0c000008 	stceq	0, cr0, [r0], {8}
    2344:	00000958 	andeq	r0, r0, r8, asr r9
    2348:	0000650d 	andeq	r6, r0, sp, lsl #10
    234c:	001dca00 	andseq	ip, sp, r0, lsl #20
    2350:	00250e00 	eoreq	r0, r5, r0, lsl #28
    2354:	00030000 	andeq	r0, r3, r0
    2358:	001dba0c 	andseq	fp, sp, ip, lsl #20
    235c:	0a1a0c00 	beq	685364 <__standby_start+0x685364>
    2360:	ba0c0000 	blt	302368 <__standby_start+0x302368>
    2364:	0c00000a 	stceq	0, cr0, [r0], {10}
    2368:	00000b38 	andeq	r0, r0, r8, lsr fp
    236c:	000b720c 	andeq	r7, fp, ip, lsl #4
    2370:	0d560c00 	ldcleq	12, cr0, [r6, #-0]
    2374:	900c0000 	andls	r0, ip, r0
    2378:	0c00000e 	stceq	0, cr0, [r0], {14}
    237c:	00000f5e 	andeq	r0, r0, lr, asr pc
    2380:	00101a0c 	andseq	r1, r0, ip, lsl #20
    2384:	1dba0c00 	ldcne	12, cr0, [sl]
    2388:	b20c0000 	andlt	r0, ip, #0
    238c:	0c000010 	stceq	0, cr0, [r0], {16}
    2390:	00001114 	andeq	r1, r0, r4, lsl r1
    2394:	0011ac0c 	andseq	sl, r1, ip, lsl #24
    2398:	12440c00 	subne	r0, r4, #0, 24
    239c:	ca0c0000 	bgt	3023a4 <__standby_start+0x3023a4>
    23a0:	0d000012 	stceq	0, cr0, [r0, #-72]	; 0xffffffb8
    23a4:	00000065 	andeq	r0, r0, r5, rrx
    23a8:	00001e25 	andeq	r1, r0, r5, lsr #28
    23ac:	0000250e 	andeq	r2, r0, lr, lsl #10
    23b0:	0c000900 	stceq	9, cr0, [r0], {-0}
    23b4:	00001e15 	andeq	r1, r0, r5, lsl lr
    23b8:	0013aa0c 	andseq	sl, r3, ip, lsl #20
    23bc:	14300c00 	ldrtne	r0, [r0], #-3072	; 0xfffff400
    23c0:	b60c0000 	strlt	r0, [ip], -r0
    23c4:	0c000014 	stceq	0, cr0, [r0], {20}
    23c8:	00001dba 			; <UNDEFINED> instruction: 0x00001dba
    23cc:	0015720c 	andseq	r7, r5, ip, lsl #4
    23d0:	15f80c00 	ldrbne	r0, [r8, #3072]!	; 0xc00
    23d4:	6c0c0000 	stcvs	0, cr0, [ip], {-0}
    23d8:	0c000016 	stceq	0, cr0, [r0], {22}
    23dc:	000016aa 	andeq	r1, r0, sl, lsr #13
    23e0:	0016e80c 	andseq	lr, r6, ip, lsl #16
    23e4:	17260c00 	strne	r0, [r6, -r0, lsl #24]!
    23e8:	9a0c0000 	bls	3023f0 <__standby_start+0x3023f0>
    23ec:	0c000017 	stceq	0, cr0, [r0], {23}
    23f0:	00001820 	andeq	r1, r0, r0, lsr #16
    23f4:	0018b80c 	andseq	fp, r8, ip, lsl #16
    23f8:	19080c00 	stmdbne	r8, {sl, fp}
    23fc:	4a080000 	bmi	202404 <__standby_start+0x202404>
    2400:	03000011 	movweq	r0, #17
    2404:	1914025f 	ldmdbne	r4, {r0, r1, r2, r3, r4, r6, r9}
    2408:	b0050000 	andlt	r0, r5, r0
    240c:	04000000 	streq	r0, [r0], #-0
    2410:	1ede1904 	cdpne	9, 13, cr1, cr14, cr4, {0}
    2414:	21060000 	tstcs	r6, r0
    2418:	04000000 	streq	r0, [r0], #-0
    241c:	0000651a 	andeq	r6, r0, sl, lsl r5
    2420:	1c040400 	cfstrsne	mvf0, [r4], {-0}
    2424:	06002302 	streq	r2, [r0], -r2, lsl #6
    2428:	000000db 	ldrdeq	r0, [r0], -fp
    242c:	00651b04 	rsbeq	r1, r5, r4, lsl #22
    2430:	04040000 	streq	r0, [r4], #-0
    2434:	00230218 	eoreq	r0, r3, r8, lsl r2
    2438:	00017706 	andeq	r7, r1, r6, lsl #14
    243c:	651c0400 	ldrvs	r0, [ip, #-1024]	; 0xfffffc00
    2440:	04000000 	streq	r0, [r0], #-0
    2444:	23021404 	movwcs	r1, #9220	; 0x2404
    2448:	01610600 	cmneq	r1, r0, lsl #12
    244c:	1d040000 	stcne	0, cr0, [r4, #-0]
    2450:	00000065 	andeq	r0, r0, r5, rrx
    2454:	02100404 	andseq	r0, r0, #4, 8	; 0x4000000
    2458:	7f060023 	svcvc	0x00060023
    245c:	04000001 	streq	r0, [r0], #-1
    2460:	0000651e 	andeq	r6, r0, lr, lsl r5
    2464:	00100400 	andseq	r0, r0, r0, lsl #8
    2468:	00002302 	andeq	r2, r0, r2, lsl #6
    246c:	00002905 	andeq	r2, r0, r5, lsl #18
    2470:	18050800 	stmdane	r5, {fp}
    2474:	00001f31 	andeq	r1, r0, r1, lsr pc
    2478:	0000110f 	andeq	r1, r0, pc, lsl #2
    247c:	41190500 	tstmi	r9, r0, lsl #10
    2480:	02000000 	andeq	r0, r0, #0
    2484:	ac0f0023 	stcge	0, cr0, [pc], {35}	; 0x23
    2488:	05000003 	streq	r0, [r0, #-3]
    248c:	0000411a 	andeq	r4, r0, sl, lsl r1
    2490:	01230200 	teqeq	r3, r0, lsl #4
    2494:	0000090f 	andeq	r0, r0, pc, lsl #18
    2498:	411b0500 	tstmi	fp, r0, lsl #10
    249c:	02000000 	andeq	r0, r0, #0
    24a0:	190f0223 	stmdbne	pc, {r0, r1, r5, r9}	; <UNPREDICTABLE>
    24a4:	05000000 	streq	r0, [r0, #-0]
    24a8:	0000411c 	andeq	r4, r0, ip, lsl r1
    24ac:	03230200 	teqeq	r3, #0, 4
    24b0:	6c6c5010 	stclvs	0, cr5, [ip], #-64	; 0xffffffc0
    24b4:	651d0500 	ldrvs	r0, [sp, #-1280]	; 0xfffffb00
    24b8:	02000000 	andeq	r0, r0, #0
    24bc:	11000423 	tstne	r0, r3, lsr #8
    24c0:	0009dd01 	andeq	sp, r9, r1, lsl #26
    24c4:	012f0100 	teqeq	pc, r0, lsl #2
    24c8:	0000005a 	andeq	r0, r0, sl, asr r0
    24cc:	f000050c 			; <UNDEFINED> instruction: 0xf000050c
    24d0:	f00005a0 			; <UNDEFINED> instruction: 0xf00005a0
    24d4:	11007d02 	tstne	r0, r2, lsl #26
    24d8:	0004c601 	andeq	ip, r4, r1, lsl #12
    24dc:	01510100 	cmpeq	r1, r0, lsl #2
    24e0:	0000005a 	andeq	r0, r0, sl, asr r0
    24e4:	f00005a0 			; <UNDEFINED> instruction: 0xf00005a0
    24e8:	f00005e4 			; <UNDEFINED> instruction: 0xf00005e4
    24ec:	11007d02 	tstne	r0, r2, lsl #26
    24f0:	000a5901 	andeq	r5, sl, r1, lsl #18
    24f4:	016b0100 	cmneq	fp, r0, lsl #2
    24f8:	0000005a 	andeq	r0, r0, sl, asr r0
    24fc:	f00005e4 			; <UNDEFINED> instruction: 0xf00005e4
    2500:	f0000614 			; <UNDEFINED> instruction: 0xf0000614
    2504:	11007d02 	tstne	r0, r2, lsl #26
    2508:	00059901 	andeq	r9, r5, r1, lsl #18
    250c:	01800100 	orreq	r0, r0, r0, lsl #2
    2510:	0000005a 	andeq	r0, r0, sl, asr r0
    2514:	f0000614 			; <UNDEFINED> instruction: 0xf0000614
    2518:	f0000648 			; <UNDEFINED> instruction: 0xf0000648
    251c:	11007d02 	tstne	r0, r2, lsl #26
    2520:	00092801 	andeq	r2, r9, r1, lsl #16
    2524:	01950100 	orrseq	r0, r5, r0, lsl #2
    2528:	0000005a 	andeq	r0, r0, sl, asr r0
    252c:	f0000648 			; <UNDEFINED> instruction: 0xf0000648
    2530:	f000067c 			; <UNDEFINED> instruction: 0xf000067c
    2534:	11007d02 	tstne	r0, r2, lsl #26
    2538:	000c2c01 	andeq	r2, ip, r1, lsl #24
    253c:	01aa0100 			; <UNDEFINED> instruction: 0x01aa0100
    2540:	0000005a 	andeq	r0, r0, sl, asr r0
    2544:	f000067c 			; <UNDEFINED> instruction: 0xf000067c
    2548:	f00006e4 			; <UNDEFINED> instruction: 0xf00006e4
    254c:	11007d02 	tstne	r0, r2, lsl #26
    2550:	00101001 	andseq	r1, r0, r1
    2554:	01c30100 	biceq	r0, r3, r0, lsl #2
    2558:	0000005a 	andeq	r0, r0, sl, asr r0
    255c:	f00006e4 			; <UNDEFINED> instruction: 0xf00006e4
    2560:	f000074c 			; <UNDEFINED> instruction: 0xf000074c
    2564:	11007d02 	tstne	r0, r2, lsl #26
    2568:	00071901 	andeq	r1, r7, r1, lsl #18
    256c:	01dc0100 	bicseq	r0, ip, r0, lsl #2
    2570:	0000005a 	andeq	r0, r0, sl, asr r0
    2574:	f000074c 			; <UNDEFINED> instruction: 0xf000074c
    2578:	f000076c 			; <UNDEFINED> instruction: 0xf000076c
    257c:	11007d02 	tstne	r0, r2, lsl #26
    2580:	000f5701 	andeq	r5, pc, r1, lsl #14
    2584:	01ee0100 	mvneq	r0, r0, lsl #2
    2588:	0000005a 	andeq	r0, r0, sl, asr r0
    258c:	f000076c 			; <UNDEFINED> instruction: 0xf000076c
    2590:	f000078c 			; <UNDEFINED> instruction: 0xf000078c
    2594:	12007d02 	andne	r7, r0, #2, 26	; 0x80
    2598:	000b9501 	andeq	r9, fp, r1, lsl #10
    259c:	01000100 	tsteq	r0, r0, lsl #2
    25a0:	00005a01 	andeq	r5, r0, r1, lsl #20
    25a4:	00078c00 	andeq	r8, r7, r0, lsl #24
    25a8:	0007d4f0 	strdeq	sp, [r7], -r0
    25ac:	007d02f0 	ldrshteq	r0, [sp], #-32	; 0xffffffe0
    25b0:	0a280112 	beq	a02a00 <__standby_start+0xa02a00>
    25b4:	15010000 	strne	r0, [r1, #-0]
    25b8:	005a0101 	subseq	r0, sl, r1, lsl #2
    25bc:	07d40000 	ldrbeq	r0, [r4, r0]
    25c0:	081cf000 	ldmdaeq	ip, {ip, sp, lr, pc}
    25c4:	7d02f000 	stcvc	0, cr15, [r2, #-0]
    25c8:	ba011300 	blt	471d0 <__standby_start+0x471d0>
    25cc:	01000012 	tsteq	r0, r2, lsl r0
    25d0:	5a01012a 	bpl	42a80 <__standby_start+0x42a80>
    25d4:	1c000000 	stcne	0, cr0, [r0], {-0}
    25d8:	7cf00008 	ldclvc	0, cr0, [r0], #32
    25dc:	02f00008 	rscseq	r0, r0, #8
    25e0:	2069007d 	rsbcs	r0, r9, sp, ror r0
    25e4:	9e140000 	cdpls	0, 1, cr0, cr4, cr0, {0}
    25e8:	01000001 	tsteq	r0, r1
    25ec:	2069012a 	rsbcs	r0, r9, sl, lsr #2
    25f0:	00f10000 	rscseq	r0, r1, r0
    25f4:	15000000 	strne	r0, [r0, #-0]
    25f8:	001e7c04 	andseq	r7, lr, r4, lsl #24
    25fc:	be011300 	cdplt	3, 0, cr1, cr1, cr0, {0}
    2600:	0100000e 	tsteq	r0, lr
    2604:	5a010144 	bpl	42b1c <__standby_start+0x42b1c>
    2608:	7c000000 	stcvc	0, cr0, [r0], {-0}
    260c:	d4f00008 	ldrbtle	r0, [r0], #8
    2610:	02f00008 	rscseq	r0, r0, #8
    2614:	209d007d 	addscs	r0, sp, sp, ror r0
    2618:	9e140000 	cdpls	0, 1, cr0, cr4, cr0, {0}
    261c:	01000001 	tsteq	r0, r1
    2620:	20690144 	rsbcs	r0, r9, r4, asr #2
    2624:	010f0000 	mrseq	r0, CPSR
    2628:	13000000 	movwne	r0, #0
    262c:	00038001 	andeq	r8, r3, r1
    2630:	015e0100 	cmpeq	lr, r0, lsl #2
    2634:	00005a01 	andeq	r5, r0, r1, lsl #20
    2638:	0008d400 	andeq	sp, r8, r0, lsl #8
    263c:	000938f0 	strdeq	r3, [r9], -r0
    2640:	007d02f0 	ldrshteq	r0, [sp], #-32	; 0xffffffe0
    2644:	000020cb 	andeq	r2, r0, fp, asr #1
    2648:	0002af14 	andeq	sl, r2, r4, lsl pc
    264c:	015e0100 	cmpeq	lr, r0, lsl #2
    2650:	000020cb 	andeq	r2, r0, fp, asr #1
    2654:	0000012d 	andeq	r0, r0, sp, lsr #2
    2658:	de041500 	cfsh32le	mvfx1, mvfx4, #0
    265c:	1300001e 	movwne	r0, #30
    2660:	00029f01 	andeq	r9, r2, r1, lsl #30
    2664:	017b0100 	cmneq	fp, r0, lsl #2
    2668:	00005a01 	andeq	r5, r0, r1, lsl #20
    266c:	00093800 	andeq	r3, r9, r0, lsl #16
    2670:	00098cf0 	strdeq	r8, [r9], -r0
    2674:	007d02f0 	ldrshteq	r0, [sp], #-32	; 0xffffffe0
    2678:	000020ff 	strdeq	r2, [r0], -pc	; <UNPREDICTABLE>
    267c:	0002af14 	andeq	sl, r2, r4, lsl pc
    2680:	017b0100 	cmneq	fp, r0, lsl #2
    2684:	000020cb 	andeq	r2, r0, fp, asr #1
    2688:	0000014b 	andeq	r0, r0, fp, asr #2
    268c:	07011600 	streq	r1, [r1, -r0, lsl #12]
    2690:	01000009 	tsteq	r0, r9
    2694:	8c010197 	stfhis	f0, [r1], {151}	; 0x97
    2698:	bcf00009 	ldcllt	0, cr0, [r0], #36	; 0x24
    269c:	02f00009 	rscseq	r0, r0, #9
    26a0:	2127007d 	teqcs	r7, sp, ror r0
    26a4:	4d170000 	ldcmi	0, cr0, [r7, #-0]
    26a8:	0100000c 	tsteq	r0, ip
    26ac:	00330197 	mlaseq	r3, r7, r1, r0
    26b0:	50010000 	andpl	r0, r1, r0
    26b4:	50011200 	andpl	r1, r1, r0, lsl #4
    26b8:	0100000d 	tsteq	r0, sp
    26bc:	5a0101ad 	bpl	42d78 <__standby_start+0x42d78>
    26c0:	bc000000 	stclt	0, cr0, [r0], {-0}
    26c4:	e0f00009 	rscs	r0, r0, r9
    26c8:	02f00009 	rscseq	r0, r0, #9
    26cc:	0112007d 	tsteq	r2, sp, ror r0
    26d0:	00000b41 	andeq	r0, r0, r1, asr #22
    26d4:	0101bf01 	tsteq	r1, r1, lsl #30
    26d8:	0000005a 	andeq	r0, r0, sl, asr r0
    26dc:	f00009e0 			; <UNDEFINED> instruction: 0xf00009e0
    26e0:	f0000a00 			; <UNDEFINED> instruction: 0xf0000a00
    26e4:	12007d02 	andne	r7, r0, #2, 26	; 0x80
    26e8:	000b0a01 	andeq	r0, fp, r1, lsl #20
    26ec:	01d30100 	bicseq	r0, r3, r0, lsl #2
    26f0:	00005a01 	andeq	r5, r0, r1, lsl #20
    26f4:	000a0000 	andeq	r0, sl, r0
    26f8:	000a40f0 	strdeq	r4, [sl], -r0
    26fc:	007d02f0 	ldrshteq	r0, [sp], #-32	; 0xffffffe0
    2700:	05e00112 	strbeq	r0, [r0, #274]!	; 0x112
    2704:	e9010000 	stmdb	r1, {}	; <UNPREDICTABLE>
    2708:	005a0101 	subseq	r0, sl, r1, lsl #2
    270c:	0a400000 	beq	1002714 <__standby_start+0x1002714>
    2710:	0a8cf000 	beq	fe33e718 <__bss_end+0xe33be3c>
    2714:	7d02f000 	stcvc	0, cr15, [r2, #-0]
    2718:	03d01800 	bicseq	r1, r0, #0, 16
    271c:	35040000 	strcc	r0, [r4, #-0]
    2720:	00000065 	andeq	r0, r0, r5, rrx
    2724:	d2190101 	andsle	r0, r9, #1073741824	; 0x40000000
    2728:	01000010 	tsteq	r0, r0, lsl r0
    272c:	0021a916 	eoreq	sl, r1, r6, lsl r9
    2730:	30030500 	andcc	r0, r3, r0, lsl #10
    2734:	15f00028 	ldrbne	r0, [r0, #40]!	; 0x28
    2738:	001e7004 	andseq	r7, lr, r4
    273c:	00650d00 	rsbeq	r0, r5, r0, lsl #26
    2740:	21bf0000 			; <UNDEFINED> instruction: 0x21bf0000
    2744:	250e0000 	strcs	r0, [lr, #-0]
    2748:	06000000 	streq	r0, [r0], -r0
    274c:	08631900 	stmdaeq	r3!, {r8, fp, ip}^
    2750:	17010000 	strne	r0, [r1, -r0]
    2754:	000021af 	andeq	r2, r0, pc, lsr #3
    2758:	28340305 	ldmdacs	r4!, {r0, r2, r8, r9}
    275c:	431af000 	tstmi	sl, #0
    2760:	0100000c 	tsteq	r0, ip
    2764:	0b3801c6 	bleq	e02e84 <__standby_start+0xe02e84>
    2768:	03050000 	movweq	r0, #20480	; 0x5000
    276c:	f0002850 			; <UNDEFINED> instruction: 0xf0002850
    2770:	0003d01b 	andeq	sp, r3, fp, lsl r0
    2774:	65180100 	ldrvs	r0, [r8, #-256]	; 0xffffff00
    2778:	01000000 	tsteq	r0, r0
    277c:	28d80305 	ldmcs	r8, {r0, r2, r8, r9}^
    2780:	5600f000 	strpl	pc, [r0], -r0
    2784:	02000003 	andeq	r0, r0, #3
    2788:	0003c500 	andeq	ip, r3, r0, lsl #10
    278c:	28010400 	stmdacs	r1, {sl}
    2790:	01000003 	tsteq	r0, r3
    2794:	00001447 	andeq	r1, r0, r7, asr #8
    2798:	000002ba 			; <UNDEFINED> instruction: 0x000002ba
    279c:	f0000a8c 			; <UNDEFINED> instruction: 0xf0000a8c
    27a0:	f0000bf4 			; <UNDEFINED> instruction: 0xf0000bf4
    27a4:	000003df 	ldrdeq	r0, [r0], -pc	; <UNPREDICTABLE>
    27a8:	2a070402 	bcs	1c37b8 <__standby_start+0x1c37b8>
    27ac:	02000002 	andeq	r0, r0, #2
    27b0:	01a60801 			; <UNDEFINED> instruction: 0x01a60801
    27b4:	04030000 	streq	r0, [r3], #-0
    27b8:	746e6905 	strbtvc	r6, [lr], #-2309	; 0xfffff6fb
    27bc:	06010200 	streq	r0, [r1], -r0, lsl #4
    27c0:	000001a8 	andeq	r0, r0, r8, lsr #3
    27c4:	da050202 	ble	142fd4 <__standby_start+0x142fd4>
    27c8:	02000001 	andeq	r0, r0, #1
    27cc:	028c0702 	addeq	r0, ip, #524288	; 0x80000
    27d0:	d7040000 	strle	r0, [r4, -r0]
    27d4:	0200000d 	andeq	r0, r0, #13
    27d8:	00003319 	andeq	r3, r0, r9, lsl r3
    27dc:	013a0400 	teqeq	sl, r0, lsl #8
    27e0:	1a020000 	bne	827e8 <__standby_start+0x827e8>
    27e4:	00000025 	andeq	r0, r0, r5, lsr #32
    27e8:	69050802 	stmdbvs	r5, {r1, fp}
    27ec:	02000001 	andeq	r0, r0, #1
    27f0:	02200708 	eoreq	r0, r0, #8, 14	; 0x200000
    27f4:	5a050000 	bpl	1427fc <__standby_start+0x1427fc>
    27f8:	06000000 	streq	r0, [r0], -r0
    27fc:	0000005a 	andeq	r0, r0, sl, asr r0
    2800:	00000088 	andeq	r0, r0, r8, lsl #1
    2804:	00002507 	andeq	r2, r0, r7, lsl #10
    2808:	08000400 	stmdaeq	r0, {sl}
    280c:	000000f7 	strdeq	r0, [r0], -r7
    2810:	eb190304 	bl	643428 <__standby_start+0x643428>
    2814:	09000000 	stmdbeq	r0, {}	; <UNPREDICTABLE>
    2818:	0000027a 	andeq	r0, r0, sl, ror r2
    281c:	03620900 	cmneq	r2, #0, 18
    2820:	09050000 	stmdbeq	r5, {}	; <UNPREDICTABLE>
    2824:	00000371 	andeq	r0, r0, r1, ror r3
    2828:	03340906 	teqeq	r4, #98304	; 0x18000
    282c:	09150000 	ldmdbeq	r5, {}	; <UNPREDICTABLE>
    2830:	00000304 	andeq	r0, r0, r4, lsl #6
    2834:	03160916 	tsteq	r6, #360448	; 0x58000
    2838:	09170000 	ldmdbeq	r7, {}	; <UNPREDICTABLE>
    283c:	0000039b 	muleq	r0, fp, r3
    2840:	00e30918 	rsceq	r0, r3, r8, lsl r9
    2844:	091d0000 	ldmdbeq	sp, {}	; <UNPREDICTABLE>
    2848:	000002ee 	andeq	r0, r0, lr, ror #5
    284c:	0036091f 	eorseq	r0, r6, pc, lsl r9
    2850:	09260000 	stmdbeq	r6!, {}	; <UNPREDICTABLE>
    2854:	00000046 	andeq	r0, r0, r6, asr #32
    2858:	00960927 	addseq	r0, r6, r7, lsr #18
    285c:	09280000 	stmdbeq	r8!, {}	; <UNPREDICTABLE>
    2860:	0000006d 	andeq	r0, r0, sp, rrx
    2864:	7d0900c0 	stcvc	0, cr0, [r9, #-768]	; 0xfffffd00
    2868:	c1000000 	tstgt	r0, r0
    286c:	110a0000 	tstne	sl, r0
    2870:	94000014 	strls	r0, [r0], #-20	; 0xffffffec
    2874:	02032d03 	andeq	r2, r3, #3, 26	; 0xc0
    2878:	f90b0000 			; <UNDEFINED> instruction: 0xf90b0000
    287c:	03000013 	movweq	r0, #19
    2880:	0000732f 	andeq	r7, r0, pc, lsr #6
    2884:	00230200 	eoreq	r0, r3, r0, lsl #4
    2888:	0014000b 	andseq	r0, r4, fp
    288c:	73300300 	teqvc	r0, #0, 6
    2890:	02000000 	andeq	r0, r0, #0
    2894:	8b0b0423 	blhi	2c3928 <__standby_start+0x2c3928>
    2898:	0300000f 	movweq	r0, #15
    289c:	00007331 	andeq	r7, r0, r1, lsr r3
    28a0:	08230200 	stmdaeq	r3!, {r9}
    28a4:	0013ea0b 	andseq	lr, r3, fp, lsl #20
    28a8:	73320300 	teqvc	r2, #0, 6
    28ac:	02000000 	andeq	r0, r0, #0
    28b0:	720b0c23 	andvc	r0, fp, #8960	; 0x2300
    28b4:	03000013 	movweq	r0, #19
    28b8:	00021334 	andeq	r1, r2, r4, lsr r3
    28bc:	10230200 	eorne	r0, r3, r0, lsl #4
    28c0:	000f950b 	andeq	r9, pc, fp, lsl #10
    28c4:	73350300 	teqvc	r5, #0, 6
    28c8:	02000000 	andeq	r0, r0, #0
    28cc:	620b1c23 	andvs	r1, fp, #8960	; 0x2300
    28d0:	03000013 	movweq	r0, #19
    28d4:	00021837 	andeq	r1, r2, r7, lsr r8
    28d8:	20230200 	eorcs	r0, r3, r0, lsl #4
    28dc:	000f9f0b 	andeq	r9, pc, fp, lsl #30
    28e0:	73380300 	teqvc	r8, #0, 6
    28e4:	02000000 	andeq	r0, r0, #0
    28e8:	ca0b2c23 	bgt	2cd97c <__standby_start+0x2cd97c>
    28ec:	03000013 	movweq	r0, #19
    28f0:	00021d3a 	andeq	r1, r2, sl, lsr sp
    28f4:	30230200 	eorcc	r0, r3, r0, lsl #4
    28f8:	000fa90b 	andeq	sl, pc, fp, lsl #18
    28fc:	733b0300 	teqvc	fp, #0, 6
    2900:	02000000 	andeq	r0, r0, #0
    2904:	f00b3c23 			; <UNDEFINED> instruction: 0xf00b3c23
    2908:	03000016 	movweq	r0, #22
    290c:	0002223d 	andeq	r2, r2, sp, lsr r2
    2910:	40230200 	eormi	r0, r3, r0, lsl #4
    2914:	000fb30b 	andeq	fp, pc, fp, lsl #6
    2918:	733e0300 	teqvc	lr, #0, 6
    291c:	02000000 	andeq	r0, r0, #0
    2920:	090b4c23 	stmdbeq	fp, {r0, r1, r5, sl, fp, lr}
    2924:	03000014 	movweq	r0, #20
    2928:	00022740 	andeq	r2, r2, r0, asr #14
    292c:	50230200 	eorpl	r0, r3, r0, lsl #4
    2930:	00067d0b 	andeq	r7, r6, fp, lsl #26
    2934:	73410300 	movtvc	r0, #4864	; 0x1300
    2938:	02000000 	andeq	r0, r0, #0
    293c:	9d0b5c23 	stcls	12, cr5, [fp, #-140]	; 0xffffff74
    2940:	03000013 	movweq	r0, #19
    2944:	00022c43 	andeq	r2, r2, r3, asr #24
    2948:	60230200 	eorvs	r0, r3, r0, lsl #4
    294c:	000fd90b 	andeq	sp, pc, fp, lsl #18
    2950:	73440300 	movtvc	r0, #17152	; 0x4300
    2954:	02000000 	andeq	r0, r0, #0
    2958:	7a0b6c23 	bvc	2dd9ec <__standby_start+0x2dd9ec>
    295c:	03000013 	movweq	r0, #19
    2960:	00023146 	andeq	r3, r2, r6, asr #2
    2964:	70230200 	eorvc	r0, r3, r0, lsl #4
    2968:	000fe30b 	andeq	lr, pc, fp, lsl #6
    296c:	73470300 	movtvc	r0, #29440	; 0x7300
    2970:	02000000 	andeq	r0, r0, #0
    2974:	6a0b7c23 	bvs	2e1a08 <__standby_start+0x2e1a08>
    2978:	03000013 	movweq	r0, #19
    297c:	00023649 	andeq	r3, r2, r9, asr #12
    2980:	80230300 	eorhi	r0, r3, r0, lsl #6
    2984:	5a060001 	bpl	182990 <__standby_start+0x182990>
    2988:	13000000 	movwne	r0, #0
    298c:	07000002 	streq	r0, [r0, -r2]
    2990:	00000025 	andeq	r0, r0, r5, lsr #32
    2994:	03050002 	movweq	r0, #20482	; 0x5002
    2998:	05000002 	streq	r0, [r0, #-2]
    299c:	00000203 	andeq	r0, r0, r3, lsl #4
    29a0:	00020305 	andeq	r0, r2, r5, lsl #6
    29a4:	02030500 	andeq	r0, r3, #0, 10
    29a8:	03050000 	movweq	r0, #20480	; 0x5000
    29ac:	05000002 	streq	r0, [r0, #-2]
    29b0:	00000203 	andeq	r0, r0, r3, lsl #4
    29b4:	00020305 	andeq	r0, r2, r5, lsl #6
    29b8:	00780500 	rsbseq	r0, r8, r0, lsl #10
    29bc:	010c0000 	tsteq	ip, r0
    29c0:	000013d2 	ldrdeq	r1, [r0], -r2
    29c4:	4f012501 	svcmi	0x00012501
    29c8:	8c000000 	stchi	0, cr0, [r0], {-0}
    29cc:	20f0000a 	rscscs	r0, r0, sl
    29d0:	02f0000b 	rscseq	r0, r0, #11
    29d4:	010c007d 	tsteq	ip, sp, ror r0
    29d8:	0000138c 	andeq	r1, r0, ip, lsl #7
    29dc:	4f015101 	svcmi	0x00015101
    29e0:	20000000 	andcs	r0, r0, r0
    29e4:	7cf0000b 	ldclvc	0, cr0, [r0], #44	; 0x2c
    29e8:	02f0000b 	rscseq	r0, r0, #11
    29ec:	010d007d 	tsteq	sp, sp, ror r0
    29f0:	000013b7 			; <UNDEFINED> instruction: 0x000013b7
    29f4:	4f016d01 	svcmi	0x00016d01
    29f8:	7c000000 	stcvc	0, cr0, [r0], {-0}
    29fc:	c4f0000b 	ldrbtgt	r0, [r0], #11
    2a00:	69f0000b 	ldmibvs	r0!, {r0, r1, r3}^
    2a04:	b6000001 	strlt	r0, [r0], -r1
    2a08:	0e000002 	cdpeq	0, 0, cr0, cr0, cr2, {0}
    2a0c:	00637273 	rsbeq	r7, r3, r3, ror r2
    2a10:	00886d01 	addeq	r6, r8, r1, lsl #26
    2a14:	01890000 	orreq	r0, r9, r0
    2a18:	230f0000 	movwcs	r0, #61440	; 0xf000
    2a1c:	01000014 	tsteq	r0, r4, lsl r0
    2a20:	00005a6f 	andeq	r5, r0, pc, ror #20
    2a24:	00019c00 	andeq	r9, r1, r0, lsl #24
    2a28:	13e30f00 	mvnne	r0, #0, 30
    2a2c:	70010000 	andvc	r0, r1, r0
    2a30:	0000005a 	andeq	r0, r0, sl, asr r0
    2a34:	000001c9 	andeq	r0, r0, r9, asr #3
    2a38:	a5011000 	strge	r1, [r1, #-0]
    2a3c:	01000013 	tsteq	r0, r3, lsl r0
    2a40:	004f0185 	subeq	r0, pc, r5, lsl #3
    2a44:	0bc40000 	bleq	ff102a4c <__bss_end+0xf100170>
    2a48:	0bf4f000 	bleq	ffd3ea50 <__bss_end+0xfd3c174>
    2a4c:	7d02f000 	stcvc	0, cr15, [r2, #-0]
    2a50:	00030f00 	andeq	r0, r3, r0, lsl #30
    2a54:	72730e00 	rsbsvc	r0, r3, #0, 28
    2a58:	85010063 	strhi	r0, [r1, #-99]	; 0xffffff9d
    2a5c:	00000088 	andeq	r0, r0, r8, lsl #1
    2a60:	000001eb 	andeq	r0, r0, fp, ror #3
    2a64:	0013f20f 	andseq	pc, r3, pc, lsl #4
    2a68:	4f870100 	svcmi	0x00870100
    2a6c:	fe000000 	cdp2	0, 0, cr0, cr0, cr0, {0}
    2a70:	0f000001 	svceq	0x00000001
    2a74:	00001423 	andeq	r1, r0, r3, lsr #8
    2a78:	005a8801 	subseq	r8, sl, r1, lsl #16
    2a7c:	02120000 	andseq	r0, r2, #0
    2a80:	e30f0000 	movw	r0, #61440	; 0xf000
    2a84:	01000013 	tsteq	r0, r3, lsl r0
    2a88:	00005a89 	andeq	r5, r0, r9, lsl #21
    2a8c:	00023200 	andeq	r3, r2, r0, lsl #4
    2a90:	83110000 	tsthi	r1, #0
    2a94:	01000013 	tsteq	r0, r3, lsl r0
    2a98:	00020314 	andeq	r0, r2, r4, lsl r3
    2a9c:	58030500 	stmdapl	r3, {r8, sl}
    2aa0:	11f00028 	mvnsne	r0, r8, lsr #32
    2aa4:	0000142a 	andeq	r1, r0, sl, lsr #8
    2aa8:	02031401 	andeq	r1, r3, #16777216	; 0x1000000
    2aac:	03050000 	movweq	r0, #20480	; 0x5000
    2ab0:	f0002864 			; <UNDEFINED> instruction: 0xf0002864
    2ab4:	00143d11 	andseq	r3, r4, r1, lsl sp
    2ab8:	03140100 	tsteq	r4, #0, 2
    2abc:	05000002 	streq	r0, [r0, #-2]
    2ac0:	00287003 	eoreq	r7, r8, r3
    2ac4:	143511f0 	ldrtne	r1, [r5], #-496	; 0xfffffe10
    2ac8:	15010000 	strne	r0, [r1, #-0]
    2acc:	00000353 	andeq	r0, r0, r3, asr r3
    2ad0:	28540305 	ldmdacs	r4, {r0, r2, r8, r9}^
    2ad4:	0412f000 	ldreq	pc, [r2], #-0
    2ad8:	000000eb 	andeq	r0, r0, fp, ror #1
    2adc:	0000c500 	andeq	ip, r0, r0, lsl #10
    2ae0:	ca000200 	bgt	32e8 <__standby_start+0x32e8>
    2ae4:	04000004 	streq	r0, [r0], #-4
    2ae8:	00032801 	andeq	r2, r3, r1, lsl #16
    2aec:	14550100 	ldrbne	r0, [r5], #-256	; 0xffffff00
    2af0:	02ba0000 	adcseq	r0, sl, #0
    2af4:	0bf40000 	bleq	ffd02afc <__bss_end+0xfd00220>
    2af8:	0c14f000 	ldceq	0, cr15, [r4], {-0}
    2afc:	0482f000 	streq	pc, [r2], #0
    2b00:	04020000 	streq	r0, [r2], #-0
    2b04:	00022a07 	andeq	r2, r2, r7, lsl #20
    2b08:	08010200 	stmdaeq	r1, {r9}
    2b0c:	000001a6 	andeq	r0, r0, r6, lsr #3
    2b10:	69050403 	stmdbvs	r5, {r0, r1, sl}
    2b14:	0200746e 	andeq	r7, r0, #1845493760	; 0x6e000000
    2b18:	01a80601 			; <UNDEFINED> instruction: 0x01a80601
    2b1c:	02020000 	andeq	r0, r2, #0
    2b20:	0001da05 	andeq	sp, r1, r5, lsl #20
    2b24:	07020200 	streq	r0, [r2, -r0, lsl #4]
    2b28:	0000028c 	andeq	r0, r0, ip, lsl #5
    2b2c:	000dd704 	andeq	sp, sp, r4, lsl #14
    2b30:	33190200 	tstcc	r9, #0, 4
    2b34:	02000000 	andeq	r0, r0, #0
    2b38:	01690508 	cmneq	r9, r8, lsl #10
    2b3c:	08020000 	stmdaeq	r2, {}	; <UNPREDICTABLE>
    2b40:	00022007 	andeq	r2, r2, r7
    2b44:	84010500 	strhi	r0, [r1], #-1280	; 0xfffffb00
    2b48:	01000014 	tsteq	r0, r4, lsl r0
    2b4c:	004f0123 	subeq	r0, pc, r3, lsr #2
    2b50:	0bf40000 	bleq	ffd02b58 <__bss_end+0xfd0027c>
    2b54:	0bfcf000 	bleq	fff3eb5c <__bss_end+0xff3c280>
    2b58:	7d02f000 	stcvc	0, cr15, [r2, #-0]
    2b5c:	62010500 	andvs	r0, r1, #0, 10
    2b60:	01000014 	tsteq	r0, r4, lsl r0
    2b64:	004f0136 	subeq	r0, pc, r6, lsr r1	; <UNPREDICTABLE>
    2b68:	0bfc0000 	bleq	fff02b70 <__bss_end+0xff00294>
    2b6c:	0c04f000 	stceq	0, cr15, [r4], {-0}
    2b70:	7d02f000 	stcvc	0, cr15, [r2, #-0]
    2b74:	94010500 	strls	r0, [r1], #-1280	; 0xfffffb00
    2b78:	01000014 	tsteq	r0, r4, lsl r0
    2b7c:	004f0149 	subeq	r0, pc, r9, asr #2
    2b80:	0c040000 	stceq	0, cr0, [r4], {-0}
    2b84:	0c0cf000 	stceq	0, cr15, [ip], {-0}
    2b88:	7d02f000 	stcvc	0, cr15, [r2, #-0]
    2b8c:	72010500 	andvc	r0, r1, #0, 10
    2b90:	01000014 	tsteq	r0, r4, lsl r0
    2b94:	004f015b 	subeq	r0, pc, fp, asr r1	; <UNPREDICTABLE>
    2b98:	0c0c0000 	stceq	0, cr0, [ip], {-0}
    2b9c:	0c14f000 	ldceq	0, cr15, [r4], {-0}
    2ba0:	7d02f000 	stcvc	0, cr15, [r2, #-0]
    2ba4:	01760000 	cmneq	r6, r0
    2ba8:	00020000 	andeq	r0, r2, r0
    2bac:	00000518 	andeq	r0, r0, r8, lsl r5
    2bb0:	03280104 	teqeq	r8, #4, 2
    2bb4:	cd010000 	stcgt	0, cr0, [r1, #-0]
    2bb8:	ba000014 	blt	2c10 <__standby_start+0x2c10>
    2bbc:	14000002 	strne	r0, [r0], #-2
    2bc0:	b4f0000c 	ldrbtlt	r0, [r0], #12
    2bc4:	d7f0000c 	ldrble	r0, [r0, ip]!
    2bc8:	02000004 	andeq	r0, r0, #4
    2bcc:	022a0704 	eoreq	r0, sl, #4, 14	; 0x100000
    2bd0:	01020000 	tsteq	r2, r0
    2bd4:	0001a608 	andeq	sl, r1, r8, lsl #12
    2bd8:	05040300 	streq	r0, [r4, #-768]	; 0xfffffd00
    2bdc:	00746e69 	rsbseq	r6, r4, r9, ror #28
    2be0:	a8060102 	stmdage	r6, {r1, r8}
    2be4:	02000001 	andeq	r0, r0, #1
    2be8:	01da0502 	bicseq	r0, sl, r2, lsl #10
    2bec:	02020000 	andeq	r0, r2, #0
    2bf0:	00028c07 	andeq	r8, r2, r7, lsl #24
    2bf4:	0dd70400 	cfldrdeq	mvd0, [r7]
    2bf8:	19020000 	stmdbne	r2, {}	; <UNPREDICTABLE>
    2bfc:	00000033 	andeq	r0, r0, r3, lsr r0
    2c00:	00013a04 	andeq	r3, r1, r4, lsl #20
    2c04:	251a0200 	ldrcs	r0, [sl, #-512]	; 0xfffffe00
    2c08:	02000000 	andeq	r0, r0, #0
    2c0c:	01690508 	cmneq	r9, r8, lsl #10
    2c10:	08020000 	stmdaeq	r2, {}	; <UNPREDICTABLE>
    2c14:	00022007 	andeq	r2, r2, r7
    2c18:	005a0500 	subseq	r0, sl, r0, lsl #10
    2c1c:	52060000 	andpl	r0, r6, #0
    2c20:	14000015 	strne	r0, [r0], #-21	; 0xffffffeb
    2c24:	00cb1703 	sbceq	r1, fp, r3, lsl #14
    2c28:	21070000 	tstcs	r7, r0
    2c2c:	03000015 	movweq	r0, #21
    2c30:	0000731a 	andeq	r7, r0, sl, lsl r3
    2c34:	00230200 	eoreq	r0, r3, r0, lsl #4
    2c38:	0014e207 	andseq	lr, r4, r7, lsl #4
    2c3c:	731b0300 	tstvc	fp, #0, 6
    2c40:	02000000 	andeq	r0, r0, #0
    2c44:	a6070423 	strge	r0, [r7], -r3, lsr #8
    2c48:	03000014 	movweq	r0, #20
    2c4c:	0000731c 	andeq	r7, r0, ip, lsl r3
    2c50:	08230200 	stmdaeq	r3!, {r9}
    2c54:	00156407 	andseq	r6, r5, r7, lsl #8
    2c58:	731d0300 	tstvc	sp, #0, 6
    2c5c:	02000000 	andeq	r0, r0, #0
    2c60:	2c070c23 	stccs	12, cr0, [r7], {35}	; 0x23
    2c64:	03000015 	movweq	r0, #21
    2c68:	0000731e 	andeq	r7, r0, lr, lsl r3
    2c6c:	10230200 	eorne	r0, r3, r0, lsl #4
    2c70:	14b10400 	ldrtne	r0, [r1], #1024	; 0x400
    2c74:	1f030000 	svcne	0x00030000
    2c78:	00000078 	andeq	r0, r0, r8, ror r0
    2c7c:	14fe0108 	ldrbtne	r0, [lr], #264	; 0x108
    2c80:	27010000 	strcs	r0, [r1, -r0]
    2c84:	00004f01 	andeq	r4, r0, r1, lsl #30
    2c88:	000c1400 	andeq	r1, ip, r0, lsl #8
    2c8c:	000c6cf0 	strdeq	r6, [ip], -r0
    2c90:	000254f0 	strdeq	r5, [r2], -r0
    2c94:	ed010900 	stc	9, cr0, [r1, #-0]
    2c98:	01000014 	tsteq	r0, r4, lsl r0
    2c9c:	004f0144 	subeq	r0, pc, r4, asr #2
    2ca0:	0c6c0000 	stcleq	0, cr0, [ip], #-0
    2ca4:	0c8cf000 	stceq	0, cr15, [ip], {0}
    2ca8:	7d02f000 	stcvc	0, cr15, [r2, #-0]
    2cac:	40010900 	andmi	r0, r1, r0, lsl #18
    2cb0:	01000015 	tsteq	r0, r5, lsl r0
    2cb4:	004f0157 	subeq	r0, pc, r7, asr r1	; <UNPREDICTABLE>
    2cb8:	0c8c0000 	stceq	0, cr0, [ip], {0}
    2cbc:	0cb4f000 	ldceq	0, cr15, [r4]
    2cc0:	7d02f000 	stcvc	0, cr15, [r2, #-0]
    2cc4:	14db0a00 	ldrbne	r0, [fp], #2560	; 0xa00
    2cc8:	14010000 	strne	r0, [r1], #-0
    2ccc:	00000130 	andeq	r0, r0, r0, lsr r1
    2cd0:	287c0305 	ldmdacs	ip!, {r0, r2, r8, r9}^
    2cd4:	040bf000 	streq	pc, [fp], #-0
    2cd8:	000000cb 	andeq	r0, r0, fp, asr #1
    2cdc:	0015700a 	andseq	r7, r5, sl
    2ce0:	5a150100 	bpl	5430e8 <__standby_start+0x5430e8>
    2ce4:	05000000 	streq	r0, [r0, #-0]
    2ce8:	00288003 	eoreq	r8, r8, r3
    2cec:	15380af0 	ldrne	r0, [r8, #-2800]!	; 0xfffff510
    2cf0:	15010000 	strne	r0, [r1, #-0]
    2cf4:	0000005a 	andeq	r0, r0, sl, asr r0
    2cf8:	28840305 	stmcs	r4, {r0, r2, r8, r9}
    2cfc:	c50cf000 	strgt	pc, [ip, #-0]
    2d00:	01000014 	tsteq	r0, r4, lsl r0
    2d04:	00005a15 	andeq	r5, r0, r5, lsl sl
    2d08:	150f0c00 	strne	r0, [pc, #-3072]	; 2110 <__standby_start+0x2110>
    2d0c:	15010000 	strne	r0, [r1, #-0]
    2d10:	0000005a 	andeq	r0, r0, sl, asr r0
    2d14:	0015180c 	andseq	r1, r5, ip, lsl #16
    2d18:	5a150100 	bpl	543120 <__standby_start+0x543120>
    2d1c:	00000000 	andeq	r0, r0, r0
    2d20:	000003c3 	andeq	r0, r0, r3, asr #7
    2d24:	05c70002 	strbeq	r0, [r7, #2]
    2d28:	01040000 	tsteq	r4, r0
    2d2c:	00000328 	andeq	r0, r0, r8, lsr #6
    2d30:	0015ad01 	andseq	sl, r5, r1, lsl #26
    2d34:	0002ba00 	andeq	fp, r2, r0, lsl #20
    2d38:	000cb400 	andeq	fp, ip, r0, lsl #8
    2d3c:	00134cf0 			; <UNDEFINED> instruction: 0x00134cf0
    2d40:	000552f0 	strdeq	r5, [r5], -r0
    2d44:	07040200 	streq	r0, [r4, -r0, lsl #4]
    2d48:	0000022a 	andeq	r0, r0, sl, lsr #4
    2d4c:	a6080102 	strge	r0, [r8], -r2, lsl #2
    2d50:	03000001 	movweq	r0, #1
    2d54:	6e690504 	cdpvs	5, 6, cr0, cr9, cr4, {0}
    2d58:	01020074 	tsteq	r2, r4, ror r0
    2d5c:	0001a806 	andeq	sl, r1, r6, lsl #16
    2d60:	02ff0400 	rscseq	r0, pc, #0, 8
    2d64:	16030000 	strne	r0, [r3], -r0
    2d68:	0000002c 	andeq	r0, r0, ip, lsr #32
    2d6c:	da050202 	ble	14357c <__standby_start+0x14357c>
    2d70:	02000001 	andeq	r0, r0, #1
    2d74:	028c0702 	addeq	r0, ip, #524288	; 0x80000
    2d78:	d7040000 	strle	r0, [r4, -r0]
    2d7c:	0300000d 	movweq	r0, #13
    2d80:	00003319 	andeq	r3, r0, r9, lsl r3
    2d84:	013a0400 	teqeq	sl, r0, lsl #8
    2d88:	1a030000 	bne	c2d90 <__standby_start+0xc2d90>
    2d8c:	00000025 	andeq	r0, r0, r5, lsr #32
    2d90:	69050802 	stmdbvs	r5, {r1, fp}
    2d94:	02000001 	andeq	r0, r0, #1
    2d98:	02200708 	eoreq	r0, r0, #8, 14	; 0x200000
    2d9c:	5f050000 	svcpl	0x00050000
    2da0:	04000002 	streq	r0, [r0], #-2
    2da4:	00b51704 	adcseq	r1, r5, r4, lsl #14
    2da8:	0a060000 	beq	182db0 <__standby_start+0x182db0>
    2dac:	00000001 	andeq	r0, r0, r1
    2db0:	00011a06 	andeq	r1, r1, r6, lsl #20
    2db4:	2a060100 	bcs	1831bc <__standby_start+0x1831bc>
    2db8:	02000001 	andeq	r0, r0, #1
    2dbc:	0001e406 	andeq	lr, r1, r6, lsl #8
    2dc0:	f3060300 	vcgt.u8	d0, d6, d0
    2dc4:	04000001 	streq	r0, [r0], #-1
    2dc8:	00020206 	andeq	r0, r2, r6, lsl #4
    2dcc:	11060500 	tstne	r6, r0, lsl #10
    2dd0:	06000002 	streq	r0, [r0], -r2
    2dd4:	160d0700 	strne	r0, [sp], -r0, lsl #14
    2dd8:	041c0000 	ldreq	r0, [ip], #-0
    2ddc:	00012348 	andeq	r2, r1, r8, asr #6
    2de0:	64690800 	strbtvs	r0, [r9], #-2048	; 0xfffff800
    2de4:	7e490400 	cdpvc	4, 4, cr0, cr9, cr0, {0}
    2de8:	02000000 	andeq	r0, r0, #0
    2dec:	51090023 	tstpl	r9, r3, lsr #32
    2df0:	04000016 	streq	r0, [r0], #-22	; 0xffffffea
    2df4:	0000334a 	andeq	r3, r0, sl, asr #6
    2df8:	04230200 	strteq	r0, [r3], #-512	; 0xfffffe00
    2dfc:	00159f09 	andseq	r9, r5, r9, lsl #30
    2e00:	334b0400 	movtcc	r0, #46080	; 0xb400
    2e04:	02000000 	andeq	r0, r0, #0
    2e08:	49090823 	stmdbmi	r9, {r0, r1, r5, fp}
    2e0c:	04000016 	streq	r0, [r0], #-22	; 0xffffffea
    2e10:	0000334c 	andeq	r3, r0, ip, asr #6
    2e14:	0c230200 	sfmeq	f0, 4, [r3], #-0
    2e18:	00166d09 	andseq	r6, r6, r9, lsl #26
    2e1c:	334d0400 	movtcc	r0, #54272	; 0xd400
    2e20:	02000000 	andeq	r0, r0, #0
    2e24:	f8091023 			; <UNDEFINED> instruction: 0xf8091023
    2e28:	04000015 	streq	r0, [r0], #-21	; 0xffffffeb
    2e2c:	0000334e 	andeq	r3, r0, lr, asr #6
    2e30:	14230200 	strtne	r0, [r3], #-512	; 0xfffffe00
    2e34:	0015da09 	andseq	sp, r5, r9, lsl #20
    2e38:	334f0400 	movtcc	r0, #62464	; 0xf400
    2e3c:	02000000 	andeq	r0, r0, #0
    2e40:	05001823 	streq	r1, [r0, #-2083]	; 0xfffff7dd
    2e44:	00001633 	andeq	r1, r0, r3, lsr r6
    2e48:	3c290504 	cfstr32cc	mvfx0, [r9], #-16
    2e4c:	06000001 	streq	r0, [r0], -r1
    2e50:	00001616 	andeq	r1, r0, r6, lsl r6
    2e54:	15d00600 	ldrbne	r0, [r0, #1536]	; 0x600
    2e58:	00010000 	andeq	r0, r1, r0
    2e5c:	00169d0a 	andseq	r9, r6, sl, lsl #26
    2e60:	01480100 	mrseq	r0, SPSR
    2e64:	00000065 	andeq	r0, r0, r5, rrx
    2e68:	f0000cb4 			; <UNDEFINED> instruction: 0xf0000cb4
    2e6c:	f0000d04 			; <UNDEFINED> instruction: 0xf0000d04
    2e70:	a3007d02 	movwge	r7, #3330	; 0xd02
    2e74:	0b000001 	bleq	2e80 <__standby_start+0x2e80>
    2e78:	00001675 	andeq	r1, r0, r5, ror r6
    2e7c:	00654801 	rsbeq	r4, r5, r1, lsl #16
    2e80:	02740000 	rsbseq	r0, r4, #0
    2e84:	8c0b0000 	stchi	0, cr0, [fp], {-0}
    2e88:	01000015 	tsteq	r0, r5, lsl r0
    2e8c:	00006548 	andeq	r6, r0, r8, asr #10
    2e90:	0002b300 	andeq	fp, r2, r0, lsl #6
    2e94:	15a60c00 	strne	r0, [r6, #3072]!	; 0xc00
    2e98:	4a010000 	bmi	42ea0 <__standby_start+0x42ea0>
    2e9c:	00000065 	andeq	r0, r0, r5, rrx
    2ea0:	000002dc 	ldrdeq	r0, [r0], -ip
    2ea4:	00162b0c 	andseq	r2, r6, ip, lsl #22
    2ea8:	654b0100 	strbvs	r0, [fp, #-256]	; 0xffffff00
    2eac:	1f000000 	svcne	0x00000000
    2eb0:	0c000003 	stceq	0, cr0, [r0], {3}
    2eb4:	000015fc 	strdeq	r1, [r0], -ip
    2eb8:	005a4c01 	subseq	r4, sl, r1, lsl #24
    2ebc:	03550000 	cmpeq	r5, #0
    2ec0:	0a000000 	beq	2ec8 <__standby_start+0x2ec8>
    2ec4:	00001595 	muleq	r0, r5, r5
    2ec8:	e801d402 	stmda	r1, {r1, sl, ip, lr, pc}
    2ecc:	04000001 	streq	r0, [r0], #-1
    2ed0:	48f0000d 	ldmmi	r0!, {r0, r2, r3}^
    2ed4:	02f0000d 	rscseq	r0, r0, #13
    2ed8:	01e8007d 	mvneq	r0, sp, ror r0
    2edc:	690d0000 	stmdbvs	sp, {}	; <UNPREDICTABLE>
    2ee0:	d4020064 	strle	r0, [r2], #-100	; 0xffffff9c
    2ee4:	00000033 	andeq	r0, r0, r3, lsr r0
    2ee8:	000003a3 	andeq	r0, r0, r3, lsr #7
    2eec:	0069720e 	rsbeq	r7, r9, lr, lsl #4
    2ef0:	01e8d602 	mvneq	sp, r2, lsl #12
    2ef4:	03c10000 	biceq	r0, r1, #0
    2ef8:	690e0000 	stmdbvs	lr, {}	; <UNPREDICTABLE>
    2efc:	33d70200 	bicscc	r0, r7, #0, 4
    2f00:	d4000000 	strle	r0, [r0], #-0
    2f04:	00000003 	andeq	r0, r0, r3
    2f08:	00b5040f 	adcseq	r0, r5, pc, lsl #8
    2f0c:	01100000 	tsteq	r0, r0
    2f10:	000015bd 			; <UNDEFINED> instruction: 0x000015bd
    2f14:	5a012502 	bpl	4c324 <__standby_start+0x4c324>
    2f18:	48000000 	stmdami	r0, {}	; <UNPREDICTABLE>
    2f1c:	94f0000d 	ldrbtls	r0, [r0], #13
    2f20:	fef0000f 	cdp2	0, 15, cr0, cr0, cr15, {0}
    2f24:	2a000003 	bcs	2f38 <__standby_start+0x2f38>
    2f28:	0b000002 	bleq	2f38 <__standby_start+0x2f38>
    2f2c:	00001620 	andeq	r1, r0, r0, lsr #12
    2f30:	00652502 	rsbeq	r2, r5, r2, lsl #10
    2f34:	041e0000 	ldreq	r0, [lr], #-0
    2f38:	410c0000 	tstmi	ip, r0
    2f3c:	02000016 	andeq	r0, r0, #22
    2f40:	00004127 	andeq	r4, r0, r7, lsr #2
    2f44:	00043c00 	andeq	r3, r4, r0, lsl #24
    2f48:	01100000 	tsteq	r0, r0
    2f4c:	0000168a 	andeq	r1, r0, sl, lsl #13
    2f50:	5a017902 	bpl	61360 <__standby_start+0x61360>
    2f54:	94000000 	strls	r0, [r0], #-0
    2f58:	b0f0000f 	rscslt	r0, r0, pc
    2f5c:	36f00011 	usatcc	r0, #16, r1
    2f60:	66000005 	strvs	r0, [r0], -r5
    2f64:	0b000002 	bleq	2f74 <__standby_start+0x2f74>
    2f68:	00001620 	andeq	r1, r0, r0, lsr #12
    2f6c:	00657902 	rsbeq	r7, r5, r2, lsl #18
    2f70:	05560000 	ldrbeq	r0, [r6, #-0]
    2f74:	410c0000 	tstmi	ip, r0
    2f78:	02000016 	andeq	r0, r0, #22
    2f7c:	0000417b 	andeq	r4, r0, fp, ror r1
    2f80:	00057400 	andeq	r7, r5, r0, lsl #8
    2f84:	7e110000 	cdpvc	0, 1, cr0, cr1, cr0, {0}
    2f88:	02000016 	andeq	r0, r0, #22
    2f8c:	003301bd 	ldrhteq	r0, [r3], -sp
    2f90:	8e030000 	cdphi	0, 0, cr0, cr3, cr0, {0}
    2f94:	12000002 	andne	r0, r0, #2
    2f98:	00001608 	andeq	r1, r0, r8, lsl #12
    2f9c:	01e8bd02 	mvneq	fp, r2, lsl #26
    2fa0:	84120000 	ldrhi	r0, [r2], #-0
    2fa4:	02000015 	andeq	r0, r0, #21
    2fa8:	00005abd 			; <UNDEFINED> instruction: 0x00005abd
    2fac:	01130000 	tsteq	r3, r0
    2fb0:	000015e4 	andeq	r1, r0, r4, ror #11
    2fb4:	b001f002 	andlt	pc, r1, r2
    2fb8:	d8f00011 	ldmle	r0!, {r0, r4}^
    2fbc:	40f00012 	rscsmi	r0, r0, r2, lsl r0
    2fc0:	24000006 	strcs	r0, [r0], #-6
    2fc4:	0b000003 	bleq	2fd8 <__standby_start+0x2fd8>
    2fc8:	0000215d 	andeq	r2, r0, sp, asr r1
    2fcc:	007ef002 	rsbseq	pc, lr, r2
    2fd0:	06600000 	strbteq	r0, [r0], -r0
    2fd4:	840b0000 	strhi	r0, [fp], #-0
    2fd8:	02000015 	andeq	r0, r0, #21
    2fdc:	00005af0 	strdeq	r5, [r0], -r0
    2fe0:	00068900 	andeq	r8, r6, r0, lsl #18
    2fe4:	16080c00 	strne	r0, [r8], -r0, lsl #24
    2fe8:	f2020000 	vhadd.s8	d0, d2, d0
    2fec:	000001e8 	andeq	r0, r0, r8, ror #3
    2ff0:	000006b2 			; <UNDEFINED> instruction: 0x000006b2
    2ff4:	6c61760e 	stclvs	6, cr7, [r1], #-56	; 0xffffffc8
    2ff8:	41f30200 	mvnsmi	r0, r0, lsl #4
    2ffc:	dc000000 	stcle	0, cr0, [r0], {-0}
    3000:	0c000006 	stceq	0, cr0, [r0], {6}
    3004:	00001668 	andeq	r1, r0, r8, ror #12
    3008:	0041f302 	subeq	pc, r1, r2, lsl #6
    300c:	07100000 	ldreq	r0, [r0, -r0]
    3010:	410c0000 	tstmi	ip, r0
    3014:	02000016 	andeq	r0, r0, #22
    3018:	000041f3 	strdeq	r4, [r0], -r3
    301c:	00072300 	andeq	r2, r7, r0, lsl #6
    3020:	02661400 	rsbeq	r1, r6, #0, 8
    3024:	11c80000 	bicne	r0, r8, r0
    3028:	11e4f000 	mvnne	pc, r0
    302c:	fa02f000 	blx	bf034 <__standby_start+0xbf034>
    3030:	00028215 	andeq	r8, r2, r5, lsl r2
    3034:	00074300 	andeq	r4, r7, r0, lsl #6
    3038:	02771500 	rsbseq	r1, r7, #0, 10
    303c:	07610000 	strbeq	r0, [r1, -r0]!
    3040:	00000000 	andeq	r0, r0, r0
    3044:	15780116 	ldrbne	r0, [r8, #-278]!	; 0xfffffeea
    3048:	31020000 	tstcc	r2, r0
    304c:	00650101 	rsbeq	r0, r5, r1, lsl #2
    3050:	12d80000 	sbcsne	r0, r8, #0
    3054:	134cf000 	movtne	pc, #49152	; 0xc000	; <UNPREDICTABLE>
    3058:	077ff000 	ldrbeq	pc, [pc, -r0]!	; <UNPREDICTABLE>
    305c:	037f0000 	cmneq	pc, #0
    3060:	5d170000 	ldcpl	0, cr0, [r7, #-0]
    3064:	02000021 	andeq	r0, r0, #33	; 0x21
    3068:	007e0131 	rsbseq	r0, lr, r1, lsr r1
    306c:	079f0000 	ldreq	r0, [pc, r0]
    3070:	08180000 	ldmdaeq	r8, {}	; <UNPREDICTABLE>
    3074:	02000016 	andeq	r0, r0, #22
    3078:	01e80133 	mvneq	r0, r3, lsr r1
    307c:	07bd0000 	ldreq	r0, [sp, r0]!
    3080:	76190000 	ldrvc	r0, [r9], -r0
    3084:	02006c61 	andeq	r6, r0, #24832	; 0x6100
    3088:	00410134 	subeq	r0, r1, r4, lsr r1
    308c:	07e70000 	strbeq	r0, [r7, r0]!
    3090:	681a0000 	ldmdavs	sl, {}	; <UNPREDICTABLE>
    3094:	02000016 	andeq	r0, r0, #22
    3098:	00410134 	subeq	r0, r1, r4, lsr r1
    309c:	1b000000 	blne	30a4 <__standby_start+0x30a4>
    30a0:	00000033 	andeq	r0, r0, r3, lsr r0
    30a4:	0000038f 	andeq	r0, r0, pc, lsl #7
    30a8:	0000251c 	andeq	r2, r0, ip, lsl r5
    30ac:	1d000f00 	stcne	15, cr0, [r0, #-0]
    30b0:	00001658 	andeq	r1, r0, r8, asr r6
    30b4:	03a0c502 	moveq	ip, #8388608	; 0x800000
    30b8:	03050000 	movweq	r0, #20480	; 0x5000
    30bc:	f0002658 			; <UNDEFINED> instruction: 0xf0002658
    30c0:	00037f1e 	andeq	r7, r3, lr, lsl pc
    30c4:	00b51b00 	adcseq	r1, r5, r0, lsl #22
    30c8:	03b50000 			; <UNDEFINED> instruction: 0x03b50000
    30cc:	251c0000 	ldrcs	r0, [ip, #-0]
    30d0:	05000000 	streq	r0, [r0, #-0]
    30d4:	16021d00 	strne	r1, [r2], -r0, lsl #26
    30d8:	cb020000 	blgt	830e0 <__standby_start+0x830e0>
    30dc:	000003a5 	andeq	r0, r0, r5, lsr #7
    30e0:	26a40305 	strtcs	r0, [r4], r5, lsl #6
    30e4:	3400f000 	strcc	pc, [r0], #-0
    30e8:	02000005 	andeq	r0, r0, #5
    30ec:	00078200 	andeq	r8, r7, r0, lsl #4
    30f0:	28010400 	stmdacs	r1, {sl}
    30f4:	01000003 	tsteq	r0, r3
    30f8:	0000187e 	andeq	r1, r0, lr, ror r8
    30fc:	000002ba 			; <UNDEFINED> instruction: 0x000002ba
    3100:	f000134c 			; <UNDEFINED> instruction: 0xf000134c
    3104:	f000153c 			; <UNDEFINED> instruction: 0xf000153c
    3108:	000006e3 	andeq	r0, r0, r3, ror #13
    310c:	2a070402 	bcs	1c411c <__standby_start+0x1c411c>
    3110:	02000002 	andeq	r0, r0, #2
    3114:	01a60801 			; <UNDEFINED> instruction: 0x01a60801
    3118:	04030000 	streq	r0, [r3], #-0
    311c:	746e6905 	strbtvc	r6, [lr], #-2309	; 0xfffff6fb
    3120:	06010200 	streq	r0, [r1], -r0, lsl #4
    3124:	000001a8 	andeq	r0, r0, r8, lsr #3
    3128:	da050202 	ble	143938 <__standby_start+0x143938>
    312c:	02000001 	andeq	r0, r0, #1
    3130:	028c0702 	addeq	r0, ip, #524288	; 0x80000
    3134:	d7040000 	strle	r0, [r4, -r0]
    3138:	0200000d 	andeq	r0, r0, #13
    313c:	00003319 	andeq	r3, r0, r9, lsl r3
    3140:	013a0400 	teqeq	sl, r0, lsl #8
    3144:	1a020000 	bne	8314c <__standby_start+0x8314c>
    3148:	00000025 	andeq	r0, r0, r5, lsr #32
    314c:	69050802 	stmdbvs	r5, {r1, fp}
    3150:	02000001 	andeq	r0, r0, #1
    3154:	02200708 	eoreq	r0, r0, #8, 14	; 0x200000
    3158:	5a050000 	bpl	143160 <__standby_start+0x143160>
    315c:	06000000 	streq	r0, [r0], -r0
    3160:	0000005a 	andeq	r0, r0, sl, asr r0
    3164:	00000088 	andeq	r0, r0, r8, lsl #1
    3168:	00002507 	andeq	r2, r0, r7, lsl #10
    316c:	08000300 	stmdaeq	r0, {r8, r9}
    3170:	00001769 	andeq	r1, r0, r9, ror #14
    3174:	19030130 	stmdbne	r3, {r4, r5, r8}
    3178:	0000032e 	andeq	r0, r0, lr, lsr #6
    317c:	00185b09 	andseq	r5, r8, r9, lsl #22
    3180:	731c0300 	tstvc	ip, #0, 6
    3184:	02000000 	andeq	r0, r0, #0
    3188:	2b090023 	blcs	24321c <__standby_start+0x24321c>
    318c:	03000018 	movweq	r0, #24
    3190:	0000731d 	andeq	r7, r0, sp, lsl r3
    3194:	04230200 	strteq	r0, [r3], #-512	; 0xfffffe00
    3198:	000f8b09 	andeq	r8, pc, r9, lsl #22
    319c:	3e1e0300 	cdpcc	3, 1, cr0, cr14, cr0, {0}
    31a0:	02000003 	andeq	r0, r0, #3
    31a4:	df090823 	svcle	0x00090823
    31a8:	03000018 	movweq	r0, #24
    31ac:	00007320 	andeq	r7, r0, r0, lsr #6
    31b0:	10230200 	eorne	r0, r3, r0, lsl #4
    31b4:	00170c09 	andseq	r0, r7, r9, lsl #24
    31b8:	73210300 	teqvc	r1, #0, 6
    31bc:	02000000 	andeq	r0, r0, #0
    31c0:	3a091423 	bcc	248254 <__standby_start+0x248254>
    31c4:	03000017 	movweq	r0, #23
    31c8:	00007322 	andeq	r7, r0, r2, lsr #6
    31cc:	18230200 	stmdane	r3!, {r9}
    31d0:	000f9509 	andeq	r9, pc, r9, lsl #10
    31d4:	73230300 	teqvc	r3, #0, 6
    31d8:	02000000 	andeq	r0, r0, #0
    31dc:	32091c23 	andcc	r1, r9, #8960	; 0x2300
    31e0:	03000017 	movweq	r0, #23
    31e4:	00007325 	andeq	r7, r0, r5, lsr #6
    31e8:	20230200 	eorcs	r0, r3, r0, lsl #4
    31ec:	00181109 	andseq	r1, r8, r9, lsl #2
    31f0:	73260300 	teqvc	r6, #0, 6
    31f4:	02000000 	andeq	r0, r0, #0
    31f8:	3b092423 	blcc	24c28c <__standby_start+0x24c28c>
    31fc:	03000018 	movweq	r0, #24
    3200:	00007327 	andeq	r7, r0, r7, lsr #6
    3204:	28230200 	stmdacs	r3!, {r9}
    3208:	000f9f09 	andeq	r9, pc, r9, lsl #30
    320c:	73280300 	teqvc	r8, #0, 6
    3210:	02000000 	andeq	r0, r0, #0
    3214:	b3092c23 	movwlt	r2, #39971	; 0x9c23
    3218:	03000017 	movweq	r0, #23
    321c:	0000732a 	andeq	r7, r0, sl, lsr #6
    3220:	30230200 	eorcc	r0, r3, r0, lsl #4
    3224:	00175e09 	andseq	r5, r7, r9, lsl #28
    3228:	732b0300 	teqvc	fp, #0, 6
    322c:	02000000 	andeq	r0, r0, #0
    3230:	7b093423 	blvc	2502c4 <__standby_start+0x2502c4>
    3234:	03000017 	movweq	r0, #23
    3238:	0000732c 	andeq	r7, r0, ip, lsr #6
    323c:	38230200 	stmdacc	r3!, {r9}
    3240:	000fa909 	andeq	sl, pc, r9, lsl #18
    3244:	732d0300 	teqvc	sp, #0, 6
    3248:	02000000 	andeq	r0, r0, #0
    324c:	23093c23 	movwcs	r3, #39971	; 0x9c23
    3250:	03000018 	movweq	r0, #24
    3254:	0000732f 	andeq	r7, r0, pc, lsr #6
    3258:	40230200 	eormi	r0, r3, r0, lsl #4
    325c:	00187309 	andseq	r7, r8, r9, lsl #6
    3260:	73300300 	teqvc	r0, #0, 6
    3264:	02000000 	andeq	r0, r0, #0
    3268:	b3094423 	movwlt	r4, #37923	; 0x9423
    326c:	0300000f 	movweq	r0, #15
    3270:	00034331 	andeq	r4, r3, r1, lsr r3
    3274:	48230200 	stmdami	r3!, {r9}
    3278:	0018e709 	andseq	lr, r8, r9, lsl #14
    327c:	73330300 	teqvc	r3, #0, 6
    3280:	02000000 	andeq	r0, r0, #0
    3284:	86095023 	strhi	r5, [r9], -r3, lsr #32
    3288:	03000017 	movweq	r0, #23
    328c:	00007334 	andeq	r7, r0, r4, lsr r3
    3290:	54230200 	strtpl	r0, [r3], #-512	; 0xfffffe00
    3294:	00179109 	andseq	r9, r7, r9, lsl #2
    3298:	73350300 	teqvc	r5, #0, 6
    329c:	02000000 	andeq	r0, r0, #0
    32a0:	7d095823 	stcvc	8, cr5, [r9, #-140]	; 0xffffff74
    32a4:	03000006 	movweq	r0, #6
    32a8:	00007336 	andeq	r7, r0, r6, lsr r3
    32ac:	5c230200 	sfmpl	f0, 4, [r3], #-0
    32b0:	00175609 	andseq	r5, r7, r9, lsl #12
    32b4:	73380300 	teqvc	r8, #0, 6
    32b8:	02000000 	andeq	r0, r0, #0
    32bc:	b0096023 	andlt	r6, r9, r3, lsr #32
    32c0:	03000018 	movweq	r0, #24
    32c4:	00007339 	andeq	r7, r0, r9, lsr r3
    32c8:	64230200 	strtvs	r0, [r3], #-512	; 0xfffffe00
    32cc:	0018cd09 	andseq	ip, r8, r9, lsl #26
    32d0:	733a0300 	teqvc	sl, #0, 6
    32d4:	02000000 	andeq	r0, r0, #0
    32d8:	d9096823 	stmdble	r9, {r0, r1, r5, fp, sp, lr}
    32dc:	0300000f 	movweq	r0, #15
    32e0:	0003583b 	andeq	r5, r3, fp, lsr r8
    32e4:	6c230200 	sfmvs	f0, 4, [r3], #-0
    32e8:	00179c09 	andseq	r9, r7, r9, lsl #24
    32ec:	733d0300 	teqvc	sp, #0, 6
    32f0:	03000000 	movweq	r0, #0
    32f4:	09018023 	stmdbeq	r1, {r0, r1, r5, pc}
    32f8:	000018a8 	andeq	r1, r0, r8, lsr #17
    32fc:	00733e03 	rsbseq	r3, r3, r3, lsl #28
    3300:	23030000 	movwcs	r0, #12288	; 0x3000
    3304:	e3090184 	movw	r0, #37252	; 0x9184
    3308:	03000016 	movweq	r0, #22
    330c:	0000733f 	andeq	r7, r0, pc, lsr r3
    3310:	88230300 	stmdahi	r3!, {r8, r9}
    3314:	181c0901 	ldmdane	ip, {r0, r8, fp}
    3318:	40030000 	andmi	r0, r3, r0
    331c:	00000073 	andeq	r0, r0, r3, ror r0
    3320:	018c2303 	orreq	r2, ip, r3, lsl #6
    3324:	0016fe09 	andseq	pc, r6, r9, lsl #28
    3328:	73420300 	movtvc	r0, #8960	; 0x2300
    332c:	03000000 	movweq	r0, #0
    3330:	09019023 	stmdbeq	r1, {r0, r1, r5, ip, pc}
    3334:	000017d8 	ldrdeq	r1, [r0], -r8
    3338:	00734303 	rsbseq	r4, r3, r3, lsl #6
    333c:	23030000 	movwcs	r0, #12288	; 0x3000
    3340:	e3090194 	movw	r0, #37268	; 0x9194
    3344:	0300000f 	movweq	r0, #15
    3348:	00035d44 	andeq	r5, r3, r4, asr #26
    334c:	98230300 	stmdals	r3!, {r8, r9}
    3350:	18080901 	stmdane	r8, {r0, r8, fp}
    3354:	46030000 	strmi	r0, [r3], -r0
    3358:	00000073 	andeq	r0, r0, r3, ror r0
    335c:	01a02303 	lsleq	r2, r3, #6
    3360:	0017e009 	andseq	lr, r7, r9
    3364:	73470300 	movtvc	r0, #29440	; 0x7300
    3368:	03000000 	movweq	r0, #0
    336c:	0901a423 	stmdbeq	r1, {r0, r1, r5, sl, sp, pc}
    3370:	000017ab 	andeq	r1, r0, fp, lsr #15
    3374:	00734803 	rsbseq	r4, r3, r3, lsl #16
    3378:	23030000 	movwcs	r0, #12288	; 0x3000
    337c:	900901a8 	andls	r0, r9, r8, lsr #3
    3380:	03000006 	movweq	r0, #6
    3384:	00037249 	andeq	r7, r3, r9, asr #4
    3388:	ac230300 	stcge	3, cr0, [r3], #-0
    338c:	18000901 	stmdane	r0, {r0, r8, fp}
    3390:	4b030000 	blmi	c3398 <__standby_start+0xc3398>
    3394:	00000073 	andeq	r0, r0, r3, ror r0
    3398:	02802303 	addeq	r2, r0, #201326592	; 0xc000000
    339c:	00170509 	andseq	r0, r7, r9, lsl #10
    33a0:	734c0300 	movtvc	r0, #49920	; 0xc300
    33a4:	03000000 	movweq	r0, #0
    33a8:	09028423 	stmdbeq	r2, {r0, r1, r5, sl, pc}
    33ac:	00001717 	andeq	r1, r0, r7, lsl r7
    33b0:	00734d03 	rsbseq	r4, r3, r3, lsl #26
    33b4:	23030000 	movwcs	r0, #12288	; 0x3000
    33b8:	f6090288 			; <UNDEFINED> instruction: 0xf6090288
    33bc:	03000016 	movweq	r0, #22
    33c0:	0000734e 	andeq	r7, r0, lr, asr #6
    33c4:	8c230300 	stchi	3, cr0, [r3], #-0
    33c8:	16bd0902 	ldrtne	r0, [sp], r2, lsl #18
    33cc:	50030000 	andpl	r0, r3, r0
    33d0:	00000073 	andeq	r0, r0, r3, ror r0
    33d4:	02902303 	addseq	r2, r0, #201326592	; 0xc000000
    33d8:	0017a309 	andseq	sl, r7, r9, lsl #6
    33dc:	73510300 	cmpvc	r1, #0, 6
    33e0:	03000000 	movweq	r0, #0
    33e4:	09029423 	stmdbeq	r2, {r0, r1, r5, sl, ip, pc}
    33e8:	000016eb 	andeq	r1, r0, fp, ror #13
    33ec:	00735203 	rsbseq	r5, r3, r3, lsl #4
    33f0:	23030000 	movwcs	r0, #12288	; 0x3000
    33f4:	c7090298 			; <UNDEFINED> instruction: 0xc7090298
    33f8:	03000016 	movweq	r0, #22
    33fc:	00007353 	andeq	r7, r0, r3, asr r3
    3400:	9c230300 	stcls	3, cr0, [r3], #-0
    3404:	18320902 	ldmdane	r2!, {r1, r8, fp}
    3408:	55030000 	strpl	r0, [r3, #-0]
    340c:	00000377 	andeq	r0, r0, r7, ror r3
    3410:	02a02303 	adceq	r2, r0, #201326592	; 0xc000000
    3414:	005a0600 	subseq	r0, sl, r0, lsl #12
    3418:	033e0000 	teqeq	lr, #0
    341c:	25070000 	strcs	r0, [r7, #-0]
    3420:	01000000 	tsteq	r0, r0
    3424:	032e0500 	teqeq	lr, #0, 10
    3428:	2e050000 	cdpcs	0, 0, cr0, cr5, cr0, {0}
    342c:	06000003 	streq	r0, [r0], -r3
    3430:	0000005a 	andeq	r0, r0, sl, asr r0
    3434:	00000358 	andeq	r0, r0, r8, asr r3
    3438:	00002507 	andeq	r2, r0, r7, lsl #10
    343c:	05000400 	streq	r0, [r0, #-1024]	; 0xfffffc00
    3440:	00000348 	andeq	r0, r0, r8, asr #6
    3444:	00032e05 	andeq	r2, r3, r5, lsl #28
    3448:	005a0600 	subseq	r0, sl, r0, lsl #12
    344c:	03720000 	cmneq	r2, #0
    3450:	25070000 	strcs	r0, [r7, #-0]
    3454:	14000000 	strne	r0, [r0], #-0
    3458:	03620500 	cmneq	r2, #0, 10
    345c:	78050000 	stmdavc	r5, {}	; <UNPREDICTABLE>
    3460:	04000000 	streq	r0, [r0], #-0
    3464:	0000171e 	andeq	r1, r0, lr, lsl r7
    3468:	00885703 	addeq	r5, r8, r3, lsl #14
    346c:	450a0000 	strmi	r0, [sl, #-0]
    3470:	04000017 	streq	r0, [r0], #-23	; 0xffffffe9
    3474:	03a05a03 	moveq	r5, #12288	; 0x3000
    3478:	aa0b0000 	bge	2c3480 <__standby_start+0x2c3480>
    347c:	00000016 	andeq	r0, r0, r6, lsl r0
    3480:	0016d30b 	andseq	sp, r6, fp, lsl #6
    3484:	0c000100 	stfeqs	f0, [r0], {-0}
    3488:	00186201 	andseq	r6, r8, r1, lsl #4
    348c:	01250100 	teqeq	r5, r0, lsl #2
    3490:	0000004f 	andeq	r0, r0, pc, asr #32
    3494:	f000134c 			; <UNDEFINED> instruction: 0xf000134c
    3498:	f00013d4 			; <UNDEFINED> instruction: 0xf00013d4
    349c:	00000811 	andeq	r0, r0, r1, lsl r8
    34a0:	000003c7 	andeq	r0, r0, r7, asr #7
    34a4:	0100690d 	tsteq	r0, sp, lsl #18
    34a8:	00004f27 	andeq	r4, r0, r7, lsr #30
    34ac:	010e0000 	tsteq	lr, r0
    34b0:	000017ef 	andeq	r1, r0, pc, ror #15
    34b4:	4f014e01 	svcmi	0x00014e01
    34b8:	d4000000 	strle	r0, [r0], #-0
    34bc:	20f00013 	rscscs	r0, r0, r3, lsl r0
    34c0:	02f00014 	rscseq	r0, r0, #20
    34c4:	03ed007d 	mvneq	r0, #125	; 0x7d
    34c8:	690d0000 	stmdbvs	sp, {}	; <UNPREDICTABLE>
    34cc:	4f500100 	svcmi	0x00500100
    34d0:	00000000 	andeq	r0, r0, r0
    34d4:	01b4010e 			; <UNDEFINED> instruction: 0x01b4010e
    34d8:	6d010000 	stcvs	0, cr0, [r1, #-0]
    34dc:	00004f01 	andeq	r4, r0, r1, lsl #30
    34e0:	00142000 	andseq	r2, r4, r0
    34e4:	001470f0 	ldrsheq	r7, [r4], -r0
    34e8:	007d02f0 	ldrshteq	r0, [sp], #-32	; 0xffffffe0
    34ec:	00000419 	andeq	r0, r0, r9, lsl r4
    34f0:	0017e80f 	andseq	lr, r7, pc, lsl #16
    34f4:	5a6d0100 	bpl	1b438fc <__standby_start+0x1b438fc>
    34f8:	31000000 	tstcc	r0, r0
    34fc:	00000008 	andeq	r0, r0, r8
    3500:	188c0110 	stmne	ip, {r4, r8}
    3504:	8c010000 	stchi	0, cr0, [r1], {-0}
    3508:	00147001 	andseq	r7, r4, r1
    350c:	001494f0 			; <UNDEFINED> instruction: 0x001494f0
    3510:	007d02f0 	ldrshteq	r0, [sp], #-32	; 0xffffffe0
    3514:	17bb0110 			; <UNDEFINED> instruction: 0x17bb0110
    3518:	a3010000 	movwge	r0, #4096	; 0x1000
    351c:	00149401 	andseq	r9, r4, r1, lsl #8
    3520:	0014bcf0 			; <UNDEFINED> instruction: 0x0014bcf0
    3524:	007d02f0 	ldrshteq	r0, [sp], #-32	; 0xffffffe0
    3528:	18bb010e 	ldmne	fp!, {r1, r2, r3, r8}
    352c:	ba010000 	blt	43534 <__standby_start+0x43534>
    3530:	00004f01 	andeq	r4, r0, r1, lsl #30
    3534:	0014bc00 	andseq	fp, r4, r0, lsl #24
    3538:	0014ecf0 			; <UNDEFINED> instruction: 0x0014ecf0
    353c:	007d02f0 	ldrshteq	r0, [sp], #-32	; 0xffffffe0
    3540:	00000478 	andeq	r0, r0, r8, ror r4
    3544:	00215d0f 	eoreq	r5, r1, pc, lsl #26
    3548:	87ba0100 	ldrhi	r0, [sl, r0, lsl #2]!
    354c:	44000003 	strmi	r0, [r0], #-3
    3550:	11000008 	tstne	r0, r8
    3554:	000013f2 	strdeq	r1, [r0], -r2
    3558:	004fbc01 	subeq	fp, pc, r1, lsl #24
    355c:	12000000 	andne	r0, r0, #0
    3560:	00184601 	andseq	r4, r8, r1, lsl #12
    3564:	01e10100 	mvneq	r0, r0, lsl #2
    3568:	f00014ec 			; <UNDEFINED> instruction: 0xf00014ec
    356c:	f000153c 			; <UNDEFINED> instruction: 0xf000153c
    3570:	00000857 	andeq	r0, r0, r7, asr r8
    3574:	000004a9 	andeq	r0, r0, r9, lsr #9
    3578:	00736d13 	rsbseq	r6, r3, r3, lsl sp
    357c:	0033e101 	eorseq	lr, r3, r1, lsl #2
    3580:	08770000 	ldmdaeq	r7!, {}^	; <UNPREDICTABLE>
    3584:	690d0000 	stmdbvs	sp, {}	; <UNPREDICTABLE>
    3588:	33e30100 	mvncc	r0, #0, 2
    358c:	00000000 	andeq	r0, r0, r0
    3590:	0018d814 	andseq	sp, r8, r4, lsl r8
    3594:	ba130100 	blt	4c399c <__standby_start+0x4c399c>
    3598:	05000004 	streq	r0, [r0, #-4]
    359c:	00288803 	eoreq	r8, r8, r3, lsl #16
    35a0:	7c0415f0 	cfstr32vc	mvfx1, [r4], {240}	; 0xf0
    35a4:	14000003 	strne	r0, [r0], #-3
    35a8:	00001858 	andeq	r1, r0, r8, asr r8
    35ac:	005a1401 	subseq	r1, sl, r1, lsl #8
    35b0:	03050000 	movweq	r0, #20480	; 0x5000
    35b4:	f000288c 			; <UNDEFINED> instruction: 0xf000288c
    35b8:	0018df14 	andseq	sp, r8, r4, lsl pc
    35bc:	5a140100 	bpl	5039c4 <__standby_start+0x5039c4>
    35c0:	05000000 	streq	r0, [r0, #-0]
    35c4:	00289003 	eoreq	r9, r8, r3
    35c8:	170c14f0 			; <UNDEFINED> instruction: 0x170c14f0
    35cc:	14010000 	strne	r0, [r1], #-0
    35d0:	0000005a 	andeq	r0, r0, sl, asr r0
    35d4:	28940305 	ldmcs	r4, {r0, r2, r8, r9}
    35d8:	3a14f000 	bcc	53f5e0 <__standby_start+0x53f5e0>
    35dc:	01000017 	tsteq	r0, r7, lsl r0
    35e0:	00005a14 	andeq	r5, r0, r4, lsl sl
    35e4:	98030500 	stmdals	r3, {r8, sl}
    35e8:	14f00028 	ldrbtne	r0, [r0], #40	; 0x28
    35ec:	00001732 	andeq	r1, r0, r2, lsr r7
    35f0:	005a1401 	subseq	r1, sl, r1, lsl #8
    35f4:	03050000 	movweq	r0, #20480	; 0x5000
    35f8:	f000289c 			; <UNDEFINED> instruction: 0xf000289c
    35fc:	00181114 	andseq	r1, r8, r4, lsl r1
    3600:	5a140100 	bpl	503a08 <__standby_start+0x503a08>
    3604:	05000000 	streq	r0, [r0, #-0]
    3608:	0028a003 	eoreq	sl, r8, r3
    360c:	183b14f0 	ldmdane	fp!, {r4, r5, r6, r7, sl, ip}
    3610:	14010000 	strne	r0, [r1], #-0
    3614:	0000005a 	andeq	r0, r0, sl, asr r0
    3618:	28a40305 	stmiacs	r4!, {r0, r2, r8, r9}
    361c:	bc00f000 	stclt	0, cr15, [r0], {-0}
    3620:	02000002 	andeq	r0, r0, #2
    3624:	0008b600 	andeq	fp, r8, r0, lsl #12
    3628:	28010400 	stmdacs	r1, {sl}
    362c:	01000003 	tsteq	r0, r3
    3630:	0000198c 	andeq	r1, r0, ip, lsl #19
    3634:	000002ba 			; <UNDEFINED> instruction: 0x000002ba
    3638:	f000153c 			; <UNDEFINED> instruction: 0xf000153c
    363c:	f000187c 			; <UNDEFINED> instruction: 0xf000187c
    3640:	000007ad 	andeq	r0, r0, sp, lsr #15
    3644:	2a070402 	bcs	1c4654 <__standby_start+0x1c4654>
    3648:	02000002 	andeq	r0, r0, #2
    364c:	01a60801 			; <UNDEFINED> instruction: 0x01a60801
    3650:	04030000 	streq	r0, [r3], #-0
    3654:	746e6905 	strbtvc	r6, [lr], #-2309	; 0xfffff6fb
    3658:	06010200 	streq	r0, [r1], -r0, lsl #4
    365c:	000001a8 	andeq	r0, r0, r8, lsr #3
    3660:	0002ff04 	andeq	pc, r2, r4, lsl #30
    3664:	2c160200 	lfmcs	f0, 4, [r6], {-0}
    3668:	02000000 	andeq	r0, r0, #0
    366c:	01da0502 	bicseq	r0, sl, r2, lsl #10
    3670:	02020000 	andeq	r0, r2, #0
    3674:	00028c07 	andeq	r8, r2, r7, lsl #24
    3678:	0dd70400 	cfldrdeq	mvd0, [r7]
    367c:	19020000 	stmdbne	r2, {}	; <UNPREDICTABLE>
    3680:	00000033 	andeq	r0, r0, r3, lsr r0
    3684:	00013a04 	andeq	r3, r1, r4, lsl #20
    3688:	251a0200 	ldrcs	r0, [sl, #-512]	; 0xfffffe00
    368c:	02000000 	andeq	r0, r0, #0
    3690:	01690508 	cmneq	r9, r8, lsl #10
    3694:	08020000 	stmdaeq	r2, {}	; <UNPREDICTABLE>
    3698:	00022007 	andeq	r2, r2, r7
    369c:	19d60500 	ldmibne	r6, {r8, sl}^
    36a0:	03240000 	teqeq	r4, #0
    36a4:	00010919 	andeq	r0, r1, r9, lsl r9
    36a8:	19e30600 	stmibne	r3!, {r9, sl}^
    36ac:	1b030000 	blne	c36b4 <__standby_start+0xc36b4>
    36b0:	00000109 	andeq	r0, r0, r9, lsl #2
    36b4:	06002302 	streq	r2, [r0], -r2, lsl #6
    36b8:	00001974 	andeq	r1, r0, r4, ror r9
    36bc:	01091c03 	tsteq	r9, r3, lsl #24
    36c0:	23020000 	movwcs	r0, #8192	; 0x2000
    36c4:	194d0604 	stmdbne	sp, {r2, r9, sl}^
    36c8:	1d030000 	stcne	0, cr0, [r3, #-0]
    36cc:	00000109 	andeq	r0, r0, r9, lsl #2
    36d0:	06082302 	streq	r2, [r8], -r2, lsl #6
    36d4:	000019bd 			; <UNDEFINED> instruction: 0x000019bd
    36d8:	01091e03 	tsteq	r9, r3, lsl #28
    36dc:	23020000 	movwcs	r0, #8192	; 0x2000
    36e0:	19f6060c 	ldmibne	r6!, {r2, r3, r9, sl}^
    36e4:	1f030000 	svcne	0x00030000
    36e8:	00000109 	andeq	r0, r0, r9, lsl #2
    36ec:	06102302 	ldreq	r2, [r0], -r2, lsl #6
    36f0:	00001944 	andeq	r1, r0, r4, asr #18
    36f4:	01092003 	tsteq	r9, r3
    36f8:	23020000 	movwcs	r0, #8192	; 0x2000
    36fc:	190d0614 	stmdbne	sp, {r2, r4, r9, sl}
    3700:	21030000 	tstcs	r3, r0
    3704:	00000109 	andeq	r0, r0, r9, lsl #2
    3708:	06182302 	ldreq	r2, [r8], -r2, lsl #6
    370c:	000018ef 	andeq	r1, r0, pc, ror #17
    3710:	01092203 	tsteq	r9, r3, lsl #4
    3714:	23020000 	movwcs	r0, #8192	; 0x2000
    3718:	19ed061c 	stmibne	sp!, {r2, r3, r4, r9, sl}^
    371c:	23030000 	movwcs	r0, #12288	; 0x3000
    3720:	00000109 	andeq	r0, r0, r9, lsl #2
    3724:	00202302 	eoreq	r2, r0, r2, lsl #6
    3728:	00002507 	andeq	r2, r0, r7, lsl #10
    372c:	19370400 	ldmdbne	r7!, {sl}
    3730:	25030000 	strcs	r0, [r3, #-0]
    3734:	0000007e 	andeq	r0, r0, lr, ror r0
    3738:	00163308 	andseq	r3, r6, r8, lsl #6
    373c:	29030400 	stmdbcs	r3, {sl}
    3740:	00000132 	andeq	r0, r0, r2, lsr r1
    3744:	00161609 	andseq	r1, r6, r9, lsl #12
    3748:	d0090000 	andle	r0, r9, r0
    374c:	01000015 	tsteq	r0, r5, lsl r0
    3750:	c5010a00 	strgt	r0, [r1, #-2560]	; 0xfffff600
    3754:	01000019 	tsteq	r0, r9, lsl r0
    3758:	005a012e 	subseq	r0, sl, lr, lsr #2
    375c:	153c0000 	ldrne	r0, [ip, #-0]!
    3760:	158cf000 	strne	pc, [ip]
    3764:	7d02f000 	stcvc	0, cr15, [r2, #-0]
    3768:	00015e00 	andeq	r5, r1, r0, lsl #28
    376c:	19290b00 	stmdbne	r9!, {r8, r9, fp}
    3770:	2e010000 	cdpcs	0, 0, cr0, cr1, cr0, {0}
    3774:	00000033 	andeq	r0, r0, r3, lsr r0
    3778:	000008a7 	andeq	r0, r0, r7, lsr #17
    377c:	63010c00 	movwvs	r0, #7168	; 0x1c00
    3780:	01000019 	tsteq	r0, r9, lsl r0
    3784:	005a0149 	subseq	r0, sl, r9, asr #2
    3788:	158c0000 	strne	r0, [ip]
    378c:	15d4f000 	ldrbne	pc, [r4]	; <UNPREDICTABLE>
    3790:	08baf000 	ldmeq	sl!, {ip, sp, lr, pc}
    3794:	170d0000 	strne	r0, [sp, -r0]
    3798:	01000019 	tsteq	r0, r9, lsl r0
    379c:	00330164 	eorseq	r0, r3, r4, ror #2
    37a0:	9f010000 	svcls	0x00010000
    37a4:	0e000001 	cdpeq	0, 0, cr0, cr0, cr1, {0}
    37a8:	00001904 	andeq	r1, r0, r4, lsl #18
    37ac:	00256601 	eoreq	r6, r5, r1, lsl #12
    37b0:	b50e0000 	strlt	r0, [lr, #-0]
    37b4:	01000019 	tsteq	r0, r9, lsl r0
    37b8:	00002567 	andeq	r2, r0, r7, ror #10
    37bc:	010f0000 	mrseq	r0, CPSR
    37c0:	0000199a 	muleq	r0, sl, r9
    37c4:	5a019601 	bpl	68fd0 <__standby_start+0x68fd0>
    37c8:	d4000000 	strle	r0, [r0], #-0
    37cc:	7cf00015 	ldclvc	0, cr0, [r0], #84	; 0x54
    37d0:	daf00018 	ble	ffc03838 <__bss_end+0xfc00f5c>
    37d4:	5a000008 	bpl	37fc <__standby_start+0x37fc>
    37d8:	10000002 	andne	r0, r0, r2
    37dc:	0100706f 	tsteq	r0, pc, rrx
    37e0:	00011996 	muleq	r1, r6, r9
    37e4:	0008fa00 	andeq	pc, r8, r0, lsl #20
    37e8:	19e70b00 	stmibne	r7!, {r8, r9, fp}^
    37ec:	96010000 	strls	r0, [r1], -r0
    37f0:	00000041 	andeq	r0, r0, r1, asr #32
    37f4:	0000090d 	andeq	r0, r0, sp, lsl #18
    37f8:	0019a60b 	andseq	sl, r9, fp, lsl #12
    37fc:	41960100 	orrsmi	r0, r6, r0, lsl #2
    3800:	20000000 	andcs	r0, r0, r0
    3804:	0b000009 	bleq	3830 <__standby_start+0x3830>
    3808:	00001663 	andeq	r1, r0, r3, ror #12
    380c:	025a9601 	subseq	r9, sl, #1048576	; 0x100000
    3810:	09330000 	ldmdbeq	r3!, {}	; <UNPREDICTABLE>
    3814:	01110000 	tsteq	r1, r0
    3818:	0100001a 	tsteq	r0, sl, lsl r0
    381c:	00002c98 	muleq	r0, r8, ip
    3820:	00095100 	andeq	r5, r9, r0, lsl #2
    3824:	19b51100 	ldmibne	r5!, {r8, ip}
    3828:	99010000 	stmdbls	r1, {}	; <UNPREDICTABLE>
    382c:	00000025 	andeq	r0, r0, r5, lsr #32
    3830:	000009b1 			; <UNDEFINED> instruction: 0x000009b1
    3834:	74657212 	strbtvc	r7, [r5], #-530	; 0xfffffdee
    3838:	339a0100 	orrscc	r0, sl, #0, 2
    383c:	c3000000 	movwgt	r0, #0
    3840:	1300000a 	movwne	r0, #10
    3844:	000019ac 	andeq	r1, r0, ip, lsr #19
    3848:	f4011701 	vst1.8	{d1}, [r1], r1
    384c:	14f00017 	ldrbtne	r0, [r0], #23
    3850:	00000177 	andeq	r0, r0, r7, ror r1
    3854:	f00017f4 			; <UNDEFINED> instruction: 0xf00017f4
    3858:	f0001874 			; <UNDEFINED> instruction: 0xf0001874
    385c:	15011a01 	strne	r1, [r1, #-2561]	; 0xfffff5ff
    3860:	f00017f4 			; <UNDEFINED> instruction: 0xf00017f4
    3864:	f0001874 			; <UNDEFINED> instruction: 0xf0001874
    3868:	00018816 	andeq	r8, r1, r6, lsl r8
    386c:	01931700 	orrseq	r1, r3, r0, lsl #14
    3870:	0ae30000 	beq	ff8c3878 <__bss_end+0xf8c0f9c>
    3874:	00000000 	andeq	r0, r0, r0
    3878:	41041800 	tstmi	r4, r0, lsl #16
    387c:	19000000 	stmdbne	r0, {}	; <UNPREDICTABLE>
    3880:	00000270 	andeq	r0, r0, r0, ror r2
    3884:	00000270 	andeq	r0, r0, r0, ror r2
    3888:	0000251a 	andeq	r2, r0, sl, lsl r5
    388c:	18000200 	stmdane	r0, {r9}
    3890:	00010e04 	andeq	r0, r1, r4, lsl #28
    3894:	19561b00 	ldmdbne	r6, {r8, r9, fp, ip}^
    3898:	16010000 	strne	r0, [r1], -r0
    389c:	00000287 	andeq	r0, r0, r7, lsl #5
    38a0:	26980305 	ldrcs	r0, [r8], r5, lsl #6
    38a4:	601cf000 	andsvs	pc, ip, r0
    38a8:	1b000002 	blne	38b8 <__standby_start+0x38b8>
    38ac:	0000197f 	andeq	r1, r0, pc, ror r9
    38b0:	00651c01 	rsbeq	r1, r5, r1, lsl #24
    38b4:	03050000 	movweq	r0, #20480	; 0x5000
    38b8:	f00028ac 			; <UNDEFINED> instruction: 0xf00028ac
    38bc:	0018f71b 	andseq	pc, r8, fp, lsl r7	; <UNPREDICTABLE>
    38c0:	651d0100 	ldrvs	r0, [sp, #-256]	; 0xffffff00
    38c4:	05000000 	streq	r0, [r0, #-0]
    38c8:	0028b003 	eoreq	fp, r8, r3
    38cc:	192f1bf0 	stmdbne	pc!, {r4, r5, r6, r7, r8, r9, fp, ip}	; <UNPREDICTABLE>
    38d0:	1e010000 	cdpne	0, 0, cr0, cr1, cr0, {0}
    38d4:	00000270 	andeq	r0, r0, r0, ror r2
    38d8:	28a80305 	stmiacs	r8!, {r0, r2, r8, r9}
    38dc:	e400f000 	str	pc, [r0], #-0
    38e0:	02000000 	andeq	r0, r0, #0
    38e4:	000a3500 	andeq	r3, sl, r0, lsl #10
    38e8:	28010400 	stmdacs	r1, {sl}
    38ec:	01000003 	tsteq	r0, r3
    38f0:	00001a0b 	andeq	r1, r0, fp, lsl #20
    38f4:	000002ba 			; <UNDEFINED> instruction: 0x000002ba
    38f8:	f000187c 			; <UNDEFINED> instruction: 0xf000187c
    38fc:	f000189c 			; <UNDEFINED> instruction: 0xf000189c
    3900:	000008ab 	andeq	r0, r0, fp, lsr #17
    3904:	2a070402 	bcs	1c4914 <__standby_start+0x1c4914>
    3908:	02000002 	andeq	r0, r0, #2
    390c:	01a60801 			; <UNDEFINED> instruction: 0x01a60801
    3910:	04030000 	streq	r0, [r3], #-0
    3914:	746e6905 	strbtvc	r6, [lr], #-2309	; 0xfffff6fb
    3918:	06010200 	streq	r0, [r1], -r0, lsl #4
    391c:	000001a8 	andeq	r0, r0, r8, lsr #3
    3920:	da050202 	ble	144130 <__standby_start+0x144130>
    3924:	02000001 	andeq	r0, r0, #1
    3928:	028c0702 	addeq	r0, ip, #524288	; 0x80000
    392c:	d7040000 	strle	r0, [r4, -r0]
    3930:	0200000d 	andeq	r0, r0, #13
    3934:	00003319 	andeq	r3, r0, r9, lsl r3
    3938:	013a0400 	teqeq	sl, r0, lsl #8
    393c:	1a020000 	bne	83944 <__standby_start+0x83944>
    3940:	00000025 	andeq	r0, r0, r5, lsr #32
    3944:	69050802 	stmdbvs	r5, {r1, fp}
    3948:	02000001 	andeq	r0, r0, #1
    394c:	02200708 	eoreq	r0, r0, #8, 14	; 0x200000
    3950:	01050000 	tsteq	r5, r0
    3954:	00001a5f 	andeq	r1, r0, pc, asr sl
    3958:	4f012601 	svcmi	0x00012601
    395c:	7c000000 	stcvc	0, cr0, [r0], {-0}
    3960:	84f00018 	ldrbthi	r0, [r0], #24
    3964:	02f00018 	rscseq	r0, r0, #24
    3968:	0105007d 	tsteq	r5, sp, ror r0
    396c:	00001a19 	andeq	r1, r0, r9, lsl sl
    3970:	4f013701 	svcmi	0x00013701
    3974:	84000000 	strhi	r0, [r0], #-0
    3978:	8cf00018 	ldclhi	0, cr0, [r0], #96	; 0x60
    397c:	02f00018 	rscseq	r0, r0, #24
    3980:	0106007d 	tsteq	r6, sp, ror r0
    3984:	00001a2a 	andeq	r1, r0, sl, lsr #20
    3988:	4f014b01 	svcmi	0x00014b01
    398c:	8c000000 	stchi	0, cr0, [r0], {-0}
    3990:	94f00018 	ldrbtls	r0, [r0], #24
    3994:	02f00018 	rscseq	r0, r0, #24
    3998:	00cf007d 	sbceq	r0, pc, sp, ror r0	; <UNPREDICTABLE>
    399c:	5c070000 	stcpl	0, cr0, [r7], {-0}
    39a0:	01000001 	tsteq	r0, r1
    39a4:	00005a4b 	andeq	r5, r0, fp, asr #20
    39a8:	000b3400 	andeq	r3, fp, r0, lsl #8
    39ac:	01050000 	tsteq	r5, r0
    39b0:	00001a47 	andeq	r1, r0, r7, asr #20
    39b4:	4f015e01 	svcmi	0x00015e01
    39b8:	94000000 	strls	r0, [r0], #-0
    39bc:	9cf00018 	ldclls	0, cr0, [r0], #96	; 0x60
    39c0:	02f00018 	rscseq	r0, r0, #24
    39c4:	6900007d 	stmdbvs	r0, {r0, r2, r3, r4, r5, r6}
    39c8:	02000000 	andeq	r0, r0, #0
    39cc:	000aab00 	andeq	sl, sl, r0, lsl #22
    39d0:	01010400 	tsteq	r1, r0, lsl #8
    39d4:	9c000009 	stcls	0, cr0, [r0], {9}
    39d8:	d0f00018 	rscsle	r0, r0, r8, lsl r0
    39dc:	73f00018 	mvnsvc	r0, #24
    39e0:	646e6174 	strbtvs	r6, [lr], #-372	; 0xfffffe8c
    39e4:	645f7962 	ldrbvs	r7, [pc], #-2402	; 39ec <__standby_start+0x39ec>
    39e8:	79616c65 	stmdbvc	r1!, {r0, r2, r5, r6, sl, fp, sp, lr}^
    39ec:	2f00532e 	svccs	0x0000532e
    39f0:	656d6f68 	strbvs	r6, [sp, #-3944]!	; 0xfffff098
    39f4:	646e612f 	strbtvs	r6, [lr], #-303	; 0xfffffed1
    39f8:	64696f72 	strbtvs	r6, [r9], #-3954	; 0xfffff08e
    39fc:	72656b2f 	rsbvc	r6, r5, #48128	; 0xbc00
    3a00:	2f6c656e 	svccs	0x006c656e
    3a04:	68637261 	stmdavs	r3!, {r0, r5, r6, r9, ip, sp, lr}^
    3a08:	6d72612f 	ldfvse	f6, [r2, #-188]!	; 0xffffff44
    3a0c:	63616d2f 	cmnvs	r1, #3008	; 0xbc0
    3a10:	75732d68 	ldrbvc	r2, [r3, #-3432]!	; 0xfffff298
    3a14:	2f69356e 	svccs	0x0069356e
    3a18:	732f6d70 	teqvc	pc, #112, 26	; 0x1c00
    3a1c:	646e6174 	strbtvs	r6, [lr], #-372	; 0xfffffe8c
    3a20:	47007962 	strmi	r7, [r0, -r2, ror #18]
    3a24:	4120554e 	teqmi	r0, lr, asr #10
    3a28:	2e322053 	mrccs	0, 1, r2, cr2, cr3, {2}
    3a2c:	352e3032 	strcc	r3, [lr, #-50]!	; 0xffffffce
    3a30:	80010031 	andhi	r0, r1, r1, lsr r0
    3a34:	000004e4 	andeq	r0, r0, r4, ror #9
    3a38:	0abf0002 	beq	fefc3a48 <__bss_end+0xefc116c>
    3a3c:	01040000 	tsteq	r4, r0
    3a40:	00000328 	andeq	r0, r0, r8, lsr #6
    3a44:	001a7901 	andseq	r7, sl, r1, lsl #18
    3a48:	0002ba00 	andeq	fp, r2, r0, lsl #20
    3a4c:	0018d000 	andseq	sp, r8, r0
    3a50:	001c38f0 			; <UNDEFINED> instruction: 0x001c38f0
    3a54:	00094af0 	strdeq	r4, [r9], -r0
    3a58:	06010200 	streq	r0, [r1], -r0, lsl #4
    3a5c:	000001a8 	andeq	r0, r0, r8, lsr #3
    3a60:	a6080102 	strge	r0, [r8], -r2, lsl #2
    3a64:	02000001 	andeq	r0, r0, #1
    3a68:	01da0502 	bicseq	r0, sl, r2, lsl #10
    3a6c:	02020000 	andeq	r0, r2, #0
    3a70:	00028c07 	andeq	r8, r2, r7, lsl #24
    3a74:	0dd70300 	ldcleq	3, cr0, [r7]
    3a78:	12030000 	andne	r0, r3, #0
    3a7c:	0000004c 	andeq	r0, r0, ip, asr #32
    3a80:	69050404 	stmdbvs	r5, {r2, sl}
    3a84:	0300746e 	movweq	r7, #1134	; 0x46e
    3a88:	0000013a 	andeq	r0, r0, sl, lsr r1
    3a8c:	005e1303 	subseq	r1, lr, r3, lsl #6
    3a90:	04020000 	streq	r0, [r2], #-0
    3a94:	00022a07 	andeq	r2, r2, r7, lsl #20
    3a98:	05080200 	streq	r0, [r8, #-512]	; 0xfffffe00
    3a9c:	00000169 	andeq	r0, r0, r9, ror #2
    3aa0:	20070802 	andcs	r0, r7, r2, lsl #16
    3aa4:	05000002 	streq	r0, [r0, #-2]
    3aa8:	0000169d 	muleq	r0, sp, r6
    3aac:	53014801 	movwpl	r4, #6145	; 0x1801
    3ab0:	d0000000 	andle	r0, r0, r0
    3ab4:	20f00018 	rscscs	r0, r0, r8, lsl r0
    3ab8:	02f00019 	rscseq	r0, r0, #25
    3abc:	00da007d 	sbcseq	r0, sl, sp, ror r0
    3ac0:	75060000 	strvc	r0, [r6, #-0]
    3ac4:	01000016 	tsteq	r0, r6, lsl r0
    3ac8:	00005348 	andeq	r5, r0, r8, asr #6
    3acc:	000b4700 	andeq	r4, fp, r0, lsl #14
    3ad0:	158c0600 	strne	r0, [ip, #1536]	; 0x600
    3ad4:	48010000 	stmdami	r1, {}	; <UNPREDICTABLE>
    3ad8:	00000053 	andeq	r0, r0, r3, asr r0
    3adc:	00000b86 	andeq	r0, r0, r6, lsl #23
    3ae0:	0015a607 	andseq	sl, r5, r7, lsl #12
    3ae4:	534a0100 	movtpl	r0, #41216	; 0xa100
    3ae8:	a4000000 	strge	r0, [r0], #-0
    3aec:	0700000b 	streq	r0, [r0, -fp]
    3af0:	0000162b 	andeq	r1, r0, fp, lsr #12
    3af4:	00534b01 	subseq	r4, r3, r1, lsl #22
    3af8:	0be70000 	bleq	ff9c3b00 <__bss_end+0xf9c1224>
    3afc:	fc070000 	stc2	0, cr0, [r7], {-0}
    3b00:	01000015 	tsteq	r0, r5, lsl r0
    3b04:	0000414c 	andeq	r4, r0, ip, asr #2
    3b08:	000c1d00 	andeq	r1, ip, r0, lsl #26
    3b0c:	01080000 	tsteq	r8, r0
    3b10:	00001baa 	andeq	r1, r0, sl, lsr #23
    3b14:	20011202 	andcs	r1, r1, r2, lsl #4
    3b18:	40f00019 	rscsmi	r0, r0, r9, lsl r0
    3b1c:	6bf00019 	blvs	ffc03b88 <__bss_end+0xfc012ac>
    3b20:	0200000c 	andeq	r0, r0, #12
    3b24:	09000001 	stmdbeq	r0, {r0}
    3b28:	00001ada 	ldrdeq	r1, [r0], -sl
    3b2c:	01021502 	tsteq	r2, r2, lsl #10
    3b30:	91020000 	tstls	r2, r0
    3b34:	530a0074 	movwpl	r0, #41076	; 0xa074
    3b38:	08000000 	stmdaeq	r0, {}	; <UNPREDICTABLE>
    3b3c:	001ba501 	andseq	sl, fp, r1, lsl #10
    3b40:	011c0200 	tsteq	ip, r0, lsl #4
    3b44:	f0001940 			; <UNDEFINED> instruction: 0xf0001940
    3b48:	f0001960 			; <UNDEFINED> instruction: 0xf0001960
    3b4c:	00000c8b 	andeq	r0, r0, fp, lsl #25
    3b50:	0000012f 	andeq	r0, r0, pc, lsr #2
    3b54:	001ada09 	andseq	sp, sl, r9, lsl #20
    3b58:	021f0200 	andseq	r0, pc, #0, 4
    3b5c:	02000001 	andeq	r0, r0, #1
    3b60:	0b007491 	bleq	20dac <__standby_start+0x20dac>
    3b64:	001b6c01 	andseq	r6, fp, r1, lsl #24
    3b68:	012a0200 	teqeq	sl, r0, lsl #4
    3b6c:	f0001960 			; <UNDEFINED> instruction: 0xf0001960
    3b70:	f0001978 			; <UNDEFINED> instruction: 0xf0001978
    3b74:	57007d02 	strpl	r7, [r0, -r2, lsl #26]
    3b78:	07000001 	streq	r0, [r0, -r1]
    3b7c:	00001c00 	andeq	r1, r0, r0, lsl #24
    3b80:	00532c02 	subseq	r2, r3, r2, lsl #24
    3b84:	0cab0000 	stceq	0, cr0, [fp]
    3b88:	08000000 	stmdaeq	r0, {}	; <UNPREDICTABLE>
    3b8c:	001c5901 	andseq	r5, ip, r1, lsl #18
    3b90:	01330200 	teqeq	r3, r0, lsl #4
    3b94:	f0001978 			; <UNDEFINED> instruction: 0xf0001978
    3b98:	f0001988 			; <UNDEFINED> instruction: 0xf0001988
    3b9c:	00000cce 	andeq	r0, r0, lr, asr #25
    3ba0:	0000017e 	andeq	r0, r0, lr, ror r1
    3ba4:	6c61760c 	stclvs	6, cr7, [r1], #-48	; 0xffffffd0
    3ba8:	02330200 	eorseq	r0, r3, #0, 4
    3bac:	01000001 	tsteq	r0, r1
    3bb0:	010d0050 	qaddeq	r0, r0, sp
    3bb4:	00001bf1 	strdeq	r1, [r0], -r1	; <UNPREDICTABLE>
    3bb8:	53013902 	movwpl	r3, #6402	; 0x1902
    3bbc:	88000000 	stmdahi	r0, {}	; <UNPREDICTABLE>
    3bc0:	98f00019 	ldmls	r0!, {r0, r3, r4}^
    3bc4:	02f00019 	rscseq	r0, r0, #25
    3bc8:	0108007d 	tsteq	r8, sp, ror r0
    3bcc:	00001b2f 	andeq	r1, r0, pc, lsr #22
    3bd0:	98013e02 	stmdals	r1, {r1, r9, sl, fp, ip, sp}
    3bd4:	a8f00019 	ldmge	r0!, {r0, r3, r4}^
    3bd8:	eef00019 	mrc	0, 7, r0, cr0, cr9, {0}
    3bdc:	bd00000c 	stclt	0, cr0, [r0, #-48]	; 0xffffffd0
    3be0:	0c000001 	stceq	0, cr0, [r0], {1}
    3be4:	006c6176 	rsbeq	r6, ip, r6, ror r1
    3be8:	01023e02 	tsteq	r2, r2, lsl #28
    3bec:	50010000 	andpl	r0, r1, r0
    3bf0:	89010e00 	stmdbhi	r1, {r9, sl, fp}
    3bf4:	0200001a 	andeq	r0, r0, #26
    3bf8:	00530144 	subseq	r0, r3, r4, asr #2
    3bfc:	19a80000 	stmibne	r8!, {}	; <UNPREDICTABLE>
    3c00:	19ccf000 	stmibne	ip, {ip, sp, lr, pc}^
    3c04:	0d0ef000 	stceq	0, cr15, [lr, #-0]
    3c08:	01f70000 	mvnseq	r0, r0
    3c0c:	760f0000 	strvc	r0, [pc], -r0
    3c10:	02006c61 	andeq	r6, r0, #24832	; 0x6100
    3c14:	00010244 	andeq	r0, r1, r4, asr #4
    3c18:	000d2e00 	andeq	r2, sp, r0, lsl #28
    3c1c:	6d741000 	ldclvs	0, cr1, [r4, #-0]
    3c20:	46020070 			; <UNDEFINED> instruction: 0x46020070
    3c24:	00000053 	andeq	r0, r0, r3, asr r0
    3c28:	0e005001 	cdpeq	0, 0, cr5, cr0, cr1, {0}
    3c2c:	001b0501 	andseq	r0, fp, r1, lsl #10
    3c30:	014c0200 	mrseq	r0, SPSR
    3c34:	00000053 	andeq	r0, r0, r3, asr r0
    3c38:	f00019cc 			; <UNDEFINED> instruction: 0xf00019cc
    3c3c:	f00019f0 			; <UNDEFINED> instruction: 0xf00019f0
    3c40:	00000d4d 	andeq	r0, r0, sp, asr #26
    3c44:	00000231 	andeq	r0, r0, r1, lsr r2
    3c48:	6c61760f 	stclvs	6, cr7, [r1], #-60	; 0xffffffc4
    3c4c:	024c0200 	subeq	r0, ip, #0, 4
    3c50:	6d000001 	stcvs	0, cr0, [r0, #-4]
    3c54:	1000000d 	andne	r0, r0, sp
    3c58:	00706d74 	rsbseq	r6, r0, r4, ror sp
    3c5c:	00534e02 	subseq	r4, r3, r2, lsl #28
    3c60:	50010000 	andpl	r0, r1, r0
    3c64:	4a011100 	bmi	4806c <__standby_start+0x4806c>
    3c68:	0200001c 	andeq	r0, r0, #28
    3c6c:	00530154 	subseq	r0, r3, r4, asr r1
    3c70:	19f00000 	ldmibne	r0!, {}^	; <UNPREDICTABLE>
    3c74:	19f8f000 	ldmibne	r8!, {ip, sp, lr, pc}^
    3c78:	7d02f000 	stcvc	0, cr15, [r2, #-0]
    3c7c:	00025b00 	andeq	r5, r2, r0, lsl #22
    3c80:	21300900 	teqcs	r0, r0, lsl #18
    3c84:	56020000 	strpl	r0, [r2], -r0
    3c88:	00000053 	andeq	r0, r0, r3, asr r0
    3c8c:	12005001 	andne	r5, r0, #1
    3c90:	001b8201 	andseq	r8, fp, r1, lsl #4
    3c94:	015c0200 	cmpeq	ip, r0, lsl #4
    3c98:	f00019f8 			; <UNDEFINED> instruction: 0xf00019f8
    3c9c:	f0001a14 			; <UNDEFINED> instruction: 0xf0001a14
    3ca0:	0b007d02 	bleq	230b0 <__standby_start+0x230b0>
    3ca4:	001c1401 	andseq	r1, ip, r1, lsl #8
    3ca8:	01660200 	cmneq	r6, r0, lsl #4
    3cac:	f0001a14 			; <UNDEFINED> instruction: 0xf0001a14
    3cb0:	f0001a40 			; <UNDEFINED> instruction: 0xf0001a40
    3cb4:	b3007d02 	movwlt	r7, #3330	; 0xd02
    3cb8:	06000002 	streq	r0, [r0], -r2
    3cbc:	00001b9c 	muleq	r0, ip, fp
    3cc0:	00536602 	subseq	r6, r3, r2, lsl #12
    3cc4:	0d8c0000 	stceq	0, cr0, [ip]
    3cc8:	f6130000 			; <UNDEFINED> instruction: 0xf6130000
    3ccc:	0200001a 	andeq	r0, r0, #26
    3cd0:	00005366 	andeq	r5, r0, r6, ror #6
    3cd4:	07510100 	ldrbeq	r0, [r1, -r0, lsl #2]
    3cd8:	00002130 	andeq	r2, r0, r0, lsr r1
    3cdc:	00536902 	subseq	r6, r3, r2, lsl #18
    3ce0:	0d9f0000 	ldceq	0, cr0, [pc]	; 3ce8 <__standby_start+0x3ce8>
    3ce4:	12000000 	andne	r0, r0, #0
    3ce8:	001ac601 	andseq	ip, sl, r1, lsl #12
    3cec:	01840200 	orreq	r0, r4, r0, lsl #4
    3cf0:	f0001a40 			; <UNDEFINED> instruction: 0xf0001a40
    3cf4:	f0001a60 			; <UNDEFINED> instruction: 0xf0001a60
    3cf8:	0b007d02 	bleq	23108 <__standby_start+0x23108>
    3cfc:	001b2101 	andseq	r2, fp, r1, lsl #2
    3d00:	018f0200 	orreq	r0, pc, r0, lsl #4
    3d04:	f0001a60 			; <UNDEFINED> instruction: 0xf0001a60
    3d08:	f0001a74 			; <UNDEFINED> instruction: 0xf0001a74
    3d0c:	ef007d02 	svc	0x00007d02
    3d10:	07000002 	streq	r0, [r0, -r2]
    3d14:	00002130 	andeq	r2, r0, r0, lsr r1
    3d18:	00539102 	subseq	r9, r3, r2, lsl #2
    3d1c:	0de80000 	stcleq	0, cr0, [r8]
    3d20:	08000000 	stmdaeq	r0, {}	; <UNPREDICTABLE>
    3d24:	001ab301 	andseq	fp, sl, r1, lsl #6
    3d28:	019a0200 	orrseq	r0, sl, r0, lsl #4
    3d2c:	f0001a74 			; <UNDEFINED> instruction: 0xf0001a74
    3d30:	f0001b5c 			; <UNDEFINED> instruction: 0xf0001b5c
    3d34:	00000e08 	andeq	r0, r0, r8, lsl #28
    3d38:	00000381 	andeq	r0, r0, r1, lsl #7
    3d3c:	001be006 	andseq	lr, fp, r6
    3d40:	539a0200 	orrspl	r0, sl, #0, 4
    3d44:	28000000 	stmdacs	r0, {}	; <UNPREDICTABLE>
    3d48:	0700000e 	streq	r0, [r0, -lr]
    3d4c:	00001c38 	andeq	r1, r0, r8, lsr ip
    3d50:	00539c02 	subseq	r9, r3, r2, lsl #24
    3d54:	0e3b0000 	cdpeq	0, 3, cr0, cr11, cr0, {0}
    3d58:	26070000 	strcs	r0, [r7], -r0
    3d5c:	0200001c 	andeq	r0, r0, #28
    3d60:	0000539d 	muleq	r0, sp, r3
    3d64:	000e6000 	andeq	r6, lr, r0
    3d68:	1c2f0700 	stcne	7, cr0, [pc], #-0	; 3d70 <__standby_start+0x3d70>
    3d6c:	9e020000 	cdpls	0, 0, cr0, cr2, cr0, {0}
    3d70:	00000053 	andeq	r0, r0, r3, asr r0
    3d74:	00000e87 	andeq	r0, r0, r7, lsl #29
    3d78:	001c4107 	andseq	r4, ip, r7, lsl #2
    3d7c:	539f0200 	orrspl	r0, pc, #0, 4
    3d80:	b7000000 	strlt	r0, [r0, -r0]
    3d84:	0700000e 	streq	r0, [r0, -lr]
    3d88:	000001ca 	andeq	r0, r0, sl, asr #3
    3d8c:	0053a002 	subseq	sl, r3, r2
    3d90:	0ee70000 	cdpeq	0, 14, cr0, cr7, cr0, {0}
    3d94:	7a070000 	bvc	1c3d9c <__standby_start+0x1c3d9c>
    3d98:	0200001b 	andeq	r0, r0, #27
    3d9c:	000053a1 	andeq	r5, r0, r1, lsr #7
    3da0:	000f1100 	andeq	r1, pc, r0, lsl #2
    3da4:	16410700 	strbne	r0, [r1], -r0, lsl #14
    3da8:	a2020000 	andge	r0, r2, #0
    3dac:	00000102 	andeq	r0, r0, r2, lsl #2
    3db0:	00000f30 	andeq	r0, r0, r0, lsr pc
    3db4:	e4010800 	str	r0, [r1], #-2048	; 0xfffff800
    3db8:	0200001a 	andeq	r0, r0, #26
    3dbc:	1b5c01cf 	blne	1704500 <__standby_start+0x1704500>
    3dc0:	1bb0f000 	blne	fec3fdc8 <__bss_end+0xec3d4ec>
    3dc4:	0f72f000 	svceq	0x0072f000
    3dc8:	03d60000 	bicseq	r0, r6, #0
    3dcc:	750f0000 	strvc	r0, [pc, #-0]	; 3dd4 <__standby_start+0x3dd4>
    3dd0:	cf020073 	svcgt	0x00020073
    3dd4:	00000053 	andeq	r0, r0, r3, asr r0
    3dd8:	00000f92 	muleq	r0, r2, pc	; <UNPREDICTABLE>
    3ddc:	001b9507 	andseq	r9, fp, r7, lsl #10
    3de0:	53d10200 	bicspl	r0, r1, #0, 4
    3de4:	b0000000 	andlt	r0, r0, r0
    3de8:	1400000f 	strne	r0, [r0], #-15
    3dec:	00727563 	rsbseq	r7, r2, r3, ror #10
    3df0:	0053d202 	subseq	sp, r3, r2, lsl #4
    3df4:	0ff40000 	svceq	0x00f40000
    3df8:	9f070000 	svcls	0x00070000
    3dfc:	0200001a 	andeq	r0, r0, #26
    3e00:	000053d3 	ldrdeq	r5, [r0], -r3
    3e04:	00101e00 	andseq	r1, r0, r0, lsl #28
    3e08:	01150000 	tsteq	r5, r0
    3e0c:	00001a70 	andeq	r1, r0, r0, ror sl
    3e10:	01010602 	tsteq	r1, r2, lsl #12
    3e14:	f0001bb0 			; <UNDEFINED> instruction: 0xf0001bb0
    3e18:	f0001bbc 			; <UNDEFINED> instruction: 0xf0001bbc
    3e1c:	ff007d02 			; <UNDEFINED> instruction: 0xff007d02
    3e20:	16000003 	strne	r0, [r0], -r3
    3e24:	0200736d 	andeq	r7, r0, #-1275068415	; 0xb4000001
    3e28:	00530106 	subseq	r0, r3, r6, lsl #2
    3e2c:	103d0000 	eorsne	r0, sp, r0
    3e30:	17000000 	strne	r0, [r0, -r0]
    3e34:	001be901 	andseq	lr, fp, r1, lsl #18
    3e38:	01100200 	tsteq	r0, r0, lsl #4
    3e3c:	001bbc01 	andseq	fp, fp, r1, lsl #24
    3e40:	001bd4f0 			; <UNDEFINED> instruction: 0x001bd4f0
    3e44:	007d02f0 	ldrshteq	r0, [sp], #-32	; 0xffffffe0
    3e48:	1aa60115 	bne	fe9842a4 <__bss_end+0xe9819c8>
    3e4c:	18020000 	stmdane	r2, {}	; <UNPREDICTABLE>
    3e50:	1bd40101 	blne	ff50425c <__bss_end+0xf501980>
    3e54:	1becf000 	blne	ffb3fe5c <__bss_end+0xfb3d580>
    3e58:	7d02f000 	stcvc	0, cr15, [r2, #-0]
    3e5c:	00043e00 	andeq	r3, r4, r0, lsl #28
    3e60:	16631800 	strbtne	r1, [r3], -r0, lsl #16
    3e64:	1a020000 	bne	83e6c <__standby_start+0x83e6c>
    3e68:	00005301 	andeq	r5, r0, r1, lsl #6
    3e6c:	00105000 	andseq	r5, r0, r0
    3e70:	01150000 	tsteq	r5, r0
    3e74:	00001bd4 	ldrdeq	r1, [r0], -r4
    3e78:	01012402 	tsteq	r1, r2, lsl #8
    3e7c:	f0001bec 			; <UNDEFINED> instruction: 0xf0001bec
    3e80:	f0001c04 			; <UNDEFINED> instruction: 0xf0001c04
    3e84:	68007d02 	stmdavs	r0, {r1, r8, sl, fp, ip, sp, lr}
    3e88:	18000004 	stmdane	r0, {r2}
    3e8c:	00001663 	andeq	r1, r0, r3, ror #12
    3e90:	53012602 	movwpl	r2, #5634	; 0x1602
    3e94:	6e000000 	cdpvs	0, 0, cr0, cr0, cr0, {0}
    3e98:	00000010 	andeq	r0, r0, r0, lsl r0
    3e9c:	1b450119 	blne	1144308 <__standby_start+0x1144308>
    3ea0:	33020000 	movwcc	r0, #8192	; 0x2000
    3ea4:	1c040101 	stfnes	f0, [r4], {1}
    3ea8:	1c38f000 	ldcne	0, cr15, [r8], #-0
    3eac:	108cf000 	addne	pc, ip, r0
    3eb0:	04a30000 	strteq	r0, [r3], #0
    3eb4:	6e160000 	cdpvs	0, 1, cr0, cr6, cr0, {0}
    3eb8:	02006d75 	andeq	r6, r0, #7488	; 0x1d40
    3ebc:	004c0133 	subeq	r0, ip, r3, lsr r1
    3ec0:	10ac0000 	adcne	r0, ip, r0
    3ec4:	63180000 	tstvs	r8, #0
    3ec8:	02000016 	andeq	r0, r0, #22
    3ecc:	00530135 	subseq	r0, r3, r5, lsr r1
    3ed0:	10bf0000 	adcsne	r0, pc, r0
    3ed4:	09000000 	stmdbeq	r0, {}	; <UNPREDICTABLE>
    3ed8:	00001c0b 	andeq	r1, r0, fp, lsl #24
    3edc:	00530402 	subseq	r0, r3, r2, lsl #8
    3ee0:	03050000 	movweq	r0, #20480	; 0x5000
    3ee4:	f00028c0 			; <UNDEFINED> instruction: 0xf00028c0
    3ee8:	001aed09 	andseq	lr, sl, r9, lsl #26
    3eec:	53050200 	movwpl	r0, #20992	; 0x5200
    3ef0:	05000000 	streq	r0, [r0, #-0]
    3ef4:	0028bc03 	eoreq	fp, r8, r3, lsl #24
    3ef8:	1bb709f0 	blne	fedc66c0 <__bss_end+0xedc3de4>
    3efc:	06020000 	streq	r0, [r2], -r0
    3f00:	00000053 	andeq	r0, r0, r3, asr r0
    3f04:	28b40305 	ldmcs	r4!, {r0, r2, r8, r9}
    3f08:	4d09f000 	stcmi	0, cr15, [r9, #-0]
    3f0c:	0200001b 	andeq	r0, r0, #27
    3f10:	00005307 	andeq	r5, r0, r7, lsl #6
    3f14:	b8030500 	stmdalt	r3, {r8, sl}
    3f18:	00f00028 	rscseq	r0, r0, r8, lsr #32
    3f1c:	0000054f 	andeq	r0, r0, pc, asr #10
    3f20:	0c790002 	ldcleq	0, cr0, [r9], #-8
    3f24:	01040000 	tsteq	r4, r0
    3f28:	00000328 	andeq	r0, r0, r8, lsr #6
    3f2c:	001e3801 	andseq	r3, lr, r1, lsl #16
    3f30:	0002ba00 	andeq	fp, r2, r0, lsl #20
    3f34:	001c3800 	andseq	r3, ip, r0, lsl #16
    3f38:	002018f0 	strdeq	r1, [r0], -r0	; <UNPREDICTABLE>
    3f3c:	000a56f0 	strdeq	r5, [sl], -r0
    3f40:	05040200 	streq	r0, [r4, #-512]	; 0xfffffe00
    3f44:	0000016e 	andeq	r0, r0, lr, ror #2
    3f48:	2a070402 	bcs	1c4f58 <__standby_start+0x1c4f58>
    3f4c:	02000002 	andeq	r0, r0, #2
    3f50:	02250704 	eoreq	r0, r5, #4, 14	; 0x100000
    3f54:	02020000 	andeq	r0, r2, #0
    3f58:	00028c07 	andeq	r8, r2, r7, lsl #24
    3f5c:	08010200 	stmdaeq	r1, {r9}
    3f60:	000001af 	andeq	r0, r0, pc, lsr #3
    3f64:	a6080102 	strge	r0, [r8], -r2, lsl #2
    3f68:	03000001 	movweq	r0, #1
    3f6c:	6e690504 	cdpvs	5, 6, cr0, cr9, cr4, {0}
    3f70:	01020074 	tsteq	r2, r4, ror r0
    3f74:	0001a806 	andeq	sl, r1, r6, lsl #16
    3f78:	05020200 	streq	r0, [r2, #-512]	; 0xfffffe00
    3f7c:	000001da 	ldrdeq	r0, [r0], -sl
    3f80:	000dd704 	andeq	sp, sp, r4, lsl #14
    3f84:	4f190200 	svcmi	0x00190200
    3f88:	04000000 	streq	r0, [r0], #-0
    3f8c:	0000013a 	andeq	r0, r0, sl, lsr r1
    3f90:	002c1a02 	eoreq	r1, ip, r2, lsl #20
    3f94:	08020000 	stmdaeq	r2, {}	; <UNPREDICTABLE>
    3f98:	00016905 	andeq	r6, r1, r5, lsl #18
    3f9c:	07080200 	streq	r0, [r8, -r0, lsl #4]
    3fa0:	00000220 	andeq	r0, r0, r0, lsr #4
    3fa4:	1d940105 	ldfnes	f0, [r4, #20]
    3fa8:	1e010000 	cdpne	0, 0, cr0, cr1, cr0, {0}
    3fac:	001c3801 	andseq	r3, ip, r1, lsl #16
    3fb0:	001c64f0 			; <UNDEFINED> instruction: 0x001c64f0
    3fb4:	007d02f0 	ldrshteq	r0, [sp], #-32	; 0xffffffe0
    3fb8:	000000b9 	strheq	r0, [r0], -r9
    3fbc:	01006906 	tsteq	r0, r6, lsl #18
    3fc0:	00006f20 	andeq	r6, r0, r0, lsr #30
    3fc4:	16410700 	strbne	r0, [r1], -r0, lsl #14
    3fc8:	21010000 	tstcs	r1, r0
    3fcc:	0000006f 	andeq	r0, r0, pc, rrx
    3fd0:	000010e8 	andeq	r1, r0, r8, ror #1
    3fd4:	87010500 	strhi	r0, [r1, -r0, lsl #10]
    3fd8:	0100001c 	tsteq	r0, ip, lsl r0
    3fdc:	1c64014b 	stfnee	f0, [r4], #-300	; 0xfffffed4
    3fe0:	1c90f000 	ldcne	0, cr15, [r0], {0}
    3fe4:	7d02f000 	stcvc	0, cr15, [r2, #-0]
    3fe8:	0000ea00 	andeq	lr, r0, r0, lsl #20
    3fec:	00690600 	rsbeq	r0, r9, r0, lsl #12
    3ff0:	006f4d01 	rsbeq	r4, pc, r1, lsl #26
    3ff4:	41070000 	tstmi	r7, r0
    3ff8:	01000016 	tsteq	r0, r6, lsl r0
    3ffc:	00006f4e 	andeq	r6, r0, lr, asr #30
    4000:	00111d00 	andseq	r1, r1, r0, lsl #26
    4004:	01050000 	tsteq	r5, r0
    4008:	00001e44 	andeq	r1, r0, r4, asr #28
    400c:	90018301 	andls	r8, r1, r1, lsl #6
    4010:	bcf0001c 	ldcllt	0, cr0, [r0], #112	; 0x70
    4014:	02f0001c 	rscseq	r0, r0, #28
    4018:	011b007d 	tsteq	fp, sp, ror r0
    401c:	69060000 	stmdbvs	r6, {}	; <UNPREDICTABLE>
    4020:	6f850100 	svcvs	0x00850100
    4024:	07000000 	streq	r0, [r0, -r0]
    4028:	00001641 	andeq	r1, r0, r1, asr #12
    402c:	006f8601 	rsbeq	r8, pc, r1, lsl #12
    4030:	11520000 	cmpne	r2, r0
    4034:	08000000 	stmdaeq	r0, {}	; <UNPREDICTABLE>
    4038:	001da701 	andseq	sl, sp, r1, lsl #14
    403c:	01920100 	orrseq	r0, r2, r0, lsl #2
    4040:	f0001cbc 			; <UNDEFINED> instruction: 0xf0001cbc
    4044:	f0001cc0 			; <UNDEFINED> instruction: 0xf0001cc0
    4048:	05007d02 	streq	r7, [r0, #-3330]	; 0xfffff2fe
    404c:	001d7e01 	andseq	r7, sp, r1, lsl #28
    4050:	01a60100 			; <UNDEFINED> instruction: 0x01a60100
    4054:	f0001cc0 			; <UNDEFINED> instruction: 0xf0001cc0
    4058:	f0001ce8 			; <UNDEFINED> instruction: 0xf0001ce8
    405c:	70007d02 	andvc	r7, r0, r2, lsl #26
    4060:	09000001 	stmdbeq	r0, {r0}
    4064:	00001ec0 	andeq	r1, r0, r0, asr #29
    4068:	006fa601 	rsbeq	sl, pc, r1, lsl #12
    406c:	50010000 	andpl	r0, r1, r0
    4070:	006e6f0a 	rsbeq	r6, lr, sl, lsl #30
    4074:	006fa601 	rsbeq	sl, pc, r1, lsl #12
    4078:	51010000 	tstpl	r1, r0
    407c:	00164107 	andseq	r4, r6, r7, lsl #2
    4080:	6fa80100 	svcvs	0x00a80100
    4084:	87000000 	strhi	r0, [r0, -r0]
    4088:	00000011 	andeq	r0, r0, r1, lsl r0
    408c:	1cce010b 	stfnee	f0, [lr], {11}
    4090:	5a010000 	bpl	44098 <__standby_start+0x44098>
    4094:	001ce801 	andseq	lr, ip, r1, lsl #16
    4098:	001d4cf0 			; <UNDEFINED> instruction: 0x001d4cf0
    409c:	0011b0f0 	ldrsheq	fp, [r1], -r0
    40a0:	0001a600 	andeq	sl, r1, r0, lsl #12
    40a4:	00690c00 	rsbeq	r0, r9, r0, lsl #24
    40a8:	006f5c01 	rsbeq	r5, pc, r1, lsl #24
    40ac:	11d00000 	bicsne	r0, r0, r0
    40b0:	41070000 	tstmi	r7, r0
    40b4:	01000016 	tsteq	r0, r6, lsl r0
    40b8:	00006f5d 	andeq	r6, r0, sp, asr pc
    40bc:	0011ef00 	andseq	lr, r1, r0, lsl #30
    40c0:	010b0000 	tsteq	fp, r0
    40c4:	00001d06 	andeq	r1, r0, r6, lsl #26
    40c8:	4c012d01 	stcmi	13, cr2, [r1], {1}
    40cc:	acf0001d 	ldclge	0, cr0, [r0], #116	; 0x74
    40d0:	3af0001d 	bcc	ffc0414c <__bss_end+0xfc01870>
    40d4:	dc000012 	stcle	0, cr0, [r0], {18}
    40d8:	0c000001 	stceq	0, cr0, [r0], {1}
    40dc:	2f010069 	svccs	0x00010069
    40e0:	0000006f 	andeq	r0, r0, pc, rrx
    40e4:	0000125a 	andeq	r1, r0, sl, asr r2
    40e8:	00164107 	andseq	r4, r6, r7, lsl #2
    40ec:	6f300100 	svcvs	0x00300100
    40f0:	79000000 	stmdbvc	r0, {}	; <UNPREDICTABLE>
    40f4:	00000012 	andeq	r0, r0, r2, lsl r0
    40f8:	1d59010d 	ldfnee	f0, [r9, #-52]	; 0xffffffcc
    40fc:	c2010000 	andgt	r0, r1, #0
    4100:	00006f01 	andeq	r6, r0, r1, lsl #30
    4104:	001dac00 	andseq	sl, sp, r0, lsl #24
    4108:	001dccf0 			; <UNDEFINED> instruction: 0x001dccf0
    410c:	007d02f0 	ldrshteq	r0, [sp], #-32	; 0xffffffe0
    4110:	00000215 	andeq	r0, r0, r5, lsl r2
    4114:	001ec00e 	andseq	ip, lr, lr
    4118:	6fc20100 	svcvs	0x00c20100
    411c:	ae000000 	cdpge	0, 0, cr0, cr0, cr0, {0}
    4120:	0f000012 	svceq	0x00000012
    4124:	00001641 	andeq	r1, r0, r1, asr #12
    4128:	006fc401 	rsbeq	ip, pc, r1, lsl #8
    412c:	53010000 	movwpl	r0, #4096	; 0x1000
    4130:	72010b00 	andvc	r0, r1, #0, 22
    4134:	0100001c 	tsteq	r0, ip, lsl r0
    4138:	1dcc01df 	stfnee	f0, [ip, #892]	; 0x37c
    413c:	1e14f000 	cdpne	0, 1, cr15, cr4, cr0, {0}
    4140:	12c1f000 	sbcne	pc, r1, #0
    4144:	02780000 	rsbseq	r0, r8, #0
    4148:	c0090000 	andgt	r0, r9, r0
    414c:	0100001e 	tsteq	r0, lr, lsl r0
    4150:	00006fdf 	ldrdeq	r6, [r0], -pc	; <UNPREDICTABLE>
    4154:	0e500100 	rdfeqs	f0, f0, f0
    4158:	00001cb6 			; <UNDEFINED> instruction: 0x00001cb6
    415c:	006fdf01 	rsbeq	sp, pc, r1, lsl #30
    4160:	12e10000 	rscne	r0, r1, #0
    4164:	910e0000 	tstls	lr, r0
    4168:	0100001e 	tsteq	r0, lr, lsl r0
    416c:	00006fdf 	ldrdeq	r6, [r0], -pc	; <UNPREDICTABLE>
    4170:	0012f400 	andseq	pc, r2, r0, lsl #8
    4174:	1cae0e00 	stcne	14, cr0, [lr]
    4178:	df010000 	svcle	0x00010000
    417c:	0000006f 	andeq	r0, r0, pc, rrx
    4180:	00001307 	andeq	r1, r0, r7, lsl #6
    4184:	00164107 	andseq	r4, r6, r7, lsl #2
    4188:	6fe10100 	svcvs	0x00e10100
    418c:	1a000000 	bne	4194 <__standby_start+0x4194>
    4190:	00000013 	andeq	r0, r0, r3, lsl r0
    4194:	1e720110 	mrcne	1, 3, r0, cr2, cr0, {0}
    4198:	fc010000 	stc2	0, cr0, [r1], {-0}
    419c:	00006f01 	andeq	r6, r0, r1, lsl #30
    41a0:	001e1400 	andseq	r1, lr, r0, lsl #8
    41a4:	001e44f0 			; <UNDEFINED> instruction: 0x001e44f0
    41a8:	00136ff0 			; <UNDEFINED> instruction: 0x00136ff0
    41ac:	0002ae00 	andeq	sl, r2, r0, lsl #28
    41b0:	00690600 	rsbeq	r0, r9, r0, lsl #12
    41b4:	006ffe01 	rsbeq	pc, pc, r1, lsl #28
    41b8:	41070000 	tstmi	r7, r0
    41bc:	01000016 	tsteq	r0, r6, lsl r0
    41c0:	00006fff 	strdeq	r6, [r0], -pc	; <UNPREDICTABLE>
    41c4:	00138f00 	andseq	r8, r3, r0, lsl #30
    41c8:	01110000 	tsteq	r1, r0
    41cc:	00001cf5 	strdeq	r1, [r0], -r5
    41d0:	01010b01 	tsteq	r1, r1, lsl #22
    41d4:	00000064 	andeq	r0, r0, r4, rrx
    41d8:	f0001e44 			; <UNDEFINED> instruction: 0xf0001e44
    41dc:	f0001fe0 			; <UNDEFINED> instruction: 0xf0001fe0
    41e0:	000013c3 	andeq	r1, r0, r3, asr #7
    41e4:	0000040b 	andeq	r0, r0, fp, lsl #8
    41e8:	01006912 	tsteq	r0, r2, lsl r9
    41ec:	006f010d 	rsbeq	r0, pc, sp, lsl #2
    41f0:	41130000 	tstmi	r3, r0
    41f4:	01000016 	tsteq	r0, r6, lsl r0
    41f8:	006f010e 	rsbeq	r0, pc, lr, lsl #2
    41fc:	13f00000 	mvnsne	r0, #0
    4200:	a1130000 	tstge	r3, r0
    4204:	0100001e 	tsteq	r0, lr, lsl r0
    4208:	006f010f 	rsbeq	r0, pc, pc, lsl #2
    420c:	14590000 	ldrbne	r0, [r9], #-0
    4210:	e5130000 	ldr	r0, [r3, #-0]
    4214:	0100001c 	tsteq	r0, ip, lsl r0
    4218:	006f0110 	rsbeq	r0, pc, r0, lsl r1	; <UNPREDICTABLE>
    421c:	14770000 	ldrbtne	r0, [r7], #-0
    4220:	ed130000 	ldc	0, cr0, [r3, #-0]
    4224:	0100001c 	tsteq	r0, ip, lsl r0
    4228:	006f0110 	rsbeq	r0, pc, r0, lsl r1	; <UNPREDICTABLE>
    422c:	14970000 	ldrne	r0, [r7], #0
    4230:	bd140000 	ldclt	0, cr0, [r4, #-0]
    4234:	0100001d 	tsteq	r0, sp, lsl r0
    4238:	006f0110 	rsbeq	r0, pc, r0, lsl r1	; <UNPREDICTABLE>
    423c:	5b010000 	blpl	44244 <__standby_start+0x44244>
    4240:	001dc614 	andseq	ip, sp, r4, lsl r6
    4244:	01100100 	tsteq	r0, r0, lsl #2
    4248:	0000006f 	andeq	r0, r0, pc, rrx
    424c:	cf145901 	svcgt	0x00145901
    4250:	0100001d 	tsteq	r0, sp, lsl r0
    4254:	006f0110 	rsbeq	r0, pc, r0, lsl r1	; <UNPREDICTABLE>
    4258:	5a010000 	bpl	44260 <__standby_start+0x44260>
    425c:	001dd813 	andseq	sp, sp, r3, lsl r8
    4260:	01100100 	tsteq	r0, r0, lsl #2
    4264:	0000006f 	andeq	r0, r0, pc, rrx
    4268:	000014b7 			; <UNDEFINED> instruction: 0x000014b7
    426c:	001e3114 	andseq	r3, lr, r4, lsl r1
    4270:	01100100 	tsteq	r0, r0, lsl #2
    4274:	0000006f 	andeq	r0, r0, pc, rrx
    4278:	5b145801 	blpl	51a284 <__standby_start+0x51a284>
    427c:	0100001e 	tsteq	r0, lr, lsl r0
    4280:	006f0110 	rsbeq	r0, pc, r0, lsl r1	; <UNPREDICTABLE>
    4284:	57010000 	strpl	r0, [r1, -r0]
    4288:	001ede14 	andseq	sp, lr, r4, lsl lr
    428c:	01100100 	tsteq	r0, r0, lsl #2
    4290:	0000006f 	andeq	r0, r0, pc, rrx
    4294:	e7135601 	ldr	r5, [r3, -r1, lsl #12]
    4298:	0100001e 	tsteq	r0, lr, lsl r0
    429c:	006f0110 	rsbeq	r0, pc, r0, lsl r1	; <UNPREDICTABLE>
    42a0:	14f80000 	ldrbtne	r0, [r8], #0
    42a4:	4f140000 	svcmi	0x00140000
    42a8:	0100001d 	tsteq	r0, sp, lsl r0
    42ac:	006f0111 	rsbeq	r0, pc, r1, lsl r1	; <UNPREDICTABLE>
    42b0:	55010000 	strpl	r0, [r1, #-0]
    42b4:	001c6913 	andseq	r6, ip, r3, lsl r9
    42b8:	01110100 	tsteq	r1, r0, lsl #2
    42bc:	0000006f 	andeq	r0, r0, pc, rrx
    42c0:	00001518 	andeq	r1, r0, r8, lsl r5
    42c4:	001d3213 	andseq	r3, sp, r3, lsl r2
    42c8:	01110100 	tsteq	r1, r0, lsl #2
    42cc:	0000006f 	andeq	r0, r0, pc, rrx
    42d0:	00001537 	andeq	r1, r0, r7, lsr r5
    42d4:	001cc513 	andseq	ip, ip, r3, lsl r5
    42d8:	01110100 	tsteq	r1, r0, lsl #2
    42dc:	0000006f 	andeq	r0, r0, pc, rrx
    42e0:	00001556 	andeq	r1, r0, r6, asr r5
    42e4:	001ed415 	andseq	sp, lr, r5, lsl r4
    42e8:	001fd0f0 	ldrsheq	sp, [pc], -r0
    42ec:	630116f0 	movwvs	r1, #5872	; 0x16f0
    42f0:	0100001e 	tsteq	r0, lr, lsl r0
    42f4:	004f0128 	subeq	r0, pc, r8, lsr #2
    42f8:	e5010000 	str	r0, [r1, #-0]
    42fc:	17000003 	strne	r0, [r0, -r3]
    4300:	81011600 	tsthi	r1, r0, lsl #12
    4304:	0100001e 	tsteq	r0, lr, lsl r0
    4308:	004f0143 	subeq	r0, pc, r3, asr #2
    430c:	f9010000 			; <UNDEFINED> instruction: 0xf9010000
    4310:	17000003 	strne	r0, [r0, -r3]
    4314:	96011800 	strls	r1, [r1], -r0, lsl #16
    4318:	0100001c 	tsteq	r0, ip, lsl r0
    431c:	004f016a 	subeq	r0, pc, sl, ror #2
    4320:	17010000 	strne	r0, [r1, -r0]
    4324:	11000000 	tstne	r0, r0
    4328:	00014001 	andeq	r4, r1, r1
    432c:	01710100 	cmneq	r1, r0, lsl #2
    4330:	00006401 	andeq	r6, r0, r1, lsl #8
    4334:	001fe000 	andseq	lr, pc, r0
    4338:	001ff8f0 			; <UNDEFINED> instruction: 0x001ff8f0
    433c:	00156af0 			; <UNDEFINED> instruction: 0x00156af0
    4340:	00043600 	andeq	r3, r4, r0, lsl #12
    4344:	16411900 	strbne	r1, [r1], -r0, lsl #18
    4348:	73010000 	movwvc	r0, #4096	; 0x1000
    434c:	00006f01 	andeq	r6, r0, r1, lsl #30
    4350:	011a0000 	tsteq	sl, r0
    4354:	000000c0 	andeq	r0, r0, r0, asr #1
    4358:	01018001 	tsteq	r1, r1
    435c:	0000006f 	andeq	r0, r0, pc, rrx
    4360:	f0001ff8 			; <UNDEFINED> instruction: 0xf0001ff8
    4364:	f0001ffc 			; <UNDEFINED> instruction: 0xf0001ffc
    4368:	1b007d02 	blne	23778 <__standby_start+0x23778>
    436c:	001ea901 	andseq	sl, lr, r1, lsl #18
    4370:	01860100 	orreq	r0, r6, r0, lsl #2
    4374:	001ffc01 	andseq	pc, pc, r1, lsl #24
    4378:	002000f0 	strdeq	r0, [r0], -r0	; <UNPREDICTABLE>
    437c:	007d02f0 	ldrshteq	r0, [sp], #-32	; 0xffffffe0
    4380:	1e05011b 	mcrne	1, 0, r0, cr5, cr11, {0}
    4384:	8c010000 	stchi	0, cr0, [r1], {-0}
    4388:	20000101 	andcs	r0, r0, r1, lsl #2
    438c:	2004f000 	andcs	pc, r4, r0
    4390:	7d02f000 	stcvc	0, cr15, [r2, #-0]
    4394:	1b011b00 	blne	4af9c <__standby_start+0x4af9c>
    4398:	0100001e 	tsteq	r0, lr, lsl r0
    439c:	04010192 	streq	r0, [r1], #-402	; 0xfffffe6e
    43a0:	08f00020 	ldmeq	r0!, {r5}^
    43a4:	02f00020 	rscseq	r0, r0, #32
    43a8:	011b007d 	tsteq	fp, sp, ror r0
    43ac:	00001ec9 	andeq	r1, r0, r9, asr #29
    43b0:	01019801 	tsteq	r1, r1, lsl #16
    43b4:	f0002008 			; <UNDEFINED> instruction: 0xf0002008
    43b8:	f000200c 			; <UNDEFINED> instruction: 0xf000200c
    43bc:	1c007d02 	stcne	13, cr7, [r0], {2}
    43c0:	001d3a01 	andseq	r3, sp, r1, lsl #20
    43c4:	019e0100 	orrseq	r0, lr, r0, lsl #2
    43c8:	00200c01 	eoreq	r0, r0, r1, lsl #24
    43cc:	002010f0 	strdeq	r1, [r0], -r0	; <UNPREDICTABLE>
    43d0:	007d02f0 	ldrshteq	r0, [sp], #-32	; 0xffffffe0
    43d4:	000004d8 	ldrdeq	r0, [r0], -r8
    43d8:	001ec01d 	andseq	ip, lr, sp, lsl r0
    43dc:	019e0100 	orrseq	r0, lr, r0, lsl #2
    43e0:	0000006f 	andeq	r0, r0, pc, rrx
    43e4:	6f1e5001 	svcvs	0x001e5001
    43e8:	9e01006e 	cdpls	0, 0, cr0, cr1, cr14, {3}
    43ec:	00006f01 	andeq	r6, r0, r1, lsl #30
    43f0:	00510100 	subseq	r0, r1, r0, lsl #2
    43f4:	1de1011f 	stfnee	f0, [r1, #124]!	; 0x7c
    43f8:	a4010000 	strge	r0, [r1], #-0
    43fc:	006f0101 	rsbeq	r0, pc, r1, lsl #2
    4400:	20100000 	andscs	r0, r0, r0
    4404:	2014f000 	andscs	pc, r4, r0
    4408:	7d02f000 	stcvc	0, cr15, [r2, #-0]
    440c:	00050400 	andeq	r0, r5, r0, lsl #8
    4410:	1ec01d00 	cdpne	13, 12, cr1, cr0, cr0, {0}
    4414:	a4010000 	strge	r0, [r1], #-0
    4418:	00006f01 	andeq	r6, r0, r1, lsl #30
    441c:	00500100 	subseq	r0, r0, r0, lsl #2
    4420:	1d1e0120 	ldfnes	f0, [lr, #-128]	; 0xffffff80
    4424:	aa010000 	bge	4442c <__standby_start+0x4442c>
    4428:	20140101 	andscs	r0, r4, r1, lsl #2
    442c:	2018f000 	andscs	pc, r8, r0
    4430:	7d02f000 	stcvc	0, cr15, [r2, #-0]
    4434:	015c1d00 	cmpeq	ip, r0, lsl #26
    4438:	aa010000 	bge	44440 <__standby_start+0x44440>
    443c:	00006f01 	andeq	r6, r0, r1, lsl #30
    4440:	1d500100 	ldfnee	f0, [r0, #-0]
    4444:	00001ef0 	strdeq	r1, [r0], -r0
    4448:	6f01aa01 	svcvs	0x0001aa01
    444c:	01000000 	tsteq	r0, r0
    4450:	1e961d51 	mrcne	13, 4, r1, cr6, cr1, {2}
    4454:	aa010000 	bge	4445c <__standby_start+0x4445c>
    4458:	00006f01 	andeq	r6, r0, r1, lsl #30
    445c:	1d520100 	ldfnee	f0, [r2, #-0]
    4460:	00001cae 	andeq	r1, r0, lr, lsr #25
    4464:	6f01aa01 	svcvs	0x0001aa01
    4468:	01000000 	tsteq	r0, r0
    446c:	65000053 	strvs	r0, [r0, #-83]	; 0xffffffad
    4470:	02000006 	andeq	r0, r0, #6
    4474:	000e9e00 	andeq	r9, lr, r0, lsl #28
    4478:	28010400 	stmdacs	r1, {sl}
    447c:	01000003 	tsteq	r0, r3
    4480:	000020c2 	andeq	r2, r0, r2, asr #1
    4484:	000002ba 			; <UNDEFINED> instruction: 0x000002ba
    4488:	f0002018 			; <UNDEFINED> instruction: 0xf0002018
    448c:	f0002658 			; <UNDEFINED> instruction: 0xf0002658
    4490:	00000bdd 	ldrdeq	r0, [r0], -sp
    4494:	6e050402 	cdpvs	4, 0, cr0, cr5, cr2, {0}
    4498:	02000001 	andeq	r0, r0, #1
    449c:	022a0704 	eoreq	r0, sl, #4, 14	; 0x100000
    44a0:	04020000 	streq	r0, [r2], #-0
    44a4:	00022507 	andeq	r2, r2, r7, lsl #10
    44a8:	07020200 	streq	r0, [r2, -r0, lsl #4]
    44ac:	0000028c 	andeq	r0, r0, ip, lsl #5
    44b0:	af080102 	svcge	0x00080102
    44b4:	03000001 	movweq	r0, #1
    44b8:	00001f50 	andeq	r1, r0, r0, asr pc
    44bc:	6d190350 	ldcvs	3, cr0, [r9, #-320]	; 0xfffffec0
    44c0:	04000001 	streq	r0, [r0], #-1
    44c4:	000020b4 	strheq	r2, [r0], -r4
    44c8:	002c1b03 	eoreq	r1, ip, r3, lsl #22
    44cc:	23020000 	movwcs	r0, #8192	; 0x2000
    44d0:	21120400 	tstcs	r2, r0, lsl #8
    44d4:	1c030000 	stcne	0, cr0, [r3], {-0}
    44d8:	0000002c 	andeq	r0, r0, ip, lsr #32
    44dc:	04042302 	streq	r2, [r4], #-770	; 0xfffffcfe
    44e0:	00002158 	andeq	r2, r0, r8, asr r1
    44e4:	002c1d03 	eoreq	r1, ip, r3, lsl #26
    44e8:	23020000 	movwcs	r0, #8192	; 0x2000
    44ec:	20a60408 	adccs	r0, r6, r8, lsl #8
    44f0:	1e030000 	cdpne	0, 0, cr0, cr3, cr0, {0}
    44f4:	0000002c 	andeq	r0, r0, ip, lsr #32
    44f8:	040c2302 	streq	r2, [ip], #-770	; 0xfffffcfe
    44fc:	00002005 	andeq	r2, r0, r5
    4500:	002c1f03 	eoreq	r1, ip, r3, lsl #30
    4504:	23020000 	movwcs	r0, #8192	; 0x2000
    4508:	214a0410 	cmpcs	sl, r0, lsl r4
    450c:	20030000 	andcs	r0, r3, r0
    4510:	0000002c 	andeq	r0, r0, ip, lsr #32
    4514:	04142302 	ldreq	r2, [r4], #-770	; 0xfffffcfe
    4518:	0000207b 	andeq	r2, r0, fp, ror r0
    451c:	002c2103 	eoreq	r2, ip, r3, lsl #2
    4520:	23020000 	movwcs	r0, #8192	; 0x2000
    4524:	216a0418 	cmncs	sl, r8, lsl r4
    4528:	22030000 	andcs	r0, r3, #0
    452c:	0000002c 	andeq	r0, r0, ip, lsr #32
    4530:	041c2302 	ldreq	r2, [ip], #-770	; 0xfffffcfe
    4534:	000020ec 	andeq	r2, r0, ip, ror #1
    4538:	002c2303 	eoreq	r2, ip, r3, lsl #6
    453c:	23020000 	movwcs	r0, #8192	; 0x2000
    4540:	20330420 	eorscs	r0, r3, r0, lsr #8
    4544:	24030000 	strcs	r0, [r3], #-0
    4548:	0000002c 	andeq	r0, r0, ip, lsr #32
    454c:	04242302 	strteq	r2, [r4], #-770	; 0xfffffcfe
    4550:	00001f35 	andeq	r1, r0, r5, lsr pc
    4554:	002c2503 	eoreq	r2, ip, r3, lsl #10
    4558:	23020000 	movwcs	r0, #8192	; 0x2000
    455c:	1f850428 	svcne	0x00850428
    4560:	26030000 	strcs	r0, [r3], -r0
    4564:	0000002c 	andeq	r0, r0, ip, lsr #32
    4568:	042c2302 	strteq	r2, [ip], #-770	; 0xfffffcfe
    456c:	00001f8f 	andeq	r1, r0, pc, lsl #31
    4570:	002c2703 	eoreq	r2, ip, r3, lsl #14
    4574:	23020000 	movwcs	r0, #8192	; 0x2000
    4578:	1f990430 	svcne	0x00990430
    457c:	28030000 	stmdacs	r3, {}	; <UNPREDICTABLE>
    4580:	0000002c 	andeq	r0, r0, ip, lsr #32
    4584:	04342302 	ldrteq	r2, [r4], #-770	; 0xfffffcfe
    4588:	00001fa3 	andeq	r1, r0, r3, lsr #31
    458c:	002c2903 	eoreq	r2, ip, r3, lsl #18
    4590:	23020000 	movwcs	r0, #8192	; 0x2000
    4594:	1fad0438 	svcne	0x00ad0438
    4598:	2a030000 	bcs	c45a0 <__standby_start+0xc45a0>
    459c:	0000002c 	andeq	r0, r0, ip, lsr #32
    45a0:	043c2302 	ldrteq	r2, [ip], #-770	; 0xfffffcfe
    45a4:	00001fb7 			; <UNDEFINED> instruction: 0x00001fb7
    45a8:	002c2b03 	eoreq	r2, ip, r3, lsl #22
    45ac:	23020000 	movwcs	r0, #8192	; 0x2000
    45b0:	1fd40440 	svcne	0x00d40440
    45b4:	2c030000 	stccs	0, cr0, [r3], {-0}
    45b8:	0000002c 	andeq	r0, r0, ip, lsr #32
    45bc:	04442302 	strbeq	r2, [r4], #-770	; 0xfffffcfe
    45c0:	000020f4 	strdeq	r2, [r0], -r4
    45c4:	002c2d03 	eoreq	r2, ip, r3, lsl #26
    45c8:	23020000 	movwcs	r0, #8192	; 0x2000
    45cc:	20fe0448 	rscscs	r0, lr, r8, asr #8
    45d0:	2e030000 	cdpcs	0, 0, cr0, cr3, cr0, {0}
    45d4:	0000002c 	andeq	r0, r0, ip, lsr #32
    45d8:	004c2302 	subeq	r2, ip, r2, lsl #6
    45dc:	a6080102 	strge	r0, [r8], -r2, lsl #2
    45e0:	05000001 	streq	r0, [r0, #-1]
    45e4:	6e690504 	cdpvs	5, 6, cr0, cr9, cr4, {0}
    45e8:	01020074 	tsteq	r2, r4, ror r0
    45ec:	0001a806 	andeq	sl, r1, r6, lsl #16
    45f0:	05020200 	streq	r0, [r2, #-512]	; 0xfffffe00
    45f4:	000001da 	ldrdeq	r0, [r0], -sl
    45f8:	000dd706 	andeq	sp, sp, r6, lsl #14
    45fc:	74190200 	ldrvc	r0, [r9], #-512	; 0xfffffe00
    4600:	06000001 	streq	r0, [r0], -r1
    4604:	0000013a 	andeq	r0, r0, sl, lsr r1
    4608:	002c1a02 	eoreq	r1, ip, r2, lsl #20
    460c:	08020000 	stmdaeq	r2, {}	; <UNPREDICTABLE>
    4610:	00016905 	andeq	r6, r1, r5, lsl #18
    4614:	1f0b0600 	svcne	0x000b0600
    4618:	1c020000 	stcne	0, cr0, [r2], {-0}
    461c:	000001b1 			; <UNDEFINED> instruction: 0x000001b1
    4620:	20070802 	andcs	r0, r7, r2, lsl #16
    4624:	06000002 	streq	r0, [r0], -r2
    4628:	00001f4e 	andeq	r1, r0, lr, asr #30
    462c:	00481201 	subeq	r1, r8, r1, lsl #4
    4630:	01070000 	tsteq	r7, r0
    4634:	0000203f 	andeq	r2, r0, pc, lsr r0
    4638:	01016e01 	tsteq	r1, r1, lsl #28
    463c:	00000189 	andeq	r0, r0, r9, lsl #3
    4640:	1f770801 	svcne	0x00770801
    4644:	1f020000 	svcne	0x00020000
    4648:	0001a601 	andeq	sl, r1, r1, lsl #12
    464c:	021b0300 	andseq	r0, fp, #0, 6
    4650:	75090000 	strvc	r0, [r9, #-0]
    4654:	02000016 	andeq	r0, r0, #22
    4658:	0001a61f 	andeq	sl, r1, pc, lsl r6
    465c:	158c0900 	strne	r0, [ip, #2304]	; 0x900
    4660:	1f020000 	svcne	0x00020000
    4664:	00000194 	muleq	r0, r4, r1
    4668:	0015a60a 	andseq	sl, r5, sl, lsl #12
    466c:	a6210200 	strtge	r0, [r1], -r0, lsl #4
    4670:	0a000001 	beq	467c <__standby_start+0x467c>
    4674:	0000162b 	andeq	r1, r0, fp, lsr #12
    4678:	01a62202 			; <UNDEFINED> instruction: 0x01a62202
    467c:	fc0a0000 	stc2	0, cr0, [sl], {-0}
    4680:	02000015 	andeq	r0, r0, #21
    4684:	00018923 	andeq	r8, r1, r3, lsr #18
    4688:	010b0000 	tsteq	fp, r0
    468c:	00001e81 	andeq	r1, r0, r1, lsl #29
    4690:	18012301 	stmdane	r1, {r0, r8, r9, sp}
    4694:	48f00020 	ldmmi	r0!, {r5}^
    4698:	8af00020 	bhi	ffc04720 <__bss_end+0xfc01e44>
    469c:	44000015 	strmi	r0, [r0], #-21	; 0xffffffeb
    46a0:	0c000002 	stceq	0, cr0, [r0], {2}
    46a4:	00001641 	andeq	r1, r0, r1, asr #12
    46a8:	01942501 	orrseq	r2, r4, r1, lsl #10
    46ac:	15aa0000 	strne	r0, [sl, #0]!
    46b0:	0d000000 	stceq	0, cr0, [r0, #-0]
    46b4:	001e6301 	andseq	r6, lr, r1, lsl #6
    46b8:	01300100 	teqeq	r0, r0, lsl #2
    46bc:	f0002048 			; <UNDEFINED> instruction: 0xf0002048
    46c0:	f0002068 			; <UNDEFINED> instruction: 0xf0002068
    46c4:	6c007d02 	stcvs	13, cr7, [r0], {2}
    46c8:	0c000002 	stceq	0, cr0, [r0], {2}
    46cc:	00001641 	andeq	r1, r0, r1, asr #12
    46d0:	01943201 	orrseq	r3, r4, r1, lsl #4
    46d4:	15de0000 	ldrbne	r0, [lr]
    46d8:	0d000000 	stceq	0, cr0, [r0, #-0]
    46dc:	0020d301 	eoreq	sp, r0, r1, lsl #6
    46e0:	013b0100 	teqeq	fp, r0, lsl #2
    46e4:	f0002068 			; <UNDEFINED> instruction: 0xf0002068
    46e8:	f0002084 			; <UNDEFINED> instruction: 0xf0002084
    46ec:	94007d02 	strls	r7, [r0], #-3330	; 0xfffff2fe
    46f0:	0c000002 	stceq	0, cr0, [r0], {2}
    46f4:	00001641 	andeq	r1, r0, r1, asr #12
    46f8:	01943d01 	orrseq	r3, r4, r1, lsl #26
    46fc:	160d0000 	strne	r0, [sp], -r0
    4700:	0d000000 	stceq	0, cr0, [r0, #-0]
    4704:	00211b01 	eoreq	r1, r1, r1, lsl #22
    4708:	01450100 	mrseq	r0, SPSR
    470c:	f0002084 			; <UNDEFINED> instruction: 0xf0002084
    4710:	f000209c 			; <UNDEFINED> instruction: 0xf000209c
    4714:	bc007d02 	stclt	13, cr7, [r0], {2}
    4718:	0c000002 	stceq	0, cr0, [r0], {2}
    471c:	00001641 	andeq	r1, r0, r1, asr #12
    4720:	01944701 	orrseq	r4, r4, r1, lsl #14
    4724:	16420000 	strbne	r0, [r2], -r0
    4728:	0b000000 	bleq	4730 <__standby_start+0x4730>
    472c:	00205401 	eoreq	r5, r0, r1, lsl #8
    4730:	014e0100 	mrseq	r0, SPSR
    4734:	f000209c 			; <UNDEFINED> instruction: 0xf000209c
    4738:	f00020f0 			; <UNDEFINED> instruction: 0xf00020f0
    473c:	0000166c 	andeq	r1, r0, ip, ror #12
    4740:	000002e0 	andeq	r0, r0, r0, ror #5
    4744:	0100690e 	tsteq	r0, lr, lsl #18
    4748:	00019450 	andeq	r9, r1, r0, asr r4
    474c:	0b000000 	bleq	4754 <__standby_start+0x4754>
    4750:	001f1a01 	andseq	r1, pc, r1, lsl #20
    4754:	015c0100 	cmpeq	ip, r0, lsl #2
    4758:	f00020f0 			; <UNDEFINED> instruction: 0xf00020f0
    475c:	f00021c8 			; <UNDEFINED> instruction: 0xf00021c8
    4760:	0000168c 	andeq	r1, r0, ip, lsl #13
    4764:	00000341 	andeq	r0, r0, r1, asr #6
    4768:	001fff0f 	andseq	pc, pc, pc, lsl #30
    476c:	945c0100 	ldrbls	r0, [ip], #-256	; 0xffffff00
    4770:	ac000001 	stcge	0, cr0, [r0], {1}
    4774:	10000016 	andne	r0, r0, r6, lsl r0
    4778:	5e010069 	cdppl	0, 0, cr0, cr1, cr9, {3}
    477c:	00000194 	muleq	r0, r4, r1
    4780:	000016bf 			; <UNDEFINED> instruction: 0x000016bf
    4784:	0016410c 	andseq	r4, r6, ip, lsl #2
    4788:	945f0100 	ldrbls	r0, [pc], #-256	; 4790 <__standby_start+0x4790>
    478c:	0c000001 	stceq	0, cr0, [r0], {1}
    4790:	11000017 	tstne	r0, r7, lsl r0
    4794:	00002162 	andeq	r2, r0, r2, ror #2
    4798:	01946001 	orrseq	r6, r4, r1
    479c:	54010000 	strpl	r0, [r1], #-0
    47a0:	001ffb0c 	andseq	pc, pc, ip, lsl #22
    47a4:	94610100 	strbtls	r0, [r1], #-256	; 0xffffff00
    47a8:	25000001 	strcs	r0, [r0, #-1]
    47ac:	00000017 	andeq	r0, r0, r7, lsl r0
    47b0:	2022010d 	eorcs	r0, r2, sp, lsl #2
    47b4:	82010000 	andhi	r0, r1, #0
    47b8:	0021c801 	eoreq	ip, r1, r1, lsl #16
    47bc:	002224f0 	strdeq	r2, [r2], -r0	; <UNPREDICTABLE>
    47c0:	007d02f0 	ldrshteq	r0, [sp], #-32	; 0xffffffe0
    47c4:	00000369 	andeq	r0, r0, r9, ror #6
    47c8:	0016410c 	andseq	r4, r6, ip, lsl #2
    47cc:	94840100 	strls	r0, [r4], #256	; 0x100
    47d0:	43000001 	movwmi	r0, #1
    47d4:	00000017 	andeq	r0, r0, r7, lsl r0
    47d8:	1c96010d 	ldfnes	f0, [r6], {13}
    47dc:	ab010000 	blge	447e4 <__standby_start+0x447e4>
    47e0:	00222401 	eoreq	r2, r2, r1, lsl #8
    47e4:	002258f0 	strdeq	r5, [r2], -r0	; <UNPREDICTABLE>
    47e8:	007d02f0 	ldrshteq	r0, [sp], #-32	; 0xffffffe0
    47ec:	0000038f 	andeq	r0, r0, pc, lsl #7
    47f0:	01006910 	tsteq	r0, r0, lsl r9
    47f4:	000194ad 	andeq	r9, r1, sp, lsr #9
    47f8:	0017f000 	andseq	pc, r7, r0
    47fc:	010b0000 	tsteq	fp, r0
    4800:	00001ef5 	strdeq	r1, [r0], -r5
    4804:	5801b501 	stmdapl	r1, {r0, r8, sl, ip, sp, pc}
    4808:	58f00022 	ldmpl	r0!, {r1, r5}^
    480c:	0ff00023 	svceq	0x00f00023
    4810:	0b000018 	bleq	4878 <__standby_start+0x4878>
    4814:	12000004 	andne	r0, r0, #4
    4818:	006b6c63 	rsbeq	r6, fp, r3, ror #24
    481c:	0194b501 	orrseq	fp, r4, r1, lsl #10
    4820:	182f0000 	stmdane	pc!, {}	; <UNPREDICTABLE>
    4824:	410c0000 	tstmi	ip, r0
    4828:	01000016 	tsteq	r0, r6, lsl r0
    482c:	000194b7 			; <UNDEFINED> instruction: 0x000194b7
    4830:	00184200 	andseq	r4, r8, r0, lsl #4
    4834:	01d21300 	bicseq	r1, r2, r0, lsl #6
    4838:	22840000 	addcs	r0, r4, #0
    483c:	22ecf000 	rsccs	pc, ip, #0
    4840:	c001f000 	andgt	pc, r1, r0
    4844:	0001e314 	andeq	lr, r1, r4, lsl r3
    4848:	0018fd00 	andseq	pc, r8, r0, lsl #26
    484c:	22841500 	addcs	r1, r4, #0, 10
    4850:	22ecf000 	rsccs	pc, ip, #0
    4854:	f916f000 			; <UNDEFINED> instruction: 0xf916f000
    4858:	25000001 	strcs	r0, [r0, #-1]
    485c:	16000019 			; <UNDEFINED> instruction: 0x16000019
    4860:	00000204 	andeq	r0, r0, r4, lsl #4
    4864:	00001971 	andeq	r1, r0, r1, ror r9
    4868:	00020f16 	andeq	r0, r2, r6, lsl pc
    486c:	0019bd00 	andseq	fp, r9, r0, lsl #26
    4870:	01ee1700 	mvneq	r1, r0, lsl #14
    4874:	00180000 	andseq	r0, r8, r0
    4878:	c3180000 	tstgt	r8, #0
    487c:	58000001 	stmdapl	r0, {r0}
    4880:	60f00023 	rscsvs	r0, r0, r3, lsr #32
    4884:	02f00023 	rscseq	r0, r0, #35	; 0x23
    4888:	0119007d 	tsteq	r9, sp, ror r0
    488c:	00002136 	andeq	r2, r0, r6, lsr r1
    4890:	01018001 	tsteq	r1, r1
    4894:	00000189 	andeq	r0, r0, r9, lsl #3
    4898:	f0002360 			; <UNDEFINED> instruction: 0xf0002360
    489c:	f0002394 			; <UNDEFINED> instruction: 0xf0002394
    48a0:	49007d02 	stmdbmi	r0, {r1, r8, sl, fp, ip, sp, lr}
    48a4:	1a000004 	bne	48bc <__standby_start+0x48bc>
    48a8:	00001641 	andeq	r1, r0, r1, asr #12
    48ac:	94018201 	strls	r8, [r1], #-513	; 0xfffffdff
    48b0:	0c000001 	stceq	0, cr0, [r0], {1}
    48b4:	0000001a 	andeq	r0, r0, sl, lsl r0
    48b8:	2065011b 	rsbcs	r0, r5, fp, lsl r1
    48bc:	b3010000 	movwlt	r0, #4096	; 0x1000
    48c0:	23940101 	orrscs	r0, r4, #1073741824	; 0x40000000
    48c4:	23b4f000 			; <UNDEFINED> instruction: 0x23b4f000
    48c8:	7d02f000 	stcvc	0, cr15, [r2, #-0]
    48cc:	00048000 	andeq	r8, r4, r0
    48d0:	6e6f1c00 	cdpvs	12, 6, cr1, cr15, cr0, {0}
    48d4:	01b30100 			; <UNDEFINED> instruction: 0x01b30100
    48d8:	00000194 	muleq	r0, r4, r1
    48dc:	411a5001 	tstmi	sl, r1
    48e0:	01000016 	tsteq	r0, r6, lsl r0
    48e4:	019401b5 			; <UNDEFINED> instruction: 0x019401b5
    48e8:	1a410000 	bne	10448f0 <__standby_start+0x10448f0>
    48ec:	1b000000 	blne	48f4 <__standby_start+0x48f4>
    48f0:	00208a01 	eoreq	r8, r0, r1, lsl #20
    48f4:	01cb0100 	biceq	r0, fp, r0, lsl #2
    48f8:	0023b401 	eoreq	fp, r3, r1, lsl #8
    48fc:	0023e4f0 	strdeq	lr, [r3], -r0	; <UNPREDICTABLE>
    4900:	007d02f0 	ldrshteq	r0, [sp], #-32	; 0xffffffe0
    4904:	000004c8 	andeq	r0, r0, r8, asr #9
    4908:	6b6c631c 	blvs	1b1d580 <__standby_start+0x1b1d580>
    490c:	01cb0100 	biceq	r0, fp, r0, lsl #2
    4910:	00000194 	muleq	r0, r4, r1
    4914:	411a5001 	tstmi	sl, r1
    4918:	01000016 	tsteq	r0, r6, lsl r0
    491c:	019401cd 	orrseq	r0, r4, sp, asr #3
    4920:	1a6a0000 	bne	1a84928 <__standby_start+0x1a84928>
    4924:	e41a0000 	ldr	r0, [sl], #-0
    4928:	01000020 	tsteq	r0, r0, lsr #32
    492c:	019401cf 	orrseq	r0, r4, pc, asr #3
    4930:	1aaf0000 	bne	febc4938 <__bss_end+0xebc205c>
    4934:	19000000 	stmdbne	r0, {}	; <UNPREDICTABLE>
    4938:	001f2b01 	andseq	r2, pc, r1, lsl #22
    493c:	01f70100 	mvnseq	r0, r0, lsl #2
    4940:	00019401 	andeq	r9, r1, r1, lsl #8
    4944:	0023e400 	eoreq	lr, r3, r0, lsl #8
    4948:	002458f0 	strdeq	r5, [r4], -r0	; <UNPREDICTABLE>
    494c:	007d02f0 	ldrshteq	r0, [sp], #-32	; 0xffffffe0
    4950:	00000516 	andeq	r0, r0, r6, lsl r5
    4954:	0016411a 	andseq	r4, r6, sl, lsl r1
    4958:	01f90100 	mvnseq	r0, r0, lsl #2
    495c:	00000194 	muleq	r0, r4, r1
    4960:	00001ae3 	andeq	r1, r0, r3, ror #21
    4964:	001f351a 	andseq	r3, pc, sl, lsl r5	; <UNPREDICTABLE>
    4968:	01fa0100 	mvnseq	r0, r0, lsl #2
    496c:	00000194 	muleq	r0, r4, r1
    4970:	00001af6 	strdeq	r1, [r0], -r6
    4974:	001f111a 	andseq	r1, pc, sl, lsl r1	; <UNPREDICTABLE>
    4978:	01fb0100 	mvnseq	r0, r0, lsl #2
    497c:	00000194 	muleq	r0, r4, r1
    4980:	00001b2a 	andeq	r1, r0, sl, lsr #22
    4984:	17011d00 	strne	r1, [r1, -r0, lsl #26]
    4988:	01000020 	tsteq	r0, r0, lsr #32
    498c:	018901db 	ldrdeq	r0, [r9, fp]
    4990:	24580000 	ldrbcs	r0, [r8], #-0
    4994:	2634f000 	ldrtcs	pc, [r4], -r0	; <UNPREDICTABLE>
    4998:	1b3df000 	blne	f809a0 <__standby_start+0xf809a0>
    499c:	056a0000 	strbeq	r0, [sl, #-0]!
    49a0:	510f0000 	mrspl	r0, CPSR
    49a4:	01000003 	tsteq	r0, r3
    49a8:	00056adb 	ldrdeq	r6, [r5], -fp
    49ac:	001b5d00 	andseq	r5, fp, r0, lsl #26
    49b0:	00691e00 	rsbeq	r1, r9, r0, lsl #28
    49b4:	0194dd01 	orrseq	sp, r4, r1, lsl #26
    49b8:	410c0000 	tstmi	ip, r0
    49bc:	01000016 	tsteq	r0, r6, lsl r0
    49c0:	000194de 	ldrdeq	r9, [r1], -lr
    49c4:	001b7b00 	andseq	r7, fp, r0, lsl #22
    49c8:	1ea10c00 	cdpne	12, 10, cr0, cr1, cr0, {0}
    49cc:	df010000 	svcle	0x00010000
    49d0:	00000189 	andeq	r0, r0, r9, lsl #3
    49d4:	00001c6a 	andeq	r1, r0, sl, ror #24
    49d8:	b8041f00 	stmdalt	r4, {r8, r9, sl, fp, ip}
    49dc:	20000001 	andcs	r0, r0, r1
    49e0:	00204a01 	eoreq	r4, r0, r1, lsl #20
    49e4:	02170100 	andseq	r0, r7, #0, 2
    49e8:	00018901 	andeq	r8, r1, r1, lsl #18
    49ec:	00263400 	eoreq	r3, r6, r0, lsl #8
    49f0:	00263cf0 	strdeq	r3, [r6], -r0	; <UNPREDICTABLE>
    49f4:	007d02f0 	ldrshteq	r0, [sp], #-32	; 0xffffffe0
    49f8:	21080120 	tstcs	r8, r0, lsr #2
    49fc:	1d010000 	stcne	0, cr0, [r1, #-0]
    4a00:	01890102 	orreq	r0, r9, r2, lsl #2
    4a04:	263c0000 	ldrtcs	r0, [ip], -r0
    4a08:	2644f000 	strbcs	pc, [r4], -r0	; <UNPREDICTABLE>
    4a0c:	7d02f000 	stcvc	0, cr15, [r2, #-0]
    4a10:	ed012000 	stc	0, cr2, [r1, #-0]
    4a14:	0100001f 	tsteq	r0, pc, lsl r0
    4a18:	89010222 	stmdbhi	r1, {r1, r5, r9}
    4a1c:	44000001 	strmi	r0, [r0], #-1
    4a20:	48f00026 	ldmmi	r0!, {r1, r2, r5}^
    4a24:	02f00026 	rscseq	r0, r0, #38	; 0x26
    4a28:	011b007d 	tsteq	fp, sp, ror r0
    4a2c:	00001f3f 	andeq	r1, r0, pc, lsr pc
    4a30:	01022701 	tsteq	r2, r1, lsl #14
    4a34:	f0002648 			; <UNDEFINED> instruction: 0xf0002648
    4a38:	f000264c 			; <UNDEFINED> instruction: 0xf000264c
    4a3c:	e3007d02 	movw	r7, #3330	; 0xd02
    4a40:	1c000005 	stcne	0, cr0, [r0], {5}
    4a44:	006b6c63 	rsbeq	r6, fp, r3, ror #24
    4a48:	74022701 	strvc	r2, [r2], #-1793	; 0xfffff8ff
    4a4c:	01000001 	tsteq	r0, r1
    4a50:	01210050 	qsubeq	r0, r0, r1
    4a54:	00001fde 	ldrdeq	r1, [r0], -lr
    4a58:	01022c01 	tsteq	r2, r1, lsl #24
    4a5c:	f000264c 			; <UNDEFINED> instruction: 0xf000264c
    4a60:	f0002650 			; <UNDEFINED> instruction: 0xf0002650
    4a64:	1b007d02 	blne	23e74 <__standby_start+0x23e74>
    4a68:	001f5c01 	andseq	r5, pc, r1, lsl #24
    4a6c:	02310100 	eorseq	r0, r1, #0, 2
    4a70:	00265001 	eoreq	r5, r6, r1
    4a74:	002654f0 	strdeq	r5, [r6], -r0	; <UNPREDICTABLE>
    4a78:	007d02f0 	ldrshteq	r0, [sp], #-32	; 0xffffffe0
    4a7c:	00000620 	andeq	r0, r0, r0, lsr #12
    4a80:	6b6c631c 	blvs	1b1d6f8 <__standby_start+0x1b1d6f8>
    4a84:	02310100 	eorseq	r0, r1, #0, 2
    4a88:	00000194 	muleq	r0, r4, r1
    4a8c:	20005001 	andcs	r5, r0, r1
    4a90:	001fc101 	andseq	ip, pc, r1, lsl #2
    4a94:	02360100 	eorseq	r0, r6, #0, 2
    4a98:	00018901 	andeq	r8, r1, r1, lsl #18
    4a9c:	00265400 	eoreq	r5, r6, r0, lsl #8
    4aa0:	002658f0 	strdeq	r5, [r6], -r0	; <UNPREDICTABLE>
    4aa4:	007d02f0 	ldrshteq	r0, [sp], #-32	; 0xffffffe0
    4aa8:	00019422 	andeq	r9, r1, r2, lsr #8
    4aac:	00064900 	andeq	r4, r6, r0, lsl #18
    4ab0:	002c2300 	eoreq	r2, ip, r0, lsl #6
    4ab4:	001f0000 	andseq	r0, pc, r0
    4ab8:	00212b24 	eoreq	r2, r1, r4, lsr #22
    4abc:	39a00100 	stmibcc	r0!, {r8}
    4ac0:	01000006 	tsteq	r0, r6
    4ac4:	212b2501 	teqcs	fp, r1, lsl #10
    4ac8:	a0010000 	andge	r0, r1, r0
    4acc:	00000639 	andeq	r0, r0, r9, lsr r6
    4ad0:	4c030501 	cfstr32mi	mvfx0, [r3], {1}
    4ad4:	00f00027 	rscseq	r0, r0, r7, lsr #32

Disassembly of section .debug_line:

00000000 <.debug_line>:
   0:	00000167 	andeq	r0, r0, r7, ror #2
   4:	00b10002 	adcseq	r0, r1, r2
   8:	01020000 	tsteq	r2, r0
   c:	000d0efb 	strdeq	r0, [sp], -fp
  10:	01010101 	tsteq	r1, r1, lsl #2
  14:	01000000 	tsteq	r0, r0
  18:	2f010000 	svccs	0x00010000
  1c:	656d6f68 	strbvs	r6, [sp, #-3944]!	; 0xfffff098
  20:	646e612f 	strbtvs	r6, [lr], #-303	; 0xfffffed1
  24:	64696f72 	strbtvs	r6, [r9], #-3954	; 0xfffff08e
  28:	72656b2f 	rsbvc	r6, r5, #48128	; 0xbc00
  2c:	2f6c656e 	svccs	0x006c656e
  30:	6c636e69 	stclvs	14, cr6, [r3], #-420	; 0xfffffe5c
  34:	2f656475 	svccs	0x00656475
  38:	756e696c 	strbvc	r6, [lr, #-2412]!	; 0xfffff694
  3c:	6f702f78 	svcvs	0x00702f78
  40:	00726577 	rsbseq	r6, r2, r7, ror r5
  44:	00002e2e 	andeq	r2, r0, lr, lsr #28
  48:	6e617473 	mcrvs	4, 3, r7, cr1, cr3, {3}
  4c:	2e796264 	cdpcs	2, 7, cr6, cr9, cr4, {3}
  50:	00000063 	andeq	r0, r0, r3, rrx
  54:	5f776100 	svcpl	0x00776100
  58:	682e6d70 	stmdavs	lr!, {r4, r5, r6, r8, sl, fp, sp, lr}
  5c:	00000100 	andeq	r0, r0, r0, lsl #2
  60:	6d6d6f63 	stclvs	15, cr6, [sp, #-396]!	; 0xfffffe74
  64:	682e6e6f 	stmdavs	lr!, {r0, r1, r2, r3, r5, r6, r9, sl, fp, sp, lr}
  68:	00000000 	andeq	r0, r0, r0
  6c:	6e617473 	mcrvs	4, 3, r7, cr1, cr3, {3}
  70:	5f796264 	svcpl	0x00796264
  74:	636f6c63 	cmnvs	pc, #25344	; 0x6300
  78:	00682e6b 	rsbeq	r2, r8, fp, ror #28
  7c:	73000000 	movwvc	r0, #0
  80:	646e6174 	strbtvs	r6, [lr], #-372	; 0xfffffe8c
  84:	705f7962 	subsvc	r7, pc, r2, ror #18
  88:	7265776f 	rsbvc	r7, r5, #29097984	; 0x1bc0000
  8c:	0000682e 	andeq	r6, r0, lr, lsr #16
  90:	74730000 	ldrbtvc	r0, [r3], #-0
  94:	62646e61 	rsbvs	r6, r4, #1552	; 0x610
  98:	6e695f79 	mcrvs	15, 3, r5, cr9, cr9, {3}
  9c:	00682e74 	rsbeq	r2, r8, r4, ror lr
  a0:	70000000 	andvc	r0, r0, r0
  a4:	00682e6d 	rsbeq	r2, r8, sp, ror #28
  a8:	73000002 	movwvc	r0, #2
  ac:	646e6174 	strbtvs	r6, [lr], #-372	; 0xfffffe8c
  b0:	695f7962 	ldmdbvs	pc, {r1, r5, r6, r8, fp, ip, sp, lr}^	; <UNPREDICTABLE>
  b4:	0000682e 	andeq	r6, r0, lr, lsr #16
  b8:	00000000 	andeq	r0, r0, r0
  bc:	00000205 	andeq	r0, r0, r5, lsl #4
  c0:	3d03f000 	stccc	0, cr15, [r3, #-0]
  c4:	03483101 	movteq	r3, #33025	; 0x8101
  c8:	00302e09 	eorseq	r2, r0, r9, lsl #28
  cc:	31010402 	tstcc	r1, r2, lsl #8
  d0:	039e1203 	orrseq	r1, lr, #805306368	; 0x30000000
  d4:	89862e71 	stmibhi	r6, {r0, r4, r5, r6, r9, sl, fp, sp}
  d8:	2f2f2f2f 	svccs	0x002f2f2f
  dc:	674c674c 	strbvs	r6, [ip, -ip, asr #14]
  e0:	2f674c2f 	svccs	0x00674c2f
  e4:	4c844c4b 	stcmi	12, cr4, [r4], {75}	; 0x4b
  e8:	684c2f67 	stmdavs	ip, {r0, r1, r2, r5, r6, r8, r9, sl, fp, sp}^
  ec:	034f2f83 	movteq	r2, #65411	; 0xff83
  f0:	034a00cc 	movteq	r0, #41164	; 0xa0cc
  f4:	302e7fb4 			; <UNDEFINED> instruction: 0x302e7fb4
  f8:	2e00c303 	cdpcs	3, 0, cr12, cr0, cr3, {0}
  fc:	312f4d4d 	teqcc	pc, sp, asr #26
 100:	2f2f302a 	svccs	0x002f302a
 104:	2f4d4b2f 	svccs	0x004d4b2f
 108:	67314b4b 	ldrvs	r4, [r1, -fp, asr #22]!
 10c:	4b312b4d 	blmi	c4ae48 <__standby_start+0xc4ae48>
 110:	83304b69 	teqhi	r0, #107520	; 0x1a400
 114:	314e2f30 	cmpcc	lr, r0, lsr pc
 118:	0332322f 	teqeq	r2, #-268435454	; 0xf0000002
 11c:	70032e13 	andvc	r2, r3, r3, lsl lr
 120:	4e304b2e 	vaddmi.f64	d4, d0, d30
 124:	2f4d3131 	svccs	0x004d3131
 128:	9f672d67 	svcls	0x00672d67
 12c:	2d9f2f2d 	ldccs	15, cr2, [pc, #180]	; 1e8 <__standby_start+0x1e8>
 130:	2f2d9f2f 	svccs	0x002d9f2f
 134:	312f2d9f 			; <UNDEFINED> instruction: 0x312f2d9f
 138:	312b852b 	teqcc	fp, fp, lsr #10
 13c:	4b2f692f 	blmi	bda600 <__standby_start+0xbda600>
 140:	4d4b2f4d 	stclmi	15, cr2, [fp, #-308]	; 0xfffffecc
 144:	034d4b4b 	movteq	r4, #56139	; 0xdb4b
 148:	304a7ee9 	subcc	r7, sl, r9, ror #29
 14c:	674d3130 	smlaldxvs	r3, sp, r0, r1
 150:	67338330 			; <UNDEFINED> instruction: 0x67338330
 154:	2f2f4b30 	svccs	0x002f4b30
 158:	3085312f 	addcc	r3, r5, pc, lsr #2
 15c:	9203302c 	andls	r3, r3, #44	; 0x2c
 160:	ef032e7f 	svc	0x00032e7f
 164:	0a022e00 	beq	8b96c <__standby_start+0x8b96c>
 168:	6e010100 	adfvss	f0, f1, f0
 16c:	02000000 	andeq	r0, r0, #0
 170:	00003e00 	andeq	r3, r0, r0, lsl #28
 174:	fb010200 	blx	4097e <__standby_start+0x4097e>
 178:	01000d0e 	tsteq	r0, lr, lsl #26
 17c:	00010101 	andeq	r0, r1, r1, lsl #2
 180:	00010000 	andeq	r0, r1, r0
 184:	63000100 	movwvs	r0, #256	; 0x100
 188:	6f6d6d6f 	svcvs	0x006d6d6f
 18c:	00632e6e 	rsbeq	r2, r3, lr, ror #28
 190:	73000000 	movwvc	r0, #0
 194:	646e6174 	strbtvs	r6, [lr], #-372	; 0xfffffe8c
 198:	635f7962 	cmpvs	pc, #1605632	; 0x188000
 19c:	6b636f6c 	blvs	18dbf54 <__standby_start+0x18dbf54>
 1a0:	0000682e 	andeq	r6, r0, lr, lsr #16
 1a4:	6f630000 	svcvs	0x00630000
 1a8:	6e6f6d6d 	cdpvs	13, 6, cr6, cr15, cr13, {3}
 1ac:	0000682e 	andeq	r6, r0, lr, lsr #16
 1b0:	00000000 	andeq	r0, r0, r0
 1b4:	03ac0205 			; <UNDEFINED> instruction: 0x03ac0205
 1b8:	2303f000 	movwcs	pc, #12288	; 0x3000	; <UNPREDICTABLE>
 1bc:	02001601 	andeq	r1, r0, #1048576	; 0x100000
 1c0:	00880204 	addeq	r0, r8, r4, lsl #4
 1c4:	2d020402 	cfstrscs	mvf0, [r2, #-8]
 1c8:	02040200 	andeq	r0, r4, #0, 4
 1cc:	0402002f 	streq	r0, [r2], #-47	; 0xffffffd1
 1d0:	17032d01 	strne	r2, [r3, -r1, lsl #26]
 1d4:	11671366 	cmnne	r7, r6, ror #6
 1d8:	01000402 	tsteq	r0, r2, lsl #8
 1dc:	00006a01 	andeq	r6, r0, r1, lsl #20
 1e0:	1e000200 	cdpne	2, 0, cr0, cr0, cr0, {0}
 1e4:	02000000 	andeq	r0, r0, #0
 1e8:	0d0efb01 	vstreq	d15, [lr, #-4]
 1ec:	01010100 	tsteq	r1, r0, lsl #2
 1f0:	00000001 	andeq	r0, r0, r1
 1f4:	01000001 	tsteq	r0, r1
 1f8:	61747300 	cmnvs	r4, r0, lsl #6
 1fc:	532e6b63 	teqpl	lr, #101376	; 0x18c00
 200:	00000000 	andeq	r0, r0, r0
 204:	02050000 	andeq	r0, r5, #0
 208:	f00003e8 			; <UNDEFINED> instruction: 0xf00003e8
 20c:	332f2f1a 	teqcc	pc, #26, 30	; 0x68
 210:	2f30342f 	svccs	0x0030342f
 214:	2f30332f 	svccs	0x0030332f
 218:	2f2f2f2f 	svccs	0x002f2f2f
 21c:	2f2f2f2f 	svccs	0x002f2f2f
 220:	2f2f2f2f 	svccs	0x002f2f2f
 224:	2f2f2f30 	svccs	0x002f2f30
 228:	2f2f2f2f 	svccs	0x002f2f2f
 22c:	2f2f2f2f 	svccs	0x002f2f2f
 230:	2f2f2f2f 	svccs	0x002f2f2f
 234:	2f2f2f31 	svccs	0x002f2f31
 238:	2f2f2f2f 	svccs	0x002f2f2f
 23c:	2f2f2f2f 	svccs	0x002f2f2f
 240:	2f2f2f2f 	svccs	0x002f2f2f
 244:	20022f30 	andcs	r2, r2, r0, lsr pc
 248:	90010100 	andls	r0, r1, r0, lsl #2
 24c:	02000001 	andeq	r0, r0, #1
 250:	00009500 	andeq	r9, r0, r0, lsl #10
 254:	fb010200 	blx	40a5e <__standby_start+0x40a5e>
 258:	01000d0e 	tsteq	r0, lr, lsl #26
 25c:	00010101 	andeq	r0, r1, r1, lsl #2
 260:	00010000 	andeq	r0, r1, r0
 264:	682f0100 	stmdavs	pc!, {r8}	; <UNPREDICTABLE>
 268:	2f656d6f 	svccs	0x00656d6f
 26c:	72646e61 	rsbvc	r6, r4, #1552	; 0x610
 270:	2f64696f 	svccs	0x0064696f
 274:	6e72656b 	cdpvs	5, 7, cr6, cr2, cr11, {3}
 278:	612f6c65 	teqvs	pc, r5, ror #24
 27c:	2f686372 	svccs	0x00686372
 280:	2f6d7261 	svccs	0x006d7261
 284:	6863616d 	stmdavs	r3!, {r0, r2, r3, r5, r6, r8, sp, lr}^
 288:	6e75732d 	cdpvs	3, 7, cr7, cr5, cr13, {1}
 28c:	692f6935 	stmdbvs	pc!, {r0, r2, r4, r5, r8, fp, sp, lr}	; <UNPREDICTABLE>
 290:	756c636e 	strbvc	r6, [ip, #-878]!	; 0xfffffc92
 294:	6d2f6564 	cfstr32vs	mvfx6, [pc, #-400]!	; 10c <__standby_start+0x10c>
 298:	00686361 	rsbeq	r6, r8, r1, ror #6
 29c:	00002e2e 	andeq	r2, r0, lr, lsr #28
 2a0:	6e617473 	mcrvs	4, 3, r7, cr1, cr3, {3}
 2a4:	5f796264 	svcpl	0x00796264
 2a8:	636f6c63 	cmnvs	pc, #25344	; 0x6300
 2ac:	00632e6b 	rsbeq	r2, r3, fp, ror #28
 2b0:	63000000 	movwvs	r0, #0
 2b4:	6f6d6d6f 	svcvs	0x006d6d6f
 2b8:	00682e6e 	rsbeq	r2, r8, lr, ror #28
 2bc:	63000000 	movwvs	r0, #0
 2c0:	5f756d63 	svcpl	0x00756d63
 2c4:	73676572 	cmnvc	r7, #478150656	; 0x1c800000
 2c8:	0100682e 	tsteq	r0, lr, lsr #16
 2cc:	74730000 	ldrbtvc	r0, [r3], #-0
 2d0:	62646e61 	rsbvs	r6, r4, #1552	; 0x610
 2d4:	6c635f79 	stclvs	15, cr5, [r3], #-484	; 0xfffffe1c
 2d8:	2e6b636f 	cdpcs	3, 6, cr6, cr11, cr15, {3}
 2dc:	00000068 	andeq	r0, r0, r8, rrx
 2e0:	2e6d7000 	cdpcs	0, 6, cr7, cr13, cr0, {0}
 2e4:	00020068 	andeq	r0, r2, r8, rrx
 2e8:	05000000 	streq	r0, [r0, #-0]
 2ec:	00050c02 	andeq	r0, r5, r2, lsl #24
 2f0:	012f03f0 	strdeq	r0, [pc, -r0]!	; <UNPREDICTABLE>
 2f4:	2e0f0313 	mcrcs	3, 0, r0, cr15, cr3, {0}
 2f8:	4d2e7103 	stfmis	f7, [lr, #-12]!
 2fc:	6767674b 	strbvs	r6, [r7, -fp, asr #14]!
 300:	69696767 	stmdbvs	r9!, {r0, r1, r2, r5, r6, r8, r9, sl, sp, lr}^
 304:	3c081203 	sfmcc	f1, 4, [r8], {3}
 308:	2e090314 	mcrcs	3, 0, r0, cr9, cr4, {0}
 30c:	672e7703 	strvs	r7, [lr, -r3, lsl #14]!
 310:	4b4c4b4b 	blmi	1313044 <__standby_start+0x1313044>
 314:	4a0f034d 	bmi	3c1050 <__standby_start+0x3c1050>
 318:	84293313 	strthi	r3, [r9], #-787	; 0xfffffced
 31c:	660f0369 	strvs	r0, [pc], -r9, ror #6
 320:	84294f13 	strthi	r4, [r9], #-3859	; 0xfffff0ed
 324:	660f0369 	strvs	r0, [pc], -r9, ror #6
 328:	84294f13 	strthi	r4, [r9], #-3859	; 0xfffff0ed
 32c:	660f0369 	strvs	r0, [pc], -r9, ror #6
 330:	2e090313 	mcrcs	3, 0, r0, cr9, cr3, {0}
 334:	832e7703 	teqhi	lr, #786432	; 0xc0000
 338:	67676767 	strbvs	r6, [r7, -r7, ror #14]!
 33c:	0f036967 	svceq	0x00036967
 340:	0903134a 	stmdbeq	r3, {r1, r3, r6, r8, r9, ip}
 344:	2e77032e 	cdpcs	3, 7, cr0, cr7, cr14, {1}
 348:	67676783 	strbvs	r6, [r7, -r3, lsl #15]!
 34c:	03696767 	cmneq	r9, #27000832	; 0x19c0000
 350:	30134a0f 	andscc	r4, r3, pc, lsl #20
 354:	0f03842c 	svceq	0x0003842c
 358:	2c30134a 	ldccs	3, cr1, [r0], #-296	; 0xfffffed8
 35c:	4a0f0384 	bmi	3c1174 <__standby_start+0x3c1174>
 360:	83294f13 	teqhi	r9, #19, 30	; 0x4c
 364:	03686767 	cmneq	r8, #27000832	; 0x19c0000
 368:	4f134a0f 	svcmi	0x00134a0f
 36c:	67678329 	strbvs	r8, [r7, -r9, lsr #6]!
 370:	4a0f0368 	bmi	3c1118 <__standby_start+0x3c1118>
 374:	9fd74f13 	svcls	0x00d74f13
 378:	03842c30 	orreq	r2, r4, #48, 24	; 0x3000
 37c:	03362e79 	teqeq	r6, #1936	; 0x790
 380:	4f134a0f 	svcmi	0x00134a0f
 384:	038483d7 	orreq	r8, r4, #1543503875	; 0x5c000003
 388:	03364a79 	teqeq	r6, #495616	; 0x79000
 38c:	4f134a0f 	svcmi	0x00134a0f
 390:	328383bb 	addcc	r8, r3, #-335544318	; 0xec000002
 394:	76036a2a 	strvc	r6, [r3], -sl, lsr #20
 398:	2e0b032e 	cdpcs	3, 0, cr0, cr11, cr14, {1}
 39c:	134a0f03 	movtne	r0, #44803	; 0xaf03
 3a0:	67679f4f 	strbvs	r9, [r7, -pc, asr #30]!
 3a4:	4a76036a 	bmi	1d81154 <__standby_start+0x1d81154>
 3a8:	032e0b03 	teqeq	lr, #3072	; 0xc00
 3ac:	2f2f4a0e 	svccs	0x002f4a0e
 3b0:	2b312b31 	blcs	c4b07c <__standby_start+0xc4b07c>
 3b4:	03312b31 	teqeq	r1, #50176	; 0xc400
 3b8:	4c136611 	ldcmi	6, cr6, [r3], {17}
 3bc:	0f03842c 	svceq	0x0003842c
 3c0:	2c30134a 	ldccs	3, cr1, [r0], #-296	; 0xfffffed8
 3c4:	4a110384 	bmi	4411dc <__standby_start+0x4411dc>
 3c8:	7a033413 	bvc	cd41c <__standby_start+0xcd41c>
 3cc:	6767682e 	strbvs	r6, [r7, -lr, lsr #16]!
 3d0:	4a0f0368 	bmi	3c1178 <__standby_start+0x3c1178>
 3d4:	30a0bb14 	adccc	fp, r0, r4, lsl fp
 3d8:	0402842c 	streq	r8, [r2], #-1068	; 0xfffffbd4
 3dc:	9f010100 	svcls	0x00010100
 3e0:	02000000 	andeq	r0, r0, #0
 3e4:	00004100 	andeq	r4, r0, r0, lsl #2
 3e8:	fb010200 	blx	40bf2 <__standby_start+0x40bf2>
 3ec:	01000d0e 	tsteq	r0, lr, lsl #26
 3f0:	00010101 	andeq	r0, r1, r1, lsl #2
 3f4:	00010000 	andeq	r0, r1, r0
 3f8:	73000100 	movwvc	r0, #256	; 0x100
 3fc:	646e6174 	strbtvs	r6, [lr], #-372	; 0xfffffe8c
 400:	695f7962 	ldmdbvs	pc, {r1, r5, r6, r8, fp, ip, sp, lr}^	; <UNPREDICTABLE>
 404:	632e746e 	teqvs	lr, #1845493760	; 0x6e000000
 408:	00000000 	andeq	r0, r0, r0
 40c:	6d6d6f63 	stclvs	15, cr6, [sp, #-396]!	; 0xfffffe74
 410:	682e6e6f 	stmdavs	lr!, {r0, r1, r2, r3, r5, r6, r9, sl, fp, sp, lr}
 414:	00000000 	andeq	r0, r0, r0
 418:	6e617473 	mcrvs	4, 3, r7, cr1, cr3, {3}
 41c:	5f796264 	svcpl	0x00796264
 420:	2e746e69 	cdpcs	14, 7, cr6, cr4, cr9, {3}
 424:	00000068 	andeq	r0, r0, r8, rrx
 428:	05000000 	streq	r0, [r0, #-0]
 42c:	000a8c02 	andeq	r8, sl, r2, lsl #24
 430:	012503f0 	strdeq	r0, [r5, -r0]!	; <UNPREDICTABLE>
 434:	2e0e0313 	mcrcs	3, 0, r0, cr14, cr3, {0}
 438:	4d2e7203 	sfmmi	f7, 4, [lr, #-12]!
 43c:	4b4b4b4b 	blmi	12d3170 <__standby_start+0x12d3170>
 440:	4b4b4b4b 	blmi	12d3174 <__standby_start+0x12d3174>
 444:	2f2f2b50 	svccs	0x002f2b50
 448:	342f2f2f 	strtcc	r2, [pc], #-3887	; 450 <__standby_start+0x450>
 44c:	312f2f29 	teqcc	pc, r9, lsr #30
 450:	660f0331 			; <UNDEFINED> instruction: 0x660f0331
 454:	2e0b0314 	mcrcs	3, 0, r0, cr11, cr4, {0}
 458:	672e7503 	strvs	r7, [lr, -r3, lsl #10]!
 45c:	4b4b4b4b 	blmi	12d3190 <__standby_start+0x12d3190>
 460:	2d2f4b4b 	fstmdbxcs	pc!, {d4-d40}	;@ Deprecated
 464:	0f03312f 	svceq	0x0003312f
 468:	322a174a 	eorcc	r1, sl, #19398656	; 0x1280000
 46c:	4b332c2b 	blmi	ccb520 <__standby_start+0xccb520>
 470:	0369832d 	cmneq	r9, #-1275068416	; 0xb4000000
 474:	2b17660f 	blcs	5d9cb8 <__standby_start+0x5d9cb8>
 478:	4c302c31 	ldcmi	12, cr2, [r0], #-196	; 0xffffff3c
 47c:	0008024b 	andeq	r0, r8, fp, asr #4
 480:	00510101 	subseq	r0, r1, r1, lsl #2
 484:	00020000 	andeq	r0, r2, r0
 488:	0000002f 	andeq	r0, r0, pc, lsr #32
 48c:	0efb0102 	cdpeq	1, 15, cr0, cr11, cr2, {0}
 490:	0101000d 	tsteq	r1, sp
 494:	00000101 	andeq	r0, r0, r1, lsl #2
 498:	00000100 	andeq	r0, r0, r0, lsl #2
 49c:	74730001 	ldrbtvc	r0, [r3], #-1
 4a0:	62646e61 	rsbvs	r6, r4, #1552	; 0x610
 4a4:	72695f79 	rsbvc	r5, r9, #484	; 0x1e4
 4a8:	0000632e 	andeq	r6, r0, lr, lsr #6
 4ac:	6f630000 	svcvs	0x00630000
 4b0:	6e6f6d6d 	cdpvs	13, 6, cr6, cr15, cr13, {3}
 4b4:	0000682e 	andeq	r6, r0, lr, lsr #16
 4b8:	00000000 	andeq	r0, r0, r0
 4bc:	0bf40205 	bleq	ffd00cd8 <__bss_end+0xfcfe3fc>
 4c0:	2303f000 	movwcs	pc, #12288	; 0x3000	; <UNPREDICTABLE>
 4c4:	11031401 	tstne	r3, r1, lsl #8
 4c8:	1103144a 	tstne	r3, sl, asr #8
 4cc:	1003144a 	andne	r1, r3, sl, asr #8
 4d0:	0402144a 	streq	r1, [r2], #-1098	; 0xfffffbb6
 4d4:	77010100 	strvc	r0, [r1, -r0, lsl #2]
 4d8:	02000000 	andeq	r0, r0, #0
 4dc:	00004100 	andeq	r4, r0, r0, lsl #2
 4e0:	fb010200 	blx	40cea <__standby_start+0x40cea>
 4e4:	01000d0e 	tsteq	r0, lr, lsl #26
 4e8:	00010101 	andeq	r0, r1, r1, lsl #2
 4ec:	00010000 	andeq	r0, r1, r0
 4f0:	73000100 	movwvc	r0, #256	; 0x100
 4f4:	646e6174 	strbtvs	r6, [lr], #-372	; 0xfffffe8c
 4f8:	6b5f7962 	blvs	17dea88 <__standby_start+0x17dea88>
 4fc:	632e7965 	teqvs	lr, #1654784	; 0x194000
 500:	00000000 	andeq	r0, r0, r0
 504:	6d6d6f63 	stclvs	15, cr6, [sp, #-396]!	; 0xfffffe74
 508:	682e6e6f 	stmdavs	lr!, {r0, r1, r2, r3, r5, r6, r9, sl, fp, sp, lr}
 50c:	00000000 	andeq	r0, r0, r0
 510:	6e617473 	mcrvs	4, 3, r7, cr1, cr3, {3}
 514:	5f796264 	svcpl	0x00796264
 518:	2e79656b 	cdpcs	5, 7, cr6, cr9, cr11, {3}
 51c:	00000068 	andeq	r0, r0, r8, rrx
 520:	05000000 	streq	r0, [r0, #-0]
 524:	000c1402 	andeq	r1, ip, r2, lsl #8
 528:	012703f0 	strdeq	r0, [r7, -r0]!	; <UNPREDICTABLE>
 52c:	2e7a0336 	mrccs	3, 3, r0, cr10, cr6, {1}
 530:	4b4d2933 	blmi	134aa04 <__standby_start+0x134aa04>
 534:	4f2f2f4b 	svcmi	0x002f2f4b
 538:	314b2f29 	mrscc	r2, SPSR
 53c:	13660f03 	cmnne	r6, #3, 30
 540:	30672b31 	rsbcc	r2, r7, r1, lsr fp
 544:	134a0f03 	movtne	r0, #44803	; 0xaf03
 548:	312d2f84 	smlawbcc	sp, r4, pc, r2	; <UNPREDICTABLE>
 54c:	0004022f 	andeq	r0, r4, pc, lsr #4
 550:	018d0101 	orreq	r0, sp, r1, lsl #2
 554:	00020000 	andeq	r0, r2, r0
 558:	00000061 	andeq	r0, r0, r1, rrx
 55c:	0efb0102 	cdpeq	1, 15, cr0, cr11, cr2, {0}
 560:	0101000d 	tsteq	r1, sp
 564:	00000101 	andeq	r0, r0, r1, lsl #2
 568:	00000100 	andeq	r0, r0, r0, lsl #2
 56c:	002e2e01 	eoreq	r2, lr, r1, lsl #28
 570:	2e6d7000 	cdpcs	0, 6, cr7, cr13, cr0, {0}
 574:	00010068 	andeq	r0, r1, r8, rrx
 578:	61747300 	cmnvs	r4, r0, lsl #6
 57c:	7962646e 	stmdbvc	r2!, {r1, r2, r3, r5, r6, sl, sp, lr}^
 580:	776f705f 			; <UNDEFINED> instruction: 0x776f705f
 584:	632e7265 	teqvs	lr, #1342177286	; 0x50000006
 588:	00000000 	andeq	r0, r0, r0
 58c:	6d6d6f63 	stclvs	15, cr6, [sp, #-396]!	; 0xfffffe74
 590:	682e6e6f 	stmdavs	lr!, {r0, r1, r2, r3, r5, r6, r9, sl, fp, sp, lr}
 594:	00000000 	andeq	r0, r0, r0
 598:	6e617473 	mcrvs	4, 3, r7, cr1, cr3, {3}
 59c:	5f796264 	svcpl	0x00796264
 5a0:	65776f70 	ldrbvs	r6, [r7, #-3952]!	; 0xfffff090
 5a4:	00682e72 	rsbeq	r2, r8, r2, ror lr
 5a8:	73000000 	movwvc	r0, #0
 5ac:	646e6174 	strbtvs	r6, [lr], #-372	; 0xfffffe8c
 5b0:	745f7962 	ldrbvc	r7, [pc], #-2402	; 5b8 <__standby_start+0x5b8>
 5b4:	682e6977 	stmdavs	lr!, {r0, r1, r2, r4, r5, r6, r8, fp, sp, lr}
 5b8:	00000000 	andeq	r0, r0, r0
 5bc:	02050000 	andeq	r0, r5, #0
 5c0:	f0000cb4 			; <UNDEFINED> instruction: 0xf0000cb4
 5c4:	0100c803 	tsteq	r0, r3, lsl #16
 5c8:	6e332917 	mrcvs	9, 1, r2, cr3, cr7, {0}
 5cc:	0402002f 	streq	r0, [r2], #-47	; 0xffffffd1
 5d0:	4a062b01 	bmi	18b1dc <__standby_start+0x18b1dc>
 5d4:	2f4c3606 	svccs	0x004c3606
 5d8:	6c034836 	stcvs	8, cr4, [r3], {54}	; 0x36
 5dc:	2e19034a 	cdpcs	3, 1, cr0, cr9, cr10, {2}
 5e0:	eb030204 	bl	c0df8 <__standby_start+0xc0df8>
 5e4:	2a162e00 	bcs	58bdec <__standby_start+0x58bdec>
 5e8:	80674b32 	rsbhi	r4, r7, r2, lsr fp
 5ec:	01040200 	tsteq	r4, r0, lsl #4
 5f0:	4f062e06 	svcmi	0x00062e06
 5f4:	7ec7032f 	cdpvc	3, 12, cr0, cr7, cr15, {1}
 5f8:	4c312e4a 	ldcmi	14, cr2, [r1], #-296	; 0xfffffed8
 5fc:	492f9f4c 	stmdbmi	pc!, {r2, r3, r6, r8, r9, sl, fp, ip, pc}	; <UNPREDICTABLE>
 600:	4d2f2d2f 	stcmi	13, cr2, [pc, #-188]!	; 54c <__standby_start+0x54c>
 604:	492f9f4c 	stmdbmi	pc!, {r2, r3, r6, r8, r9, sl, fp, ip, pc}	; <UNPREDICTABLE>
 608:	4c2f2d2f 	stcmi	13, cr2, [pc], #-188	; 554 <__standby_start+0x554>
 60c:	2f492f9f 	svccs	0x00492f9f
 610:	4c4d2f2d 	mcrrmi	15, 2, r2, sp, cr13
 614:	2f492f9f 	svccs	0x00492f9f
 618:	4c4d2f2d 	mcrrmi	15, 2, r2, sp, cr13
 61c:	2f492f9f 	svccs	0x00492f9f
 620:	4c4d2f2d 	mcrrmi	15, 2, r2, sp, cr13
 624:	2f492f9f 	svccs	0x00492f9f
 628:	4c4d2f2d 	mcrrmi	15, 2, r2, sp, cr13
 62c:	2f492f9f 	svccs	0x00492f9f
 630:	2f4c2f2d 	svccs	0x004c2f2d
 634:	2f2d2f49 	svccs	0x002d2f49
 638:	2f9f4c4d 	svccs	0x009f4c4d
 63c:	2f2d2f49 	svccs	0x002d2f49
 640:	2f9f4c4d 	svccs	0x009f4c4d
 644:	2f2d2f49 	svccs	0x002d2f49
 648:	4a0f034e 	bmi	3c1388 <__standby_start+0x3c1388>
 64c:	83312b31 	teqhi	r1, #50176	; 0xc400
 650:	2f9f4ca0 	svccs	0x009f4ca0
 654:	2f2d2f49 	svccs	0x002d2f49
 658:	2f9f4c4d 	svccs	0x009f4c4d
 65c:	2f2d2f49 	svccs	0x002d2f49
 660:	2f9f4c4d 	svccs	0x009f4c4d
 664:	2f2d2f49 	svccs	0x002d2f49
 668:	2f9f4c4d 	svccs	0x009f4c4d
 66c:	2f2d2f49 	svccs	0x002d2f49
 670:	2f9f4c4d 	svccs	0x009f4c4d
 674:	2f2d2f49 	svccs	0x002d2f49
 678:	2f9f4c4d 	svccs	0x009f4c4d
 67c:	2f2d2f49 	svccs	0x002d2f49
 680:	2f9f4c4d 	svccs	0x009f4c4d
 684:	2f2d2f49 	svccs	0x002d2f49
 688:	2f9f4c4d 	svccs	0x009f4c4d
 68c:	2f2d2f49 	svccs	0x002d2f49
 690:	3703304d 	strcc	r3, [r3, -sp, asr #32]
 694:	2f4e2e4a 	svccs	0x004e2e4a
 698:	034a4903 	movteq	r4, #43267	; 0xa903
 69c:	bcd600c0 	ldcllt	0, cr0, [r6], {192}	; 0xc0
 6a0:	bb322d4b 	bllt	c8bbd4 <__standby_start+0xc8bbd4>
 6a4:	4b312d2f 	blmi	c4bb68 <__standby_start+0xc4bb68>
 6a8:	0a032d69 	beq	cbc54 <__standby_start+0xcbc54>
 6ac:	2c314966 	ldccs	9, cr4, [r1], #-408	; 0xfffffe68
 6b0:	312d2c30 	teqcc	sp, r0, lsr ip
 6b4:	2a4c302c 	bcs	130c76c <__standby_start+0x130c76c>
 6b8:	2f67332d 	svccs	0x0067332d
 6bc:	2f2d2f2d 	svccs	0x002d2f2d
 6c0:	03826203 	orreq	r6, r2, #805306368	; 0x30000000
 6c4:	12036622 	andne	r6, r3, #35651584	; 0x2200000
 6c8:	2f322e66 	svccs	0x00322e66
 6cc:	a0322d2f 	eorsge	r2, r2, pc, lsr #26
 6d0:	29332c4c 	ldmdbcs	r3!, {r2, r3, r6, sl, fp, sp}
 6d4:	4e2c302f 	cdpmi	0, 2, cr3, cr12, cr15, {1}
 6d8:	2c322c2c 	ldccs	12, cr2, [r2], #-176	; 0xffffff50
 6dc:	04022f30 	streq	r2, [r2], #-3888	; 0xfffff0d0
 6e0:	c6010100 	strgt	r0, [r1], -r0, lsl #2
 6e4:	02000000 	andeq	r0, r0, #0
 6e8:	00004100 	andeq	r4, r0, r0, lsl #2
 6ec:	fb010200 	blx	40ef6 <__standby_start+0x40ef6>
 6f0:	01000d0e 	tsteq	r0, lr, lsl #26
 6f4:	00010101 	andeq	r0, r1, r1, lsl #2
 6f8:	00010000 	andeq	r0, r1, r0
 6fc:	73000100 	movwvc	r0, #256	; 0x100
 700:	646e6174 	strbtvs	r6, [lr], #-372	; 0xfffffe8c
 704:	745f7962 	ldrbvc	r7, [pc], #-2402	; 70c <__standby_start+0x70c>
 708:	632e726d 	teqvs	lr, #-805306362	; 0xd0000006
 70c:	00000000 	andeq	r0, r0, r0
 710:	6d6d6f63 	stclvs	15, cr6, [sp, #-396]!	; 0xfffffe74
 714:	682e6e6f 	stmdavs	lr!, {r0, r1, r2, r3, r5, r6, r9, sl, fp, sp, lr}
 718:	00000000 	andeq	r0, r0, r0
 71c:	6e617473 	mcrvs	4, 3, r7, cr1, cr3, {3}
 720:	5f796264 	svcpl	0x00796264
 724:	2e726d74 	mrccs	13, 3, r6, cr2, cr4, {3}
 728:	00000068 	andeq	r0, r0, r8, rrx
 72c:	05000000 	streq	r0, [r0, #-0]
 730:	00134c02 	andseq	r4, r3, r2, lsl #24
 734:	012503f0 	strdeq	r0, [r5, -r0]!	; <UNPREDICTABLE>
 738:	032e1503 	teqeq	lr, #12582912	; 0xc00000
 73c:	0c032e6f 	stceq	14, cr2, [r3], {111}	; 0x6f
 740:	2e74032e 	cdpcs	3, 7, cr0, cr4, cr14, {1}
 744:	4b4b4b4d 	blmi	12d3480 <__standby_start+0x12d3480>
 748:	4e4b4b4b 	vmlsmi.f64	d20, d11, d11
 74c:	2f312f2d 	svccs	0x00312f2d
 750:	2f2d4b2f 	svccs	0x002d4b2f
 754:	820f0331 	andhi	r0, pc, #-1006632960	; 0xc4000000
 758:	2e090316 	mcrcs	3, 0, r0, cr9, cr6, {0}
 75c:	672e7703 	strvs	r7, [lr, -r3, lsl #14]!
 760:	4b4b4b4b 	blmi	12d3494 <__standby_start+0x12d3494>
 764:	312f2d2f 	teqcc	pc, pc, lsr #26
 768:	144a1203 	strbne	r1, [sl], #-515	; 0xfffffdfd
 76c:	7a032f4f 	bvc	cc4b0 <__standby_start+0xcc4b0>
 770:	4b314b2e 	blmi	c53430 <__standby_start+0xc53430>
 774:	672f2934 			; <UNDEFINED> instruction: 0x672f2934
 778:	4a120369 	bmi	481524 <__standby_start+0x481524>
 77c:	03678414 	cmneq	r7, #20, 8	; 0x14000000
 780:	a0144a12 	andsge	r4, r4, r2, lsl sl
 784:	4a120367 	bmi	481528 <__standby_start+0x481528>
 788:	2e0e0315 	mcrcs	3, 0, r0, cr14, cr5, {0}
 78c:	322e7203 	eorcc	r7, lr, #805306368	; 0x30000000
 790:	032b3184 	teqeq	fp, #132, 2	; 0x21
 794:	12032e0c 	andne	r2, r3, #12, 28	; 0xc0
 798:	694d324a 	stmdbvs	sp, {r1, r3, r6, r9, ip, sp}^
 79c:	2f67672c 	svccs	0x0067672c
 7a0:	01040200 	tsteq	r4, r0, lsl #4
 7a4:	69062e06 	stmdbvs	r6, {r1, r2, r9, sl, fp, sp}
 7a8:	01000402 	tsteq	r0, r2, lsl #8
 7ac:	0000fa01 	andeq	pc, r0, r1, lsl #20
 7b0:	41000200 	tstmi	r0, r0, lsl #4
 7b4:	02000000 	andeq	r0, r0, #0
 7b8:	0d0efb01 	vstreq	d15, [lr, #-4]
 7bc:	01010100 	tsteq	r1, r0, lsl #2
 7c0:	00000001 	andeq	r0, r0, r1
 7c4:	01000001 	tsteq	r0, r1
 7c8:	61747300 	cmnvs	r4, r0, lsl #6
 7cc:	7962646e 	stmdbvc	r2!, {r1, r2, r3, r5, r6, sl, sp, lr}^
 7d0:	6977745f 	ldmdbvs	r7!, {r0, r1, r2, r3, r4, r6, sl, ip, sp, lr}^
 7d4:	0000632e 	andeq	r6, r0, lr, lsr #6
 7d8:	6f630000 	svcvs	0x00630000
 7dc:	6e6f6d6d 	cdpvs	13, 6, cr6, cr15, cr13, {3}
 7e0:	0000682e 	andeq	r6, r0, lr, lsr #16
 7e4:	74730000 	ldrbtvc	r0, [r3], #-0
 7e8:	62646e61 	rsbvs	r6, r4, #1552	; 0x610
 7ec:	77745f79 			; <UNDEFINED> instruction: 0x77745f79
 7f0:	00682e69 	rsbeq	r2, r8, r9, ror #28
 7f4:	00000000 	andeq	r0, r0, r0
 7f8:	3c020500 	cfstr32cc	mvfx0, [r2], {-0}
 7fc:	03f00015 	mvnseq	r0, #21
 800:	8313012e 	tsthi	r3, #-2147483637	; 0x8000000b
 804:	004c684b 	subeq	r6, ip, fp, asr #16
 808:	67010402 	strvs	r0, [r1, -r2, lsl #8]
 80c:	66100369 	ldrvs	r0, [r0], -r9, ror #6
 810:	31a02c32 	lsrcc	r2, r2, ip
 814:	84302a4e 	ldrthi	r2, [r0], #-2638	; 0xfffff5b2
 818:	4a00c203 	bmi	3102c <__standby_start+0x3102c>
 81c:	68332917 	ldmdavs	r3!, {r0, r1, r2, r4, r8, fp, sp}
 820:	660b032f 	strvs	r0, [fp], -pc, lsr #6
 824:	04020067 	streq	r0, [r2], #-103	; 0xffffff99
 828:	00672f01 	rsbeq	r2, r7, r1, lsl #30
 82c:	65020402 	strvs	r0, [r2, #-1026]	; 0xfffffbfe
 830:	4b6c2f4f 	blmi	1b0c574 <__standby_start+0x1b0c574>
 834:	04020067 	streq	r0, [r2], #-103	; 0xffffff99
 838:	00672f01 	rsbeq	r2, r7, r1, lsl #30
 83c:	65020402 	strvs	r0, [r2, #-1026]	; 0xfffffbfe
 840:	2f6c2f4f 	svccs	0x006c2f4f
 844:	04020067 	streq	r0, [r2], #-103	; 0xffffff99
 848:	00672f01 	rsbeq	r2, r7, r1, lsl #30
 84c:	65020402 	strvs	r0, [r2, #-1026]	; 0xfffffbfe
 850:	4d6b2f4f 	stclmi	15, cr2, [fp, #-316]!	; 0xfffffec4
 854:	0200674b 	andeq	r6, r0, #19660800	; 0x12c0000
 858:	672f0104 	strvs	r0, [pc, -r4, lsl #2]!
 85c:	02040200 	andeq	r0, r4, #0, 4
 860:	6e2f4f65 	cdpvs	15, 2, cr4, cr15, cr5, {3}
 864:	04020083 	streq	r0, [r2], #-131	; 0xffffff7d
 868:	00672f01 	rsbeq	r2, r7, r1, lsl #30
 86c:	65020402 	strvs	r0, [r2, #-1026]	; 0xfffffbfe
 870:	4b6c2f4f 	blmi	1b0c5b4 <__standby_start+0x1b0c5b4>
 874:	04020067 	streq	r0, [r2], #-103	; 0xffffff99
 878:	00672f01 	rsbeq	r2, r7, r1, lsl #30
 87c:	65020402 	strvs	r0, [r2, #-1026]	; 0xfffffbfe
 880:	676c2f4f 	strbvs	r2, [ip, -pc, asr #30]!
 884:	01040200 	tsteq	r4, r0, lsl #4
 888:	0200672f 	andeq	r6, r0, #12320768	; 0xbc0000
 88c:	4f650204 	svcmi	0x00650204
 890:	8b032f4b 	blhi	cc5c4 <__standby_start+0xcc5c4>
 894:	4f034a7f 	svcmi	0x00034a7f
 898:	352abc82 	strcc	fp, [sl, #-3202]!	; 0xfffff37e
 89c:	676d8167 	strbvs	r8, [sp, -r7, ror #2]!
 8a0:	a1036d65 	tstge	r3, r5, ror #26
 8a4:	04029e01 	streq	r9, [r2], #-3585	; 0xfffff1ff
 8a8:	52010100 	andpl	r0, r1, #0, 2
 8ac:	02000000 	andeq	r0, r0, #0
 8b0:	00003000 	andeq	r3, r0, r0
 8b4:	fb010200 	blx	410be <__standby_start+0x410be>
 8b8:	01000d0e 	tsteq	r0, lr, lsl #26
 8bc:	00010101 	andeq	r0, r1, r1, lsl #2
 8c0:	00010000 	andeq	r0, r1, r0
 8c4:	73000100 	movwvc	r0, #256	; 0x100
 8c8:	646e6174 	strbtvs	r6, [lr], #-372	; 0xfffffe8c
 8cc:	755f7962 	ldrbvc	r7, [pc, #-2402]	; ffffff72 <__bss_end+0xfffd696>
 8d0:	632e6273 	teqvs	lr, #805306375	; 0x30000007
 8d4:	00000000 	andeq	r0, r0, r0
 8d8:	6d6d6f63 	stclvs	15, cr6, [sp, #-396]!	; 0xfffffe74
 8dc:	682e6e6f 	stmdavs	lr!, {r0, r1, r2, r3, r5, r6, r9, sl, fp, sp, lr}
 8e0:	00000000 	andeq	r0, r0, r0
 8e4:	02050000 	andeq	r0, r5, #0
 8e8:	f000187c 			; <UNDEFINED> instruction: 0xf000187c
 8ec:	14012603 	strne	r2, [r1], #-1539	; 0xfffff9fd
 8f0:	144a0f03 	strbne	r0, [sl], #-3843	; 0xfffff0fd
 8f4:	144a1203 	strbne	r1, [sl], #-515	; 0xfffffdfd
 8f8:	144a1103 	strbne	r1, [sl], #-259	; 0xfffffefd
 8fc:	01000402 	tsteq	r0, r2, lsl #8
 900:	00004501 	andeq	r4, r0, r1, lsl #10
 904:	26000200 	strcs	r0, [r0], -r0, lsl #4
 908:	02000000 	andeq	r0, r0, #0
 90c:	0d0efb01 	vstreq	d15, [lr, #-4]
 910:	01010100 	tsteq	r1, r0, lsl #2
 914:	00000001 	andeq	r0, r0, r1
 918:	01000001 	tsteq	r0, r1
 91c:	61747300 	cmnvs	r4, r0, lsl #6
 920:	7962646e 	stmdbvc	r2!, {r1, r2, r3, r5, r6, sl, sp, lr}^
 924:	6c65645f 	cfstrdvs	mvd6, [r5], #-380	; 0xfffffe84
 928:	532e7961 	teqpl	lr, #1589248	; 0x184000
 92c:	00000000 	andeq	r0, r0, r0
 930:	02050000 	andeq	r0, r5, #0
 934:	f000189c 			; <UNDEFINED> instruction: 0xf000189c
 938:	302f2f18 	eorcc	r2, pc, r8, lsl pc	; <UNPREDICTABLE>
 93c:	2f2f2f2f 	svccs	0x002f2f2f
 940:	2f342f30 	svccs	0x00342f30
 944:	0002022f 	andeq	r0, r2, pc, lsr #4
 948:	01080101 	tsteq	r8, r1, lsl #2
 94c:	00020000 	andeq	r0, r2, r0
 950:	0000003c 	andeq	r0, r0, ip, lsr r0
 954:	0efb0102 	cdpeq	1, 15, cr0, cr11, cr2, {0}
 958:	0101000d 	tsteq	r1, sp
 95c:	00000101 	andeq	r0, r0, r1, lsl #2
 960:	00000100 	andeq	r0, r0, r0, lsl #2
 964:	2e2f2e01 	cdpcs	14, 2, cr2, cr15, cr1, {0}
 968:	7000002e 	andvc	r0, r0, lr, lsr #32
 96c:	00682e6d 	rsbeq	r2, r8, sp, ror #28
 970:	70000001 	andvc	r0, r0, r1
 974:	65645f6d 	strbvs	r5, [r4, #-3949]!	; 0xfffff093
 978:	2e677562 	cdpcs	5, 6, cr7, cr7, cr2, {3}
 97c:	00010063 	andeq	r0, r1, r3, rrx
 980:	5f6d7000 	svcpl	0x006d7000
 984:	65707974 	ldrbvs	r7, [r0, #-2420]!	; 0xfffff68c
 988:	00682e73 	rsbeq	r2, r8, r3, ror lr
 98c:	00000001 	andeq	r0, r0, r1
 990:	d0020500 	andle	r0, r2, r0, lsl #10
 994:	03f00018 	mvnseq	r0, #24
 998:	170100c8 	strne	r0, [r1, -r8, asr #1]
 99c:	2f6e3329 	svccs	0x006e3329
 9a0:	01040200 	tsteq	r4, r0, lsl #4
 9a4:	064a062b 	strbeq	r0, [sl], -fp, lsr #12
 9a8:	362f4c36 			; <UNDEFINED> instruction: 0x362f4c36
 9ac:	4a6c0348 	bmi	1b016d4 <__standby_start+0x1b016d4>
 9b0:	042e1903 	strteq	r1, [lr], #-2307	; 0xfffff6fd
 9b4:	7fa90302 	svcvc	0x00a90302
 9b8:	0200302e 	andeq	r3, r0, #46	; 0x2e
 9bc:	6a4b0104 	bvs	12c0dd4 <__standby_start+0x12c0dd4>
 9c0:	0200304d 	andeq	r3, r0, #77	; 0x4d
 9c4:	6a4b0104 	bvs	12c0ddc <__standby_start+0x12c0ddc>
 9c8:	2f4c1351 	svccs	0x004c1351
 9cc:	312e4d30 	teqcc	lr, r0, lsr sp
 9d0:	4d4b134d 	stclmi	3, cr1, [fp, #-308]	; 0xfffffecc
 9d4:	304d312e 	subcc	r3, sp, lr, lsr #2
 9d8:	4c2f302c 	stcmi	0, cr3, [pc], #-176	; 930 <__standby_start+0x930>
 9dc:	302c3069 	eorcc	r3, ip, r9, rrx
 9e0:	15694c2f 	strbne	r4, [r9, #-3119]!	; 0xfffff3d1
 9e4:	69143130 	ldmdbvs	r4, {r4, r5, r8, ip, sp}
 9e8:	03144d4c 	tsteq	r4, #76, 26	; 0x1300
 9ec:	302f6609 	eorcc	r6, pc, r9, lsl #12
 9f0:	314d3231 	cmpcc	sp, r1, lsr r2
 9f4:	68691531 	stmdavs	r9!, {r0, r4, r5, r8, sl, ip}^
 9f8:	4b4e154d 	blmi	1385f34 <__standby_start+0x1385f34>
 9fc:	894d3531 	stmdbhi	sp, {r0, r4, r5, r8, sl, ip, sp}^
 a00:	6a2f2d2f 	bvs	bcbec4 <__standby_start+0xbcbec4>
 a04:	4c67674b 	stclmi	7, cr6, [r7], #-300	; 0xfffffed4
 a08:	6768322c 	strbvs	r3, [r8, -ip, lsr #4]!
 a0c:	03343068 	teqeq	r4, #104	; 0x68
 a10:	4b2f2e78 	blmi	bcc3f8 <__standby_start+0xbcc3f8>
 a14:	302d2f2f 	eorcc	r2, sp, pc, lsr #30
 a18:	2d2b322d 	sfmcs	f3, 4, [fp, #-180]!	; 0xffffff4c
 a1c:	8887312f 	stmhi	r7, {r0, r1, r2, r3, r5, r8, ip, sp}
 a20:	6c83352e 	cfstr32vs	mvfx3, [r3], {46}	; 0x2e
 a24:	2e79032f 	cdpcs	3, 7, cr0, cr9, cr15, {1}
 a28:	002f4d35 	eoreq	r4, pc, r5, lsr sp	; <UNPREDICTABLE>
 a2c:	2d010402 	cfstrscs	mvf0, [r1, #-8]
 a30:	139e2503 	orrsne	r2, lr, #12582912	; 0xc00000
 a34:	09030f4d 	stmdbeq	r3, {r0, r2, r3, r6, r8, r9, sl, fp}
 a38:	6969142e 	stmdbvs	r9!, {r1, r2, r3, r5, sl, ip}^
 a3c:	312f4b16 	teqcc	pc, r6, lsl fp	; <UNPREDICTABLE>
 a40:	2f4c154d 	svccs	0x004c154d
 a44:	2c325031 	ldccs	0, cr5, [r2], #-196	; 0xffffff3c
 a48:	302a3030 	eorcc	r3, sl, r0, lsr r0
 a4c:	2f302f2f 	svccs	0x00302f2f
 a50:	00040231 	andeq	r0, r4, r1, lsr r2
 a54:	01830101 	orreq	r0, r3, r1, lsl #2
 a58:	00020000 	andeq	r0, r2, r0
 a5c:	00000038 	andeq	r0, r0, r8, lsr r0
 a60:	0efb0102 	cdpeq	1, 15, cr0, cr11, cr2, {0}
 a64:	0101000d 	tsteq	r1, sp
 a68:	00000101 	andeq	r0, r0, r1, lsl #2
 a6c:	00000100 	andeq	r0, r0, r0, lsl #2
 a70:	61726401 	cmnvs	r2, r1, lsl #8
 a74:	7264006d 	rsbvc	r0, r4, #109	; 0x6d
 a78:	2e2f6d61 	cdpcs	13, 2, cr6, cr15, cr1, {3}
 a7c:	002e2e2f 	eoreq	r2, lr, pc, lsr #28
 a80:	61726400 	cmnvs	r2, r0, lsl #8
 a84:	00632e6d 	rsbeq	r2, r3, sp, ror #28
 a88:	63000001 	movwvs	r0, #1
 a8c:	6f6d6d6f 	svcvs	0x006d6d6f
 a90:	00682e6e 	rsbeq	r2, r8, lr, ror #28
 a94:	00000002 	andeq	r0, r0, r2
 a98:	38020500 	stmdacc	r2, {r8, sl}
 a9c:	03f0001c 	mvnseq	r0, #28
 aa0:	4b16011e 	blmi	580f20 <__standby_start+0x580f20>
 aa4:	02002f2f 	andeq	r2, r0, #47, 30	; 0xbc
 aa8:	67310104 	ldrvs	r0, [r1, -r4, lsl #2]!
 aac:	2203112f 	andcs	r1, r3, #-1073741813	; 0xc000000b
 ab0:	2f4b164a 	svccs	0x004b164a
 ab4:	0402002f 	streq	r0, [r2], #-47	; 0xffffffd1
 ab8:	2f673101 	svccs	0x00673101
 abc:	4a2d0311 	bmi	b41708 <__standby_start+0xb41708>
 ac0:	2f2f4b16 	svccs	0x002f4b16
 ac4:	01040200 	tsteq	r4, r0, lsl #4
 ac8:	112f6731 	teqne	pc, r1, lsr r7	; <UNPREDICTABLE>
 acc:	0311144e 	tsteq	r1, #1308622848	; 0x4e000000
 ad0:	4c152e13 	ldcmi	14, cr2, [r5], {19}
 ad4:	30302d2f 	eorscc	r2, r0, pc, lsr #26
 ad8:	7faa032f 	svcvc	0x00aa032f
 adc:	4b313366 	blmi	c4d87c <__standby_start+0xc4d87c>
 ae0:	02002f2f 	andeq	r2, r0, #47, 30	; 0xbc
 ae4:	832f0104 	teqhi	pc, #4, 2
 ae8:	312f2f4d 	teqcc	pc, sp, asr #30
 aec:	02040200 	andeq	r0, r4, #0, 4
 af0:	04020030 	streq	r0, [r2], #-48	; 0xffffffd0
 af4:	02004802 	andeq	r4, r0, #131072	; 0x20000
 af8:	00300204 	eorseq	r0, r0, r4, lsl #4
 afc:	2c020402 	cfstrscs	mvf0, [r2], {2}
 b00:	7fba034e 	svcvc	0x00ba034e
 b04:	0200334a 	andeq	r3, r0, #671088641	; 0x28000001
 b08:	00300204 	eorseq	r0, r0, r4, lsl #4
 b0c:	48020402 	stmdami	r2, {r1, sl}
 b10:	02040200 	andeq	r0, r4, #0, 4
 b14:	04020030 	streq	r0, [r2], #-48	; 0xffffffd0
 b18:	0b032c02 	bleq	cbb28 <__standby_start+0xcbb28>
 b1c:	2f4b314a 	svccs	0x004b314a
 b20:	0402002f 	streq	r0, [r2], #-47	; 0xffffffd1
 b24:	4d672f01 	stclmi	15, cr2, [r7, #-4]!
 b28:	00f90367 	rscseq	r0, r9, r7, ror #6
 b2c:	2935154a 	ldmdbcs	r5!, {r1, r3, r6, r8, sl, ip}
 b30:	1103504b 	tstne	r3, fp, asr #32
 b34:	312b154a 	teqcc	fp, sl, asr #10
 b38:	30303030 	eorscc	r3, r0, r0, lsr r0
 b3c:	2f2f2a2c 	svccs	0x002f2a2c
 b40:	2f2f2f2f 	svccs	0x002f2f2f
 b44:	6611032f 	ldrvs	r0, [r1], -pc, lsr #6
 b48:	2f4b2b35 	svccs	0x004b2b35
 b4c:	2f2f302f 	svccs	0x002f302f
 b50:	031a4d2f 	tsteq	sl, #3008	; 0xbc0
 b54:	4b522e78 	blmi	148c53c <__standby_start+0x148c53c>
 b58:	312c2f2f 	teqcc	ip, pc, lsr #30
 b5c:	2f2f2f2f 	svccs	0x002f2f2f
 b60:	4b302d2f 	blmi	c0c024 <__standby_start+0xc0c024>
 b64:	312c2f2f 	teqcc	ip, pc, lsr #30
 b68:	4c2d2f2c 	stcmi	15, cr2, [sp], #-176	; 0xffffff50
 b6c:	2f4b2f2d 	svccs	0x004b2f2d
 b70:	032f2f2c 	teqeq	pc, #44, 30	; 0xb0
 b74:	77032e0b 	strvc	r2, [r3, -fp, lsl #28]
 b78:	3030302e 	eorscc	r3, r0, lr, lsr #32
 b7c:	10033131 	andne	r3, r3, r1, lsr r1
 b80:	2e6d032e 	cdpcs	3, 6, cr0, cr13, cr14, {1}
 b84:	31312b34 	teqcc	r1, r4, lsr fp
 b88:	2d30302b 	ldccs	0, cr3, [r0, #-172]!	; 0xffffff54
 b8c:	2f312f2f 	svccs	0x00312f2f
 b90:	302f314b 	eorcc	r3, pc, fp, asr #2
 b94:	01040200 	tsteq	r4, r0, lsl #4
 b98:	314d8467 	mrscc	r8, SPSR
 b9c:	2e0e032b 	cdpcs	3, 0, cr0, cr14, cr11, {1}
 ba0:	312e7503 	teqcc	lr, r3, lsl #10
 ba4:	2f312f2f 	svccs	0x00312f2f
 ba8:	2f312f2f 	svccs	0x00312f2f
 bac:	0402002f 	streq	r0, [r2], #-47	; 0xffffffd1
 bb0:	2f852f01 	svccs	0x00852f01
 bb4:	2f312f2d 	svccs	0x00312f2d
 bb8:	854d304d 	strbhi	r3, [sp, #-77]	; 0xffffffb3
 bbc:	31313132 	teqcc	r1, r2, lsr r1
 bc0:	3311144c 	tstcc	r1, #76, 8	; 0x4c000000
 bc4:	14331114 	ldrtne	r1, [r3], #-276	; 0xfffffeec
 bc8:	11143311 	tstne	r4, r1, lsl r3
 bcc:	33111433 	tstcc	r1, #855638016	; 0x33000000
 bd0:	14331114 	ldrtne	r1, [r3], #-276	; 0xfffffeec
 bd4:	11143311 	tstne	r4, r1, lsl r3
 bd8:	01000202 	tsteq	r0, r2, lsl #4
 bdc:	00026a01 	andeq	r6, r2, r1, lsl #20
 be0:	7d000200 	sfmvc	f0, 4, [r0, #-0]
 be4:	02000000 	andeq	r0, r0, #0
 be8:	0d0efb01 	vstreq	d15, [lr, #-4]
 bec:	01010100 	tsteq	r1, r0, lsl #2
 bf0:	00000001 	andeq	r0, r0, r1
 bf4:	01000001 	tsteq	r0, r1
 bf8:	6d617264 	sfmvs	f7, 2, [r1, #-400]!	; 0xfffffe70
 bfc:	61726400 	cmnvs	r2, r0, lsl #8
 c00:	2f2e2f6d 	svccs	0x002e2f6d
 c04:	2f002e2e 	svccs	0x00002e2e
 c08:	656d6f68 	strbvs	r6, [sp, #-3944]!	; 0xfffff098
 c0c:	646e612f 	strbtvs	r6, [lr], #-303	; 0xfffffed1
 c10:	64696f72 	strbtvs	r6, [r9], #-3954	; 0xfffff08e
 c14:	72656b2f 	rsbvc	r6, r5, #48128	; 0xbc00
 c18:	2f6c656e 	svccs	0x006c656e
 c1c:	68637261 	stmdavs	r3!, {r0, r5, r6, r9, ip, sp, lr}^
 c20:	6d72612f 	ldfvse	f6, [r2, #-188]!	; 0xffffff44
 c24:	63616d2f 	cmnvs	r1, #3008	; 0xbc0
 c28:	75732d68 	ldrbvc	r2, [r3, #-3432]!	; 0xfffff298
 c2c:	2f69356e 	svccs	0x0069356e
 c30:	6c636e69 	stclvs	14, cr6, [r3], #-420	; 0xfffffe5c
 c34:	2f656475 	svccs	0x00656475
 c38:	6863616d 	stmdavs	r3!, {r0, r2, r3, r5, r6, r8, sp, lr}^
 c3c:	72640000 	rsbvc	r0, r4, #0
 c40:	695f6d61 	ldmdbvs	pc, {r0, r5, r6, r8, sl, fp, sp, lr}^	; <UNPREDICTABLE>
 c44:	2e74696e 	cdpcs	9, 7, cr6, cr4, cr14, {3}
 c48:	00010063 	andeq	r0, r1, r3, rrx
 c4c:	6d6f6300 	stclvs	3, cr6, [pc, #-0]	; c54 <__standby_start+0xc54>
 c50:	2e6e6f6d 	cdpcs	15, 6, cr6, cr14, cr13, {3}
 c54:	00020068 	andeq	r0, r2, r8, rrx
 c58:	61726400 	cmnvs	r2, r0, lsl #8
 c5c:	00682e6d 	rsbeq	r2, r8, sp, ror #28
 c60:	00000003 	andeq	r0, r0, r3
 c64:	18020500 	stmdane	r2, {r8, sl}
 c68:	03f00020 	mvnseq	r0, #32
 c6c:	2b340123 	blcs	d01100 <__standby_start+0xd01100>
 c70:	2f2f2f4b 	svccs	0x002f2f4b
 c74:	4d2f2f2f 	stcmi	15, cr2, [pc, #-188]!	; bc0 <__standby_start+0xbc0>
 c78:	2f4b4c15 	svccs	0x004b4c15
 c7c:	4b154d2f 	blmi	554140 <__standby_start+0x554140>
 c80:	4d2f2f2f 	stcmi	15, cr2, [pc, #-188]!	; bcc <__standby_start+0xbcc>
 c84:	2f2f4b15 	svccs	0x002f4b15
 c88:	9f2d324d 	svcls	0x002d324d
 c8c:	4b2d2f30 	blmi	b4c954 <__standby_start+0xb4c954>
 c90:	682d2f30 	stmdavs	sp!, {r4, r5, r8, r9, sl, fp, sp}
 c94:	36184e2d 	ldrcc	r4, [r8], -sp, lsr #28
 c98:	342e7203 	strtcc	r7, [lr], #-515	; 0xfffffdfd
 c9c:	02003030 	andeq	r3, r0, #48	; 0x30
 ca0:	006c0204 	rsbeq	r0, ip, r4, lsl #4
 ca4:	64020402 	strvs	r0, [r2], #-1026	; 0xfffffbfe
 ca8:	02040200 	andeq	r0, r4, #0, 4
 cac:	04020030 	streq	r0, [r2], #-48	; 0xffffffd0
 cb0:	02002c02 	andeq	r2, r0, #512	; 0x200
 cb4:	00320204 	eorseq	r0, r2, r4, lsl #4
 cb8:	2c020402 	cfstrscs	mvf0, [r2], {2}
 cbc:	02040200 	andeq	r0, r4, #0, 4
 cc0:	04020083 	streq	r0, [r2], #-131	; 0xffffff7d
 cc4:	4c357f02 	ldcmi	15, cr7, [r5], #-8
 cc8:	02040200 	andeq	r0, r4, #0, 4
 ccc:	04020030 	streq	r0, [r2], #-48	; 0xffffffd0
 cd0:	02004802 	andeq	r4, r0, #131072	; 0x20000
 cd4:	00300204 	eorseq	r0, r0, r4, lsl #4
 cd8:	2c020402 	cfstrscs	mvf0, [r2], {2}
 cdc:	02040200 	andeq	r0, r4, #0, 4
 ce0:	04020030 	streq	r0, [r2], #-48	; 0xffffffd0
 ce4:	4c336402 	cfldrsmi	mvf6, [r3], #-8
 ce8:	02040200 	andeq	r0, r4, #0, 4
 cec:	04020030 	streq	r0, [r2], #-48	; 0xffffffd0
 cf0:	02004802 	andeq	r4, r0, #131072	; 0x20000
 cf4:	00300204 	eorseq	r0, r0, r4, lsl #4
 cf8:	2c020402 	cfstrscs	mvf0, [r2], {2}
 cfc:	02040200 	andeq	r0, r4, #0, 4
 d00:	04020030 	streq	r0, [r2], #-48	; 0xffffffd0
 d04:	2f328002 	svccs	0x00328002
 d08:	4b156a2d 	blmi	55b5c4 <__standby_start+0x55b5c4>
 d0c:	2f302f2f 	svccs	0x00302f2f
 d10:	2f302f2f 	svccs	0x00302f2f
 d14:	2f302f2f 	svccs	0x00302f2f
 d18:	2f302f2f 	svccs	0x00302f2f
 d1c:	032f2f2f 	teqeq	pc, #47, 30	; 0xbc
 d20:	00154a0e 	andseq	r4, r5, lr, lsl #20
 d24:	4c020402 	cfstrsmi	mvf0, [r2], {2}
 d28:	02040200 	andeq	r0, r4, #0, 4
 d2c:	04020048 	streq	r0, [r2], #-72	; 0xffffffb8
 d30:	02003002 	andeq	r3, r0, #2
 d34:	00480204 	subeq	r0, r8, r4, lsl #4
 d38:	30020402 	andcc	r0, r2, r2, lsl #8
 d3c:	02040200 	andeq	r0, r4, #0, 4
 d40:	1669322c 	strbtne	r3, [r9], -ip, lsr #4
 d44:	2e760334 	mrccs	3, 3, r0, cr6, cr4, {1}
 d48:	032e0a03 	teqeq	lr, #12288	; 0x3000
 d4c:	46342e7a 			; <UNDEFINED> instruction: 0x46342e7a
 d50:	02042f30 	andeq	r2, r4, #48, 30	; 0xc0
 d54:	4a7eee03 	bmi	1fbc568 <__standby_start+0x1fbc568>
 d58:	8a2c2d2f 	bhi	b0c21c <__standby_start+0xb0c21c>
 d5c:	4eda4b68 	vfnmami.f64	d20, d10, d24
 d60:	03010448 	movweq	r0, #5192	; 0x1448
 d64:	33660184 	cmncc	r6, #132, 2	; 0x21
 d68:	2e7a032f 	cdpcs	3, 7, cr0, cr10, cr15, {1}
 d6c:	2f2f2f2f 	svccs	0x002f2f2f
 d70:	032f2f2f 	teqeq	pc, #47, 30	; 0xbc
 d74:	74032e0d 	strvc	r2, [r3], #-3597	; 0xfffff1f3
 d78:	4e322f2e 	cdpmi	15, 3, cr2, cr2, cr14, {1}
 d7c:	302f2f2f 	eorcc	r2, pc, pc, lsr #30
 d80:	2d302d30 	ldccs	13, cr2, [r0, #-192]!	; 0xffffff40
 d84:	66019703 	strvs	r9, [r1], -r3, lsl #14
 d88:	4a100314 	bmi	4019e0 <__standby_start+0x4019e0>
 d8c:	002f4b16 	eoreq	r4, pc, r6, lsl fp	; <UNPREDICTABLE>
 d90:	31010402 	tstcc	r1, r2, lsl #8
 d94:	20035169 	andcs	r5, r3, r9, ror #2
 d98:	2c301582 	cfldr32cs	mvfx1, [r0], #-520	; 0xfffffdf8
 d9c:	2f303031 	svccs	0x00303031
 da0:	034a0d03 	movteq	r0, #44291	; 0xad03
 da4:	4d670110 	stfmie	f0, [r7, #-64]!	; 0xffffffc0
 da8:	344b2f2c 	strbcc	r2, [fp], #-3884	; 0xfffff0d4
 dac:	174a1203 	strbne	r1, [sl, -r3, lsl #4]
 db0:	2d2f2f4b 	stccs	15, cr2, [pc, #-300]!	; c8c <__standby_start+0xc8c>
 db4:	302d2f30 	eorcc	r2, sp, r0, lsr pc
 db8:	2f302d2f 	svccs	0x00302d2f
 dbc:	4c6a312d 	stfmie	f3, [sl], #-180	; 0xffffff4c
 dc0:	2d302f2d 	ldccs	15, cr2, [r0, #-180]!	; 0xffffff4c
 dc4:	03312f2f 	teqeq	r1, #47, 30	; 0xbc
 dc8:	344a7dc8 	strbcc	r7, [sl], #-3528	; 0xfffff238
 dcc:	31352b31 	teqcc	r5, r1, lsr fp
 dd0:	314c312b 	mrscc	r3, SPSR
 dd4:	31312f4d 	teqcc	r1, sp, asr #30
 dd8:	312b4d2b 	teqcc	fp, fp, lsr #26
 ddc:	2d2f6830 	stccs	8, cr6, [pc, #-192]!	; d24 <__standby_start+0xd24>
 de0:	302d2f30 	eorcc	r2, sp, r0, lsr pc
 de4:	2f302d2f 	svccs	0x00302d2f
 de8:	322f302d 	eorcc	r3, pc, #45	; 0x2d
 dec:	032e1103 	teqeq	lr, #-1073741824	; 0xc0000000
 df0:	312f2e6e 	teqcc	pc, lr, ror #28
 df4:	2f2d2f2a 	svccs	0x002d2f2a
 df8:	312f2f2f 	teqcc	pc, pc, lsr #30
 dfc:	2d302d2f 	ldccs	13, cr2, [r0, #-188]!	; 0xffffff44
 e00:	2f312f2f 	svccs	0x00312f2f
 e04:	3030314b 	eorscc	r3, r0, fp, asr #2
 e08:	01040200 	tsteq	r4, r0, lsl #4
 e0c:	4d52844b 	cfldrdmi	mvd8, [r2, #-300]	; 0xfffffed4
 e10:	4d4d4b4b 	vstrmi	d20, [sp, #-300]	; 0xfffffed4
 e14:	4b314c67 	blmi	c53fb8 <__standby_start+0xc53fb8>
 e18:	4b4b4c4c 	blmi	12d3f50 <__standby_start+0x12d3f50>
 e1c:	2f2f2f4d 	svccs	0x002f2f4d
 e20:	002f2f31 	eoreq	r2, pc, r1, lsr pc	; <UNPREDICTABLE>
 e24:	30010402 	andcc	r0, r1, r2, lsl #8
 e28:	4f302f69 	svcmi	0x00302f69
 e2c:	34292d31 	strtcc	r2, [r9], #-3377	; 0xfffff2cf
 e30:	4a01b903 	bmi	6f244 <__standby_start+0x6f244>
 e34:	4d144d15 	ldcmi	13, cr4, [r4, #-84]	; 0xffffffac
 e38:	14321114 	ldrtne	r1, [r2], #-276	; 0xfffffeec
 e3c:	11143211 	tstne	r4, r1, lsl r2
 e40:	32111432 	andscc	r1, r1, #838860800	; 0x32000000
 e44:	02021114 	andeq	r1, r2, #20, 2
 e48:	Address 0x00000e48 is out of bounds.


Disassembly of section .debug_loc:

00000000 <.debug_loc>:
       0:	00000000 	andeq	r0, r0, r0
       4:	00000004 	andeq	r0, r0, r4
       8:	007d0002 	rsbseq	r0, sp, r2
       c:	00000004 	andeq	r0, r0, r4
      10:	000003ac 	andeq	r0, r0, ip, lsr #7
      14:	187d0002 	ldmdane	sp!, {r1}^
	...
      24:	00000013 	andeq	r0, r0, r3, lsl r0
      28:	13500001 	cmpne	r0, #1
      2c:	ac000000 	stcge	0, cr0, [r0], {-0}
      30:	01000003 	tsteq	r0, r3
      34:	00005500 	andeq	r5, r0, r0, lsl #10
      38:	00000000 	andeq	r0, r0, r0
      3c:	00180000 	andseq	r0, r8, r0
      40:	00240000 	eoreq	r0, r4, r0
      44:	00010000 	andeq	r0, r1, r0
      48:	00002456 	andeq	r2, r0, r6, asr r4
      4c:	00003000 	andeq	r3, r0, r0
      50:	56000100 	strpl	r0, [r0], -r0, lsl #2
	...
      60:	00000010 	andeq	r0, r0, r0, lsl r0
      64:	00500001 	subseq	r0, r0, r1
	...
      70:	10000000 	andne	r0, r0, r0
      74:	01000000 	tsteq	r0, r0
      78:	00005100 	andeq	r5, r0, r0, lsl #2
	...
      84:	00180000 	andseq	r0, r8, r0
      88:	00010000 	andeq	r0, r1, r0
      8c:	00001852 	andeq	r1, r0, r2, asr r8
      90:	00001c00 	andeq	r1, r0, r0, lsl #24
      94:	72000300 	andvc	r0, r0, #0, 6
      98:	001c9f01 	andseq	r9, ip, r1, lsl #30
      9c:	00280000 	eoreq	r0, r8, r0
      a0:	00010000 	andeq	r0, r1, r0
      a4:	00000052 	andeq	r0, r0, r2, asr r0
	...
      b0:	00001000 	andeq	r1, r0, r0
      b4:	51000100 	tstpl	r0, r0, lsl #2
	...
      c4:	0000001c 	andeq	r0, r0, ip, lsl r0
      c8:	1c500001 	mrrcne	0, 0, r0, r0, cr1	; <UNPREDICTABLE>
      cc:	28000000 	stmdacs	r0, {}	; <UNPREDICTABLE>
      d0:	01000000 	tsteq	r0, r0
      d4:	00005000 	andeq	r5, r0, r0
      d8:	00000000 	andeq	r0, r0, r0
      dc:	00280000 	eoreq	r0, r8, r0
      e0:	00340000 	eorseq	r0, r4, r0
      e4:	00010000 	andeq	r0, r1, r0
      e8:	00000050 	andeq	r0, r0, r0, asr r0
      ec:	00000000 	andeq	r0, r0, r0
      f0:	00031000 	andeq	r1, r3, r0
      f4:	00035000 	andeq	r5, r3, r0
      f8:	50000100 	andpl	r0, r0, r0, lsl #2
      fc:	00000364 	andeq	r0, r0, r4, ror #6
     100:	00000368 	andeq	r0, r0, r8, ror #6
     104:	00500001 	subseq	r0, r0, r1
     108:	00000000 	andeq	r0, r0, r0
     10c:	70000000 	andvc	r0, r0, r0
     110:	b8000003 	stmdalt	r0, {r0, r1}
     114:	01000003 	tsteq	r0, r3
     118:	03bc5000 			; <UNDEFINED> instruction: 0x03bc5000
     11c:	03c00000 	biceq	r0, r0, #0
     120:	00010000 	andeq	r0, r1, r0
     124:	00000050 	andeq	r0, r0, r0, asr r0
     128:	00000000 	andeq	r0, r0, r0
     12c:	0003c800 	andeq	ip, r3, r0, lsl #16
     130:	00041000 	andeq	r1, r4, r0
     134:	50000100 	andpl	r0, r0, r0, lsl #2
     138:	00000420 	andeq	r0, r0, r0, lsr #8
     13c:	00000424 	andeq	r0, r0, r4, lsr #8
     140:	00500001 	subseq	r0, r0, r1
     144:	00000000 	andeq	r0, r0, r0
     148:	2c000000 	stccs	0, cr0, [r0], {-0}
     14c:	70000004 	andvc	r0, r0, r4
     150:	01000004 	tsteq	r0, r4
     154:	04745000 	ldrbteq	r5, [r4], #-0
     158:	04780000 	ldrbteq	r0, [r8], #-0
     15c:	00010000 	andeq	r0, r1, r0
     160:	00000050 	andeq	r0, r0, r0, asr r0
     164:	00000000 	andeq	r0, r0, r0
     168:	0000f000 	andeq	pc, r0, r0
     16c:	00010400 	andeq	r0, r1, r0, lsl #8
     170:	7d000200 	sfmvc	f0, 4, [r0, #-0]
     174:	00010400 	andeq	r0, r1, r0, lsl #8
     178:	00013800 	andeq	r3, r1, r0, lsl #16
     17c:	7d000200 	sfmvc	f0, 4, [r0, #-0]
     180:	00000008 	andeq	r0, r0, r8
     184:	00000000 	andeq	r0, r0, r0
     188:	0000f000 	andeq	pc, r0, r0
     18c:	00010000 	andeq	r0, r1, r0
     190:	50000100 	andpl	r0, r0, r0, lsl #2
	...
     19c:	000000f8 	strdeq	r0, [r0], -r8
     1a0:	00000110 	andeq	r0, r0, r0, lsl r1
     1a4:	10520001 	subsne	r0, r2, r1
     1a8:	24000001 	strcs	r0, [r0], #-1
     1ac:	03000001 	movweq	r0, #1
     1b0:	9f707100 	svcls	0x00707100
     1b4:	00000124 	andeq	r0, r0, r4, lsr #2
     1b8:	00000138 	andeq	r0, r0, r8, lsr r1
     1bc:	6c720003 	ldclvs	0, cr0, [r2], #-12
     1c0:	0000009f 	muleq	r0, pc, r0	; <UNPREDICTABLE>
     1c4:	00000000 	andeq	r0, r0, r0
     1c8:	0000f800 	andeq	pc, r0, r0, lsl #16
     1cc:	00010000 	andeq	r0, r1, r0
     1d0:	70000500 	andvc	r0, r0, r0, lsl #10
     1d4:	9f1a4f00 	svcls	0x001a4f00
     1d8:	00000100 	andeq	r0, r0, r0, lsl #2
     1dc:	00000114 	andeq	r0, r0, r4, lsl r1
     1e0:	00500001 	subseq	r0, r0, r1
     1e4:	00000000 	andeq	r0, r0, r0
     1e8:	38000000 	stmdacc	r0, {}	; <UNPREDICTABLE>
     1ec:	48000001 	stmdami	r0, {r0}
     1f0:	01000001 	tsteq	r0, r1
     1f4:	00005000 	andeq	r5, r0, r0
     1f8:	00000000 	andeq	r0, r0, r0
     1fc:	01380000 	teqeq	r8, r0
     200:	01500000 	cmpeq	r0, r0
     204:	00020000 	andeq	r0, r2, r0
     208:	00009f30 	andeq	r9, r0, r0, lsr pc
     20c:	00000000 	andeq	r0, r0, r0
     210:	01400000 	mrseq	r0, SPSR
     214:	01440000 	mrseq	r0, SPSR
     218:	00010000 	andeq	r0, r1, r0
     21c:	00014452 	andeq	r4, r1, r2, asr r4
     220:	00015400 	andeq	r5, r1, r0, lsl #8
     224:	72000300 	andvc	r0, r0, #0, 6
     228:	00009f7c 	andeq	r9, r0, ip, ror pc
     22c:	00000000 	andeq	r0, r0, r0
     230:	01400000 	mrseq	r0, SPSR
     234:	01480000 	mrseq	r0, SPSR
     238:	00050000 	andeq	r0, r5, r0
     23c:	1a4f0070 	bne	13c0404 <__standby_start+0x13c0404>
     240:	0001489f 	muleq	r1, pc, r8	; <UNPREDICTABLE>
     244:	00016000 	andeq	r6, r1, r0
     248:	50000100 	andpl	r0, r0, r0, lsl #2
	...
     258:	00000004 	andeq	r0, r0, r4
     25c:	007d0002 	rsbseq	r0, sp, r2
     260:	00000004 	andeq	r0, r0, r4
     264:	00000058 	andeq	r0, r0, r8, asr r0
     268:	107d0002 	rsbsne	r0, sp, r2
	...
     278:	00000028 	andeq	r0, r0, r8, lsr #32
     27c:	28500001 	ldmdacs	r0, {r0}^
     280:	34000000 	strcc	r0, [r0], #-0
     284:	01000000 	tsteq	r0, r0
     288:	00345300 	eorseq	r5, r4, r0, lsl #6
     28c:	00480000 	subeq	r0, r8, r0
     290:	00010000 	andeq	r0, r1, r0
     294:	00004853 	andeq	r4, r0, r3, asr r8
     298:	00004c00 	andeq	r4, r0, r0, lsl #24
     29c:	50000100 	andpl	r0, r0, r0, lsl #2
     2a0:	0000004c 	andeq	r0, r0, ip, asr #32
     2a4:	00000050 	andeq	r0, r0, r0, asr r0
     2a8:	00530001 	subseq	r0, r3, r1
	...
     2b4:	0c000000 	stceq	0, cr0, [r0], {-0}
     2b8:	01000000 	tsteq	r0, r0
     2bc:	000c5100 	andeq	r5, ip, r0, lsl #2
     2c0:	00140000 	andseq	r0, r4, r0
     2c4:	00010000 	andeq	r0, r1, r0
     2c8:	00004852 	andeq	r4, r0, r2, asr r8
     2cc:	00005000 	andeq	r5, r0, r0
     2d0:	52000100 	andpl	r0, r0, #0, 2
	...
     2e0:	0000000c 	andeq	r0, r0, ip
     2e4:	0c510001 	mrrceq	0, 0, r0, r1, cr1
     2e8:	18000000 	stmdane	r0, {}	; <UNPREDICTABLE>
     2ec:	01000000 	tsteq	r0, r0
     2f0:	00185200 	andseq	r5, r8, r0, lsl #4
     2f4:	00380000 	eorseq	r0, r8, r0
     2f8:	00010000 	andeq	r0, r1, r0
     2fc:	00003852 	andeq	r3, r0, r2, asr r8
     300:	00004400 	andeq	r4, r0, r0, lsl #8
     304:	72000500 	andvc	r0, r0, #0, 10
     308:	9f253100 	svcls	0x00253100
     30c:	00000044 	andeq	r0, r0, r4, asr #32
     310:	00000050 	andeq	r0, r0, r0, asr r0
     314:	00520001 	subseq	r0, r2, r1
	...
     320:	28000000 	stmdacs	r0, {}	; <UNPREDICTABLE>
     324:	02000000 	andeq	r0, r0, #0
     328:	289f3000 	ldmcs	pc, {ip, sp}	; <UNPREDICTABLE>
     32c:	30000000 	andcc	r0, r0, r0
     330:	01000000 	tsteq	r0, r0
     334:	00385000 	eorseq	r5, r8, r0
     338:	00480000 	subeq	r0, r8, r0
     33c:	00010000 	andeq	r0, r1, r0
     340:	00004850 	andeq	r4, r0, r0, asr r8
     344:	00005000 	andeq	r5, r0, r0
     348:	30000200 	andcc	r0, r0, r0, lsl #4
     34c:	0000009f 	muleq	r0, pc, r0	; <UNPREDICTABLE>
	...
     358:	00001400 	andeq	r1, r0, r0, lsl #8
     35c:	30000200 	andcc	r0, r0, r0, lsl #4
     360:	0000149f 	muleq	r0, pc, r4	; <UNPREDICTABLE>
     364:	00001c00 	andeq	r1, r0, r0, lsl #24
     368:	51000100 	tstpl	r0, r0, lsl #2
     36c:	0000001c 	andeq	r0, r0, ip, lsl r0
     370:	00000038 	andeq	r0, r0, r8, lsr r0
     374:	38510001 	ldmdacc	r1, {r0}^
     378:	3c000000 	stccc	0, cr0, [r0], {-0}
     37c:	03000000 	movweq	r0, #0
     380:	9f7f7100 	svcls	0x007f7100
     384:	0000003c 	andeq	r0, r0, ip, lsr r0
     388:	00000048 	andeq	r0, r0, r8, asr #32
     38c:	48510001 	ldmdami	r1, {r0}^
     390:	50000000 	andpl	r0, r0, r0
     394:	02000000 	andeq	r0, r0, #0
     398:	009f3000 	addseq	r3, pc, r0
     39c:	00000000 	andeq	r0, r0, r0
     3a0:	50000000 	andpl	r0, r0, r0
     3a4:	60000000 	andvs	r0, r0, r0
     3a8:	01000000 	tsteq	r0, r0
     3ac:	00605000 	rsbeq	r5, r0, r0
     3b0:	00940000 	addseq	r0, r4, r0
     3b4:	00010000 	andeq	r0, r1, r0
     3b8:	0000005c 	andeq	r0, r0, ip, asr r0
     3bc:	00000000 	andeq	r0, r0, r0
     3c0:	00006c00 	andeq	r6, r0, r0, lsl #24
     3c4:	00008000 	andeq	r8, r0, r0
     3c8:	50000100 	andpl	r0, r0, r0, lsl #2
	...
     3d4:	00000050 	andeq	r0, r0, r0, asr r0
     3d8:	00000060 	andeq	r0, r0, r0, rrx
     3dc:	9f300002 	svcls	0x00300002
     3e0:	00000060 	andeq	r0, r0, r0, rrx
     3e4:	00000080 	andeq	r0, r0, r0, lsl #1
     3e8:	80530001 	subshi	r0, r3, r1
     3ec:	94000000 	strls	r0, [r0], #-0
     3f0:	01000000 	tsteq	r0, r0
     3f4:	00005300 	andeq	r5, r0, r0, lsl #6
     3f8:	00000000 	andeq	r0, r0, r0
     3fc:	00940000 	addseq	r0, r4, r0
     400:	00980000 	addseq	r0, r8, r0
     404:	00020000 	andeq	r0, r2, r0
     408:	0098007d 	addseq	r0, r8, sp, ror r0
     40c:	02e00000 	rsceq	r0, r0, #0
     410:	00020000 	andeq	r0, r2, r0
     414:	0000107d 	andeq	r1, r0, sp, ror r0
     418:	00000000 	andeq	r0, r0, r0
     41c:	00940000 	addseq	r0, r4, r0
     420:	00a00000 	adceq	r0, r0, r0
     424:	00010000 	andeq	r0, r1, r0
     428:	0000a050 	andeq	sl, r0, r0, asr r0
     42c:	0002e000 	andeq	lr, r2, r0
     430:	54000100 	strpl	r0, [r0], #-256	; 0xffffff00
	...
     43c:	000000c0 	andeq	r0, r0, r0, asr #1
     440:	000000c4 	andeq	r0, r0, r4, asr #1
     444:	6f910002 	svcvs	0x00910002
     448:	000000d0 	ldrdeq	r0, [r0], -r0	; <UNPREDICTABLE>
     44c:	000000d8 	ldrdeq	r0, [r0], -r8
     450:	d8530001 	ldmdale	r3, {r0}^
     454:	00000000 	andeq	r0, r0, r0
     458:	02000001 	andeq	r0, r0, #1
     45c:	0c6f9100 	stfeqp	f1, [pc], #-0	; 464 <__standby_start+0x464>
     460:	14000001 	strne	r0, [r0], #-1
     464:	01000001 	tsteq	r0, r1
     468:	01145300 	tsteq	r4, r0, lsl #6
     46c:	01340000 	teqeq	r4, r0
     470:	00020000 	andeq	r0, r2, r0
     474:	01406f91 			; <UNDEFINED> instruction: 0x01406f91
     478:	01480000 	mrseq	r0, SPSR
     47c:	00010000 	andeq	r0, r1, r0
     480:	00014853 	andeq	r4, r1, r3, asr r8
     484:	00017000 	andeq	r7, r1, r0
     488:	91000200 	tstls	r0, r0, lsl #4
     48c:	00017c6f 	andeq	r7, r1, pc, ror #24
     490:	00018400 	andeq	r8, r1, r0, lsl #8
     494:	53000100 	movwpl	r0, #256	; 0x100
     498:	00000184 	andeq	r0, r0, r4, lsl #3
     49c:	000001ac 	andeq	r0, r0, ip, lsr #3
     4a0:	6f910002 	svcvs	0x00910002
     4a4:	000001b8 			; <UNDEFINED> instruction: 0x000001b8
     4a8:	000001c0 	andeq	r0, r0, r0, asr #3
     4ac:	c0530001 	subsgt	r0, r3, r1
     4b0:	e8000001 	stmda	r0, {r0}
     4b4:	02000001 	andeq	r0, r0, #1
     4b8:	f46f9100 	vld4.8	{d25,d27,d29,d31}, [pc], r0
     4bc:	fc000001 	stc2	0, cr0, [r0], {1}
     4c0:	01000001 	tsteq	r0, r1
     4c4:	01fc5300 	mvnseq	r5, r0, lsl #6
     4c8:	02240000 	eoreq	r0, r4, #0
     4cc:	00020000 	andeq	r0, r2, r0
     4d0:	02306f91 	eorseq	r6, r0, #580	; 0x244
     4d4:	02380000 	eorseq	r0, r8, #0
     4d8:	00010000 	andeq	r0, r1, r0
     4dc:	00023853 	andeq	r3, r2, r3, asr r8
     4e0:	00024400 	andeq	r4, r2, r0, lsl #8
     4e4:	91000200 	tstls	r0, r0, lsl #4
     4e8:	0002506f 	andeq	r5, r2, pc, rrx
     4ec:	00025800 	andeq	r5, r2, r0, lsl #16
     4f0:	53000100 	movwpl	r0, #256	; 0x100
     4f4:	00000258 	andeq	r0, r0, r8, asr r2
     4f8:	00000280 	andeq	r0, r0, r0, lsl #5
     4fc:	6f910002 	svcvs	0x00910002
     500:	0000028c 	andeq	r0, r0, ip, lsl #5
     504:	00000294 	muleq	r0, r4, r2
     508:	94530001 	ldrbls	r0, [r3], #-1
     50c:	bc000002 	stclt	0, cr0, [r0], {2}
     510:	02000002 	andeq	r0, r0, #2
     514:	c86f9100 	stmdagt	pc!, {r8, ip, pc}^	; <UNPREDICTABLE>
     518:	d0000002 	andle	r0, r0, r2
     51c:	01000002 	tsteq	r0, r2
     520:	02d05300 	sbcseq	r5, r0, #0, 6
     524:	02e00000 	rsceq	r0, r0, #0
     528:	00020000 	andeq	r0, r2, r0
     52c:	00006f91 	muleq	r0, r1, pc	; <UNPREDICTABLE>
     530:	00000000 	andeq	r0, r0, r0
     534:	02e00000 	rsceq	r0, r0, #0
     538:	02e40000 	rsceq	r0, r4, #0
     53c:	00020000 	andeq	r0, r2, r0
     540:	02e4007d 	rsceq	r0, r4, #125	; 0x7d
     544:	04fc0000 	ldrbteq	r0, [ip], #0
     548:	00020000 	andeq	r0, r2, r0
     54c:	0000107d 	andeq	r1, r0, sp, ror r0
     550:	00000000 	andeq	r0, r0, r0
     554:	02e00000 	rsceq	r0, r0, #0
     558:	02f80000 	rscseq	r0, r8, #0
     55c:	00010000 	andeq	r0, r1, r0
     560:	0002f850 	andeq	pc, r2, r0, asr r8	; <UNPREDICTABLE>
     564:	0004fc00 	andeq	pc, r4, r0, lsl #24
     568:	54000100 	strpl	r0, [r0], #-256	; 0xffffff00
	...
     574:	0000032c 	andeq	r0, r0, ip, lsr #6
     578:	00000330 	andeq	r0, r0, r0, lsr r3
     57c:	6f910002 	svcvs	0x00910002
     580:	0000033c 	andeq	r0, r0, ip, lsr r3
     584:	00000344 	andeq	r0, r0, r4, asr #6
     588:	44530001 	ldrbmi	r0, [r3], #-1
     58c:	6c000003 	stcvs	0, cr0, [r0], {3}
     590:	02000003 	andeq	r0, r0, #3
     594:	786f9100 	stmdavc	pc!, {r8, ip, pc}^	; <UNPREDICTABLE>
     598:	80000003 	andhi	r0, r0, r3
     59c:	01000003 	tsteq	r0, r3
     5a0:	03805300 	orreq	r5, r0, #0, 6
     5a4:	03a80000 			; <UNDEFINED> instruction: 0x03a80000
     5a8:	00020000 	andeq	r0, r2, r0
     5ac:	03b46f91 			; <UNDEFINED> instruction: 0x03b46f91
     5b0:	03bc0000 			; <UNDEFINED> instruction: 0x03bc0000
     5b4:	00010000 	andeq	r0, r1, r0
     5b8:	0003bc53 	andeq	fp, r3, r3, asr ip
     5bc:	0003e400 	andeq	lr, r3, r0, lsl #8
     5c0:	91000200 	tstls	r0, r0, lsl #4
     5c4:	0003f06f 	andeq	pc, r3, pc, rrx
     5c8:	0003f800 	andeq	pc, r3, r0, lsl #16
     5cc:	53000100 	movwpl	r0, #256	; 0x100
     5d0:	000003f8 	strdeq	r0, [r0], -r8
     5d4:	00000420 	andeq	r0, r0, r0, lsr #8
     5d8:	6f910002 	svcvs	0x00910002
     5dc:	0000042c 	andeq	r0, r0, ip, lsr #8
     5e0:	00000434 	andeq	r0, r0, r4, lsr r4
     5e4:	34530001 	ldrbcc	r0, [r3], #-1
     5e8:	5c000004 	stcpl	0, cr0, [r0], {4}
     5ec:	02000004 	andeq	r0, r0, #4
     5f0:	686f9100 	stmdavs	pc!, {r8, ip, pc}^	; <UNPREDICTABLE>
     5f4:	70000004 	andvc	r0, r0, r4
     5f8:	01000004 	tsteq	r0, r4
     5fc:	04705300 	ldrbteq	r5, [r0], #-768	; 0xfffffd00
     600:	04980000 	ldreq	r0, [r8], #0
     604:	00020000 	andeq	r0, r2, r0
     608:	04a46f91 	strteq	r6, [r4], #3985	; 0xf91
     60c:	04ac0000 	strteq	r0, [ip], #0
     610:	00010000 	andeq	r0, r1, r0
     614:	0004ac53 	andeq	sl, r4, r3, asr ip
     618:	0004d400 	andeq	sp, r4, r0, lsl #8
     61c:	91000200 	tstls	r0, r0, lsl #4
     620:	0004e06f 	andeq	lr, r4, pc, rrx
     624:	0004e800 	andeq	lr, r4, r0, lsl #16
     628:	53000100 	movwpl	r0, #256	; 0x100
     62c:	000004e8 	andeq	r0, r0, r8, ror #9
     630:	000004fc 	strdeq	r0, [r0], -ip
     634:	6f910002 	svcvs	0x00910002
	...
     640:	000004fc 	strdeq	r0, [r0], -ip
     644:	00000500 	andeq	r0, r0, r0, lsl #10
     648:	007d0002 	rsbseq	r0, sp, r2
     64c:	00000500 	andeq	r0, r0, r0, lsl #10
     650:	00000624 	andeq	r0, r0, r4, lsr #12
     654:	207d0002 	rsbscs	r0, sp, r2
	...
     660:	000004fc 	strdeq	r0, [r0], -ip
     664:	0000050b 	andeq	r0, r0, fp, lsl #10
     668:	0b500001 	bleq	1400674 <__standby_start+0x1400674>
     66c:	a8000005 	stmdage	r0, {r0, r2}
     670:	01000005 	tsteq	r0, r5
     674:	060c5500 	streq	r5, [ip], -r0, lsl #10
     678:	06180000 	ldreq	r0, [r8], -r0
     67c:	00010000 	andeq	r0, r1, r0
     680:	00000055 	andeq	r0, r0, r5, asr r0
     684:	00000000 	andeq	r0, r0, r0
     688:	0004fc00 	andeq	pc, r4, r0, lsl #24
     68c:	00050b00 	andeq	r0, r5, r0, lsl #22
     690:	51000100 	tstpl	r0, r0, lsl #2
     694:	0000050b 	andeq	r0, r0, fp, lsl #10
     698:	000005c0 	andeq	r0, r0, r0, asr #11
     69c:	0c560001 	mrrceq	0, 0, r0, r6, cr1
     6a0:	18000006 	stmdane	r0, {r1, r2}
     6a4:	01000006 	tsteq	r0, r6
     6a8:	00005600 	andeq	r5, r0, r0, lsl #12
     6ac:	00000000 	andeq	r0, r0, r0
     6b0:	04fc0000 	ldrbteq	r0, [ip], #0
     6b4:	050c0000 	streq	r0, [ip, #-0]
     6b8:	00020000 	andeq	r0, r2, r0
     6bc:	050c9f30 	streq	r9, [ip, #-3888]	; 0xfffff0d0
     6c0:	05400000 	strbeq	r0, [r0, #-0]
     6c4:	00010000 	andeq	r0, r1, r0
     6c8:	00054050 	andeq	r4, r5, r0, asr r0
     6cc:	00062400 	andeq	r2, r6, r0, lsl #8
     6d0:	54000100 	strpl	r0, [r0], #-256	; 0xffffff00
	...
     6dc:	00000570 	andeq	r0, r0, r0, ror r5
     6e0:	00000578 	andeq	r0, r0, r8, ror r5
     6e4:	8c500001 	mrrchi	0, 0, r0, r0, cr1	; <UNPREDICTABLE>
     6e8:	90000005 	andls	r0, r0, r5
     6ec:	01000005 	tsteq	r0, r5
     6f0:	05a05000 	streq	r5, [r0, #0]!
     6f4:	05c40000 	strbeq	r0, [r4]
     6f8:	00010000 	andeq	r0, r1, r0
     6fc:	0005dc50 	andeq	sp, r5, r0, asr ip
     700:	0005f400 	andeq	pc, r5, r0, lsl #8
     704:	56000100 	strpl	r0, [r0], -r0, lsl #2
	...
     710:	000005dc 	ldrdeq	r0, [r0], -ip
     714:	000005ec 	andeq	r0, r0, ip, ror #11
     718:	00570001 	subseq	r0, r7, r1
     71c:	00000000 	andeq	r0, r0, r0
     720:	d0000000 	andle	r0, r0, r0
     724:	0c000005 	stceq	0, cr0, [r0], {5}
     728:	02000006 	andeq	r0, r0, #6
     72c:	185f9100 	ldmdane	pc, {r8, ip, pc}^	; <UNPREDICTABLE>
     730:	24000006 	strcs	r0, [r0], #-6
     734:	02000006 	andeq	r0, r0, #6
     738:	005f9100 	subseq	r9, pc, r0, lsl #2
     73c:	00000000 	andeq	r0, r0, r0
     740:	14000000 	strne	r0, [r0], #-0
     744:	c0000005 	andgt	r0, r0, r5
     748:	01000005 	tsteq	r0, r5
     74c:	060c5600 	streq	r5, [ip], -r0, lsl #12
     750:	06180000 	ldreq	r0, [r8], -r0
     754:	00010000 	andeq	r0, r1, r0
     758:	00000056 	andeq	r0, r0, r6, asr r0
     75c:	00000000 	andeq	r0, r0, r0
     760:	00051400 	andeq	r1, r5, r0, lsl #8
     764:	00054000 	andeq	r4, r5, r0
     768:	50000100 	andpl	r0, r0, r0, lsl #2
     76c:	00000540 	andeq	r0, r0, r0, asr #10
     770:	00000618 	andeq	r0, r0, r8, lsl r6
     774:	00540001 	subseq	r0, r4, r1
     778:	00000000 	andeq	r0, r0, r0
     77c:	24000000 	strcs	r0, [r0], #-0
     780:	28000006 	stmdacs	r0, {r1, r2}
     784:	02000006 	andeq	r0, r0, #6
     788:	28007d00 	stmdacs	r0, {r8, sl, fp, ip, sp, lr}
     78c:	98000006 	stmdals	r0, {r1, r2}
     790:	02000006 	andeq	r0, r0, #6
     794:	00187d00 	andseq	r7, r8, r0, lsl #26
     798:	00000000 	andeq	r0, r0, r0
     79c:	24000000 	strcs	r0, [r0], #-0
     7a0:	2f000006 	svccs	0x00000006
     7a4:	01000006 	tsteq	r0, r6
     7a8:	062f5000 	strteq	r5, [pc], -r0
     7ac:	06980000 	ldreq	r0, [r8], r0
     7b0:	00010000 	andeq	r0, r1, r0
     7b4:	00000055 	andeq	r0, r0, r5, asr r0
     7b8:	00000000 	andeq	r0, r0, r0
     7bc:	00062400 	andeq	r2, r6, r0, lsl #8
     7c0:	00063000 	andeq	r3, r6, r0
     7c4:	30000200 	andcc	r0, r0, r0, lsl #4
     7c8:	0006309f 	muleq	r6, pc, r0	; <UNPREDICTABLE>
     7cc:	00063800 	andeq	r3, r6, r0, lsl #16
     7d0:	50000100 	andpl	r0, r0, r0, lsl #2
     7d4:	00000638 	andeq	r0, r0, r8, lsr r6
     7d8:	00000698 	muleq	r0, r8, r6
     7dc:	00540001 	subseq	r0, r4, r1
     7e0:	00000000 	andeq	r0, r0, r0
     7e4:	68000000 	stmdavs	r0, {}	; <UNPREDICTABLE>
     7e8:	6c000006 	stcvs	0, cr0, [r0], {6}
     7ec:	02000006 	andeq	r0, r0, #6
     7f0:	74679100 	strbtvc	r9, [r7], #-256	; 0xffffff00
     7f4:	84000006 	strhi	r0, [r0], #-6
     7f8:	01000006 	tsteq	r0, r6
     7fc:	06885100 	streq	r5, [r8], r0, lsl #2
     800:	06900000 	ldreq	r0, [r0], r0
     804:	00010000 	andeq	r0, r1, r0
     808:	00000053 	andeq	r0, r0, r3, asr r0
	...
     814:	00000400 	andeq	r0, r0, r0, lsl #8
     818:	7d000200 	sfmvc	f0, 4, [r0, #-0]
     81c:	00000400 	andeq	r0, r0, r0, lsl #8
     820:	00008800 	andeq	r8, r0, r0, lsl #16
     824:	7d000200 	sfmvc	f0, 4, [r0, #-0]
     828:	00000010 	andeq	r0, r0, r0, lsl r0
     82c:	00000000 	andeq	r0, r0, r0
     830:	0000d400 	andeq	sp, r0, r0, lsl #8
     834:	0000e000 	andeq	lr, r0, r0
     838:	50000100 	andpl	r0, r0, r0, lsl #2
	...
     844:	00000170 	andeq	r0, r0, r0, ror r1
     848:	00000178 	andeq	r0, r0, r8, ror r1
     84c:	00500001 	subseq	r0, r0, r1
     850:	00000000 	andeq	r0, r0, r0
     854:	a0000000 	andge	r0, r0, r0
     858:	a4000001 	strge	r0, [r0], #-1
     85c:	02000001 	andeq	r0, r0, #1
     860:	a4007d00 	strge	r7, [r0], #-3328	; 0xfffff300
     864:	f0000001 			; <UNDEFINED> instruction: 0xf0000001
     868:	02000001 	andeq	r0, r0, #1
     86c:	00087d00 	andeq	r7, r8, r0, lsl #26
     870:	00000000 	andeq	r0, r0, r0
     874:	a0000000 	andge	r0, r0, r0
     878:	ac000001 	stcge	0, cr0, [r0], {1}
     87c:	01000001 	tsteq	r0, r1
     880:	01ac5000 			; <UNDEFINED> instruction: 0x01ac5000
     884:	01bc0000 			; <UNDEFINED> instruction: 0x01bc0000
     888:	00010000 	andeq	r0, r1, r0
     88c:	0001bc50 	andeq	fp, r1, r0, asr ip
     890:	0001d700 	andeq	sp, r1, r0, lsl #14
     894:	03000800 	movweq	r0, #2048	; 0x800
     898:	f0002888 			; <UNDEFINED> instruction: 0xf0002888
     89c:	00242306 	eoreq	r2, r4, r6, lsl #6
	...
     8a8:	38000000 	stmdacc	r0, {}	; <UNPREDICTABLE>
     8ac:	01000000 	tsteq	r0, r0
     8b0:	00005000 	andeq	r5, r0, r0
     8b4:	00000000 	andeq	r0, r0, r0
     8b8:	00500000 	subseq	r0, r0, r0
     8bc:	00540000 	subseq	r0, r4, r0
     8c0:	00020000 	andeq	r0, r2, r0
     8c4:	0054007d 	subseq	r0, r4, sp, ror r0
     8c8:	00980000 	addseq	r0, r8, r0
     8cc:	00020000 	andeq	r0, r2, r0
     8d0:	0000087d 	andeq	r0, r0, sp, ror r8
     8d4:	00000000 	andeq	r0, r0, r0
     8d8:	00980000 	addseq	r0, r8, r0
     8dc:	00a00000 	adceq	r0, r0, r0
     8e0:	00020000 	andeq	r0, r2, r0
     8e4:	00a0007d 	adceq	r0, r0, sp, ror r0
     8e8:	03400000 	movteq	r0, #0
     8ec:	00020000 	andeq	r0, r2, r0
     8f0:	00000c7d 	andeq	r0, r0, sp, ror ip
     8f4:	00000000 	andeq	r0, r0, r0
     8f8:	00980000 	addseq	r0, r8, r0
     8fc:	01ec0000 	mvneq	r0, r0
     900:	00010000 	andeq	r0, r1, r0
     904:	00000050 	andeq	r0, r0, r0, asr r0
     908:	00000000 	andeq	r0, r0, r0
     90c:	00009800 	andeq	r9, r0, r0, lsl #16
     910:	00010000 	andeq	r0, r1, r0
     914:	51000100 	tstpl	r0, r0, lsl #2
	...
     920:	00000098 	muleq	r0, r8, r0
     924:	0000014c 	andeq	r0, r0, ip, asr #2
     928:	00520001 	subseq	r0, r2, r1
     92c:	00000000 	andeq	r0, r0, r0
     930:	98000000 	stmdals	r0, {}	; <UNPREDICTABLE>
     934:	94000000 	strls	r0, [r0], #-0
     938:	01000001 	tsteq	r0, r1
     93c:	01d85300 	bicseq	r5, r8, r0, lsl #6
     940:	02a00000 	adceq	r0, r0, #0
     944:	00010000 	andeq	r0, r1, r0
     948:	00000053 	andeq	r0, r0, r3, asr r0
     94c:	00000000 	andeq	r0, r0, r0
     950:	0000b000 	andeq	fp, r0, r0
     954:	0000b400 	andeq	fp, r0, r0, lsl #8
     958:	54000100 	strpl	r0, [r0], #-256	; 0xffffff00
     95c:	000000f0 	strdeq	r0, [r0], -r0	; <UNPREDICTABLE>
     960:	000000f4 	strdeq	r0, [r0], -r4
     964:	38540001 	ldmdacc	r4, {r0}^
     968:	3c000001 	stccc	0, cr0, [r0], {1}
     96c:	01000001 	tsteq	r0, r1
     970:	017c5400 	cmneq	ip, r0, lsl #8
     974:	01800000 	orreq	r0, r0, r0
     978:	00010000 	andeq	r0, r1, r0
     97c:	0001cc52 	andeq	ip, r1, r2, asr ip
     980:	0001d000 	andeq	sp, r1, r0
     984:	53000100 	movwpl	r0, #256	; 0x100
     988:	00000210 	andeq	r0, r0, r0, lsl r2
     98c:	00000214 	andeq	r0, r0, r4, lsl r2
     990:	58520001 	ldmdapl	r2, {r0}^
     994:	5c000002 	stcpl	0, cr0, [r0], {2}
     998:	01000002 	tsteq	r0, r2
     99c:	02a05200 	adceq	r5, r0, #0, 4
     9a0:	02a40000 	adceq	r0, r4, #0
     9a4:	00010000 	andeq	r0, r1, r0
     9a8:	00000053 	andeq	r0, r0, r3, asr r0
     9ac:	00000000 	andeq	r0, r0, r0
     9b0:	0000c800 	andeq	ip, r0, r0, lsl #16
     9b4:	0000cc00 	andeq	ip, r0, r0, lsl #24
     9b8:	0a000400 	beq	19c0 <__standby_start+0x19c0>
     9bc:	cc9f02ff 	lfmgt	f0, 4, [pc], {255}	; 0xff
     9c0:	e8000000 	stmda	r0, {}	; <UNPREDICTABLE>
     9c4:	01000000 	tsteq	r0, r0
     9c8:	00e85400 	rsceq	r5, r8, r0, lsl #8
     9cc:	00ec0000 	rsceq	r0, ip, r0
     9d0:	00030000 	andeq	r0, r3, r0
     9d4:	109f0174 	addsne	r0, pc, r4, ror r1	; <UNPREDICTABLE>
     9d8:	14000001 	strne	r0, [r0], #-1
     9dc:	04000001 	streq	r0, [r0], #-1
     9e0:	02ff0a00 	rscseq	r0, pc, #0, 20
     9e4:	0001149f 	muleq	r1, pc, r4	; <UNPREDICTABLE>
     9e8:	00013000 	andeq	r3, r1, r0
     9ec:	54000100 	strpl	r0, [r0], #-256	; 0xffffff00
     9f0:	00000130 	andeq	r0, r0, r0, lsr r1
     9f4:	00000134 	andeq	r0, r0, r4, lsr r1
     9f8:	01740003 	cmneq	r4, r3
     9fc:	0001549f 	muleq	r1, pc, r4	; <UNPREDICTABLE>
     a00:	00015800 	andeq	r5, r1, r0, lsl #16
     a04:	0a000400 	beq	1a0c <__standby_start+0x1a0c>
     a08:	589f02ff 	ldmpl	pc, {r0, r1, r2, r3, r4, r5, r6, r7, r9}	; <UNPREDICTABLE>
     a0c:	74000001 	strvc	r0, [r0], #-1
     a10:	01000001 	tsteq	r0, r1
     a14:	01745200 	cmneq	r4, r0, lsl #4
     a18:	01780000 	cmneq	r8, r0
     a1c:	00030000 	andeq	r0, r3, r0
     a20:	a49f0172 	ldrge	r0, [pc], #370	; a28 <__standby_start+0xa28>
     a24:	a8000001 	stmdage	r0, {r0}
     a28:	04000001 	streq	r0, [r0], #-1
     a2c:	02ff0a00 	rscseq	r0, pc, #0, 20
     a30:	0001a89f 	muleq	r1, pc, r8	; <UNPREDICTABLE>
     a34:	0001c400 	andeq	ip, r1, r0, lsl #8
     a38:	53000100 	movwpl	r0, #256	; 0x100
     a3c:	000001c4 	andeq	r0, r0, r4, asr #3
     a40:	000001c8 	andeq	r0, r0, r8, asr #3
     a44:	01730003 	cmneq	r3, r3
     a48:	0001e89f 	muleq	r1, pc, r8	; <UNPREDICTABLE>
     a4c:	0001ec00 	andeq	lr, r1, r0, lsl #24
     a50:	0a000400 	beq	1a58 <__standby_start+0x1a58>
     a54:	ec9f02ff 	lfm	f0, 4, [pc], {255}	; 0xff
     a58:	08000001 	stmdaeq	r0, {r0}
     a5c:	01000002 	tsteq	r0, r2
     a60:	02085200 	andeq	r5, r8, #0, 4
     a64:	020c0000 	andeq	r0, ip, #0
     a68:	00030000 	andeq	r0, r3, r0
     a6c:	309f0172 	addscc	r0, pc, r2, ror r1	; <UNPREDICTABLE>
     a70:	34000002 	strcc	r0, [r0], #-2
     a74:	04000002 	streq	r0, [r0], #-2
     a78:	02ff0a00 	rscseq	r0, pc, #0, 20
     a7c:	0002349f 	muleq	r2, pc, r4	; <UNPREDICTABLE>
     a80:	00025000 	andeq	r5, r2, r0
     a84:	52000100 	andpl	r0, r0, #0, 2
     a88:	00000250 	andeq	r0, r0, r0, asr r2
     a8c:	00000254 	andeq	r0, r0, r4, asr r2
     a90:	01720003 	cmneq	r2, r3
     a94:	0002709f 	muleq	r2, pc, r0	; <UNPREDICTABLE>
     a98:	00027400 	andeq	r7, r2, r0, lsl #8
     a9c:	0a000400 	beq	1aa4 <__standby_start+0x1aa4>
     aa0:	749f02ff 	ldrvc	r0, [pc], #767	; aa8 <__standby_start+0xaa8>
     aa4:	90000002 	andls	r0, r0, r2
     aa8:	01000002 	tsteq	r0, r2
     aac:	02905200 	addseq	r5, r0, #0, 4
     ab0:	02940000 	addseq	r0, r4, #0
     ab4:	00030000 	andeq	r0, r3, r0
     ab8:	009f0172 	addseq	r0, pc, r2, ror r1	; <UNPREDICTABLE>
     abc:	00000000 	andeq	r0, r0, r0
     ac0:	98000000 	stmdals	r0, {}	; <UNPREDICTABLE>
     ac4:	b8000000 	stmdalt	r0, {}	; <UNPREDICTABLE>
     ac8:	03000002 	movweq	r0, #2
     acc:	9fff0900 	svcls	0x00ff0900
     ad0:	000002b8 			; <UNDEFINED> instruction: 0x000002b8
     ad4:	00000340 	andeq	r0, r0, r0, asr #6
     ad8:	00500001 	subseq	r0, r0, r1
     adc:	00000000 	andeq	r0, r0, r0
     ae0:	b8000000 	stmdalt	r0, {}	; <UNPREDICTABLE>
     ae4:	d8000002 	stmdale	r0, {r1}
     ae8:	04000002 	streq	r0, [r0], #-2
     aec:	02ff0a00 	rscseq	r0, pc, #0, 20
     af0:	0002d89f 	muleq	r2, pc, r8	; <UNPREDICTABLE>
     af4:	0002ec00 	andeq	lr, r2, r0, lsl #24
     af8:	52000100 	andpl	r0, r0, #0, 2
     afc:	000002f4 	strdeq	r0, [r0], -r4
     b00:	000002f8 	strdeq	r0, [r0], -r8
     b04:	f8520001 			; <UNDEFINED> instruction: 0xf8520001
     b08:	00000002 	andeq	r0, r0, r2
     b0c:	03000003 	movweq	r0, #3
     b10:	9f017200 	svcls	0x00017200
     b14:	00000300 	andeq	r0, r0, r0, lsl #6
     b18:	0000031c 	andeq	r0, r0, ip, lsl r3
     b1c:	1c520001 	mrrcne	0, 0, r0, r2, cr1
     b20:	20000003 	andcs	r0, r0, r3
     b24:	03000003 	movweq	r0, #3
     b28:	9f017200 	svcls	0x00017200
	...
     b34:	00000010 	andeq	r0, r0, r0, lsl r0
     b38:	00000014 	andeq	r0, r0, r4, lsl r0
     b3c:	00500001 	subseq	r0, r0, r1
	...
     b48:	28000000 	stmdacs	r0, {}	; <UNPREDICTABLE>
     b4c:	01000000 	tsteq	r0, r0
     b50:	00285000 	eoreq	r5, r8, r0
     b54:	00340000 	eorseq	r0, r4, r0
     b58:	00010000 	andeq	r0, r1, r0
     b5c:	00003453 	andeq	r3, r0, r3, asr r4
     b60:	00004800 	andeq	r4, r0, r0, lsl #16
     b64:	53000100 	movwpl	r0, #256	; 0x100
     b68:	00000048 	andeq	r0, r0, r8, asr #32
     b6c:	0000004c 	andeq	r0, r0, ip, asr #32
     b70:	4c500001 	mrrcmi	0, 0, r0, r0, cr1	; <UNPREDICTABLE>
     b74:	50000000 	andpl	r0, r0, r0
     b78:	01000000 	tsteq	r0, r0
     b7c:	00005300 	andeq	r5, r0, r0, lsl #6
	...
     b88:	000c0000 	andeq	r0, ip, r0
     b8c:	00010000 	andeq	r0, r1, r0
     b90:	00004851 	andeq	r4, r0, r1, asr r8
     b94:	00005000 	andeq	r5, r0, r0
     b98:	52000100 	andpl	r0, r0, #0, 2
	...
     ba8:	0000000c 	andeq	r0, r0, ip
     bac:	0c510001 	mrrceq	0, 0, r0, r1, cr1
     bb0:	18000000 	stmdane	r0, {}	; <UNPREDICTABLE>
     bb4:	01000000 	tsteq	r0, r0
     bb8:	00185200 	andseq	r5, r8, r0, lsl #4
     bbc:	00380000 	eorseq	r0, r8, r0
     bc0:	00010000 	andeq	r0, r1, r0
     bc4:	00003852 	andeq	r3, r0, r2, asr r8
     bc8:	00004400 	andeq	r4, r0, r0, lsl #8
     bcc:	72000500 	andvc	r0, r0, #0, 10
     bd0:	9f253100 	svcls	0x00253100
     bd4:	00000044 	andeq	r0, r0, r4, asr #32
     bd8:	00000050 	andeq	r0, r0, r0, asr r0
     bdc:	00520001 	subseq	r0, r2, r1
	...
     be8:	28000000 	stmdacs	r0, {}	; <UNPREDICTABLE>
     bec:	02000000 	andeq	r0, r0, #0
     bf0:	289f3000 	ldmcs	pc, {ip, sp}	; <UNPREDICTABLE>
     bf4:	30000000 	andcc	r0, r0, r0
     bf8:	01000000 	tsteq	r0, r0
     bfc:	00385000 	eorseq	r5, r8, r0
     c00:	00480000 	subeq	r0, r8, r0
     c04:	00010000 	andeq	r0, r1, r0
     c08:	00004850 	andeq	r4, r0, r0, asr r8
     c0c:	00005000 	andeq	r5, r0, r0
     c10:	30000200 	andcc	r0, r0, r0, lsl #4
     c14:	0000009f 	muleq	r0, pc, r0	; <UNPREDICTABLE>
	...
     c20:	00001400 	andeq	r1, r0, r0, lsl #8
     c24:	30000200 	andcc	r0, r0, r0, lsl #4
     c28:	0000149f 	muleq	r0, pc, r4	; <UNPREDICTABLE>
     c2c:	00001c00 	andeq	r1, r0, r0, lsl #24
     c30:	51000100 	tstpl	r0, r0, lsl #2
     c34:	0000001c 	andeq	r0, r0, ip, lsl r0
     c38:	00000038 	andeq	r0, r0, r8, lsr r0
     c3c:	38510001 	ldmdacc	r1, {r0}^
     c40:	3c000000 	stccc	0, cr0, [r0], {-0}
     c44:	03000000 	movweq	r0, #0
     c48:	9f7f7100 	svcls	0x007f7100
     c4c:	0000003c 	andeq	r0, r0, ip, lsr r0
     c50:	00000048 	andeq	r0, r0, r8, asr #32
     c54:	48510001 	ldmdami	r1, {r0}^
     c58:	50000000 	andpl	r0, r0, r0
     c5c:	02000000 	andeq	r0, r0, #0
     c60:	009f3000 	addseq	r3, pc, r0
     c64:	00000000 	andeq	r0, r0, r0
     c68:	50000000 	andpl	r0, r0, r0
     c6c:	54000000 	strpl	r0, [r0], #-0
     c70:	02000000 	andeq	r0, r0, #0
     c74:	54007d00 	strpl	r7, [r0], #-3328	; 0xfffff300
     c78:	70000000 	andvc	r0, r0, r0
     c7c:	02000000 	andeq	r0, r0, #0
     c80:	00087d00 	andeq	r7, r8, r0, lsl #26
     c84:	00000000 	andeq	r0, r0, r0
     c88:	70000000 	andvc	r0, r0, r0
     c8c:	74000000 	strvc	r0, [r0], #-0
     c90:	02000000 	andeq	r0, r0, #0
     c94:	74007d00 	strvc	r7, [r0], #-3328	; 0xfffff300
     c98:	90000000 	andls	r0, r0, r0
     c9c:	02000000 	andeq	r0, r0, #0
     ca0:	00087d00 	andeq	r7, r8, r0, lsl #26
     ca4:	00000000 	andeq	r0, r0, r0
     ca8:	98000000 	stmdals	r0, {}	; <UNPREDICTABLE>
     cac:	9c000000 	stcls	0, cr0, [r0], {-0}
     cb0:	06000000 	streq	r0, [r0], -r0
     cb4:	09007200 	stmdbeq	r0, {r9, ip, sp, lr}
     cb8:	9c9f1afe 	vldmials	pc, {s2-s255}
     cbc:	a8000000 	stmdage	r0, {}	; <UNPREDICTABLE>
     cc0:	01000000 	tsteq	r0, r0
     cc4:	00005200 	andeq	r5, r0, r0, lsl #4
     cc8:	00000000 	andeq	r0, r0, r0
     ccc:	00a80000 	adceq	r0, r8, r0
     cd0:	00ac0000 	adceq	r0, ip, r0
     cd4:	00020000 	andeq	r0, r2, r0
     cd8:	00ac007d 	adceq	r0, ip, sp, ror r0
     cdc:	00b80000 	adcseq	r0, r8, r0
     ce0:	00020000 	andeq	r0, r2, r0
     ce4:	0000087d 	andeq	r0, r0, sp, ror r8
     ce8:	00000000 	andeq	r0, r0, r0
     cec:	00c80000 	sbceq	r0, r8, r0
     cf0:	00cc0000 	sbceq	r0, ip, r0
     cf4:	00020000 	andeq	r0, r2, r0
     cf8:	00cc007d 	sbceq	r0, ip, sp, ror r0
     cfc:	00d80000 	sbcseq	r0, r8, r0
     d00:	00020000 	andeq	r0, r2, r0
     d04:	0000087d 	andeq	r0, r0, sp, ror r8
     d08:	00000000 	andeq	r0, r0, r0
     d0c:	00d80000 	sbcseq	r0, r8, r0
     d10:	00dc0000 	sbcseq	r0, ip, r0
     d14:	00020000 	andeq	r0, r2, r0
     d18:	00dc007d 	sbcseq	r0, ip, sp, ror r0
     d1c:	00fc0000 	rscseq	r0, ip, r0
     d20:	00020000 	andeq	r0, r2, r0
     d24:	0000087d 	andeq	r0, r0, sp, ror r8
     d28:	00000000 	andeq	r0, r0, r0
     d2c:	00d80000 	sbcseq	r0, r8, r0
     d30:	00e80000 	rsceq	r0, r8, r0
     d34:	00010000 	andeq	r0, r1, r0
     d38:	0000e850 	andeq	lr, r0, r0, asr r8
     d3c:	0000fc00 	andeq	pc, r0, r0, lsl #24
     d40:	91000200 	tstls	r0, r0, lsl #4
     d44:	00000074 	andeq	r0, r0, r4, ror r0
     d48:	00000000 	andeq	r0, r0, r0
     d4c:	0000fc00 	andeq	pc, r0, r0, lsl #24
     d50:	00010000 	andeq	r0, r1, r0
     d54:	7d000200 	sfmvc	f0, 4, [r0, #-0]
     d58:	00010000 	andeq	r0, r1, r0
     d5c:	00012000 	andeq	r2, r1, r0
     d60:	7d000200 	sfmvc	f0, 4, [r0, #-0]
     d64:	00000008 	andeq	r0, r0, r8
     d68:	00000000 	andeq	r0, r0, r0
     d6c:	0000fc00 	andeq	pc, r0, r0, lsl #24
     d70:	00010c00 	andeq	r0, r1, r0, lsl #24
     d74:	50000100 	andpl	r0, r0, r0, lsl #2
     d78:	0000010c 	andeq	r0, r0, ip, lsl #2
     d7c:	00000120 	andeq	r0, r0, r0, lsr #2
     d80:	74910002 	ldrvc	r0, [r1], #2
	...
     d8c:	00000144 	andeq	r0, r0, r4, asr #2
     d90:	0000014c 	andeq	r0, r0, ip, asr #2
     d94:	00500001 	subseq	r0, r0, r1
     d98:	00000000 	andeq	r0, r0, r0
     d9c:	44000000 	strmi	r0, [r0], #-0
     da0:	50000001 	andpl	r0, r0, r1
     da4:	02000001 	andeq	r0, r0, #1
     da8:	509f3100 	addspl	r3, pc, r0, lsl #2
     dac:	58000001 	stmdapl	r0, {r0}
     db0:	01000001 	tsteq	r0, r1
     db4:	01585000 	cmpeq	r8, r0
     db8:	015c0000 	cmpeq	ip, r0
     dbc:	00050000 	andeq	r0, r5, r0
     dc0:	21400070 	cmpcs	r0, r0, ror r0
     dc4:	00015c9f 	muleq	r1, pc, ip	; <UNPREDICTABLE>
     dc8:	00016000 	andeq	r6, r1, r0
     dcc:	50000100 	andpl	r0, r0, r0, lsl #2
     dd0:	00000160 	andeq	r0, r0, r0, ror #2
     dd4:	00000170 	andeq	r0, r0, r0, ror r1
     dd8:	049e0006 	ldreq	r0, [lr], #6
     ddc:	8000000f 	andhi	r0, r0, pc
	...
     de8:	00000190 	muleq	r0, r0, r1
     dec:	00000198 	muleq	r0, r8, r1
     df0:	9f300002 	svcls	0x00300002
     df4:	00000198 	muleq	r0, r8, r1
     df8:	000001a4 	andeq	r0, r0, r4, lsr #3
     dfc:	9f340002 	svcls	0x00340002
	...
     e08:	000001a4 	andeq	r0, r0, r4, lsr #3
     e0c:	000001a8 	andeq	r0, r0, r8, lsr #3
     e10:	007d0002 	rsbseq	r0, sp, r2
     e14:	000001a8 	andeq	r0, r0, r8, lsr #3
     e18:	0000028c 	andeq	r0, r0, ip, lsl #5
     e1c:	187d0002 	ldmdane	sp!, {r1}^
	...
     e28:	000001a4 	andeq	r0, r0, r4, lsr #3
     e2c:	000001c3 	andeq	r0, r0, r3, asr #3
     e30:	00500001 	subseq	r0, r0, r1
     e34:	00000000 	andeq	r0, r0, r0
     e38:	a4000000 	strge	r0, [r0], #-0
     e3c:	4c000001 	stcmi	0, cr0, [r0], {1}
     e40:	02000002 	andeq	r0, r0, #2
     e44:	4c9f3000 	ldcmi	0, cr3, [pc], {0}
     e48:	54000002 	strpl	r0, [r0], #-2
     e4c:	07000002 	streq	r0, [r0, -r2]
     e50:	38007200 	stmdacc	r0, {r9, ip, sp, lr}
     e54:	9f1a4f25 	svcls	0x001a4f25
	...
     e60:	000001a4 	andeq	r0, r0, r4, lsr #3
     e64:	00000250 	andeq	r0, r0, r0, asr r2
     e68:	9f300002 	svcls	0x00300002
     e6c:	00000250 	andeq	r0, r0, r0, asr r2
     e70:	0000025c 	andeq	r0, r0, ip, asr r2
     e74:	00700009 	rsbseq	r0, r0, r9
     e78:	1a332534 	bne	cca350 <__standby_start+0xcca350>
     e7c:	009f0123 	addseq	r0, pc, r3, lsr #2
     e80:	00000000 	andeq	r0, r0, r0
     e84:	a4000000 	strge	r0, [r0], #-0
     e88:	58000001 	stmdapl	r0, {r0}
     e8c:	02000002 	andeq	r0, r0, #2
     e90:	589f3000 	ldmpl	pc, {ip, sp}	; <UNPREDICTABLE>
     e94:	64000002 	strvs	r0, [r0], #-2
     e98:	07000002 	streq	r0, [r0, -r2]
     e9c:	33007100 	movwcc	r7, #256	; 0x100
     ea0:	9f01231a 	svcls	0x0001231a
     ea4:	0000026c 	andeq	r0, r0, ip, ror #4
     ea8:	00000270 	andeq	r0, r0, r0, ror r2
     eac:	00510001 	subseq	r0, r1, r1
     eb0:	00000000 	andeq	r0, r0, r0
     eb4:	a4000000 	strge	r0, [r0], #-0
     eb8:	40000001 	andmi	r0, r0, r1
     ebc:	02000002 	andeq	r0, r0, #2
     ec0:	409f3000 	addsmi	r3, pc, r0
     ec4:	44000002 	strmi	r0, [r0], #-2
     ec8:	07000002 	streq	r0, [r0, -r2]
     ecc:	40007300 	andmi	r7, r0, r0, lsl #6
     ed0:	9f1a3325 	svcls	0x001a3325
     ed4:	00000248 	andeq	r0, r0, r8, asr #4
     ed8:	00000277 	andeq	r0, r0, r7, ror r2
     edc:	00530001 	subseq	r0, r3, r1
     ee0:	00000000 	andeq	r0, r0, r0
     ee4:	a4000000 	strge	r0, [r0], #-0
     ee8:	cc000001 	stcgt	0, cr0, [r0], {1}
     eec:	02000001 	andeq	r0, r0, #1
     ef0:	cc9f3000 	ldcgt	0, cr3, [pc], {0}
     ef4:	cf000001 	svcgt	0x00000001
     ef8:	01000001 	tsteq	r0, r1
     efc:	01cf5000 	biceq	r5, pc, r0
     f00:	028c0000 	addeq	r0, ip, #0
     f04:	00010000 	andeq	r0, r1, r0
     f08:	00000056 	andeq	r0, r0, r6, asr r0
     f0c:	00000000 	andeq	r0, r0, r0
     f10:	0001a400 	andeq	sl, r1, r0, lsl #8
     f14:	0001c000 	andeq	ip, r1, r0
     f18:	30000200 	andcc	r0, r0, r0, lsl #4
     f1c:	0001c09f 	muleq	r1, pc, r0	; <UNPREDICTABLE>
     f20:	00028c00 	andeq	r8, r2, r0, lsl #24
     f24:	55000100 	strpl	r0, [r0, #-256]	; 0xffffff00
	...
     f30:	000001b0 			; <UNDEFINED> instruction: 0x000001b0
     f34:	000001e8 	andeq	r0, r0, r8, ror #3
     f38:	64910002 	ldrvs	r0, [r1], #2
     f3c:	000001ec 	andeq	r0, r0, ip, ror #3
     f40:	000001f0 	strdeq	r0, [r0], -r0	; <UNPREDICTABLE>
     f44:	f0530001 			; <UNDEFINED> instruction: 0xf0530001
     f48:	f4000001 	vst4.8	{d0-d3}, [r0], r1
     f4c:	02000001 	andeq	r0, r0, #1
     f50:	f8649100 			; <UNDEFINED> instruction: 0xf8649100
     f54:	fc000001 	stc2	0, cr0, [r0], {1}
     f58:	01000001 	tsteq	r0, r1
     f5c:	01fc5300 	mvnseq	r5, r0, lsl #6
     f60:	028c0000 	addeq	r0, ip, #0
     f64:	00020000 	andeq	r0, r2, r0
     f68:	00006491 	muleq	r0, r1, r4
     f6c:	00000000 	andeq	r0, r0, r0
     f70:	028c0000 	addeq	r0, ip, #0
     f74:	02900000 	addseq	r0, r0, #0
     f78:	00020000 	andeq	r0, r2, r0
     f7c:	0290007d 	addseq	r0, r0, #125	; 0x7d
     f80:	02e00000 	rsceq	r0, r0, #0
     f84:	00020000 	andeq	r0, r2, r0
     f88:	0000107d 	andeq	r1, r0, sp, ror r0
     f8c:	00000000 	andeq	r0, r0, r0
     f90:	028c0000 	addeq	r0, ip, #0
     f94:	029c0000 	addseq	r0, ip, #0
     f98:	00010000 	andeq	r0, r1, r0
     f9c:	00029c50 	andeq	r9, r2, r0, asr ip
     fa0:	0002c400 	andeq	ip, r2, r0, lsl #8
     fa4:	55000100 	strpl	r0, [r0, #-256]	; 0xffffff00
	...
     fb0:	0000028c 	andeq	r0, r0, ip, lsl #5
     fb4:	000002b0 			; <UNDEFINED> instruction: 0x000002b0
     fb8:	9f300002 	svcls	0x00300002
     fbc:	000002b0 			; <UNDEFINED> instruction: 0x000002b0
     fc0:	000002b3 			; <UNDEFINED> instruction: 0x000002b3
     fc4:	01700006 	cmneq	r0, r6
     fc8:	9f1e0075 	svcls	0x001e0075
     fcc:	000002b3 			; <UNDEFINED> instruction: 0x000002b3
     fd0:	000002bc 			; <UNDEFINED> instruction: 0x000002bc
     fd4:	01760006 	cmneq	r6, r6
     fd8:	9f1e0075 	svcls	0x001e0075
     fdc:	000002bc 			; <UNDEFINED> instruction: 0x000002bc
     fe0:	000002c4 	andeq	r0, r0, r4, asr #5
     fe4:	00760006 	rsbseq	r0, r6, r6
     fe8:	9f1e0075 	svcls	0x001e0075
	...
     ff4:	0000028c 	andeq	r0, r0, ip, lsl #5
     ff8:	000002b4 			; <UNDEFINED> instruction: 0x000002b4
     ffc:	9f300002 	svcls	0x00300002
    1000:	000002b4 			; <UNDEFINED> instruction: 0x000002b4
    1004:	000002c8 	andeq	r0, r0, r8, asr #5
    1008:	cc500001 	mrrcgt	0, 0, r0, r0, cr1	; <UNPREDICTABLE>
    100c:	d0000002 	andle	r0, r0, r2
    1010:	01000002 	tsteq	r0, r2
    1014:	00005000 	andeq	r5, r0, r0
    1018:	00000000 	andeq	r0, r0, r0
    101c:	028c0000 	addeq	r0, ip, #0
    1020:	02c40000 	sbceq	r0, r4, #0
    1024:	00020000 	andeq	r0, r2, r0
    1028:	02c49f30 	sbceq	r9, r4, #48, 30	; 0xc0
    102c:	02e00000 	rsceq	r0, r0, #0
    1030:	00010000 	andeq	r0, r1, r0
    1034:	00000055 	andeq	r0, r0, r5, asr r0
    1038:	00000000 	andeq	r0, r0, r0
    103c:	0002e000 	andeq	lr, r2, r0
    1040:	0002e800 	andeq	lr, r2, r0, lsl #16
    1044:	50000100 	andpl	r0, r0, r0, lsl #2
	...
    1050:	0000030c 	andeq	r0, r0, ip, lsl #6
    1054:	00000310 	andeq	r0, r0, r0, lsl r3
    1058:	10520001 	subsne	r0, r2, r1
    105c:	1c000003 	stcne	0, cr0, [r0], {3}
    1060:	01000003 	tsteq	r0, r3
    1064:	00005200 	andeq	r5, r0, r0, lsl #4
    1068:	00000000 	andeq	r0, r0, r0
    106c:	03240000 	teqeq	r4, #0
    1070:	03280000 	teqeq	r8, #0
    1074:	00010000 	andeq	r0, r1, r0
    1078:	00032852 	andeq	r2, r3, r2, asr r8
    107c:	00033400 	andeq	r3, r3, r0, lsl #8
    1080:	52000100 	andpl	r0, r0, #0, 2
	...
    108c:	00000334 	andeq	r0, r0, r4, lsr r3
    1090:	00000338 	andeq	r0, r0, r8, lsr r3
    1094:	007d0002 	rsbseq	r0, sp, r2
    1098:	00000338 	andeq	r0, r0, r8, lsr r3
    109c:	00000368 	andeq	r0, r0, r8, ror #6
    10a0:	107d0002 	rsbsne	r0, sp, r2
	...
    10ac:	00000334 	andeq	r0, r0, r4, lsr r3
    10b0:	00000348 	andeq	r0, r0, r8, asr #6
    10b4:	00500001 	subseq	r0, r0, r1
    10b8:	00000000 	andeq	r0, r0, r0
    10bc:	4c000000 	stcmi	0, cr0, [r0], {-0}
    10c0:	50000003 	andpl	r0, r0, r3
    10c4:	01000003 	tsteq	r0, r3
    10c8:	03505600 	cmpeq	r0, #0, 12
    10cc:	035c0000 	cmpeq	ip, #0
    10d0:	00010000 	andeq	r0, r1, r0
    10d4:	00035c56 	andeq	r5, r3, r6, asr ip
    10d8:	00036800 	andeq	r6, r3, r0, lsl #16
    10dc:	55000100 	strpl	r0, [r0, #-256]	; 0xffffff00
	...
    10e8:	00000008 	andeq	r0, r0, r8
    10ec:	0000000c 	andeq	r0, r0, ip
    10f0:	0c520001 	mrrceq	0, 0, r0, r2, cr1
    10f4:	10000000 	andne	r0, r0, r0
    10f8:	01000000 	tsteq	r0, r0
    10fc:	00105200 	andseq	r5, r0, r0, lsl #4
    1100:	00140000 	andseq	r0, r4, r0
    1104:	00010000 	andeq	r0, r1, r0
    1108:	00001452 	andeq	r1, r0, r2, asr r4
    110c:	00002700 	andeq	r2, r0, r0, lsl #14
    1110:	73000200 	movwvc	r0, #512	; 0x200
    1114:	00000004 	andeq	r0, r0, r4
    1118:	00000000 	andeq	r0, r0, r0
    111c:	00003400 	andeq	r3, r0, r0, lsl #8
    1120:	00003800 	andeq	r3, r0, r0, lsl #16
    1124:	52000100 	andpl	r0, r0, #0, 2
    1128:	00000038 	andeq	r0, r0, r8, lsr r0
    112c:	0000003c 	andeq	r0, r0, ip, lsr r0
    1130:	3c520001 	mrrccc	0, 0, r0, r2, cr1
    1134:	40000000 	andmi	r0, r0, r0
    1138:	01000000 	tsteq	r0, r0
    113c:	00405200 	subeq	r5, r0, r0, lsl #4
    1140:	00530000 	subseq	r0, r3, r0
    1144:	00020000 	andeq	r0, r2, r0
    1148:	00000473 	andeq	r0, r0, r3, ror r4
    114c:	00000000 	andeq	r0, r0, r0
    1150:	00600000 	rsbeq	r0, r0, r0
    1154:	00640000 	rsbeq	r0, r4, r0
    1158:	00010000 	andeq	r0, r1, r0
    115c:	00006452 	andeq	r6, r0, r2, asr r4
    1160:	00006800 	andeq	r6, r0, r0, lsl #16
    1164:	52000100 	andpl	r0, r0, #0, 2
    1168:	00000068 	andeq	r0, r0, r8, rrx
    116c:	0000006c 	andeq	r0, r0, ip, rrx
    1170:	6c520001 	mrrcvs	0, 0, r0, r2, cr1
    1174:	7f000000 	svcvc	0x00000000
    1178:	02000000 	andeq	r0, r0, #0
    117c:	00047300 	andeq	r7, r4, r0, lsl #6
    1180:	00000000 	andeq	r0, r0, r0
    1184:	9c000000 	stcls	0, cr0, [r0], {-0}
    1188:	a0000000 	andge	r0, r0, r0
    118c:	01000000 	tsteq	r0, r0
    1190:	00a05200 	adceq	r5, r0, r0, lsl #4
    1194:	00a40000 	adceq	r0, r4, r0
    1198:	00010000 	andeq	r0, r1, r0
    119c:	0000a452 	andeq	sl, r0, r2, asr r4
    11a0:	0000b000 	andeq	fp, r0, r0
    11a4:	52000100 	andpl	r0, r0, #0, 2
	...
    11b0:	000000b0 	strheq	r0, [r0], -r0	; <UNPREDICTABLE>
    11b4:	000000b4 	strheq	r0, [r0], -r4
    11b8:	007d0002 	rsbseq	r0, sp, r2
    11bc:	000000b4 	strheq	r0, [r0], -r4
    11c0:	00000114 	andeq	r0, r0, r4, lsl r1
    11c4:	087d0002 	ldmdaeq	sp!, {r1}^
	...
    11d0:	000000f0 	strdeq	r0, [r0], -r0	; <UNPREDICTABLE>
    11d4:	000000f4 	strdeq	r0, [r0], -r4
    11d8:	9f300002 	svcls	0x00300002
    11dc:	00000104 	andeq	r0, r0, r4, lsl #2
    11e0:	00000114 	andeq	r0, r0, r4, lsl r1
    11e4:	00540001 	subseq	r0, r4, r1
    11e8:	00000000 	andeq	r0, r0, r0
    11ec:	c0000000 	andgt	r0, r0, r0
    11f0:	c4000000 	strgt	r0, [r0], #-0
    11f4:	01000000 	tsteq	r0, r0
    11f8:	00c45200 	sbceq	r5, r4, r0, lsl #4
    11fc:	00c80000 	sbceq	r0, r8, r0
    1200:	00010000 	andeq	r0, r1, r0
    1204:	0000c852 	andeq	ip, r0, r2, asr r8
    1208:	0000cc00 	andeq	ip, r0, r0, lsl #24
    120c:	52000100 	andpl	r0, r0, #0, 2
    1210:	000000cc 	andeq	r0, r0, ip, asr #1
    1214:	000000e3 	andeq	r0, r0, r3, ror #1
    1218:	04730002 	ldrbteq	r0, [r3], #-2
    121c:	000000e8 	andeq	r0, r0, r8, ror #1
    1220:	000000ec 	andeq	r0, r0, ip, ror #1
    1224:	ec530001 	mrrc	0, 0, r0, r3, cr1
    1228:	f4000000 	vst4.8	{d0-d3}, [r0], r0
    122c:	01000000 	tsteq	r0, r0
    1230:	00005300 	andeq	r5, r0, r0, lsl #6
    1234:	00000000 	andeq	r0, r0, r0
    1238:	01140000 	tsteq	r4, r0
    123c:	01180000 	tsteq	r8, r0
    1240:	00020000 	andeq	r0, r2, r0
    1244:	0118007d 	tsteq	r8, sp, ror r0
    1248:	01740000 	cmneq	r4, r0
    124c:	00020000 	andeq	r0, r2, r0
    1250:	0000087d 	andeq	r0, r0, sp, ror r8
    1254:	00000000 	andeq	r0, r0, r0
    1258:	01140000 	tsteq	r4, r0
    125c:	011c0000 	tsteq	ip, r0
    1260:	00020000 	andeq	r0, r2, r0
    1264:	012c9f30 	teqeq	ip, r0, lsr pc
    1268:	01740000 	cmneq	r4, r0
    126c:	00010000 	andeq	r0, r1, r0
    1270:	00000054 	andeq	r0, r0, r4, asr r0
    1274:	00000000 	andeq	r0, r0, r0
    1278:	00014000 	andeq	r4, r1, r0
    127c:	00014400 	andeq	r4, r1, r0, lsl #8
    1280:	52000100 	andpl	r0, r0, #0, 2
    1284:	00000144 	andeq	r0, r0, r4, asr #2
    1288:	00000148 	andeq	r0, r0, r8, asr #2
    128c:	48520001 	ldmdami	r2, {r0}^
    1290:	4c000001 	stcmi	0, cr0, [r0], {1}
    1294:	01000001 	tsteq	r0, r1
    1298:	014c5200 	mrseq	r5, SPSR
    129c:	015f0000 	cmpeq	pc, r0
    12a0:	00020000 	andeq	r0, r2, r0
    12a4:	00000473 	andeq	r0, r0, r3, ror r4
    12a8:	00000000 	andeq	r0, r0, r0
    12ac:	01740000 	cmneq	r4, r0
    12b0:	017c0000 	cmneq	ip, r0
    12b4:	00010000 	andeq	r0, r1, r0
    12b8:	00000050 	andeq	r0, r0, r0, asr r0
    12bc:	00000000 	andeq	r0, r0, r0
    12c0:	00019400 	andeq	r9, r1, r0, lsl #8
    12c4:	00019c00 	andeq	r9, r1, r0, lsl #24
    12c8:	7d000200 	sfmvc	f0, 4, [r0, #-0]
    12cc:	00019c00 	andeq	r9, r1, r0, lsl #24
    12d0:	0001dc00 	andeq	sp, r1, r0, lsl #24
    12d4:	7d000200 	sfmvc	f0, 4, [r0, #-0]
    12d8:	00000008 	andeq	r0, r0, r8
    12dc:	00000000 	andeq	r0, r0, r0
    12e0:	00019400 	andeq	r9, r1, r0, lsl #8
    12e4:	0001a800 	andeq	sl, r1, r0, lsl #16
    12e8:	51000100 	tstpl	r0, r0, lsl #2
	...
    12f4:	00000194 	muleq	r0, r4, r1
    12f8:	000001ac 	andeq	r0, r0, ip, lsr #3
    12fc:	00520001 	subseq	r0, r2, r1
    1300:	00000000 	andeq	r0, r0, r0
    1304:	94000000 	strls	r0, [r0], #-0
    1308:	b0000001 	andlt	r0, r0, r1
    130c:	01000001 	tsteq	r0, r1
    1310:	00005300 	andeq	r5, r0, r0, lsl #6
    1314:	00000000 	andeq	r0, r0, r0
    1318:	01b80000 			; <UNDEFINED> instruction: 0x01b80000
    131c:	01bc0000 			; <UNDEFINED> instruction: 0x01bc0000
    1320:	00010000 	andeq	r0, r1, r0
    1324:	0001bc54 	andeq	fp, r1, r4, asr ip
    1328:	0001c000 	andeq	ip, r1, r0
    132c:	54000100 	strpl	r0, [r0], #-256	; 0xffffff00
    1330:	000001c0 	andeq	r0, r0, r0, asr #3
    1334:	000001c4 	andeq	r0, r0, r4, asr #3
    1338:	c4510001 	ldrbgt	r0, [r1], #-1
    133c:	c8000001 	stmdagt	r0, {r0}
    1340:	01000001 	tsteq	r0, r1
    1344:	01c85100 	biceq	r5, r8, r0, lsl #2
    1348:	01cc0000 	biceq	r0, ip, r0
    134c:	00010000 	andeq	r0, r1, r0
    1350:	0001cc52 	andeq	ip, r1, r2, asr ip
    1354:	0001d000 	andeq	sp, r1, r0
    1358:	52000100 	andpl	r0, r0, #0, 2
    135c:	000001d0 	ldrdeq	r0, [r0], -r0	; <UNPREDICTABLE>
    1360:	000001dc 	ldrdeq	r0, [r0], -ip
    1364:	00530001 	subseq	r0, r3, r1
    1368:	00000000 	andeq	r0, r0, r0
    136c:	dc000000 	stcle	0, cr0, [r0], {-0}
    1370:	e0000001 	and	r0, r0, r1
    1374:	02000001 	andeq	r0, r0, #1
    1378:	e0007d00 	and	r7, r0, r0, lsl #26
    137c:	0c000001 	stceq	0, cr0, [r0], {1}
    1380:	02000002 	andeq	r0, r0, #2
    1384:	00087d00 	andeq	r7, r8, r0, lsl #26
    1388:	00000000 	andeq	r0, r0, r0
    138c:	ec000000 	stc	0, cr0, [r0], {-0}
    1390:	f0000001 			; <UNDEFINED> instruction: 0xf0000001
    1394:	01000001 	tsteq	r0, r1
    1398:	01f05300 	mvnseq	r5, r0, lsl #6
    139c:	01f70000 	mvnseq	r0, r0
    13a0:	00010000 	andeq	r0, r1, r0
    13a4:	0001fc53 	andeq	pc, r1, r3, asr ip	; <UNPREDICTABLE>
    13a8:	00020000 	andeq	r0, r2, r0
    13ac:	53000100 	movwpl	r0, #256	; 0x100
    13b0:	00000200 	andeq	r0, r0, r0, lsl #4
    13b4:	0000020c 	andeq	r0, r0, ip, lsl #4
    13b8:	00530001 	subseq	r0, r3, r1
    13bc:	00000000 	andeq	r0, r0, r0
    13c0:	0c000000 	stceq	0, cr0, [r0], {-0}
    13c4:	14000002 	strne	r0, [r0], #-2
    13c8:	02000002 	andeq	r0, r0, #2
    13cc:	14007d00 	strne	r7, [r0], #-3328	; 0xfffff300
    13d0:	18000002 	stmdane	r0, {r1}
    13d4:	02000002 	andeq	r0, r0, #2
    13d8:	18247d00 	stmdane	r4!, {r8, sl, fp, ip, sp, lr}
    13dc:	a8000002 	stmdage	r0, {r1}
    13e0:	03000003 	movweq	r0, #3
    13e4:	00c87d00 	sbceq	r7, r8, r0, lsl #26
	...
    13f0:	000002d4 	ldrdeq	r0, [r0], -r4
    13f4:	000002d8 	ldrdeq	r0, [r0], -r8
    13f8:	00720009 	rsbseq	r0, r2, r9
    13fc:	0000000c 	andeq	r0, r0, ip
    1400:	e09f2150 	adds	r2, pc, r0, asr r1	; <UNPREDICTABLE>
    1404:	e4000002 	str	r0, [r0], #-2
    1408:	01000002 	tsteq	r0, r2
    140c:	02e45200 	rsceq	r5, r4, #0, 4
    1410:	02ec0000 	rsceq	r0, ip, #0
    1414:	00010000 	andeq	r0, r1, r0
    1418:	0002ec53 	andeq	lr, r2, r3, asr ip
    141c:	0002f000 	andeq	pc, r2, r0
    1420:	53000100 	movwpl	r0, #256	; 0x100
    1424:	000002f4 	strdeq	r0, [r0], -r4
    1428:	000002fb 	strdeq	r0, [r0], -fp
    142c:	58530001 	ldmdapl	r3, {r0}^
    1430:	5c000003 	stcpl	0, cr0, [r0], {3}
    1434:	01000003 	tsteq	r0, r3
    1438:	035c5300 	cmpeq	ip, #0, 6
    143c:	03600000 	cmneq	r0, #0
    1440:	00010000 	andeq	r0, r1, r0
    1444:	00036053 	andeq	r6, r3, r3, asr r0
    1448:	00037f00 	andeq	r7, r3, r0, lsl #30
    144c:	74000200 	strvc	r0, [r0], #-512	; 0xfffffe00
	...
    1458:	00038c00 	andeq	r8, r3, r0, lsl #24
    145c:	00038f00 	andeq	r8, r3, r0, lsl #30
    1460:	50000100 	andpl	r0, r0, r0, lsl #2
    1464:	0000038f 	andeq	r0, r0, pc, lsl #7
    1468:	000003a8 	andeq	r0, r0, r8, lsr #7
    146c:	00540001 	subseq	r0, r4, r1
    1470:	00000000 	andeq	r0, r0, r0
    1474:	20000000 	andcs	r0, r0, r0
    1478:	24000002 	strcs	r0, [r0], #-2
    147c:	01000002 	tsteq	r0, r2
    1480:	02245200 	eoreq	r5, r4, #0, 4
    1484:	03a80000 			; <UNDEFINED> instruction: 0x03a80000
    1488:	00030000 	andeq	r0, r3, r0
    148c:	007fb491 			; <UNDEFINED> instruction: 0x007fb491
    1490:	00000000 	andeq	r0, r0, r0
    1494:	30000000 	andcc	r0, r0, r0
    1498:	44000002 	strmi	r0, [r0], #-2
    149c:	01000002 	tsteq	r0, r2
    14a0:	02445200 	subeq	r5, r4, #0, 4
    14a4:	03a80000 			; <UNDEFINED> instruction: 0x03a80000
    14a8:	00030000 	andeq	r0, r3, r0
    14ac:	007fb891 			; <UNDEFINED> instruction: 0x007fb891
    14b0:	00000000 	andeq	r0, r0, r0
    14b4:	64000000 	strvs	r0, [r0], #-0
    14b8:	6c000002 	stcvs	0, cr0, [r0], {2}
    14bc:	0d000002 	stceq	0, cr0, [r0, #-8]
    14c0:	3e007100 	adfccs	f7, f0, f0
    14c4:	08243425 	stmdaeq	r4!, {r0, r2, r5, sl, ip, sp}
    14c8:	00721aff 	ldrshteq	r1, [r2], #-175	; 0xffffff51
    14cc:	02809f21 	addeq	r9, r0, #33, 30	; 0x84
    14d0:	028c0000 	addeq	r0, ip, #0
    14d4:	00010000 	andeq	r0, r1, r0
    14d8:	00029452 	andeq	r9, r2, r2, asr r4
    14dc:	00029c00 	andeq	r9, r2, r0, lsl #24
    14e0:	5c000100 	stfpls	f0, [r0], {-0}
    14e4:	0000029c 	muleq	r0, ip, r2
    14e8:	000003a8 	andeq	r0, r0, r8, lsr #7
    14ec:	44910002 	ldrmi	r0, [r1], #2
	...
    14f8:	0000024c 	andeq	r0, r0, ip, asr #4
    14fc:	00000250 	andeq	r0, r0, r0, asr r2
    1500:	50520001 	subspl	r0, r2, r1
    1504:	a8000002 	stmdage	r0, {r1}
    1508:	03000003 	movweq	r0, #3
    150c:	7fbc9100 	svcvc	0x00bc9100
	...
    1518:	00000254 	andeq	r0, r0, r4, asr r2
    151c:	00000258 	andeq	r0, r0, r8, asr r2
    1520:	58520001 	ldmdapl	r2, {r0}^
    1524:	a8000002 	stmdage	r0, {r1}
    1528:	02000003 	andeq	r0, r0, #3
    152c:	00409100 	subeq	r9, r0, r0, lsl #2
    1530:	00000000 	andeq	r0, r0, r0
    1534:	98000000 	stmdals	r0, {}	; <UNPREDICTABLE>
    1538:	9c000002 	stcls	0, cr0, [r0], {2}
    153c:	01000002 	tsteq	r0, r2
    1540:	029c5200 	addseq	r5, ip, #0, 4
    1544:	03a80000 			; <UNDEFINED> instruction: 0x03a80000
    1548:	00020000 	andeq	r0, r2, r0
    154c:	00004891 	muleq	r0, r1, r8
    1550:	00000000 	andeq	r0, r0, r0
    1554:	029c0000 	addseq	r0, ip, #0
    1558:	03a80000 			; <UNDEFINED> instruction: 0x03a80000
    155c:	00020000 	andeq	r0, r2, r0
    1560:	00004c91 	muleq	r0, r1, ip
    1564:	00000000 	andeq	r0, r0, r0
    1568:	03a80000 			; <UNDEFINED> instruction: 0x03a80000
    156c:	03ac0000 			; <UNDEFINED> instruction: 0x03ac0000
    1570:	00020000 	andeq	r0, r2, r0
    1574:	03ac007d 			; <UNDEFINED> instruction: 0x03ac007d
    1578:	03c00000 	biceq	r0, r0, #0
    157c:	00020000 	andeq	r0, r2, r0
    1580:	0000087d 	andeq	r0, r0, sp, ror r8
	...
    158c:	00040000 	andeq	r0, r4, r0
    1590:	00020000 	andeq	r0, r2, r0
    1594:	0004007d 	andeq	r0, r4, sp, ror r0
    1598:	00300000 	eorseq	r0, r0, r0
    159c:	00020000 	andeq	r0, r2, r0
    15a0:	0000087d 	andeq	r0, r0, sp, ror r8
    15a4:	00000000 	andeq	r0, r0, r0
    15a8:	00100000 	andseq	r0, r0, r0
    15ac:	00140000 	andseq	r0, r4, r0
    15b0:	00010000 	andeq	r0, r1, r0
    15b4:	00001453 	andeq	r1, r0, r3, asr r4
    15b8:	00001b00 	andeq	r1, r0, r0, lsl #22
    15bc:	53000100 	movwpl	r0, #256	; 0x100
    15c0:	00000020 	andeq	r0, r0, r0, lsr #32
    15c4:	00000024 	andeq	r0, r0, r4, lsr #32
    15c8:	24530001 	ldrbcs	r0, [r3], #-1
    15cc:	30000000 	andcc	r0, r0, r0
    15d0:	01000000 	tsteq	r0, r0
    15d4:	00005300 	andeq	r5, r0, r0, lsl #6
    15d8:	00000000 	andeq	r0, r0, r0
    15dc:	00380000 	eorseq	r0, r8, r0
    15e0:	003c0000 	eorseq	r0, ip, r0
    15e4:	00070000 	andeq	r0, r7, r0
    15e8:	000a0072 	andeq	r0, sl, r2, ror r0
    15ec:	409f2160 	addsmi	r2, pc, r0, ror #2
    15f0:	44000000 	strmi	r0, [r0], #-0
    15f4:	01000000 	tsteq	r0, r0
    15f8:	00445200 	subeq	r5, r4, r0, lsl #4
    15fc:	00500000 	subseq	r0, r0, r0
    1600:	00010000 	andeq	r0, r1, r0
    1604:	00000052 	andeq	r0, r0, r2, asr r0
    1608:	00000000 	andeq	r0, r0, r0
    160c:	00005000 	andeq	r5, r0, r0
    1610:	00005800 	andeq	r5, r0, r0, lsl #16
    1614:	30000200 	andcc	r0, r0, r0, lsl #4
    1618:	0000589f 	muleq	r0, pc, r8	; <UNPREDICTABLE>
    161c:	00005c00 	andeq	r5, r0, r0, lsl #24
    1620:	52000100 	andpl	r0, r0, #0, 2
    1624:	0000005c 	andeq	r0, r0, ip, asr r0
    1628:	00000060 	andeq	r0, r0, r0, rrx
    162c:	60520001 	subsvs	r0, r2, r1
    1630:	6c000000 	stcvs	0, cr0, [r0], {-0}
    1634:	01000000 	tsteq	r0, r0
    1638:	00005200 	andeq	r5, r0, r0, lsl #4
    163c:	00000000 	andeq	r0, r0, r0
    1640:	006c0000 	rsbeq	r0, ip, r0
    1644:	00740000 	rsbseq	r0, r4, r0
    1648:	00020000 	andeq	r0, r2, r0
    164c:	00749f30 	rsbseq	r9, r4, r0, lsr pc
    1650:	00780000 	rsbseq	r0, r8, r0
    1654:	00010000 	andeq	r0, r1, r0
    1658:	00007852 	andeq	r7, r0, r2, asr r8
    165c:	00008400 	andeq	r8, r0, r0, lsl #8
    1660:	52000100 	andpl	r0, r0, #0, 2
	...
    166c:	00000084 	andeq	r0, r0, r4, lsl #1
    1670:	00000088 	andeq	r0, r0, r8, lsl #1
    1674:	007d0002 	rsbseq	r0, sp, r2
    1678:	00000088 	andeq	r0, r0, r8, lsl #1
    167c:	000000d8 	ldrdeq	r0, [r0], -r8
    1680:	087d0002 	ldmdaeq	sp!, {r1}^
	...
    168c:	000000d8 	ldrdeq	r0, [r0], -r8
    1690:	000000e4 	andeq	r0, r0, r4, ror #1
    1694:	007d0002 	rsbseq	r0, sp, r2
    1698:	000000e4 	andeq	r0, r0, r4, ror #1
    169c:	000001b0 			; <UNDEFINED> instruction: 0x000001b0
    16a0:	087d0002 	ldmdaeq	sp!, {r1}^
	...
    16ac:	000000d8 	ldrdeq	r0, [r0], -r8
    16b0:	000000f8 	strdeq	r0, [r0], -r8
    16b4:	00500001 	subseq	r0, r0, r1
    16b8:	00000000 	andeq	r0, r0, r0
    16bc:	d8000000 	stmdale	r0, {}	; <UNPREDICTABLE>
    16c0:	f8000000 			; <UNDEFINED> instruction: 0xf8000000
    16c4:	02000000 	andeq	r0, r0, #0
    16c8:	149f3000 	ldrne	r3, [pc], #0	; 16d0 <__standby_start+0x16d0>
    16cc:	3f000001 	svccc	0x00000001
    16d0:	01000001 	tsteq	r0, r1
    16d4:	01405200 	mrseq	r5, SPSR
    16d8:	01440000 	mrseq	r0, SPSR
    16dc:	00020000 	andeq	r0, r2, r0
    16e0:	01509f31 	cmpeq	r0, r1, lsr pc
    16e4:	016f0000 	cmneq	pc, r0
    16e8:	00010000 	andeq	r0, r1, r0
    16ec:	00017053 	andeq	r7, r1, r3, asr r0
    16f0:	00017400 	andeq	r7, r1, r0, lsl #8
    16f4:	31000200 	tstcc	r0, r0, lsl #4
    16f8:	0001809f 	muleq	r1, pc, r0	; <UNPREDICTABLE>
    16fc:	0001a700 	andeq	sl, r1, r0, lsl #14
    1700:	53000100 	movwpl	r0, #256	; 0x100
	...
    170c:	000000e8 	andeq	r0, r0, r8, ror #1
    1710:	000000ec 	andeq	r0, r0, ip, ror #1
    1714:	00740007 	rsbseq	r0, r4, r7
    1718:	1a372536 	bne	dcabf8 <__standby_start+0xdcabf8>
    171c:	0000009f 	muleq	r0, pc, r0	; <UNPREDICTABLE>
    1720:	00000000 	andeq	r0, r0, r0
    1724:	0000d800 	andeq	sp, r0, r0, lsl #16
    1728:	00011400 	andeq	r1, r1, r0, lsl #8
    172c:	50000100 	andpl	r0, r0, r0, lsl #2
    1730:	00000114 	andeq	r0, r0, r4, lsl r1
    1734:	0000013c 	andeq	r0, r0, ip, lsr r1
    1738:	00500001 	subseq	r0, r0, r1
    173c:	00000000 	andeq	r0, r0, r0
    1740:	b8000000 	stmdalt	r0, {}	; <UNPREDICTABLE>
    1744:	bc000001 	stclt	0, cr0, [r0], {1}
    1748:	01000001 	tsteq	r0, r1
    174c:	01bc5200 			; <UNDEFINED> instruction: 0x01bc5200
    1750:	01c00000 	biceq	r0, r0, r0
    1754:	00010000 	andeq	r0, r1, r0
    1758:	0001c052 	andeq	ip, r1, r2, asr r0
    175c:	0001c800 	andeq	ip, r1, r0, lsl #16
    1760:	52000100 	andpl	r0, r0, #0, 2
    1764:	000001c8 	andeq	r0, r0, r8, asr #3
    1768:	000001cc 	andeq	r0, r0, ip, asr #3
    176c:	cc520001 	mrrcgt	0, 0, r0, r2, cr1
    1770:	d0000001 	andle	r0, r0, r1
    1774:	01000001 	tsteq	r0, r1
    1778:	01d05200 	bicseq	r5, r0, r0, lsl #4
    177c:	01d80000 	bicseq	r0, r8, r0
    1780:	00010000 	andeq	r0, r1, r0
    1784:	0001d852 	andeq	sp, r1, r2, asr r8
    1788:	0001dc00 	andeq	sp, r1, r0, lsl #24
    178c:	52000100 	andpl	r0, r0, #0, 2
    1790:	000001dc 	ldrdeq	r0, [r0], -ip
    1794:	000001e0 	andeq	r0, r0, r0, ror #3
    1798:	e0520001 	subs	r0, r2, r1
    179c:	e8000001 	stmda	r0, {r0}
    17a0:	01000001 	tsteq	r0, r1
    17a4:	01e85200 	mvneq	r5, r0, lsl #4
    17a8:	01ec0000 	mvneq	r0, r0
    17ac:	00010000 	andeq	r0, r1, r0
    17b0:	0001ec52 	andeq	lr, r1, r2, asr ip
    17b4:	0001f000 	andeq	pc, r1, r0
    17b8:	52000100 	andpl	r0, r0, #0, 2
    17bc:	000001f0 	strdeq	r0, [r0], -r0	; <UNPREDICTABLE>
    17c0:	000001f8 	strdeq	r0, [r0], -r8
    17c4:	f8520001 			; <UNDEFINED> instruction: 0xf8520001
    17c8:	fc000001 	stc2	0, cr0, [r0], {1}
    17cc:	01000001 	tsteq	r0, r1
    17d0:	01fc5200 	mvnseq	r5, r0, lsl #4
    17d4:	02000000 	andeq	r0, r0, #0
    17d8:	00010000 	andeq	r0, r1, r0
    17dc:	00020052 	andeq	r0, r2, r2, asr r0
    17e0:	00020c00 	andeq	r0, r2, r0, lsl #24
    17e4:	52000100 	andpl	r0, r0, #0, 2
	...
    17f0:	0000020c 	andeq	r0, r0, ip, lsl #4
    17f4:	00000214 	andeq	r0, r0, r4, lsl r2
    17f8:	9f300002 	svcls	0x00300002
    17fc:	00000220 	andeq	r0, r0, r0, lsr #4
    1800:	00000240 	andeq	r0, r0, r0, asr #4
    1804:	00530001 	subseq	r0, r3, r1
    1808:	00000000 	andeq	r0, r0, r0
    180c:	40000000 	andmi	r0, r0, r0
    1810:	4c000002 	stcmi	0, cr0, [r0], {2}
    1814:	02000002 	andeq	r0, r0, #2
    1818:	4c007d00 	stcmi	13, cr7, [r0], {-0}
    181c:	40000002 	andmi	r0, r0, r2
    1820:	02000003 	andeq	r0, r0, #3
    1824:	00187d00 	andseq	r7, r8, r0, lsl #26
    1828:	00000000 	andeq	r0, r0, r0
    182c:	40000000 	andmi	r0, r0, r0
    1830:	88000002 	stmdahi	r0, {r1}
    1834:	01000002 	tsteq	r0, r2
    1838:	00005000 	andeq	r5, r0, r0
    183c:	00000000 	andeq	r0, r0, r0
    1840:	02540000 	subseq	r0, r4, #0
    1844:	02600000 	rsbeq	r0, r0, #0
    1848:	00060000 	andeq	r0, r6, r0
    184c:	fc09007c 	stc2	0, cr0, [r9], {124}	; 0x7c
    1850:	02609f1a 	rsbeq	r9, r0, #26, 30	; 0x68
    1854:	02640000 	rsbeq	r0, r4, #0
    1858:	00050000 	andeq	r0, r5, r0
    185c:	2131007c 	teqcs	r1, ip, ror r0
    1860:	0002649f 	muleq	r2, pc, r4	; <UNPREDICTABLE>
    1864:	00026800 	andeq	r6, r2, r0, lsl #16
    1868:	5c000100 	stfpls	f0, [r0], {-0}
    186c:	00000268 	andeq	r0, r0, r8, ror #4
    1870:	000002e4 	andeq	r0, r0, r4, ror #5
    1874:	e45c0001 	ldrb	r0, [ip], #-1
    1878:	e8000002 	stmda	r0, {r1}
    187c:	01000002 	tsteq	r0, r2
    1880:	02e85300 	rsceq	r5, r8, #0, 6
    1884:	02ec0000 	rsceq	r0, ip, #0
    1888:	00010000 	andeq	r0, r1, r0
    188c:	0002ec53 	andeq	lr, r2, r3, asr ip
    1890:	0002f000 	andeq	pc, r2, r0
    1894:	53000100 	movwpl	r0, #256	; 0x100
    1898:	000002f0 	strdeq	r0, [r0], -r0	; <UNPREDICTABLE>
    189c:	000002f4 	strdeq	r0, [r0], -r4
    18a0:	f4530001 			; <UNDEFINED> instruction: 0xf4530001
    18a4:	fb000002 	blx	18b6 <__standby_start+0x18b6>
    18a8:	01000002 	tsteq	r0, r2
    18ac:	03005300 	movweq	r5, #768	; 0x300
    18b0:	03080000 	movweq	r0, #32768	; 0x8000
    18b4:	00010000 	andeq	r0, r1, r0
    18b8:	00030853 	andeq	r0, r3, r3, asr r8
    18bc:	00030c00 	andeq	r0, r3, r0, lsl #24
    18c0:	53000100 	movwpl	r0, #256	; 0x100
    18c4:	0000030c 	andeq	r0, r0, ip, lsl #6
    18c8:	00000318 	andeq	r0, r0, r8, lsl r3
    18cc:	049e0006 	ldreq	r0, [lr], #6
    18d0:	82000001 	andhi	r0, r0, #1
    18d4:	00000318 	andeq	r0, r0, r8, lsl r3
    18d8:	0000031c 	andeq	r0, r0, ip, lsl r3
    18dc:	1c550001 	mrrcne	0, 0, r0, r5, cr1
    18e0:	28000003 	stmdacs	r0, {r0, r1}
    18e4:	01000003 	tsteq	r0, r3
    18e8:	03285500 	teqeq	r8, #0, 10
    18ec:	03400000 	movteq	r0, #0
    18f0:	00010000 	andeq	r0, r1, r0
    18f4:	00000055 	andeq	r0, r0, r5, asr r0
    18f8:	00000000 	andeq	r0, r0, r0
    18fc:	00026800 	andeq	r6, r2, r0, lsl #16
    1900:	00029c00 	andeq	r9, r2, r0, lsl #24
    1904:	50000600 	andpl	r0, r0, r0, lsl #12
    1908:	93510493 	cmpls	r1, #-1828716544	; 0x93000000
    190c:	00029c04 	andeq	r9, r2, r4, lsl #24
    1910:	0002e000 	andeq	lr, r2, r0
    1914:	50000600 	andpl	r0, r0, r0, lsl #12
    1918:	93510493 	cmpls	r1, #-1828716544	; 0x93000000
    191c:	00000004 	andeq	r0, r0, r4
    1920:	00000000 	andeq	r0, r0, r0
    1924:	00026800 	andeq	r6, r2, r0, lsl #16
    1928:	00026c00 	andeq	r6, r2, r0, lsl #24
    192c:	9e000a00 	vmlals.f32	s0, s0, s0
    1930:	00001808 	andeq	r1, r0, r8, lsl #16
    1934:	00000000 	andeq	r0, r0, r0
    1938:	00026c00 	andeq	r6, r2, r0, lsl #24
    193c:	00027000 	andeq	r7, r2, r0
    1940:	54000600 	strpl	r0, [r0], #-1536	; 0xfffffa00
    1944:	93550493 	cmpls	r5, #-1828716544	; 0x93000000
    1948:	00027804 	andeq	r7, r2, r4, lsl #16
    194c:	0002c000 	andeq	ip, r2, r0
    1950:	54000600 	strpl	r0, [r0], #-1536	; 0xfffffa00
    1954:	93550493 	cmpls	r5, #-1828716544	; 0x93000000
    1958:	0002d004 	andeq	sp, r2, r4
    195c:	0002d400 	andeq	sp, r2, r0, lsl #8
    1960:	54000600 	strpl	r0, [r0], #-1536	; 0xfffffa00
    1964:	93550493 	cmpls	r5, #-1828716544	; 0x93000000
    1968:	00000004 	andeq	r0, r0, r4
    196c:	00000000 	andeq	r0, r0, r0
    1970:	00026800 	andeq	r6, r2, r0, lsl #16
    1974:	00028800 	andeq	r8, r2, r0, lsl #16
    1978:	9e000a00 	vmlals.f32	s0, s0, s0
    197c:	00000008 	andeq	r0, r0, r8
    1980:	00000000 	andeq	r0, r0, r0
    1984:	00028800 	andeq	r8, r2, r0, lsl #16
    1988:	0002a000 	andeq	sl, r2, r0
    198c:	52000600 	andpl	r0, r0, #0, 12
    1990:	93530493 	cmpls	r3, #-1828716544	; 0x93000000
    1994:	0002b404 	andeq	fp, r2, r4, lsl #8
    1998:	0002bc00 	andeq	fp, r2, r0, lsl #24
    199c:	52000600 	andpl	r0, r0, #0, 12
    19a0:	93530493 	cmpls	r3, #-1828716544	; 0x93000000
    19a4:	0002c004 	andeq	ip, r2, r4
    19a8:	0002fb00 	andeq	pc, r2, r0, lsl #22
    19ac:	52000600 	andpl	r0, r0, #0, 12
    19b0:	93530493 	cmpls	r3, #-1828716544	; 0x93000000
    19b4:	00000004 	andeq	r0, r0, r4
    19b8:	00000000 	andeq	r0, r0, r0
    19bc:	00026800 	andeq	r6, r2, r0, lsl #16
    19c0:	00026c00 	andeq	r6, r2, r0, lsl #24
    19c4:	30000200 	andcc	r0, r0, r0, lsl #4
    19c8:	00026c9f 	muleq	r2, pc, ip	; <UNPREDICTABLE>
    19cc:	00027400 	andeq	r7, r2, r0, lsl #8
    19d0:	5e000100 	adfpls	f0, f0, f0
    19d4:	00000274 	andeq	r0, r0, r4, ror r2
    19d8:	00000278 	andeq	r0, r0, r8, ror r2
    19dc:	7f7e0003 	svcvc	0x007e0003
    19e0:	0002789f 	muleq	r2, pc, r8	; <UNPREDICTABLE>
    19e4:	0002c000 	andeq	ip, r2, r0
    19e8:	5e000100 	adfpls	f0, f0, f0
    19ec:	000002c0 	andeq	r0, r0, r0, asr #5
    19f0:	000002c4 	andeq	r0, r0, r4, asr #5
    19f4:	7f7e0003 	svcvc	0x007e0003
    19f8:	0002c49f 	muleq	r2, pc, r4	; <UNPREDICTABLE>
    19fc:	0002fb00 	andeq	pc, r2, r0, lsl #22
    1a00:	5e000100 	adfpls	f0, f0, f0
	...
    1a0c:	00000350 	andeq	r0, r0, r0, asr r3
    1a10:	00000354 	andeq	r0, r0, r4, asr r3
    1a14:	54520001 	ldrbpl	r0, [r2], #-1
    1a18:	58000003 	stmdapl	r0, {r0, r1}
    1a1c:	01000003 	tsteq	r0, r3
    1a20:	03585200 	cmpeq	r8, #0, 4
    1a24:	036c0000 	cmneq	ip, #0
    1a28:	00020000 	andeq	r0, r2, r0
    1a2c:	036c0073 	cmneq	ip, #115	; 0x73
    1a30:	03700000 	cmneq	r0, #0
    1a34:	00010000 	andeq	r0, r1, r0
    1a38:	00000050 	andeq	r0, r0, r0, asr r0
    1a3c:	00000000 	andeq	r0, r0, r0
    1a40:	00038800 	andeq	r8, r3, r0, lsl #16
    1a44:	00038c00 	andeq	r8, r3, r0, lsl #24
    1a48:	53000100 	movwpl	r0, #256	; 0x100
    1a4c:	0000038c 	andeq	r0, r0, ip, lsl #7
    1a50:	00000390 	muleq	r0, r0, r3
    1a54:	90530001 	subsls	r0, r3, r1
    1a58:	9c000003 	stcls	0, cr0, [r0], {3}
    1a5c:	01000003 	tsteq	r0, r3
    1a60:	00005300 	andeq	r5, r0, r0, lsl #6
    1a64:	00000000 	andeq	r0, r0, r0
    1a68:	039c0000 	orrseq	r0, ip, #0
    1a6c:	03ac0000 			; <UNDEFINED> instruction: 0x03ac0000
    1a70:	00030000 	andeq	r0, r3, r0
    1a74:	ac9f8308 	ldcge	3, cr8, [pc], {8}
    1a78:	b4000003 	strlt	r0, [r0], #-3
    1a7c:	09000003 	stmdbeq	r0, {r0, r1}
    1a80:	7eb87300 	cdpvc	3, 11, cr7, cr8, cr0, {0}
    1a84:	83082438 	movwhi	r2, #33848	; 0x8438
    1a88:	03b49f21 			; <UNDEFINED> instruction: 0x03b49f21
    1a8c:	03b80000 			; <UNDEFINED> instruction: 0x03b80000
    1a90:	00080000 	andeq	r0, r8, r0
    1a94:	24380072 	ldrtcs	r0, [r8], #-114	; 0xffffff8e
    1a98:	9f218308 	svcls	0x00218308
    1a9c:	000003c0 	andeq	r0, r0, r0, asr #7
    1aa0:	000003cc 	andeq	r0, r0, ip, asr #7
    1aa4:	00520001 	subseq	r0, r2, r1
    1aa8:	00000000 	andeq	r0, r0, r0
    1aac:	9c000000 	stcls	0, cr0, [r0], {-0}
    1ab0:	ac000003 	stcge	0, cr0, [r0], {3}
    1ab4:	09000003 	stmdbeq	r0, {r0, r1}
    1ab8:	0a007000 	beq	1dac0 <__standby_start+0x1dac0>
    1abc:	3a1e1f33 	bcc	789790 <__standby_start+0x789790>
    1ac0:	03ac9f25 			; <UNDEFINED> instruction: 0x03ac9f25
    1ac4:	03b40000 			; <UNDEFINED> instruction: 0x03b40000
    1ac8:	00040000 	andeq	r0, r4, r0
    1acc:	9f7eb873 	svcls	0x007eb873
    1ad0:	000003b4 			; <UNDEFINED> instruction: 0x000003b4
    1ad4:	000003b8 			; <UNDEFINED> instruction: 0x000003b8
    1ad8:	00520001 	subseq	r0, r2, r1
    1adc:	00000000 	andeq	r0, r0, r0
    1ae0:	d4000000 	strle	r0, [r0], #-0
    1ae4:	2c000003 	stccs	0, cr0, [r0], {3}
    1ae8:	01000004 	tsteq	r0, r4
    1aec:	00005300 	andeq	r5, r0, r0, lsl #6
    1af0:	00000000 	andeq	r0, r0, r0
    1af4:	04140000 	ldreq	r0, [r4], #-0
    1af8:	04240000 	strteq	r0, [r4], #-0
    1afc:	00010000 	andeq	r0, r1, r0
    1b00:	00042450 	andeq	r2, r4, r0, asr r4
    1b04:	00043000 	andeq	r3, r4, r0
    1b08:	50000100 	andpl	r0, r0, r0, lsl #2
    1b0c:	00000430 	andeq	r0, r0, r0, lsr r4
    1b10:	00000438 	andeq	r0, r0, r8, lsr r4
    1b14:	38500001 	ldmdacc	r0, {r0}^
    1b18:	40000004 	andmi	r0, r0, r4
    1b1c:	01000004 	tsteq	r0, r4
    1b20:	00005000 	andeq	r5, r0, r0
    1b24:	00000000 	andeq	r0, r0, r0
    1b28:	03d80000 	bicseq	r0, r8, #0
    1b2c:	03e00000 	mvneq	r0, #0
    1b30:	00010000 	andeq	r0, r1, r0
    1b34:	00000050 	andeq	r0, r0, r0, asr r0
    1b38:	00000000 	andeq	r0, r0, r0
    1b3c:	00044000 	andeq	r4, r4, r0
    1b40:	00044400 	andeq	r4, r4, r0, lsl #8
    1b44:	7d000200 	sfmvc	f0, 4, [r0, #-0]
    1b48:	00044400 	andeq	r4, r4, r0, lsl #8
    1b4c:	00061c00 	andeq	r1, r6, r0, lsl #24
    1b50:	7d000200 	sfmvc	f0, 4, [r0, #-0]
    1b54:	00000018 	andeq	r0, r0, r8, lsl r0
    1b58:	00000000 	andeq	r0, r0, r0
    1b5c:	00044000 	andeq	r4, r4, r0
    1b60:	00044c00 	andeq	r4, r4, r0, lsl #24
    1b64:	50000100 	andpl	r0, r0, r0, lsl #2
    1b68:	0000044c 	andeq	r0, r0, ip, asr #8
    1b6c:	0000061c 	andeq	r0, r0, ip, lsl r6
    1b70:	00540001 	subseq	r0, r4, r1
    1b74:	00000000 	andeq	r0, r0, r0
    1b78:	78000000 	stmdavc	r0, {}	; <UNPREDICTABLE>
    1b7c:	94000004 	strls	r0, [r0], #-4
    1b80:	06000004 	streq	r0, [r0], -r4
    1b84:	06087400 	streq	r7, [r8], -r0, lsl #8
    1b88:	949f2933 	ldrls	r2, [pc], #2355	; 1b90 <__standby_start+0x1b90>
    1b8c:	a8000004 	stmdage	r0, {r2}
    1b90:	01000004 	tsteq	r0, r4
    1b94:	05045300 	streq	r5, [r4, #-768]	; 0xfffffd00
    1b98:	050c0000 	streq	r0, [ip, #-0]
    1b9c:	00010000 	andeq	r0, r1, r0
    1ba0:	00050c53 	andeq	r0, r5, r3, asr ip
    1ba4:	00051400 	andeq	r1, r5, r0, lsl #8
    1ba8:	76000200 	strvc	r0, [r0], -r0, lsl #4
    1bac:	00051404 	andeq	r1, r5, r4, lsl #8
    1bb0:	00051c00 	andeq	r1, r5, r0, lsl #24
    1bb4:	52000100 	andpl	r0, r0, #0, 2
    1bb8:	0000051c 	andeq	r0, r0, ip, lsl r5
    1bbc:	00000520 	andeq	r0, r0, r0, lsr #10
    1bc0:	20520001 	subscs	r0, r2, r1
    1bc4:	28000005 	stmdacs	r0, {r0, r2}
    1bc8:	01000005 	tsteq	r0, r5
    1bcc:	05285300 	streq	r5, [r8, #-768]!	; 0xfffffd00
    1bd0:	052c0000 	streq	r0, [ip, #-0]!
    1bd4:	00010000 	andeq	r0, r1, r0
    1bd8:	00053055 	andeq	r3, r5, r5, asr r0
    1bdc:	00058400 	andeq	r8, r5, r0, lsl #8
    1be0:	55000100 	strpl	r0, [r0, #-256]	; 0xffffff00
    1be4:	0000058c 	andeq	r0, r0, ip, lsl #11
    1be8:	00000590 	muleq	r0, r0, r5
    1bec:	00750009 	rsbseq	r0, r5, r9
    1bf0:	000a2434 	andeq	r2, sl, r4, lsr r4
    1bf4:	949f2110 	ldrls	r2, [pc], #272	; 1bfc <__standby_start+0x1bfc>
    1bf8:	9c000005 	stcls	0, cr0, [r0], {5}
    1bfc:	01000005 	tsteq	r0, r5
    1c00:	059c5500 	ldreq	r5, [ip, #1280]	; 0x500
    1c04:	05ac0000 	streq	r0, [ip, #0]!
    1c08:	00080000 	andeq	r0, r8, r0
    1c0c:	34061c74 	strcc	r1, [r6], #-3188	; 0xfffff38c
    1c10:	9f213224 	svcls	0x00213224
    1c14:	000005ac 	andeq	r0, r0, ip, lsr #11
    1c18:	000005d0 	ldrdeq	r0, [r0], -r0	; <UNPREDICTABLE>
    1c1c:	d0550001 	subsle	r0, r5, r1
    1c20:	d4000005 	strle	r0, [r0], #-5
    1c24:	01000005 	tsteq	r0, r5
    1c28:	05d45200 	ldrbeq	r5, [r4, #512]	; 0x200
    1c2c:	05d80000 	ldrbeq	r0, [r8]
    1c30:	00010000 	andeq	r0, r1, r0
    1c34:	0005d852 	andeq	sp, r5, r2, asr r8
    1c38:	0005e000 	andeq	lr, r5, r0
    1c3c:	52000100 	andpl	r0, r0, #0, 2
    1c40:	000005e0 	andeq	r0, r0, r0, ror #11
    1c44:	000005e4 	andeq	r0, r0, r4, ror #11
    1c48:	e4520001 	ldrb	r0, [r2], #-1
    1c4c:	e8000005 	stmda	r0, {r0, r2}
    1c50:	01000005 	tsteq	r0, r5
    1c54:	05e85200 	strbeq	r5, [r8, #512]!	; 0x200
    1c58:	05f70000 	ldrbeq	r0, [r7, #0]!
    1c5c:	00020000 	andeq	r0, r2, r0
    1c60:	00000076 	andeq	r0, r0, r6, ror r0
    1c64:	00000000 	andeq	r0, r0, r0
    1c68:	05fc0000 	ldrbeq	r0, [ip, #0]!
    1c6c:	06070000 	streq	r0, [r7], -r0
    1c70:	00010000 	andeq	r0, r1, r0
    1c74:	00061050 	andeq	r1, r6, r0, asr r0
    1c78:	00061400 	andeq	r1, r6, r0, lsl #8
    1c7c:	50000100 	andpl	r0, r0, r0, lsl #2
	...

Disassembly of section .debug_pubnames:

00000000 <.debug_pubnames>:
   0:	00000023 	andeq	r0, r0, r3, lsr #32
   4:	00000002 	andeq	r0, r0, r2
   8:	040e0000 	streq	r0, [lr], #-0
   c:	028b0000 	addeq	r0, fp, #0
  10:	616d0000 	cmnvs	sp, r0
  14:	e1006e69 	tst	r0, r9, ror #28
  18:	70000003 	andvc	r0, r0, r3
  1c:	6e695f6d 	cdpvs	15, 6, cr5, cr9, cr13, {3}
  20:	00006f66 	andeq	r6, r0, r6, ror #30
  24:	34000000 	strcc	r0, [r0], #-0
  28:	02000000 	andeq	r0, r0, #0
  2c:	00040e00 	andeq	r0, r4, r0, lsl #28
  30:	00011b00 	andeq	r1, r1, r0, lsl #22
  34:	00006a00 	andeq	r6, r0, r0, lsl #20
  38:	61747300 	cmnvs	r4, r0, lsl #6
  3c:	7962646e 	stmdbvc	r2!, {r1, r2, r3, r5, r6, sl, sp, lr}^
  40:	6d656d5f 	stclvs	13, cr6, [r5, #-380]!	; 0xfffffe84
  44:	00797063 	rsbseq	r7, r9, r3, rrx
  48:	000000d9 	ldrdeq	r0, [r0], -r9
  4c:	6e617473 	mcrvs	4, 3, r7, cr1, cr3, {3}
  50:	5f796264 	svcpl	0x00796264
  54:	6c65646d 	cfstrdvs	mvd6, [r5], #-436	; 0xfffffe4c
  58:	00007961 	andeq	r7, r0, r1, ror #18
  5c:	22000000 	andcs	r0, r0, #0
  60:	02000002 	andeq	r0, r0, #2
  64:	00058e00 	andeq	r8, r5, r0, lsl #28
  68:	0021f500 	eoreq	pc, r1, r0, lsl #10
  6c:	001f3100 	andseq	r3, pc, r0, lsl #2
  70:	61747300 	cmnvs	r4, r0, lsl #6
  74:	7962646e 	stmdbvc	r2!, {r1, r2, r3, r5, r6, sl, sp, lr}^
  78:	6b6c635f 	blvs	1b18dfc <__standby_start+0x1b18dfc>
  7c:	696e695f 	stmdbvs	lr!, {r0, r1, r2, r3, r4, r6, r8, fp, sp, lr}^
  80:	1f490074 	svcne	0x00490074
  84:	74730000 	ldrbtvc	r0, [r3], #-0
  88:	62646e61 	rsbvs	r6, r4, #1552	; 0x610
  8c:	6c635f79 	stclvs	15, cr5, [r3], #-484	; 0xfffffe1c
  90:	78655f6b 	stmdavc	r5!, {r0, r1, r3, r5, r6, r8, r9, sl, fp, ip, lr}^
  94:	61007469 	tstvs	r0, r9, ror #8
  98:	7300001f 	movwvc	r0, #31
  9c:	646e6174 	strbtvs	r6, [lr], #-372	; 0xfffffe8c
  a0:	635f7962 	cmpvs	pc, #1605632	; 0x188000
  a4:	635f6b6c 	cmpvs	pc, #108, 22	; 0x1b000
  a8:	3265726f 	rsbcc	r7, r5, #-268435450	; 0xf0000006
  ac:	63736f6c 	cmnvs	r3, #108, 30	; 0x1b0
  b0:	001f7900 	andseq	r7, pc, r0, lsl #18
  b4:	61747300 	cmnvs	r4, r0, lsl #6
  b8:	7962646e 	stmdbvc	r2!, {r1, r2, r3, r5, r6, sl, sp, lr}^
  bc:	6b6c635f 	blvs	1b18e40 <__standby_start+0x1b18e40>
  c0:	726f635f 	rsbvc	r6, pc, #2080374785	; 0x7c000001
  c4:	6f683265 	svcvs	0x00683265
  c8:	91006373 	tstls	r0, r3, ror r3
  cc:	7300001f 	movwvc	r0, #31
  d0:	646e6174 	strbtvs	r6, [lr], #-372	; 0xfffffe8c
  d4:	635f7962 	cmpvs	pc, #1605632	; 0x188000
  d8:	635f6b6c 	cmpvs	pc, #108, 22	; 0x1b000
  dc:	3265726f 	rsbcc	r7, r5, #-268435450	; 0xf0000006
  e0:	006c6c70 	rsbeq	r6, ip, r0, ror ip
  e4:	00001fa9 	andeq	r1, r0, r9, lsr #31
  e8:	6e617473 	mcrvs	4, 3, r7, cr1, cr3, {3}
  ec:	5f796264 	svcpl	0x00796264
  f0:	5f6b6c63 	svcpl	0x006b6c63
  f4:	646c6c70 	strbtvs	r6, [ip], #-3184	; 0xfffff390
  f8:	62617369 	rsbvs	r7, r1, #-1543503871	; 0xa4000001
  fc:	c100656c 	tstgt	r0, ip, ror #10
 100:	7300001f 	movwvc	r0, #31
 104:	646e6174 	strbtvs	r6, [lr], #-372	; 0xfffffe8c
 108:	635f7962 	cmpvs	pc, #1605632	; 0x188000
 10c:	705f6b6c 	subsvc	r6, pc, ip, ror #22
 110:	6e656c6c 	cdpvs	12, 6, cr6, cr5, cr12, {3}
 114:	656c6261 	strbvs	r6, [ip, #-609]!	; 0xfffffd9f
 118:	001fd900 	andseq	sp, pc, r0, lsl #18
 11c:	61747300 	cmnvs	r4, r0, lsl #6
 120:	7962646e 	stmdbvc	r2!, {r1, r2, r3, r5, r6, sl, sp, lr}^
 124:	6b6c635f 	blvs	1b18ea8 <__standby_start+0x1b18ea8>
 128:	736f685f 	cmnvc	pc, #6225920	; 0x5f0000
 12c:	73696463 	cmnvc	r9, #1660944384	; 0x63000000
 130:	656c6261 	strbvs	r6, [ip, #-609]!	; 0xfffffd9f
 134:	001ff100 	andseq	pc, pc, r0, lsl #2
 138:	61747300 	cmnvs	r4, r0, lsl #6
 13c:	7962646e 	stmdbvc	r2!, {r1, r2, r3, r5, r6, sl, sp, lr}^
 140:	6b6c635f 	blvs	1b18ec4 <__standby_start+0x1b18ec4>
 144:	736f685f 	cmnvc	pc, #6225920	; 0x5f0000
 148:	616e6563 	cmnvs	lr, r3, ror #10
 14c:	00656c62 	rsbeq	r6, r5, r2, ror #24
 150:	00002009 	andeq	r2, r0, r9
 154:	6e617473 	mcrvs	4, 3, r7, cr1, cr3, {3}
 158:	5f796264 	svcpl	0x00796264
 15c:	5f6b6c63 	svcpl	0x006b6c63
 160:	646f646c 	strbtvs	r6, [pc], #-1132	; 168 <__standby_start+0x168>
 164:	62617369 	rsbvs	r7, r1, #-1543503871	; 0xa4000001
 168:	2200656c 	andcs	r6, r0, #108, 10	; 0x1b000000
 16c:	73000020 	movwvc	r0, #32
 170:	646e6174 	strbtvs	r6, [lr], #-372	; 0xfffffe8c
 174:	635f7962 	cmpvs	pc, #1605632	; 0x188000
 178:	6c5f6b6c 	mrrcvs	11, 6, r6, pc, cr12	; <UNPREDICTABLE>
 17c:	6e656f64 	cdpvs	15, 6, cr6, cr5, cr4, {3}
 180:	656c6261 	strbvs	r6, [ip, #-609]!	; 0xfffffd9f
 184:	00203b00 	eoreq	r3, r0, r0, lsl #22
 188:	61747300 	cmnvs	r4, r0, lsl #6
 18c:	7962646e 	stmdbvc	r2!, {r1, r2, r3, r5, r6, sl, sp, lr}^
 190:	6b6c635f 	blvs	1b18f14 <__standby_start+0x1b18f14>
 194:	7465735f 	strbtvc	r7, [r5], #-863	; 0xfffffca1
 198:	00766964 	rsbseq	r6, r6, r4, ror #18
 19c:	0000206f 	andeq	r2, r0, pc, rrx
 1a0:	6e617473 	mcrvs	4, 3, r7, cr1, cr3, {3}
 1a4:	5f796264 	svcpl	0x00796264
 1a8:	5f6b6c63 	svcpl	0x006b6c63
 1ac:	64746567 	ldrbtvs	r6, [r4], #-1383	; 0xfffffa99
 1b0:	9d007669 	stcls	6, cr7, [r0, #-420]	; 0xfffffe5c
 1b4:	73000020 	movwvc	r0, #32
 1b8:	646e6174 	strbtvs	r6, [lr], #-372	; 0xfffffe8c
 1bc:	635f7962 	cmpvs	pc, #1605632	; 0x188000
 1c0:	735f6b6c 	cmpvc	pc, #108, 22	; 0x1b000
 1c4:	705f7465 	subsvc	r7, pc, r5, ror #8
 1c8:	665f6c6c 	ldrbvs	r6, [pc], -ip, ror #24
 1cc:	6f746361 	svcvs	0x00746361
 1d0:	20d10072 	sbcscs	r0, r1, r2, ror r0
 1d4:	74730000 	ldrbtvc	r0, [r3], #-0
 1d8:	62646e61 	rsbvs	r6, r4, #1552	; 0x610
 1dc:	6c635f79 	stclvs	15, cr5, [r3], #-484	; 0xfffffe1c
 1e0:	65675f6b 	strbvs	r5, [r7, #-3947]!	; 0xfffff095
 1e4:	6c705f74 	ldclvs	15, cr5, [r0], #-464	; 0xfffffe30
 1e8:	61665f6c 	cmnvs	r6, ip, ror #30
 1ec:	726f7463 	rsbvc	r7, pc, #1660944384	; 0x63000000
 1f0:	0020ff00 	eoreq	pc, r0, r0, lsl #30
 1f4:	61747300 	cmnvs	r4, r0, lsl #6
 1f8:	7962646e 	stmdbvc	r2!, {r1, r2, r3, r5, r6, sl, sp, lr}^
 1fc:	6b6c635f 	blvs	1b18f80 <__standby_start+0x1b18f80>
 200:	6172645f 	cmnvs	r2, pc, asr r4
 204:	7461676d 	strbtvc	r6, [r1], #-1901	; 0xfffff893
 208:	00676e69 	rsbeq	r6, r7, r9, ror #28
 20c:	00002127 	andeq	r2, r0, r7, lsr #2
 210:	6e617473 	mcrvs	4, 3, r7, cr1, cr3, {3}
 214:	5f796264 	svcpl	0x00796264
 218:	5f6b6c63 	svcpl	0x006b6c63
 21c:	32627061 	rsbcc	r7, r2, #97	; 0x61
 220:	63736f6c 	cmnvs	r3, #108, 30	; 0x1b0
 224:	00214000 	eoreq	r4, r1, r0
 228:	61747300 	cmnvs	r4, r0, lsl #6
 22c:	7962646e 	stmdbvc	r2!, {r1, r2, r3, r5, r6, sl, sp, lr}^
 230:	6b6c635f 	blvs	1b18fb4 <__standby_start+0x1b18fb4>
 234:	6270615f 	rsbsvs	r6, r0, #-1073741801	; 0xc0000017
 238:	736f6832 	cmnvc	pc, #3276800	; 0x320000
 23c:	21590063 	cmpcs	r9, r3, rrx
 240:	74730000 	ldrbtvc	r0, [r3], #-0
 244:	62646e61 	rsbvs	r6, r4, #1552	; 0x610
 248:	6c635f79 	stclvs	15, cr5, [r3], #-484	; 0xfffffe1c
 24c:	70615f6b 	rsbvc	r5, r1, fp, ror #30
 250:	696e6962 	stmdbvs	lr!, {r1, r5, r6, r8, fp, sp, lr}^
 254:	21720074 	cmncs	r2, r4, ror r0
 258:	74730000 	ldrbtvc	r0, [r3], #-0
 25c:	62646e61 	rsbvs	r6, r4, #1552	; 0x610
 260:	6c635f79 	stclvs	15, cr5, [r3], #-484	; 0xfffffe1c
 264:	70615f6b 	rsbvc	r5, r1, fp, ror #30
 268:	69786562 	ldmdbvs	r8!, {r1, r5, r6, r8, sl, sp, lr}^
 26c:	21e20074 	mvncs	r0, r4, ror r0
 270:	70630000 	rsbvc	r0, r3, r0
 274:	736d5f75 	cmnvc	sp, #468	; 0x1d4
 278:	6f6f6c5f 	svcvs	0x006f6c5f
 27c:	746e6370 	strbtvc	r6, [lr], #-880	; 0xfffffc90
 280:	00000000 	andeq	r0, r0, r0
 284:	00006500 	andeq	r6, r0, r0, lsl #10
 288:	83000200 	movwhi	r0, #512	; 0x200
 28c:	5a000027 	bpl	330 <__standby_start+0x330>
 290:	3b000003 	blcc	2a4 <__standby_start+0x2a4>
 294:	73000002 	movwvc	r0, #2
 298:	646e6174 	strbtvs	r6, [lr], #-372	; 0xfffffe8c
 29c:	695f7962 	ldmdbvs	pc, {r1, r5, r6, r8, fp, ip, sp, lr}^	; <UNPREDICTABLE>
 2a0:	695f746e 	ldmdbvs	pc, {r1, r2, r3, r5, r6, sl, ip, sp, lr}^	; <UNPREDICTABLE>
 2a4:	0074696e 	rsbseq	r6, r4, lr, ror #18
 2a8:	00000253 	andeq	r0, r0, r3, asr r2
 2ac:	6e617473 	mcrvs	4, 3, r7, cr1, cr3, {3}
 2b0:	5f796264 	svcpl	0x00796264
 2b4:	5f746e69 	svcpl	0x00746e69
 2b8:	74697865 	strbtvc	r7, [r9], #-2149	; 0xfffff79b
 2bc:	00026b00 	andeq	r6, r2, r0, lsl #22
 2c0:	61747300 	cmnvs	r4, r0, lsl #6
 2c4:	7962646e 	stmdbvc	r2!, {r1, r2, r3, r5, r6, sl, sp, lr}^
 2c8:	616e655f 	cmnvs	lr, pc, asr r5
 2cc:	5f656c62 	svcpl	0x00656c62
 2d0:	00746e69 	rsbseq	r6, r4, r9, ror #28
 2d4:	000002b6 			; <UNDEFINED> instruction: 0x000002b6
 2d8:	6e617473 	mcrvs	4, 3, r7, cr1, cr3, {3}
 2dc:	5f796264 	svcpl	0x00796264
 2e0:	72657571 	rsbvc	r7, r5, #473956352	; 0x1c400000
 2e4:	6e695f79 	mcrvs	15, 3, r5, cr9, cr9, {3}
 2e8:	00000074 	andeq	r0, r0, r4, ror r0
 2ec:	00620000 	rsbeq	r0, r2, r0
 2f0:	00020000 	andeq	r0, r2, r0
 2f4:	00002add 	ldrdeq	r2, [r0], -sp
 2f8:	000000c9 	andeq	r0, r0, r9, asr #1
 2fc:	00000068 	andeq	r0, r0, r8, rrx
 300:	6e617473 	mcrvs	4, 3, r7, cr1, cr3, {3}
 304:	5f796264 	svcpl	0x00796264
 308:	695f7269 	ldmdbvs	pc, {r0, r3, r5, r6, r9, ip, sp, lr}^	; <UNPREDICTABLE>
 30c:	0074696e 	rsbseq	r6, r4, lr, ror #18
 310:	00000080 	andeq	r0, r0, r0, lsl #1
 314:	6e617473 	mcrvs	4, 3, r7, cr1, cr3, {3}
 318:	5f796264 	svcpl	0x00796264
 31c:	655f7269 	ldrbvs	r7, [pc, #-617]	; bb <__standby_start+0xbb>
 320:	00746978 	rsbseq	r6, r4, r8, ror r9
 324:	00000098 	muleq	r0, r8, r0
 328:	6e617473 	mcrvs	4, 3, r7, cr1, cr3, {3}
 32c:	5f796264 	svcpl	0x00796264
 330:	645f7269 	ldrbvs	r7, [pc], #-617	; 338 <__standby_start+0x338>
 334:	63657465 	cmnvs	r5, #1694498816	; 0x65000000
 338:	00b00074 	adcseq	r0, r0, r4, ror r0
 33c:	74730000 	ldrbtvc	r0, [r3], #-0
 340:	62646e61 	rsbvs	r6, r4, #1552	; 0x610
 344:	72695f79 	rsbvc	r5, r9, #484	; 0x1e4
 348:	7265765f 	rsbvc	r7, r5, #99614720	; 0x5f00000
 34c:	00796669 	rsbseq	r6, r9, r9, ror #12
 350:	00000000 	andeq	r0, r0, r0
 354:	0000004e 	andeq	r0, r0, lr, asr #32
 358:	2ba60002 	blcs	fe980368 <__bss_end+0xe97da8c>
 35c:	017a0000 	cmneq	sl, r0
 360:	00d60000 	sbcseq	r0, r6, r0
 364:	74730000 	ldrbtvc	r0, [r3], #-0
 368:	62646e61 	rsbvs	r6, r4, #1552	; 0x610
 36c:	656b5f79 	strbvs	r5, [fp, #-3961]!	; 0xfffff087
 370:	6e695f79 	mcrvs	15, 3, r5, cr9, cr9, {3}
 374:	ef007469 	svc	0x00007469
 378:	73000000 	movwvc	r0, #0
 37c:	646e6174 	strbtvs	r6, [lr], #-372	; 0xfffffe8c
 380:	6b5f7962 	blvs	17de910 <__standby_start+0x17de910>
 384:	655f7965 	ldrbvs	r7, [pc, #-2405]	; fffffa27 <__bss_end+0xfffd14b>
 388:	00746978 	rsbseq	r6, r4, r8, ror r9
 38c:	00000107 	andeq	r0, r0, r7, lsl #2
 390:	6e617473 	mcrvs	4, 3, r7, cr1, cr3, {3}
 394:	5f796264 	svcpl	0x00796264
 398:	72657571 	rsbvc	r7, r5, #473956352	; 0x1c400000
 39c:	656b5f79 	strbvs	r5, [fp, #-3961]!	; 0xfffff087
 3a0:	00000079 	andeq	r0, r0, r9, ror r0
 3a4:	006c0000 	rsbeq	r0, ip, r0
 3a8:	00020000 	andeq	r0, r2, r0
 3ac:	00002d20 	andeq	r2, r0, r0, lsr #26
 3b0:	000003c7 	andeq	r0, r0, r7, asr #7
 3b4:	000001ee 	andeq	r0, r0, lr, ror #3
 3b8:	6e617473 	mcrvs	4, 3, r7, cr1, cr3, {3}
 3bc:	5f796264 	svcpl	0x00796264
 3c0:	65776f70 	ldrbvs	r6, [r7, #-3952]!	; 0xfffff090
 3c4:	6e695f72 	mcrvs	15, 3, r5, cr9, cr2, {3}
 3c8:	2a007469 	bcs	1d574 <__standby_start+0x1d574>
 3cc:	73000002 	movwvc	r0, #2
 3d0:	646e6174 	strbtvs	r6, [lr], #-372	; 0xfffffe8c
 3d4:	705f7962 	subsvc	r7, pc, r2, ror #18
 3d8:	7265776f 	rsbvc	r7, r5, #29097984	; 0x1bc0000
 3dc:	6978655f 	ldmdbvs	r8!, {r0, r1, r2, r3, r4, r6, r8, sl, sp, lr}^
 3e0:	028e0074 	addeq	r0, lr, #116	; 0x74
 3e4:	74730000 	ldrbtvc	r0, [r3], #-0
 3e8:	62646e61 	rsbvs	r6, r4, #1552	; 0x610
 3ec:	65735f79 	ldrbvs	r5, [r3, #-3961]!	; 0xfffff087
 3f0:	6f765f74 	svcvs	0x00765f74
 3f4:	6761746c 	strbvs	r7, [r1, -ip, ror #8]!
 3f8:	03240065 	teqeq	r4, #101	; 0x65
 3fc:	74730000 	ldrbtvc	r0, [r3], #-0
 400:	62646e61 	rsbvs	r6, r4, #1552	; 0x610
 404:	65675f79 	strbvs	r5, [r7, #-3961]!	; 0xfffff087
 408:	6f765f74 	svcvs	0x00765f74
 40c:	6761746c 	strbvs	r7, [r1, -ip, ror #8]!
 410:	00000065 	andeq	r0, r0, r5, rrx
 414:	00b90000 	adcseq	r0, r9, r0
 418:	00020000 	andeq	r0, r2, r0
 41c:	000030e7 	andeq	r3, r0, r7, ror #1
 420:	00000538 	andeq	r0, r0, r8, lsr r5
 424:	000003a0 	andeq	r0, r0, r0, lsr #7
 428:	6e617473 	mcrvs	4, 3, r7, cr1, cr3, {3}
 42c:	5f796264 	svcpl	0x00796264
 430:	5f726d74 	svcpl	0x00726d74
 434:	74696e69 	strbtvc	r6, [r9], #-3689	; 0xfffff197
 438:	0003c700 	andeq	ip, r3, r0, lsl #14
 43c:	61747300 	cmnvs	r4, r0, lsl #6
 440:	7962646e 	stmdbvc	r2!, {r1, r2, r3, r5, r6, sl, sp, lr}^
 444:	726d745f 	rsbvc	r7, sp, #1593835520	; 0x5f000000
 448:	6978655f 	ldmdbvs	r8!, {r0, r1, r2, r3, r4, r6, r8, sl, sp, lr}^
 44c:	03ed0074 	mvneq	r0, #116	; 0x74
 450:	74730000 	ldrbtvc	r0, [r3], #-0
 454:	62646e61 	rsbvs	r6, r4, #1552	; 0x610
 458:	6d745f79 	ldclvs	15, cr5, [r4, #-484]!	; 0xfffffe1c
 45c:	65735f72 	ldrbvs	r5, [r3, #-3954]!	; 0xfffff08e
 460:	04190074 	ldreq	r0, [r9], #-116	; 0xffffff8c
 464:	74730000 	ldrbtvc	r0, [r3], #-0
 468:	62646e61 	rsbvs	r6, r4, #1552	; 0x610
 46c:	6d745f79 	ldclvs	15, cr5, [r4, #-484]!	; 0xfffffe1c
 470:	6e655f72 	mcrvs	15, 3, r5, cr5, cr2, {3}
 474:	656c6261 	strbvs	r6, [ip, #-609]!	; 0xfffffd9f
 478:	7461775f 	strbtvc	r7, [r1], #-1887	; 0xfffff8a1
 47c:	6f646863 	svcvs	0x00646863
 480:	042d0067 	strteq	r0, [sp], #-103	; 0xffffff99
 484:	74730000 	ldrbtvc	r0, [r3], #-0
 488:	62646e61 	rsbvs	r6, r4, #1552	; 0x610
 48c:	6d745f79 	ldclvs	15, cr5, [r4, #-484]!	; 0xfffffe1c
 490:	69645f72 	stmdbvs	r4!, {r1, r4, r5, r6, r8, r9, sl, fp, ip, lr}^
 494:	6c626173 	stfvse	f6, [r2], #-460	; 0xfffffe34
 498:	61775f65 	cmnvs	r7, r5, ror #30
 49c:	64686374 	strbtvs	r6, [r8], #-884	; 0xfffffc8c
 4a0:	4100676f 	tstmi	r0, pc, ror #14
 4a4:	73000004 	movwvc	r0, #4
 4a8:	646e6174 	strbtvs	r6, [lr], #-372	; 0xfffffe8c
 4ac:	745f7962 	ldrbvc	r7, [pc], #-2402	; 4b4 <__standby_start+0x4b4>
 4b0:	715f726d 	cmpvc	pc, sp, ror #4
 4b4:	79726575 	ldmdbvc	r2!, {r0, r2, r4, r5, r6, r8, sl, sp, lr}^
 4b8:	00047800 	andeq	r7, r4, r0, lsl #16
 4bc:	61747300 	cmnvs	r4, r0, lsl #6
 4c0:	7962646e 	stmdbvc	r2!, {r1, r2, r3, r5, r6, sl, sp, lr}^
 4c4:	726d745f 	rsbvc	r7, sp, #1593835520	; 0x5f000000
 4c8:	6c646d5f 	stclvs	13, cr6, [r4], #-380	; 0xfffffe84
 4cc:	00007961 	andeq	r7, r0, r1, ror #18
 4d0:	48000000 	stmdami	r0, {}	; <UNPREDICTABLE>
 4d4:	02000000 	andeq	r0, r0, #0
 4d8:	00361f00 	eorseq	r1, r6, r0, lsl #30
 4dc:	0002c000 	andeq	ip, r2, r0
 4e0:	00013200 	andeq	r3, r1, r0, lsl #4
 4e4:	61747300 	cmnvs	r4, r0, lsl #6
 4e8:	7962646e 	stmdbvc	r2!, {r1, r2, r3, r5, r6, sl, sp, lr}^
 4ec:	6977745f 	ldmdbvs	r7!, {r0, r1, r2, r3, r4, r6, sl, ip, sp, lr}^
 4f0:	696e695f 	stmdbvs	lr!, {r0, r1, r2, r3, r4, r6, r8, fp, sp, lr}^
 4f4:	015e0074 	cmpeq	lr, r4, ror r0
 4f8:	74730000 	ldrbtvc	r0, [r3], #-0
 4fc:	62646e61 	rsbvs	r6, r4, #1552	; 0x610
 500:	77745f79 			; <UNDEFINED> instruction: 0x77745f79
 504:	78655f69 	stmdavc	r5!, {r0, r3, r5, r6, r8, r9, sl, fp, ip, lr}^
 508:	9f007469 	svcls	0x00007469
 50c:	74000001 	strvc	r0, [r0], #-1
 510:	625f6977 	subsvs	r6, pc, #1949696	; 0x1dc000
 514:	5f657479 	svcpl	0x00657479
 518:	00007772 	andeq	r7, r0, r2, ror r7
 51c:	75000000 	strvc	r0, [r0, #-0]
 520:	02000000 	andeq	r0, r0, #0
 524:	0038df00 	eorseq	sp, r8, r0, lsl #30
 528:	0000e800 	andeq	lr, r0, r0, lsl #16
 52c:	00007300 	andeq	r7, r0, r0, lsl #6
 530:	61747300 	cmnvs	r4, r0, lsl #6
 534:	7962646e 	stmdbvc	r2!, {r1, r2, r3, r5, r6, sl, sp, lr}^
 538:	6273755f 	rsbsvs	r7, r3, #398458880	; 0x17c00000
 53c:	696e695f 	stmdbvs	lr!, {r0, r1, r2, r3, r4, r6, r8, fp, sp, lr}^
 540:	008b0074 	addeq	r0, fp, r4, ror r0
 544:	74730000 	ldrbtvc	r0, [r3], #-0
 548:	62646e61 	rsbvs	r6, r4, #1552	; 0x610
 54c:	73755f79 	cmnvc	r5, #484	; 0x1e4
 550:	78655f62 	stmdavc	r5!, {r1, r5, r6, r8, r9, sl, fp, ip, lr}^
 554:	a3007469 	movwge	r7, #1129	; 0x469
 558:	73000000 	movwvc	r0, #0
 55c:	646e6174 	strbtvs	r6, [lr], #-372	; 0xfffffe8c
 560:	695f7962 	ldmdbvs	pc, {r1, r5, r6, r8, fp, ip, sp, lr}^	; <UNPREDICTABLE>
 564:	73755f73 	cmnvc	r5, #460	; 0x1cc
 568:	74735f62 	ldrbtvc	r5, [r3], #-3938	; 0xfffff09e
 56c:	73757461 	cmnvc	r5, #1627389952	; 0x61000000
 570:	6168635f 	cmnvs	r8, pc, asr r3
 574:	0065676e 	rsbeq	r6, r5, lr, ror #14
 578:	000000cf 	andeq	r0, r0, pc, asr #1
 57c:	6e617473 	mcrvs	4, 3, r7, cr1, cr3, {3}
 580:	5f796264 	svcpl	0x00796264
 584:	72657571 	rsbvc	r7, r5, #473956352	; 0x1c400000
 588:	73755f79 	cmnvc	r5, #484	; 0x1e4
 58c:	76655f62 	strbtvc	r5, [r5], -r2, ror #30
 590:	00746e65 	rsbseq	r6, r4, r5, ror #28
 594:	00000000 	andeq	r0, r0, r0
 598:	00000196 	muleq	r0, r6, r1
 59c:	3a340002 	bcc	d005ac <__standby_start+0xd005ac>
 5a0:	04e80000 	strbteq	r0, [r8], #0
 5a4:	00da0000 	sbcseq	r0, sl, r0
 5a8:	75620000 	strbvc	r0, [r2, #-0]!
 5ac:	775f7973 			; <UNDEFINED> instruction: 0x775f7973
 5b0:	69746961 	ldmdbvs	r4!, {r0, r5, r6, r8, fp, sp, lr}^
 5b4:	0700676e 	streq	r6, [r0, -lr, ror #14]
 5b8:	66000001 	strvs	r0, [r0], -r1
 5bc:	5f656b61 	svcpl	0x00656b61
 5c0:	79737562 	ldmdbvc	r3!, {r1, r5, r6, r8, sl, ip, sp, lr}^
 5c4:	6961775f 	stmdbvs	r1!, {r0, r1, r2, r3, r4, r6, r8, r9, sl, ip, sp, lr}^
 5c8:	676e6974 			; <UNDEFINED> instruction: 0x676e6974
 5cc:	00012f00 	andeq	r2, r1, r0, lsl #30
 5d0:	76617300 	strbtvc	r7, [r1], -r0, lsl #6
 5d4:	656d5f65 	strbvs	r5, [sp, #-3941]!	; 0xfffff09b
 5d8:	6c665f6d 	stclvs	15, cr5, [r6], #-436	; 0xfffffe4c
 5dc:	57006761 	strpl	r6, [r0, -r1, ror #14]
 5e0:	73000001 	movwvc	r0, #1
 5e4:	5f657661 	svcpl	0x00657661
 5e8:	5f6d656d 	svcpl	0x006d656d
 5ec:	74617473 	strbtvc	r7, [r1], #-1139	; 0xfffffb8d
 5f0:	7e007375 	mcrvc	3, 0, r7, cr0, cr5, {3}
 5f4:	67000001 	strvs	r0, [r0, -r1]
 5f8:	6d5f7465 	cfldrdvs	mvd7, [pc, #-404]	; 46c <__standby_start+0x46c>
 5fc:	735f6d65 	cmpvc	pc, #6464	; 0x1940
 600:	75746174 	ldrbvc	r6, [r4, #-372]!	; 0xfffffe8c
 604:	01960073 	orrseq	r0, r6, r3, ror r0
 608:	61730000 	cmnvs	r3, r0
 60c:	6d5f6576 	cfldr64vs	mvdx6, [pc, #-472]	; 43c <__standby_start+0x43c>
 610:	735f6d65 	cmpvc	pc, #6464	; 0x1940
 614:	75746174 	ldrbvc	r6, [r4, #-372]!	; 0xfffffe8c
 618:	6f6e5f73 	svcvs	0x006e5f73
 61c:	00756d6d 	rsbseq	r6, r5, sp, ror #26
 620:	000001bd 			; <UNDEFINED> instruction: 0x000001bd
 624:	65766173 	ldrbvs	r6, [r6, #-371]!	; 0xfffffe8d
 628:	6e75735f 	mrcvs	3, 3, r7, cr5, cr15, {2}
 62c:	6d5f6935 	ldclvs	9, cr6, [pc, #-212]	; 560 <__standby_start+0x560>
 630:	735f6d65 	cmpvc	pc, #6464	; 0x1940
 634:	75746174 	ldrbvc	r6, [r4, #-372]!	; 0xfffffe8c
 638:	01f70073 	mvnseq	r0, r3, ror r0
 63c:	61730000 	cmnvs	r3, r0
 640:	735f6576 	cmpvc	pc, #494927872	; 0x1d800000
 644:	69356e75 	ldmdbvs	r5!, {r0, r2, r4, r5, r6, r9, sl, fp, sp, lr}
 648:	6d656d5f 	stclvs	13, cr6, [r5, #-380]!	; 0xfffffe84
 64c:	6174735f 	cmnvs	r4, pc, asr r3
 650:	5f737574 	svcpl	0x00737574
 654:	6d6d6f6e 	stclvs	15, cr6, [sp, #-440]!	; 0xfffffe48
 658:	02310075 	eorseq	r0, r1, #117	; 0x75
 65c:	65670000 	strbvs	r0, [r7, #-0]!
 660:	79635f74 	stmdbvc	r3!, {r2, r4, r5, r6, r8, r9, sl, fp, ip, lr}^
 664:	63656c63 	cmnvs	r5, #25344	; 0x6300
 668:	746e756f 	strbtvc	r7, [lr], #-1391	; 0xfffffa91
 66c:	00025b00 	andeq	r5, r2, r0, lsl #22
 670:	63616200 	cmnvs	r1, #0, 4
 674:	5f70756b 	svcpl	0x0070756b
 678:	66726570 			; <UNDEFINED> instruction: 0x66726570
 67c:	6e756f63 	cdpvs	15, 7, cr6, cr5, cr3, {3}
 680:	00726574 	rsbseq	r6, r2, r4, ror r5
 684:	0000026f 	andeq	r0, r0, pc, ror #4
 688:	74696e69 	strbtvc	r6, [r9], #-3689	; 0xfffff197
 68c:	7265705f 	rsbvc	r7, r5, #95	; 0x5f
 690:	756f6366 	strbvc	r6, [pc, #-870]!	; 332 <__standby_start+0x332>
 694:	7265746e 	rsbvc	r7, r5, #1845493760	; 0x6e000000
 698:	02b30073 	adcseq	r0, r3, #115	; 0x73
 69c:	65720000 	ldrbvs	r0, [r2, #-0]!
 6a0:	726f7473 	rsbvc	r7, pc, #1929379840	; 0x73000000
 6a4:	65705f65 	ldrbvs	r5, [r0, #-3941]!	; 0xfffff09b
 6a8:	6f636672 	svcvs	0x00636672
 6ac:	65746e75 	ldrbvs	r6, [r4, #-3701]!	; 0xfffff18b
 6b0:	02c70072 	sbceq	r0, r7, #114	; 0x72
 6b4:	65720000 	ldrbvs	r0, [r2, #-0]!
 6b8:	5f746573 	svcpl	0x00746573
 6bc:	6e756f63 	cdpvs	15, 7, cr6, cr5, cr3, {3}
 6c0:	00726574 	rsbseq	r6, r2, r4, ror r5
 6c4:	000002ef 	andeq	r0, r0, pc, ror #5
 6c8:	6e616863 	cdpvs	8, 6, cr6, cr1, cr3, {3}
 6cc:	725f6567 	subsvc	r6, pc, #432013312	; 0x19c00000
 6d0:	69746e75 	ldmdbvs	r4!, {r0, r2, r4, r5, r6, r9, sl, fp, sp, lr}^
 6d4:	655f656d 	ldrbvs	r6, [pc, #-1389]	; 16f <__standby_start+0x16f>
 6d8:	8100766e 	tsthi	r0, lr, ror #12
 6dc:	64000003 	strvs	r0, [r0], #-3
 6e0:	79616c65 	stmdbvc	r1!, {r0, r2, r5, r6, sl, fp, sp, lr}^
 6e4:	0073755f 	rsbseq	r7, r3, pc, asr r5
 6e8:	000003d6 	ldrdeq	r0, [r0], -r6
 6ec:	616c6564 	cmnvs	ip, r4, ror #10
 6f0:	736d5f79 	cmnvc	sp, #484	; 0x1e4
 6f4:	0003ff00 	andeq	pc, r3, r0, lsl #30
 6f8:	5f6f6900 	svcpl	0x006f6900
 6fc:	74696e69 	strbtvc	r6, [r9], #-3689	; 0xfffff197
 700:	00041400 	andeq	r1, r4, r0, lsl #8
 704:	5f6f6900 	svcpl	0x006f6900
 708:	74696e69 	strbtvc	r6, [r9], #-3689	; 0xfffff197
 70c:	6769685f 			; <UNDEFINED> instruction: 0x6769685f
 710:	043e0068 	ldrteq	r0, [lr], #-104	; 0xffffff98
 714:	6f690000 	svcvs	0x00690000
 718:	696e695f 	stmdbvs	lr!, {r0, r1, r2, r3, r4, r6, r8, fp, sp, lr}^
 71c:	6f6c5f74 	svcvs	0x006c5f74
 720:	04680077 	strbteq	r0, [r8], #-119	; 0xffffff89
 724:	6f690000 	svcvs	0x00690000
 728:	6769685f 			; <UNDEFINED> instruction: 0x6769685f
 72c:	00000068 	andeq	r0, r0, r8, rrx
 730:	021f0000 	andseq	r0, pc, #0
 734:	00020000 	andeq	r0, r2, r0
 738:	00003f1c 	andeq	r3, r0, ip, lsl pc
 73c:	00000553 	andeq	r0, r0, r3, asr r5
 740:	00000088 	andeq	r0, r0, r8, lsl #1
 744:	6c74636d 	ldclvs	3, cr6, [r4], #-436	; 0xfffffe4c
 748:	6572705f 	ldrbvs	r7, [r2, #-95]!	; 0xffffffa1
 74c:	72616863 	rsbvc	r6, r1, #6488064	; 0x630000
 750:	615f6567 	cmpvs	pc, r7, ror #10
 754:	b9006c6c 	stmdblt	r0, {r2, r3, r5, r6, sl, fp, sp, lr}
 758:	6d000000 	stcvs	0, cr0, [r0, #-0]
 75c:	5f6c7463 	svcpl	0x006c7463
 760:	65646f6d 	strbvs	r6, [r4, #-3949]!	; 0xfffff093
 764:	6978655f 	ldmdbvs	r8!, {r0, r1, r2, r3, r4, r6, r8, sl, sp, lr}^
 768:	00ea0074 	rsceq	r0, sl, r4, ror r0
 76c:	52440000 	subpl	r0, r4, #0
 770:	5f434d41 	svcpl	0x00434d41
 774:	65746e65 	ldrbvs	r6, [r4, #-3685]!	; 0xfffff19b
 778:	6f705f72 	svcvs	0x00705f72
 77c:	5f726577 	svcpl	0x00726577
 780:	6e776f64 	cdpvs	15, 7, cr6, cr7, cr4, {3}
 784:	00011b00 	andeq	r1, r1, r0, lsl #22
 788:	41524400 	cmpmi	r2, r0, lsl #8
 78c:	655f434d 	ldrbvs	r4, [pc, #-845]	; 447 <__standby_start+0x447>
 790:	5f746978 	svcpl	0x00746978
 794:	65776f70 	ldrbvs	r6, [r7, #-3952]!	; 0xfffff090
 798:	6f645f72 	svcvs	0x00645f72
 79c:	2f006e77 	svccs	0x00006e77
 7a0:	44000001 	strmi	r0, [r0], #-1
 7a4:	434d4152 	movtmi	r4, #53586	; 0xd152
 7a8:	736f685f 	cmnvc	pc, #6225920	; 0x5f0000
 7ac:	726f7074 	rsbvc	r7, pc, #116	; 0x74
 7b0:	6e6f5f74 	mcrvs	15, 3, r5, cr15, cr4, {3}
 7b4:	66666f5f 	uqsaxvs	r6, r6, pc	; <UNPREDICTABLE>
 7b8:	00017000 	andeq	r7, r1, r0
 7bc:	41524400 	cmpmi	r2, r0, lsl #8
 7c0:	655f434d 	ldrbvs	r4, [pc, #-845]	; 47b <__standby_start+0x47b>
 7c4:	5f746978 	svcpl	0x00746978
 7c8:	666c6573 			; <UNDEFINED> instruction: 0x666c6573
 7cc:	72666572 	rsbvc	r6, r6, #478150656	; 0x1c800000
 7d0:	00687365 	rsbeq	r7, r8, r5, ror #6
 7d4:	000001a6 	andeq	r0, r0, r6, lsr #3
 7d8:	4d415244 	sfmmi	f5, 2, [r1, #-272]	; 0xfffffef0
 7dc:	6e655f43 	cdpvs	15, 6, cr5, cr5, cr3, {2}
 7e0:	5f726574 	svcpl	0x00726574
 7e4:	666c6573 			; <UNDEFINED> instruction: 0x666c6573
 7e8:	72666572 	rsbvc	r6, r6, #478150656	; 0x1c800000
 7ec:	00687365 	rsbeq	r7, r8, r5, ror #6
 7f0:	000001dc 	ldrdeq	r0, [r0], -ip
 7f4:	4d415244 	sfmmi	f5, 2, [r1, #-272]	; 0xfffffef0
 7f8:	6f685f43 	svcvs	0x00685f43
 7fc:	6f707473 	svcvs	0x00707473
 800:	635f7472 	cmpvs	pc, #1912602624	; 0x72000000
 804:	6b636568 	blvs	18d9dac <__standby_start+0x18d9dac>
 808:	6268615f 	rsbvs	r6, r8, #-1073741801	; 0xc0000017
 80c:	6669665f 			; <UNDEFINED> instruction: 0x6669665f
 810:	74735f6f 	ldrbtvc	r5, [r3], #-3951	; 0xfffff091
 814:	73757461 	cmnvc	r5, #1627389952	; 0x61000000
 818:	00021500 	andeq	r1, r2, r0, lsl #10
 81c:	41524400 	cmpmi	r2, r0, lsl #8
 820:	685f434d 	ldmdavs	pc, {r0, r2, r3, r6, r8, r9, lr}^	; <UNPREDICTABLE>
 824:	7074736f 	rsbsvc	r7, r4, pc, ror #6
 828:	5f74726f 	svcpl	0x0074726f
 82c:	75746573 	ldrbvc	r6, [r4, #-1395]!	; 0xfffffa8d
 830:	02780070 	rsbseq	r0, r8, #112	; 0x70
 834:	636d0000 	cmnvs	sp, #0
 838:	615f6c74 	cmpvs	pc, r4, ror ip	; <UNPREDICTABLE>
 83c:	725f6268 	subsvc	r6, pc, #104, 4	; 0x80000006
 840:	74657365 	strbtvc	r7, [r5], #-869	; 0xfffffc9b
 844:	0002ae00 	andeq	sl, r2, r0, lsl #28
 848:	41524400 	cmpmi	r2, r0, lsl #8
 84c:	725f434d 	subsvc	r4, pc, #872415233	; 0x34000001
 850:	61727465 	cmnvs	r2, r5, ror #8
 854:	6e696e69 	cdpvs	14, 6, cr6, cr9, cr9, {3}
 858:	040b0067 	streq	r0, [fp], #-103	; 0xffffff99
 85c:	72640000 	rsbvc	r0, r4, #0
 860:	705f6d61 	subsvc	r6, pc, r1, ror #26
 864:	7265776f 	rsbvc	r7, r5, #29097984	; 0x1bc0000
 868:	7661735f 			; <UNDEFINED> instruction: 0x7661735f
 86c:	72705f65 	rsbsvc	r5, r0, #404	; 0x194
 870:	7365636f 	cmnvc	r5, #-1140850687	; 0xbc000001
 874:	04360073 	ldrteq	r0, [r6], #-115	; 0xffffff8d
 878:	72640000 	rsbvc	r0, r4, #0
 87c:	705f6d61 	subsvc	r6, pc, r1, ror #26
 880:	7265776f 	rsbvc	r7, r5, #29097984	; 0x1bc0000
 884:	5f70755f 	svcpl	0x0070755f
 888:	636f7270 	cmnvs	pc, #112, 4
 88c:	00737365 	rsbseq	r7, r3, r5, ror #6
 890:	0000044f 	andeq	r0, r0, pc, asr #8
 894:	6d617264 	sfmvs	f7, 2, [r1, #-400]!	; 0xfffffe70
 898:	746e655f 	strbtvc	r6, [lr], #-1375	; 0xfffffaa1
 89c:	735f7265 	cmpvc	pc, #1342177286	; 0x50000006
 8a0:	72666c65 	rsbvc	r6, r6, #25856	; 0x6500
 8a4:	65726665 	ldrbvs	r6, [r2, #-1637]!	; 0xfffff99b
 8a8:	64006873 	strvs	r6, [r0], #-2163	; 0xfffff78d
 8ac:	64000004 	strvs	r0, [r0], #-4
 8b0:	5f6d6172 	svcpl	0x006d6172
 8b4:	74697865 	strbtvc	r7, [r9], #-2149	; 0xfffff79b
 8b8:	6c65735f 	stclvs	3, cr7, [r5], #-380	; 0xfffffe84
 8bc:	66657266 	strbtvs	r7, [r5], -r6, ror #4
 8c0:	68736572 	ldmdavs	r3!, {r1, r4, r5, r6, r8, sl, sp, lr}^
 8c4:	00047900 	andeq	r7, r4, r0, lsl #18
 8c8:	61726400 	cmnvs	r2, r0, lsl #8
 8cc:	6e655f6d 	cdpvs	15, 6, cr5, cr5, cr13, {3}
 8d0:	5f726574 	svcpl	0x00726574
 8d4:	65776f70 	ldrbvs	r6, [r7, #-3952]!	; 0xfffff090
 8d8:	6f645f72 	svcvs	0x00645f72
 8dc:	8e006e77 	mcrhi	14, 0, r6, cr0, cr7, {3}
 8e0:	64000004 	strvs	r0, [r0], #-4
 8e4:	5f6d6172 	svcpl	0x006d6172
 8e8:	74697865 	strbtvc	r7, [r9], #-2149	; 0xfffff79b
 8ec:	776f705f 			; <UNDEFINED> instruction: 0x776f705f
 8f0:	645f7265 	ldrbvs	r7, [pc], #-613	; 8f8 <__standby_start+0x8f8>
 8f4:	006e776f 	rsbeq	r7, lr, pc, ror #14
 8f8:	000004a3 	andeq	r0, r0, r3, lsr #9
 8fc:	6d617264 	sfmvs	f7, 2, [r1, #-400]!	; 0xfffffe70
 900:	736f685f 	cmnvc	pc, #6225920	; 0x5f0000
 904:	726f7074 	rsbvc	r7, pc, #116	; 0x74
 908:	6e6f5f74 	mcrvs	15, 3, r5, cr15, cr4, {3}
 90c:	66666f5f 	uqsaxvs	r6, r6, pc	; <UNPREDICTABLE>
 910:	0004d800 	andeq	sp, r4, r0, lsl #16
 914:	61726400 	cmnvs	r2, r0, lsl #8
 918:	6f685f6d 	svcvs	0x00685f6d
 91c:	6f707473 	svcvs	0x00707473
 920:	635f7472 	cmpvs	pc, #1912602624	; 0x72000000
 924:	6b636568 	blvs	18d9ecc <__standby_start+0x18d9ecc>
 928:	6268615f 	rsbvs	r6, r8, #-1073741801	; 0xc0000017
 92c:	6669665f 			; <UNDEFINED> instruction: 0x6669665f
 930:	74735f6f 	ldrbtvc	r5, [r3], #-3951	; 0xfffff091
 934:	73757461 	cmnvc	r5, #1627389952	; 0x61000000
 938:	00050400 	andeq	r0, r5, r0, lsl #8
 93c:	61726400 	cmnvs	r2, r0, lsl #8
 940:	6f685f6d 	svcvs	0x00685f6d
 944:	6f707473 	svcvs	0x00707473
 948:	735f7472 	cmpvc	pc, #1912602624	; 0x72000000
 94c:	70757465 	rsbsvc	r7, r5, r5, ror #8
 950:	00000000 	andeq	r0, r0, r0
 954:	0001f400 	andeq	pc, r1, r0, lsl #8
 958:	6f000200 	svcvs	0x00000200
 95c:	69000044 	stmdbvs	r0, {r2, r6}
 960:	1b000006 	blne	980 <__standby_start+0x980>
 964:	6d000002 	stcvs	0, cr0, [r0, #-8]
 968:	5f6c7463 	svcpl	0x006c7463
 96c:	33726464 	cmncc	r2, #100, 8	; 0x64000000
 970:	7365725f 	cmnvc	r5, #-268435451	; 0xf0000005
 974:	44007465 	strmi	r7, [r0], #-1125	; 0xfffffb9b
 978:	6d000002 	stcvs	0, cr0, [r0, #-8]
 97c:	5f6c7463 	svcpl	0x006c7463
 980:	5f746573 	svcpl	0x00746573
 984:	76697264 	strbtvc	r7, [r9], -r4, ror #4
 988:	026c0065 	rsbeq	r0, ip, #101	; 0x65
 98c:	636d0000 	cmnvs	sp, #0
 990:	695f6c74 	ldmdbvs	pc, {r2, r4, r5, r6, sl, fp, sp, lr}^	; <UNPREDICTABLE>
 994:	645f6d74 	ldrbvs	r6, [pc], #-3444	; 99c <__standby_start+0x99c>
 998:	62617369 	rsbvs	r7, r1, #-1543503871	; 0xa4000001
 99c:	9400656c 	strls	r6, [r0], #-1388	; 0xfffffa94
 9a0:	6d000002 	stcvs	0, cr0, [r0, #-8]
 9a4:	5f6c7463 	svcpl	0x006c7463
 9a8:	5f6d7469 	svcpl	0x006d7469
 9ac:	62616e65 	rsbvs	r6, r1, #1616	; 0x650
 9b0:	bc00656c 	cfstr32lt	mvfx6, [r0], {108}	; 0x6c
 9b4:	6d000002 	stcvs	0, cr0, [r0, #-8]
 9b8:	5f6c7463 	svcpl	0x006c7463
 9bc:	62616e65 	rsbvs	r6, r1, #1616	; 0x650
 9c0:	645f656c 	ldrbvs	r6, [pc], #-1388	; 9c8 <__standby_start+0x9c8>
 9c4:	00306c6c 	eorseq	r6, r0, ip, ror #24
 9c8:	000002e0 	andeq	r0, r0, r0, ror #5
 9cc:	6c74636d 	ldclvs	3, cr6, [r4], #-436	; 0xfffffe4c
 9d0:	616e655f 	cmnvs	lr, pc, asr r5
 9d4:	5f656c62 	svcpl	0x00656c62
 9d8:	786c6c64 	stmdavc	ip!, {r2, r5, r6, sl, fp, sp, lr}^
 9dc:	00034100 	andeq	r4, r3, r0, lsl #2
 9e0:	74636d00 	strbtvc	r6, [r3], #-3328	; 0xfffff300
 9e4:	69645f6c 	stmdbvs	r4!, {r2, r3, r5, r6, r8, r9, sl, fp, ip, lr}^
 9e8:	6c626173 	stfvse	f6, [r2], #-460	; 0xfffffe34
 9ec:	6c645f65 	stclvs	15, cr5, [r4], #-404	; 0xfffffe6c
 9f0:	0369006c 	cmneq	r9, #108	; 0x6c
 9f4:	636d0000 	cmnvs	sp, #0
 9f8:	635f6c74 	cmpvs	pc, #116, 24	; 0x7400
 9fc:	69666e6f 	stmdbvs	r6!, {r0, r1, r2, r3, r5, r6, r9, sl, fp, sp, lr}^
 a00:	65727567 	ldrbvs	r7, [r2, #-1383]!	; 0xfffffa99
 a04:	736f685f 	cmnvc	pc, #6225920	; 0x5f0000
 a08:	726f7074 	rsbvc	r7, pc, #116	; 0x74
 a0c:	038f0074 	orreq	r0, pc, #116	; 0x74
 a10:	636d0000 	cmnvs	sp, #0
 a14:	735f6c74 	cmpvc	pc, #116, 24	; 0x7400
 a18:	70757465 	rsbsvc	r7, r5, r5, ror #8
 a1c:	6172645f 	cmnvs	r2, pc, asr r4
 a20:	6c635f6d 	stclvs	15, cr5, [r3], #-436	; 0xfffffe4c
 a24:	006b636f 	rsbeq	r6, fp, pc, ror #6
 a28:	0000040b 	andeq	r0, r0, fp, lsl #8
 a2c:	4d415244 	sfmmi	f5, 2, [r1, #-272]	; 0xfffffef0
 a30:	78655f43 	stmdavc	r5!, {r0, r1, r6, r8, r9, sl, fp, ip, lr}^
 a34:	1b007469 	blne	1dbe0 <__standby_start+0x1dbe0>
 a38:	44000004 	strmi	r0, [r0], #-4
 a3c:	434d4152 	movtmi	r4, #53586	; 0xd152
 a40:	6163735f 	cmnvs	r3, pc, asr r3
 a44:	65725f6e 	ldrbvs	r5, [r2, #-3950]!	; 0xfffff092
 a48:	69706461 	ldmdbvs	r0!, {r0, r5, r6, sl, sp, lr}^
 a4c:	49006570 	stmdbmi	r0, {r4, r5, r6, r8, sl, sp, lr}
 a50:	44000004 	strmi	r0, [r0], #-4
 a54:	434d4152 	movtmi	r4, #53586	; 0xd152
 a58:	6f6c635f 	svcvs	0x006c635f
 a5c:	6f5f6b63 	svcvs	0x005f6b63
 a60:	75707475 	ldrbvc	r7, [r0, #-1141]!	; 0xfffffb8b
 a64:	6e655f74 	mcrvs	15, 3, r5, cr5, cr4, {3}
 a68:	00048000 	andeq	r8, r4, r0
 a6c:	41524400 	cmpmi	r2, r0, lsl #8
 a70:	735f434d 	cmpvc	pc, #872415233	; 0x34000001
 a74:	615f7465 	cmpvs	pc, r5, ror #8
 a78:	726f7475 	rsbvc	r7, pc, #1962934272	; 0x75000000
 a7c:	65726665 	ldrbvs	r6, [r2, #-1637]!	; 0xfffff99b
 a80:	635f6873 	cmpvs	pc, #7536640	; 0x730000
 a84:	656c6379 	strbvs	r6, [ip, #-889]!	; 0xfffffc87
 a88:	0004c800 	andeq	ip, r4, r0, lsl #16
 a8c:	41524400 	cmpmi	r2, r0, lsl #8
 a90:	675f434d 	ldrbvs	r4, [pc, -sp, asr #6]
 a94:	645f7465 	ldrbvs	r7, [pc], #-1125	; a9c <__standby_start+0xa9c>
 a98:	5f6d6172 	svcpl	0x006d6172
 a9c:	657a6973 	ldrbvs	r6, [sl, #-2419]!	; 0xfffff68d
 aa0:	00051600 	andeq	r1, r5, r0, lsl #12
 aa4:	41524400 	cmpmi	r2, r0, lsl #8
 aa8:	695f434d 	ldmdbvs	pc, {r0, r2, r3, r6, r8, r9, lr}^	; <UNPREDICTABLE>
 aac:	0074696e 	rsbseq	r6, r4, lr, ror #18
 ab0:	00000570 	andeq	r0, r0, r0, ror r5
 ab4:	6d617264 	sfmvs	f7, 2, [r1, #-400]!	; 0xfffffe70
 ab8:	696e695f 	stmdbvs	lr!, {r0, r1, r2, r3, r4, r6, r8, fp, sp, lr}^
 abc:	05890074 	streq	r0, [r9, #116]	; 0x74
 ac0:	72640000 	rsbvc	r0, r4, #0
 ac4:	655f6d61 	ldrbvs	r6, [pc, #-3425]	; fffffd6b <__bss_end+0xfffd48f>
 ac8:	00746978 	rsbseq	r6, r4, r8, ror r9
 acc:	000005a2 	andeq	r0, r0, r2, lsr #11
 ad0:	6d617264 	sfmvs	f7, 2, [r1, #-400]!	; 0xfffffe70
 ad4:	7465675f 	strbtvc	r6, [r5], #-1887	; 0xfffff8a1
 ad8:	7a69735f 	bvc	1a5d85c <__standby_start+0x1a5d85c>
 adc:	05bb0065 	ldreq	r0, [fp, #101]!	; 0x65
 ae0:	72640000 	rsbvc	r0, r4, #0
 ae4:	735f6d61 	cmpvc	pc, #6208	; 0x1840
 ae8:	635f7465 	cmpvs	pc, #1694498816	; 0x65000000
 aec:	6b636f6c 	blvs	18dc8a4 <__standby_start+0x18dc8a4>
 af0:	0005e300 	andeq	lr, r5, r0, lsl #6
 af4:	61726400 	cmnvs	r2, r0, lsl #8
 af8:	65735f6d 	ldrbvs	r5, [r3, #-3949]!	; 0xfffff093
 afc:	72645f74 	rsbvc	r5, r4, #116, 30	; 0x1d0
 b00:	00657669 	rsbeq	r7, r5, r9, ror #12
 b04:	000005f8 	strdeq	r0, [r0], -r8
 b08:	6d617264 	sfmvs	f7, 2, [r1, #-400]!	; 0xfffffe70
 b0c:	7465735f 	strbtvc	r7, [r5], #-863	; 0xfffffca1
 b10:	7475615f 	ldrbtvc	r6, [r5], #-351	; 0xfffffea1
 b14:	6665726f 	strbtvs	r7, [r5], -pc, ror #4
 b18:	68736572 	ldmdavs	r3!, {r1, r4, r5, r6, r8, sl, sp, lr}^
 b1c:	6379635f 	cmnvs	r9, #2080374785	; 0x7c000001
 b20:	2000656c 	andcs	r6, r0, ip, ror #10
 b24:	64000006 	strvs	r0, [r0], #-6
 b28:	5f6d6172 	svcpl	0x006d6172
 b2c:	6e616373 	mcrvs	3, 3, r6, cr1, cr3, {3}
 b30:	6165725f 	cmnvs	r5, pc, asr r2
 b34:	70697064 	rsbvc	r7, r9, r4, rrx
 b38:	06560065 	ldrbeq	r0, [r6], -r5, rrx
 b3c:	70680000 	rsbvc	r0, r8, r0
 b40:	765f7263 	ldrbvc	r7, [pc], -r3, ror #4
 b44:	65756c61 	ldrbvs	r6, [r5, #-3169]!	; 0xfffff39f
 b48:	00000000 	andeq	r0, r0, r0
	...

Disassembly of section .debug_pubtypes:

00000000 <.debug_pubtypes>:
   0:	000000a4 	andeq	r0, r0, r4, lsr #1
   4:	00000002 	andeq	r0, r0, r2
   8:	040e0000 	streq	r0, [lr], #-0
   c:	00250000 	eoreq	r0, r5, r0
  10:	77610000 	strbvc	r0, [r1, -r0]!
  14:	756d705f 	strbvc	r7, [sp, #-95]!	; 0xffffffa1
  18:	6772615f 			; <UNDEFINED> instruction: 0x6772615f
  1c:	00005c00 	andeq	r5, r0, r0, lsl #24
  20:	5f776100 	svcpl	0x00776100
  24:	6e617473 	mcrvs	4, 3, r7, cr1, cr3, {3}
  28:	5f796264 	svcpl	0x00796264
  2c:	61726170 	cmnvs	r2, r0, ror r1
  30:	00009a00 	andeq	r9, r0, r0, lsl #20
  34:	5f776100 	svcpl	0x00776100
  38:	695f6d70 	ldmdbvs	pc, {r4, r5, r6, r8, sl, fp, sp, lr}^	; <UNPREDICTABLE>
  3c:	006f666e 	rsbeq	r6, pc, lr, ror #12
  40:	000000ca 	andeq	r0, r0, sl, asr #1
  44:	38755f5f 	ldmdacc	r5!, {r0, r1, r2, r3, r4, r6, r8, r9, sl, fp, ip, lr}^
  48:	0000e300 	andeq	lr, r0, r0, lsl #6
  4c:	755f5f00 	ldrbvc	r5, [pc, #-3840]	; fffff154 <__bss_end+0xfffc878>
  50:	fc003233 	stc2	2, cr3, [r0], {51}	; 0x33
  54:	73000000 	movwvc	r0, #0
  58:	69346e75 	ldmdbvs	r4!, {r0, r2, r4, r5, r6, r9, sl, fp, sp, lr}
  5c:	6b6c635f 	blvs	1b18de0 <__standby_start+0x1b18de0>
  60:	7669645f 			; <UNDEFINED> instruction: 0x7669645f
  64:	5e00745f 	cfmvsrpl	mvf0, r7
  68:	70000001 	andvc	r0, r0, r1
  6c:	7265776f 	rsbvc	r7, r5, #29097984	; 0x1bc0000
  70:	6c6f765f 	stclvs	6, cr7, [pc], #-380	; fffffefc <__bss_end+0xfffd620>
  74:	7079745f 	rsbsvc	r7, r9, pc, asr r4
  78:	00655f65 	rsbeq	r5, r5, r5, ror #30
  7c:	00000195 	muleq	r0, r5, r1
  80:	65746e69 	ldrbvs	r6, [r4, #-3689]!	; 0xfffff197
  84:	70757272 	rsbsvc	r7, r5, r2, ror r2
  88:	6f735f74 	svcvs	0x00735f74
  8c:	65637275 	strbvs	r7, [r3, #-629]!	; 0xfffffd8b
  90:	f800655f 			; <UNDEFINED> instruction: 0xf800655f
  94:	70000001 	andvc	r0, r0, r1
  98:	665f6c6c 	ldrbvs	r6, [pc], -ip, ror #24
  9c:	6f746361 	svcvs	0x00746361
  a0:	00745f72 	rsbseq	r5, r4, r2, ror pc
  a4:	00000000 	andeq	r0, r0, r0
  a8:	00000018 	andeq	r0, r0, r8, lsl r0
  ac:	040e0002 	streq	r0, [lr], #-2
  b0:	011b0000 	tsteq	fp, r0
  b4:	004f0000 	subeq	r0, pc, r0
  b8:	5f5f0000 	svcpl	0x005f0000
  bc:	00323375 	eorseq	r3, r2, r5, ror r3
  c0:	00000000 	andeq	r0, r0, r0
  c4:	00000934 	andeq	r0, r0, r4, lsr r9
  c8:	058e0002 	streq	r0, [lr, #2]
  cc:	21f50000 	mvnscs	r0, r0
  d0:	00410000 	subeq	r0, r1, r0
  d4:	5f5f0000 	svcpl	0x005f0000
  d8:	5a003875 	bpl	e2b4 <__standby_start+0xe2b4>
  dc:	5f000000 	svcpl	0x00000000
  e0:	3233735f 	eorscc	r7, r3, #2080374785	; 0x7c000001
  e4:	00006500 	andeq	r6, r0, r0, lsl #10
  e8:	755f5f00 	ldrbvc	r5, [pc, #-3840]	; fffff1f0 <__bss_end+0xfffc914>
  ec:	7e003233 	mcrvc	2, 0, r3, cr0, cr3, {1}
  f0:	5f000000 	svcpl	0x00000000
  f4:	43435f5f 	movtmi	r5, #16223	; 0x3f5f
  f8:	505f554d 	subspl	r5, pc, sp, asr #10
  fc:	5f314c4c 	svcpl	0x00314c4c
 100:	45524f43 	ldrbmi	r4, [r2, #-3907]	; 0xfffff0bd
 104:	4745525f 	smlsldmi	r5, r5, pc, r2	; <UNPREDICTABLE>
 108:	30303030 	eorscc	r3, r0, r0, lsr r0
 10c:	00017900 	andeq	r7, r1, r0, lsl #18
 110:	635f5f00 	cmpvs	pc, #0, 30
 114:	5f756d63 	svcpl	0x00756d63
 118:	316c6c70 	smccc	50880	; 0xc6c0
 11c:	726f635f 	rsbvc	r6, pc, #2080374785	; 0x7c000001
 120:	65725f65 	ldrbvs	r5, [r2, #-3941]!	; 0xfffff09b
 124:	30303067 	eorscc	r3, r0, r7, rrx
 128:	00745f30 	rsbseq	r5, r4, r0, lsr pc
 12c:	00000184 	andeq	r0, r0, r4, lsl #3
 130:	43435f5f 	movtmi	r5, #16223	; 0x3f5f
 134:	505f554d 	subspl	r5, pc, sp, asr #10
 138:	5f314c4c 	svcpl	0x00314c4c
 13c:	494e5554 	stmdbmi	lr, {r2, r4, r6, r8, sl, ip, lr}^
 140:	525f474e 	subspl	r4, pc, #20447232	; 0x1380000
 144:	30304745 	eorscc	r4, r0, r5, asr #14
 148:	f7003430 			; <UNDEFINED> instruction: 0xf7003430
 14c:	5f000001 	svcpl	0x00000001
 150:	6d63635f 	stclvs	3, cr6, [r3, #-380]!	; 0xfffffe84
 154:	6c705f75 	ldclvs	15, cr5, [r0], #-468	; 0xfffffe2c
 158:	745f316c 	ldrbvc	r3, [pc], #-364	; 160 <__standby_start+0x160>
 15c:	6e696e75 	mcrvs	14, 3, r6, cr9, cr5, {3}
 160:	65725f67 	ldrbvs	r5, [r2, #-3943]!	; 0xfffff099
 164:	30303067 	eorscc	r3, r0, r7, rrx
 168:	00745f34 	rsbseq	r5, r4, r4, lsr pc
 16c:	00000202 	andeq	r0, r0, r2, lsl #4
 170:	43435f5f 	movtmi	r5, #16223	; 0x3f5f
 174:	505f554d 	subspl	r5, pc, sp, asr #10
 178:	5f324c4c 	svcpl	0x00324c4c
 17c:	49445541 	stmdbmi	r4, {r0, r6, r8, sl, ip, lr}^
 180:	45525f4f 	ldrbmi	r5, [r2, #-3919]	; 0xfffff0b1
 184:	30303047 	eorscc	r3, r0, r7, asr #32
 188:	02a80038 	adceq	r0, r8, #56	; 0x38
 18c:	5f5f0000 	svcpl	0x005f0000
 190:	756d6363 	strbvc	r6, [sp, #-867]!	; 0xfffffc9d
 194:	6c6c705f 	stclvs	0, cr7, [ip], #-380	; 0xfffffe84
 198:	75615f32 	strbvc	r5, [r1, #-3890]!	; 0xfffff0ce
 19c:	5f6f6964 	svcpl	0x006f6964
 1a0:	30676572 	rsbcc	r6, r7, r2, ror r5
 1a4:	5f383030 	svcpl	0x00383030
 1a8:	02b30074 	adcseq	r0, r3, #116	; 0x74
 1ac:	5f5f0000 	svcpl	0x005f0000
 1b0:	554d4343 	strbpl	r4, [sp, #-835]	; 0xfffffcbd
 1b4:	4c4c505f 	mcrrmi	0, 5, r5, ip, cr15
 1b8:	55545f32 	ldrbpl	r5, [r4, #-3890]	; 0xfffff0ce
 1bc:	474e494e 	strbmi	r4, [lr, -lr, asr #18]
 1c0:	4745525f 	smlsldmi	r5, r5, pc, r2	; <UNPREDICTABLE>
 1c4:	43303030 	teqmi	r0, #48	; 0x30
 1c8:	00032600 	andeq	r2, r3, r0, lsl #12
 1cc:	635f5f00 	cmpvs	pc, #0, 30
 1d0:	5f756d63 	svcpl	0x00756d63
 1d4:	326c6c70 	rsbcc	r6, ip, #112, 24	; 0x7000
 1d8:	6e75745f 	mrcvs	4, 3, r7, cr5, cr15, {2}
 1dc:	5f676e69 	svcpl	0x00676e69
 1e0:	30676572 	rsbcc	r6, r7, r2, ror r5
 1e4:	5f633030 	svcpl	0x00633030
 1e8:	03310074 	teqeq	r1, #116	; 0x74
 1ec:	5f5f0000 	svcpl	0x005f0000
 1f0:	554d4343 	strbpl	r4, [sp, #-835]	; 0xfffffcbd
 1f4:	4c4c505f 	mcrrmi	0, 5, r5, ip, cr15
 1f8:	49565f33 	ldmdbmi	r6, {r0, r1, r4, r5, r8, r9, sl, fp, ip, lr}^
 1fc:	5f4f4544 	svcpl	0x004f4544
 200:	30474552 	subcc	r4, r7, r2, asr r5
 204:	00303130 	eorseq	r3, r0, r0, lsr r1
 208:	000003f9 	strdeq	r0, [r0], -r9
 20c:	63635f5f 	cmnvs	r3, #380	; 0x17c
 210:	705f756d 	subsvc	r7, pc, sp, ror #10
 214:	5f336c6c 	svcpl	0x00336c6c
 218:	65646976 	strbvs	r6, [r4, #-2422]!	; 0xfffff68a
 21c:	65725f6f 	ldrbvs	r5, [r2, #-3951]!	; 0xfffff091
 220:	31303067 	teqcc	r0, r7, rrx
 224:	00745f30 	rsbseq	r5, r4, r0, lsr pc
 228:	00000404 	andeq	r0, r0, r4, lsl #8
 22c:	43435f5f 	movtmi	r5, #16223	; 0x3f5f
 230:	505f554d 	subspl	r5, pc, sp, asr #10
 234:	5f344c4c 	svcpl	0x00344c4c
 238:	525f4556 	subspl	r4, pc, #360710144	; 0x15800000
 23c:	30304745 	eorscc	r4, r0, r5, asr #14
 240:	ff003831 			; <UNDEFINED> instruction: 0xff003831
 244:	5f000004 	svcpl	0x00000004
 248:	6d63635f 	stclvs	3, cr6, [r3, #-380]!	; 0xfffffe84
 24c:	6c705f75 	ldclvs	15, cr5, [r0], #-468	; 0xfffffe2c
 250:	765f346c 	ldrbvc	r3, [pc], -ip, ror #8
 254:	65725f65 	ldrbvs	r5, [r2, #-3941]!	; 0xfffff09b
 258:	31303067 	teqcc	r0, r7, rrx
 25c:	00745f38 	rsbseq	r5, r4, r8, lsr pc
 260:	0000050a 	andeq	r0, r0, sl, lsl #10
 264:	43435f5f 	movtmi	r5, #16223	; 0x3f5f
 268:	505f554d 	subspl	r5, pc, sp, asr #10
 26c:	5f354c4c 	svcpl	0x00354c4c
 270:	5f524444 	svcpl	0x00524444
 274:	30474552 	subcc	r4, r7, r2, asr r5
 278:	00303230 	eorseq	r3, r0, r0, lsr r2
 27c:	00000616 	andeq	r0, r0, r6, lsl r6
 280:	63635f5f 	cmnvs	r3, #380	; 0x17c
 284:	705f756d 	subsvc	r7, pc, sp, ror #10
 288:	5f356c6c 	svcpl	0x00356c6c
 28c:	5f726464 	svcpl	0x00726464
 290:	30676572 	rsbcc	r6, r7, r2, ror r5
 294:	5f303230 	svcpl	0x00303230
 298:	06210074 			; <UNDEFINED> instruction: 0x06210074
 29c:	5f5f0000 	svcpl	0x005f0000
 2a0:	554d4343 	strbpl	r4, [sp, #-835]	; 0xfffffcbd
 2a4:	4c4c505f 	mcrrmi	0, 5, r5, ip, cr15
 2a8:	55545f35 	ldrbpl	r5, [r4, #-3893]	; 0xfffff0cb
 2ac:	474e494e 	strbmi	r4, [lr, -lr, asr #18]
 2b0:	4745525f 	smlsldmi	r5, r5, pc, r2	; <UNPREDICTABLE>
 2b4:	34323030 	ldrtcc	r3, [r2], #-48	; 0xffffffd0
 2b8:	0006a500 	andeq	sl, r6, r0, lsl #10
 2bc:	635f5f00 	cmpvs	pc, #0, 30
 2c0:	5f756d63 	svcpl	0x00756d63
 2c4:	356c6c70 	strbcc	r6, [ip, #-3184]!	; 0xfffff390
 2c8:	6e75745f 	mrcvs	4, 3, r7, cr5, cr15, {2}
 2cc:	5f676e69 	svcpl	0x00676e69
 2d0:	30676572 	rsbcc	r6, r7, r2, ror r5
 2d4:	5f343230 	svcpl	0x00343230
 2d8:	06b00074 	sxtaheq	r0, r0, r4
 2dc:	5f5f0000 	svcpl	0x005f0000
 2e0:	554d4343 	strbpl	r4, [sp, #-835]	; 0xfffffcbd
 2e4:	4c4c505f 	mcrrmi	0, 5, r5, ip, cr15
 2e8:	41535f36 	cmpmi	r3, r6, lsr pc
 2ec:	525f4154 	subspl	r4, pc, #84, 2
 2f0:	30304745 	eorscc	r4, r0, r5, asr #14
 2f4:	89003832 	stmdbhi	r0, {r1, r4, r5, fp, ip, sp}
 2f8:	5f000007 	svcpl	0x00000007
 2fc:	6d63635f 	stclvs	3, cr6, [r3, #-380]!	; 0xfffffe84
 300:	6c705f75 	ldclvs	15, cr5, [r0], #-468	; 0xfffffe2c
 304:	735f366c 	cmpvc	pc, #108, 12	; 0x6c00000
 308:	5f617461 	svcpl	0x00617461
 30c:	30676572 	rsbcc	r6, r7, r2, ror r5
 310:	5f383230 	svcpl	0x00383230
 314:	07940074 			; <UNDEFINED> instruction: 0x07940074
 318:	5f5f0000 	svcpl	0x005f0000
 31c:	554d4343 	strbpl	r4, [sp, #-835]	; 0xfffffcbd
 320:	4c4c505f 	mcrrmi	0, 5, r5, ip, cr15
 324:	49565f37 	ldmdbmi	r6, {r0, r1, r2, r4, r5, r8, r9, sl, fp, ip, lr}^
 328:	314f4544 	mrscc	r4, SPSR
 32c:	4745525f 	smlsldmi	r5, r5, pc, r2	; <UNPREDICTABLE>
 330:	30333030 	eorscc	r3, r3, r0, lsr r0
 334:	00085c00 	andeq	r5, r8, r0, lsl #24
 338:	635f5f00 	cmpvs	pc, #0, 30
 33c:	5f756d63 	svcpl	0x00756d63
 340:	376c6c70 			; <UNDEFINED> instruction: 0x376c6c70
 344:	6469765f 	strbtvs	r7, [r9], #-1631	; 0xfffff9a1
 348:	5f316f65 	svcpl	0x00316f65
 34c:	30676572 	rsbcc	r6, r7, r2, ror r5
 350:	5f303330 	svcpl	0x00303330
 354:	08670074 	stmdaeq	r7!, {r2, r4, r5, r6}^
 358:	5f5f0000 	svcpl	0x005f0000
 35c:	554d4343 	strbpl	r4, [sp, #-835]	; 0xfffffcbd
 360:	4c4c505f 	mcrrmi	0, 5, r5, ip, cr15
 364:	55545f31 	ldrbpl	r5, [r4, #-3889]	; 0xfffff0cf
 368:	474e494e 	strbmi	r4, [lr, -lr, asr #18]
 36c:	45525f32 	ldrbmi	r5, [r2, #-3890]	; 0xfffff0ce
 370:	33303047 	teqcc	r0, #71	; 0x47
 374:	08da0038 	ldmeq	sl, {r3, r4, r5}^
 378:	5f5f0000 	svcpl	0x005f0000
 37c:	756d6363 	strbvc	r6, [sp, #-867]!	; 0xfffffc9d
 380:	6c6c705f 	stclvs	0, cr7, [ip], #-380	; 0xfffffe84
 384:	75745f31 	ldrbvc	r5, [r4, #-3889]!	; 0xfffff0cf
 388:	676e696e 	strbvs	r6, [lr, -lr, ror #18]!
 38c:	65725f32 	ldrbvs	r5, [r2, #-3890]!	; 0xfffff0ce
 390:	33303067 	teqcc	r0, #103	; 0x67
 394:	00745f38 	rsbseq	r5, r4, r8, lsr pc
 398:	000008e5 	andeq	r0, r0, r5, ror #17
 39c:	43435f5f 	movtmi	r5, #16223	; 0x3f5f
 3a0:	505f554d 	subspl	r5, pc, sp, asr #10
 3a4:	5f354c4c 	svcpl	0x00354c4c
 3a8:	494e5554 	stmdbmi	lr, {r2, r4, r6, r8, sl, ip, lr}^
 3ac:	5f32474e 	svcpl	0x0032474e
 3b0:	30474552 	subcc	r4, r7, r2, asr r5
 3b4:	00433330 	subeq	r3, r3, r0, lsr r3
 3b8:	00000958 	andeq	r0, r0, r8, asr r9
 3bc:	63635f5f 	cmnvs	r3, #380	; 0x17c
 3c0:	705f756d 	subsvc	r7, pc, sp, ror #10
 3c4:	5f356c6c 	svcpl	0x00356c6c
 3c8:	696e7574 	stmdbvs	lr!, {r2, r4, r5, r6, r8, sl, ip, sp, lr}^
 3cc:	5f32676e 	svcpl	0x0032676e
 3d0:	30676572 	rsbcc	r6, r7, r2, ror r5
 3d4:	5f633330 	svcpl	0x00633330
 3d8:	09630074 	stmdbeq	r3!, {r2, r4, r5, r6}^
 3dc:	5f5f0000 	svcpl	0x005f0000
 3e0:	554d4343 	strbpl	r4, [sp, #-835]	; 0xfffffcbd
 3e4:	43534f5f 	cmpmi	r3, #380	; 0x17c
 3e8:	5f4d3432 	svcpl	0x004d3432
 3ec:	30474552 	subcc	r4, r7, r2, asr r5
 3f0:	00303530 	eorseq	r3, r0, r0, lsr r5
 3f4:	00000a1a 	andeq	r0, r0, sl, lsl sl
 3f8:	63635f5f 	cmnvs	r3, #380	; 0x17c
 3fc:	6f5f756d 	svcvs	0x005f756d
 400:	34326373 	ldrtcc	r6, [r2], #-883	; 0xfffffc8d
 404:	65725f6d 	ldrbvs	r5, [r2, #-3949]!	; 0xfffff093
 408:	35303067 	ldrcc	r3, [r0, #-103]!	; 0xffffff99
 40c:	00745f30 	rsbseq	r5, r4, r0, lsr pc
 410:	00000a25 	andeq	r0, r0, r5, lsr #20
 414:	43435f5f 	movtmi	r5, #16223	; 0x3f5f
 418:	535f554d 	cmppl	pc, #322961408	; 0x13400000
 41c:	4c435359 	mcrrmi	3, 5, r5, r3, cr9
 420:	41525f4b 	cmpmi	r2, fp, asr #30
 424:	5f4f4954 	svcpl	0x004f4954
 428:	30474552 	subcc	r4, r7, r2, asr r5
 42c:	00343530 	eorseq	r3, r4, r0, lsr r5
 430:	00000aba 			; <UNDEFINED> instruction: 0x00000aba
 434:	63635f5f 	cmnvs	r3, #380	; 0x17c
 438:	735f756d 	cmpvc	pc, #457179136	; 0x1b400000
 43c:	6c637379 	stclvs	3, cr7, [r3], #-484	; 0xfffffe1c
 440:	725f6c6b 	subsvc	r6, pc, #27392	; 0x6b00
 444:	6f697461 	svcvs	0x00697461
 448:	6765725f 			; <UNDEFINED> instruction: 0x6765725f
 44c:	34353030 	ldrtcc	r3, [r5], #-48	; 0xffffffd0
 450:	c500745f 	strgt	r7, [r0, #-1119]	; 0xfffffba1
 454:	5f00000a 	svcpl	0x0000000a
 458:	4d43435f 	stclmi	3, cr4, [r3, #-380]	; 0xfffffe84
 45c:	50415f55 	subpl	r5, r1, r5, asr pc
 460:	4c433142 	stfmie	f3, [r3], {66}	; 0x42
 464:	41525f4b 	cmpmi	r2, fp, asr #30
 468:	5f4f4954 	svcpl	0x004f4954
 46c:	30474552 	subcc	r4, r7, r2, asr r5
 470:	00383530 	eorseq	r3, r8, r0, lsr r5
 474:	00000b38 	andeq	r0, r0, r8, lsr fp
 478:	63635f5f 	cmnvs	r3, #380	; 0x17c
 47c:	615f756d 	cmpvs	pc, sp, ror #10
 480:	63316270 	teqvs	r1, #112, 4
 484:	725f6b6c 	subsvc	r6, pc, #108, 22	; 0x1b000
 488:	6f697461 	svcvs	0x00697461
 48c:	6765725f 			; <UNDEFINED> instruction: 0x6765725f
 490:	38353030 	ldmdacc	r5!, {r4, r5, ip, sp}
 494:	4300745f 	movwmi	r7, #1119	; 0x45f
 498:	5f00000b 	svcpl	0x0000000b
 49c:	4d43435f 	stclmi	3, cr4, [r3, #-380]	; 0xfffffe84
 4a0:	58415f55 	stmdapl	r1, {r0, r2, r4, r6, r8, r9, sl, fp, ip, lr}^
 4a4:	4b4c4349 	blmi	13111d0 <__standby_start+0x13111d0>
 4a8:	5441475f 	strbpl	r4, [r1], #-1887	; 0xfffff8a1
 4ac:	45525f45 	ldrbmi	r5, [r2, #-3909]	; 0xfffff0bb
 4b0:	35303047 	ldrcc	r3, [r0, #-71]!	; 0xffffffb9
 4b4:	0b720063 	bleq	1c80648 <__standby_start+0x1c80648>
 4b8:	5f5f0000 	svcpl	0x005f0000
 4bc:	756d6363 	strbvc	r6, [sp, #-867]!	; 0xfffffc9d
 4c0:	6978615f 	ldmdbvs	r8!, {r0, r1, r2, r3, r4, r6, r8, sp, lr}^
 4c4:	5f6b6c63 	svcpl	0x006b6c63
 4c8:	65746167 	ldrbvs	r6, [r4, #-359]!	; 0xfffffe99
 4cc:	6765725f 			; <UNDEFINED> instruction: 0x6765725f
 4d0:	63353030 	teqvs	r5, #48	; 0x30
 4d4:	7d00745f 	cfstrsvc	mvf7, [r0, #-380]	; 0xfffffe84
 4d8:	5f00000b 	svcpl	0x0000000b
 4dc:	4d43435f 	stclmi	3, cr4, [r3, #-380]	; 0xfffffe84
 4e0:	48415f55 	stmdami	r1, {r0, r2, r4, r6, r8, r9, sl, fp, ip, lr}^
 4e4:	4b4c4342 	blmi	13111f4 <__standby_start+0x13111f4>
 4e8:	5441475f 	strbpl	r4, [r1], #-1887	; 0xfffff8a1
 4ec:	525f3045 	subspl	r3, pc, #69	; 0x45
 4f0:	30304745 	eorscc	r4, r0, r5, asr #14
 4f4:	56003036 			; <UNDEFINED> instruction: 0x56003036
 4f8:	5f00000d 	svcpl	0x0000000d
 4fc:	6d63635f 	stclvs	3, cr6, [r3, #-380]!	; 0xfffffe84
 500:	68615f75 	stmdavs	r1!, {r0, r2, r4, r5, r6, r8, r9, sl, fp, ip, lr}^
 504:	6b6c6362 	blvs	1b19294 <__standby_start+0x1b19294>
 508:	7461675f 	strbtvc	r6, [r1], #-1887	; 0xfffff8a1
 50c:	725f3065 	subsvc	r3, pc, #101	; 0x65
 510:	30306765 	eorscc	r6, r0, r5, ror #14
 514:	745f3036 	ldrbvc	r3, [pc], #-54	; 51c <__standby_start+0x51c>
 518:	000d6200 	andeq	r6, sp, r0, lsl #4
 51c:	435f5f00 	cmpmi	pc, #0, 30
 520:	5f554d43 	svcpl	0x00554d43
 524:	43424841 	movtmi	r4, #10305	; 0x2841
 528:	475f4b4c 	ldrbmi	r4, [pc, -ip, asr #22]
 52c:	31455441 	mrscc	r5, SPSR
 530:	4745525f 	smlsldmi	r5, r5, pc, r2	; <UNPREDICTABLE>
 534:	34363030 	ldrtcc	r3, [r6], #-48	; 0xffffffd0
 538:	000e9000 	andeq	r9, lr, r0
 53c:	635f5f00 	cmpvs	pc, #0, 30
 540:	5f756d63 	svcpl	0x00756d63
 544:	63626861 	cmnvs	r2, #6356992	; 0x610000
 548:	675f6b6c 	ldrbvs	r6, [pc, -ip, ror #22]
 54c:	31657461 	cmncc	r5, r1, ror #8
 550:	6765725f 			; <UNDEFINED> instruction: 0x6765725f
 554:	34363030 	ldrtcc	r3, [r6], #-48	; 0xffffffd0
 558:	9c00745f 	cfstrsls	mvf7, [r0], {95}	; 0x5f
 55c:	5f00000e 	svcpl	0x0000000e
 560:	4d43435f 	stclmi	3, cr4, [r3, #-380]	; 0xfffffe84
 564:	50415f55 	subpl	r5, r1, r5, asr pc
 568:	4c433042 	mcrrmi	0, 4, r3, r3, cr2
 56c:	41475f4b 	mrsmi	r5, SPSR
 570:	525f4554 	subspl	r4, pc, #84, 10	; 0x15000000
 574:	30304745 	eorscc	r4, r0, r5, asr #14
 578:	5e003836 	mcrpl	8, 0, r3, cr0, cr6, {1}
 57c:	5f00000f 	svcpl	0x0000000f
 580:	6d63635f 	stclvs	3, cr6, [r3, #-380]!	; 0xfffffe84
 584:	70615f75 	rsbvc	r5, r1, r5, ror pc
 588:	6c633062 	stclvs	0, cr3, [r3], #-392	; 0xfffffe78
 58c:	61675f6b 	cmnvs	r7, fp, ror #30
 590:	725f6574 	subsvc	r6, pc, #116, 10	; 0x1d000000
 594:	30306765 	eorscc	r6, r0, r5, ror #14
 598:	745f3836 	ldrbvc	r3, [pc], #-2102	; 5a0 <__standby_start+0x5a0>
 59c:	000f6a00 	andeq	r6, pc, r0, lsl #20
 5a0:	435f5f00 	cmpmi	pc, #0, 30
 5a4:	5f554d43 	svcpl	0x00554d43
 5a8:	31425041 	mrscc	r5, SPSR
 5ac:	5f4b4c43 	svcpl	0x004b4c43
 5b0:	45544147 	ldrbmi	r4, [r4, #-327]	; 0xfffffeb9
 5b4:	4745525f 	smlsldmi	r5, r5, pc, r2	; <UNPREDICTABLE>
 5b8:	43363030 	teqmi	r6, #48	; 0x30
 5bc:	00101a00 	andseq	r1, r0, r0, lsl #20
 5c0:	635f5f00 	cmpvs	pc, #0, 30
 5c4:	5f756d63 	svcpl	0x00756d63
 5c8:	31627061 	cmncc	r2, r1, rrx
 5cc:	5f6b6c63 	svcpl	0x006b6c63
 5d0:	65746167 	ldrbvs	r6, [r4, #-359]!	; 0xfffffe99
 5d4:	6765725f 			; <UNDEFINED> instruction: 0x6765725f
 5d8:	63363030 	teqvs	r6, #48	; 0x30
 5dc:	2600745f 			; <UNDEFINED> instruction: 0x2600745f
 5e0:	5f000010 	svcpl	0x00000010
 5e4:	4d43435f 	stclmi	3, cr4, [r3, #-380]	; 0xfffffe84
 5e8:	4f4d5f55 	svcmi	0x004d5f55
 5ec:	454c5544 	strbmi	r5, [ip, #-1348]	; 0xfffffabc
 5f0:	4c435f30 	mcrrmi	15, 3, r5, r3, cr0
 5f4:	10b2004b 	adcsne	r0, r2, fp, asr #32
 5f8:	5f5f0000 	svcpl	0x005f0000
 5fc:	756d6363 	strbvc	r6, [sp, #-867]!	; 0xfffffc9d
 600:	646f6d5f 	strbtvs	r6, [pc], #-3423	; 608 <__standby_start+0x608>
 604:	30656c75 	rsbcc	r6, r5, r5, ror ip
 608:	6b6c635f 	blvs	1b1938c <__standby_start+0x1b1938c>
 60c:	be00745f 	cfmvsrlt	mvf0, r7
 610:	5f000010 	svcpl	0x00000010
 614:	4d43435f 	stclmi	3, cr4, [r3, #-380]	; 0xfffffe84
 618:	4f4d5f55 	svcmi	0x004d5f55
 61c:	454c5544 	strbmi	r5, [ip, #-1348]	; 0xfffffabc
 620:	4c435f31 	mcrrmi	15, 3, r5, r3, cr1
 624:	1114004b 	tstne	r4, fp, asr #32
 628:	5f5f0000 	svcpl	0x005f0000
 62c:	756d6363 	strbvc	r6, [sp, #-867]!	; 0xfffffc9d
 630:	646f6d5f 	strbtvs	r6, [pc], #-3423	; 638 <__standby_start+0x638>
 634:	31656c75 	smccc	22213	; 0x56c5
 638:	6b6c635f 	blvs	1b193bc <__standby_start+0x1b193bc>
 63c:	2000745f 	andcs	r7, r0, pc, asr r4
 640:	5f000011 	svcpl	0x00000011
 644:	4d43435f 	stclmi	3, cr4, [r3, #-380]	; 0xfffffe84
 648:	454b5f55 	strbmi	r5, [fp, #-3925]	; 0xfffff0ab
 64c:	44415059 	strbmi	r5, [r1], #-89	; 0xffffffa7
 650:	4b4c435f 	blmi	13113d4 <__standby_start+0x13113d4>
 654:	4745525f 	smlsldmi	r5, r5, pc, r2	; <UNPREDICTABLE>
 658:	34433030 	strbcc	r3, [r3], #-48	; 0xffffffd0
 65c:	0011ac00 	andseq	sl, r1, r0, lsl #24
 660:	635f5f00 	cmpvs	pc, #0, 30
 664:	5f756d63 	svcpl	0x00756d63
 668:	7079656b 	rsbsvc	r6, r9, fp, ror #10
 66c:	635f6461 	cmpvs	pc, #1627389952	; 0x61000000
 670:	725f6b6c 	subsvc	r6, pc, #108, 22	; 0x1b000
 674:	30306765 	eorscc	r6, r0, r5, ror #14
 678:	745f3463 	ldrbvc	r3, [pc], #-1123	; 680 <__standby_start+0x680>
 67c:	0011b800 	andseq	fp, r1, r0, lsl #16
 680:	435f5f00 	cmpmi	pc, #0, 30
 684:	5f554d43 	svcpl	0x00554d43
 688:	5f425355 	svcpl	0x00425355
 68c:	5f4b4c43 	svcpl	0x004b4c43
 690:	30474552 	subcc	r4, r7, r2, asr r5
 694:	00434330 	subeq	r4, r3, r0, lsr r3
 698:	00001244 	andeq	r1, r0, r4, asr #4
 69c:	63635f5f 	cmnvs	r3, #380	; 0x17c
 6a0:	755f756d 	ldrbvc	r7, [pc, #-1389]	; 13b <__standby_start+0x13b>
 6a4:	635f6273 	cmpvs	pc, #805306375	; 0x30000007
 6a8:	725f6b6c 	subsvc	r6, pc, #108, 22	; 0x1b000
 6ac:	30306765 	eorscc	r6, r0, r5, ror #14
 6b0:	745f6363 	ldrbvc	r6, [pc], #-867	; 6b8 <__standby_start+0x6b8>
 6b4:	00125000 	andseq	r5, r2, r0
 6b8:	435f5f00 	cmpmi	pc, #0, 30
 6bc:	5f554d43 	svcpl	0x00554d43
 6c0:	5f535047 	svcpl	0x00535047
 6c4:	5f4b4c43 	svcpl	0x004b4c43
 6c8:	30474552 	subcc	r4, r7, r2, asr r5
 6cc:	00304430 	eorseq	r4, r0, r0, lsr r4
 6d0:	000012ca 	andeq	r1, r0, sl, asr #5
 6d4:	63635f5f 	cmnvs	r3, #380	; 0x17c
 6d8:	675f756d 	ldrbvs	r7, [pc, -sp, ror #10]
 6dc:	635f7370 	cmpvs	pc, #112, 6	; 0xc0000001
 6e0:	725f6b6c 	subsvc	r6, pc, #108, 22	; 0x1b000
 6e4:	30306765 	eorscc	r6, r0, r5, ror #14
 6e8:	745f3064 	ldrbvc	r3, [pc], #-100	; 6f0 <__standby_start+0x6f0>
 6ec:	0012d600 	andseq	sp, r2, r0, lsl #12
 6f0:	435f5f00 	cmpmi	pc, #0, 30
 6f4:	5f554d43 	svcpl	0x00554d43
 6f8:	4d415244 	sfmmi	f5, 2, [r1, #-272]	; 0xfffffef0
 6fc:	5441475f 	strbpl	r4, [r1], #-1887	; 0xfffff8a1
 700:	45525f45 	ldrbmi	r5, [r2, #-3909]	; 0xfffff0bb
 704:	30313047 	eorscc	r3, r1, r7, asr #32
 708:	13aa0030 			; <UNDEFINED> instruction: 0x13aa0030
 70c:	5f5f0000 	svcpl	0x005f0000
 710:	756d6363 	strbvc	r6, [sp, #-867]!	; 0xfffffc9d
 714:	6172645f 	cmnvs	r2, pc, asr r4
 718:	61675f6d 	cmnvs	r7, sp, ror #30
 71c:	725f6574 	subsvc	r6, pc, #116, 10	; 0x1d000000
 720:	31306765 	teqcc	r0, r5, ror #14
 724:	745f3030 	ldrbvc	r3, [pc], #-48	; 72c <__standby_start+0x72c>
 728:	0013b600 	andseq	fp, r3, r0, lsl #12
 72c:	435f5f00 	cmpmi	pc, #0, 30
 730:	5f554d43 	svcpl	0x00554d43
 734:	45444546 	strbmi	r4, [r4, #-1350]	; 0xfffffaba
 738:	435f504d 	cmpmi	pc, #77	; 0x4d
 73c:	30004b4c 	andcc	r4, r0, ip, asr #22
 740:	5f000014 	svcpl	0x00000014
 744:	6d63635f 	stclvs	3, cr6, [r3, #-380]!	; 0xfffffe84
 748:	65665f75 	strbvs	r5, [r6, #-3957]!	; 0xfffff08b
 74c:	706d6564 	rsbvc	r6, sp, r4, ror #10
 750:	6b6c635f 	blvs	1b194d4 <__standby_start+0x1b194d4>
 754:	3c00745f 	cfstrscc	mvf7, [r0], {95}	; 0x5f
 758:	5f000014 	svcpl	0x00000014
 75c:	4d43435f 	stclmi	3, cr4, [r3, #-380]	; 0xfffffe84
 760:	434c5f55 	movtmi	r5, #53077	; 0xcf55
 764:	30484344 	subcc	r4, r8, r4, asr #6
 768:	4b4c435f 	blmi	13114ec <__standby_start+0x13114ec>
 76c:	0014b600 	andseq	fp, r4, r0, lsl #12
 770:	635f5f00 	cmpvs	pc, #0, 30
 774:	5f756d63 	svcpl	0x00756d63
 778:	6364636c 	cmnvs	r4, #108, 6	; 0xb0000001
 77c:	635f3068 	cmpvs	pc, #104	; 0x68
 780:	745f6b6c 	ldrbvc	r6, [pc], #-2924	; 788 <__standby_start+0x788>
 784:	0014c200 	andseq	ip, r4, r0, lsl #4
 788:	435f5f00 	cmpmi	pc, #0, 30
 78c:	5f554d43 	svcpl	0x00554d43
 790:	4344434c 	movtmi	r4, #17228	; 0x434c
 794:	435f3148 	cmpmi	pc, #72, 2
 798:	72004b4c 	andvc	r4, r0, #76, 22	; 0x13000
 79c:	5f000015 	svcpl	0x00000015
 7a0:	6d63635f 	stclvs	3, cr6, [r3, #-380]!	; 0xfffffe84
 7a4:	636c5f75 	cmnvs	ip, #468	; 0x1d4
 7a8:	31686364 	cmncc	r8, r4, ror #6
 7ac:	6b6c635f 	blvs	1b19530 <__standby_start+0x1b19530>
 7b0:	7e00745f 	cfmvsrvc	mvf0, r7
 7b4:	5f000015 	svcpl	0x00000015
 7b8:	4d43435f 	stclmi	3, cr4, [r3, #-380]	; 0xfffffe84
 7bc:	53435f55 	movtpl	r5, #16213	; 0x3f55
 7c0:	4c435f49 	mcrrmi	15, 4, r5, r3, cr9
 7c4:	15f8004b 	ldrbne	r0, [r8, #75]!	; 0x4b
 7c8:	5f5f0000 	svcpl	0x005f0000
 7cc:	756d6363 	strbvc	r6, [sp, #-867]!	; 0xfffffc9d
 7d0:	6973635f 	ldmdbvs	r3!, {r0, r1, r2, r3, r4, r6, r8, r9, sp, lr}^
 7d4:	6b6c635f 	blvs	1b19558 <__standby_start+0x1b19558>
 7d8:	0400745f 	streq	r7, [r0], #-1119	; 0xfffffba1
 7dc:	5f000016 	svcpl	0x00000016
 7e0:	4d43435f 	stclmi	3, cr4, [r3, #-380]	; 0xfffffe84
 7e4:	45565f55 	ldrbmi	r5, [r6, #-3925]	; 0xfffff0ab
 7e8:	4b4c435f 	blmi	131156c <__standby_start+0x131156c>
 7ec:	4745525f 	smlsldmi	r5, r5, pc, r2	; <UNPREDICTABLE>
 7f0:	43333130 	teqmi	r3, #48, 2
 7f4:	00166c00 	andseq	r6, r6, r0, lsl #24
 7f8:	635f5f00 	cmpvs	pc, #0, 30
 7fc:	5f756d63 	svcpl	0x00756d63
 800:	635f6576 	cmpvs	pc, #494927872	; 0x1d800000
 804:	725f6b6c 	subsvc	r6, pc, #108, 22	; 0x1b000
 808:	31306765 	teqcc	r0, r5, ror #14
 80c:	745f6333 	ldrbvc	r6, [pc], #-819	; 814 <__standby_start+0x814>
 810:	00167800 	andseq	r7, r6, r0, lsl #16
 814:	435f5f00 	cmpmi	pc, #0, 30
 818:	5f554d43 	svcpl	0x00554d43
 81c:	41444441 	mrsmi	r4, SPSR
 820:	4b4c435f 	blmi	13115a4 <__standby_start+0x13115a4>
 824:	4745525f 	smlsldmi	r5, r5, pc, r2	; <UNPREDICTABLE>
 828:	30343130 	eorscc	r3, r4, r0, lsr r1
 82c:	0016aa00 	andseq	sl, r6, r0, lsl #20
 830:	635f5f00 	cmpvs	pc, #0, 30
 834:	5f756d63 	svcpl	0x00756d63
 838:	61646461 	cmnvs	r4, r1, ror #8
 83c:	6b6c635f 	blvs	1b195c0 <__standby_start+0x1b195c0>
 840:	6765725f 			; <UNDEFINED> instruction: 0x6765725f
 844:	30343130 	eorscc	r3, r4, r0, lsr r1
 848:	b600745f 			; <UNDEFINED> instruction: 0xb600745f
 84c:	5f000016 	svcpl	0x00000016
 850:	4d43435f 	stclmi	3, cr4, [r3, #-380]	; 0xfffffe84
 854:	56415f55 			; <UNDEFINED> instruction: 0x56415f55
 858:	4c435f53 	mcrrmi	15, 5, r5, r3, cr3
 85c:	45525f4b 	ldrbmi	r5, [r2, #-3915]	; 0xfffff0b5
 860:	34313047 	ldrtcc	r3, [r1], #-71	; 0xffffffb9
 864:	16e80034 			; <UNDEFINED> instruction: 0x16e80034
 868:	5f5f0000 	svcpl	0x005f0000
 86c:	756d6363 	strbvc	r6, [sp, #-867]!	; 0xfffffc9d
 870:	7376615f 	cmnvc	r6, #-1073741801	; 0xc0000017
 874:	6b6c635f 	blvs	1b195f8 <__standby_start+0x1b195f8>
 878:	6765725f 			; <UNDEFINED> instruction: 0x6765725f
 87c:	34343130 	ldrtcc	r3, [r4], #-304	; 0xfffffed0
 880:	f400745f 	vst3.16	{d7-d9}, [r0 :64]
 884:	5f000016 	svcpl	0x00000016
 888:	4d43435f 	stclmi	3, cr4, [r3, #-380]	; 0xfffffe84
 88c:	564c5f55 			; <UNDEFINED> instruction: 0x564c5f55
 890:	435f5344 	cmpmi	pc, #68, 6	; 0x10000001
 894:	525f4b4c 	subspl	r4, pc, #76, 22	; 0x13000
 898:	31304745 	teqcc	r0, r5, asr #14
 89c:	26004334 			; <UNDEFINED> instruction: 0x26004334
 8a0:	5f000017 	svcpl	0x00000017
 8a4:	6d63635f 	stclvs	3, cr6, [r3, #-380]!	; 0xfffffe84
 8a8:	766c5f75 	uqsub16vc	r5, ip, r5
 8ac:	635f7364 	cmpvs	pc, #100, 6	; 0x90000001
 8b0:	725f6b6c 	subsvc	r6, pc, #108, 22	; 0x1b000
 8b4:	31306765 	teqcc	r0, r5, ror #14
 8b8:	745f6334 	ldrbvc	r6, [pc], #-820	; 8c0 <__standby_start+0x8c0>
 8bc:	00173200 	andseq	r3, r7, r0, lsl #4
 8c0:	435f5f00 	cmpmi	pc, #0, 30
 8c4:	5f554d43 	svcpl	0x00554d43
 8c8:	494d4448 	stmdbmi	sp, {r3, r6, sl, lr}^
 8cc:	4b4c435f 	blmi	1311650 <__standby_start+0x1311650>
 8d0:	4745525f 	smlsldmi	r5, r5, pc, r2	; <UNPREDICTABLE>
 8d4:	30353130 	eorscc	r3, r5, r0, lsr r1
 8d8:	00179a00 	andseq	r9, r7, r0, lsl #20
 8dc:	635f5f00 	cmpvs	pc, #0, 30
 8e0:	5f756d63 	svcpl	0x00756d63
 8e4:	696d6468 	stmdbvs	sp!, {r3, r5, r6, sl, sp, lr}^
 8e8:	6b6c635f 	blvs	1b1966c <__standby_start+0x1b1966c>
 8ec:	6765725f 			; <UNDEFINED> instruction: 0x6765725f
 8f0:	30353130 	eorscc	r3, r5, r0, lsr r1
 8f4:	a600745f 			; <UNDEFINED> instruction: 0xa600745f
 8f8:	5f000017 	svcpl	0x00000017
 8fc:	4d43435f 	stclmi	3, cr4, [r3, #-380]	; 0xfffffe84
 900:	414d5f55 	cmpmi	sp, r5, asr pc
 904:	3034494c 	eorscc	r4, r4, ip, asr #18
 908:	4c435f30 	mcrrmi	15, 3, r5, r3, cr0
 90c:	45525f4b 	ldrbmi	r5, [r2, #-3915]	; 0xfffff0b5
 910:	35313047 	ldrcc	r3, [r1, #-71]!	; 0xffffffb9
 914:	18200034 	stmdane	r0!, {r2, r4, r5}
 918:	5f5f0000 	svcpl	0x005f0000
 91c:	756d6363 	strbvc	r6, [sp, #-867]!	; 0xfffffc9d
 920:	6c616d5f 	stclvs	13, cr6, [r1], #-380	; 0xfffffe84
 924:	30303469 	eorscc	r3, r0, r9, ror #8
 928:	6b6c635f 	blvs	1b196ac <__standby_start+0x1b196ac>
 92c:	6765725f 			; <UNDEFINED> instruction: 0x6765725f
 930:	34353130 	ldrtcc	r3, [r5], #-304	; 0xfffffed0
 934:	2c00745f 	cfstrscs	mvf7, [r0], {95}	; 0x5f
 938:	5f000018 	svcpl	0x00000018
 93c:	4d43435f 	stclmi	3, cr4, [r3, #-380]	; 0xfffffe84
 940:	424d5f55 	submi	r5, sp, #340	; 0x154
 944:	435f5355 	cmpmi	pc, #1409286145	; 0x54000001
 948:	525f4b4c 	subspl	r4, pc, #76, 22	; 0x13000
 94c:	31304745 	teqcc	r0, r5, asr #14
 950:	b8004335 	stmdalt	r0, {r0, r2, r4, r5, r8, r9, lr}
 954:	5f000018 	svcpl	0x00000018
 958:	6d63635f 	stclvs	3, cr6, [r3, #-380]!	; 0xfffffe84
 95c:	626d5f75 	rsbvs	r5, sp, #468	; 0x1d4
 960:	635f7375 	cmpvs	pc, #-738197503	; 0xd4000001
 964:	725f6b6c 	subsvc	r6, pc, #108, 22	; 0x1b000
 968:	31306765 	teqcc	r0, r5, ror #14
 96c:	745f6335 	ldrbvc	r6, [pc], #-821	; 974 <__standby_start+0x974>
 970:	0018c400 	andseq	ip, r8, r0, lsl #8
 974:	435f5f00 	cmpmi	pc, #0, 30
 978:	5f554d43 	svcpl	0x00554d43
 97c:	5f504549 	svcpl	0x00504549
 980:	5f4b4c43 	svcpl	0x004b4c43
 984:	30474552 	subcc	r4, r7, r2, asr r5
 988:	00303631 	eorseq	r3, r0, r1, lsr r6
 98c:	00001908 	andeq	r1, r0, r8, lsl #18
 990:	63635f5f 	cmnvs	r3, #380	; 0x17c
 994:	695f756d 	ldmdbvs	pc, {r0, r2, r3, r5, r6, r8, sl, ip, sp, lr}^	; <UNPREDICTABLE>
 998:	635f7065 	cmpvs	pc, #101	; 0x65
 99c:	725f6b6c 	subsvc	r6, pc, #108, 22	; 0x1b000
 9a0:	31306765 	teqcc	r0, r5, ror #14
 9a4:	745f3036 	ldrbvc	r3, [pc], #-54	; 9ac <__standby_start+0x9ac>
 9a8:	00191400 	andseq	r1, r9, r0, lsl #8
 9ac:	435f5f00 	cmpmi	pc, #0, 30
 9b0:	5f554d43 	svcpl	0x00554d43
 9b4:	5f474552 	svcpl	0x00474552
 9b8:	5453494c 	ldrbpl	r4, [r3], #-2380	; 0xfffff6b4
 9bc:	001e7000 	andseq	r7, lr, r0
 9c0:	635f5f00 	cmpvs	pc, #0, 30
 9c4:	5f756d63 	svcpl	0x00756d63
 9c8:	5f676572 	svcpl	0x00676572
 9cc:	7473696c 	ldrbtvc	r6, [r3], #-2412	; 0xfffff694
 9d0:	7c00745f 	cfstrsvc	mvf7, [r0], {95}	; 0x5f
 9d4:	7300001e 	movwvc	r0, #30
 9d8:	69346e75 	ldmdbvs	r4!, {r0, r2, r4, r5, r6, r9, sl, fp, sp, lr}
 9dc:	6b6c635f 	blvs	1b19760 <__standby_start+0x1b19760>
 9e0:	7669645f 			; <UNDEFINED> instruction: 0x7669645f
 9e4:	de00745f 	cfmvsrle	mvf0, r7
 9e8:	7000001e 	andvc	r0, r0, lr, lsl r0
 9ec:	665f6c6c 	ldrbvs	r6, [pc], -ip, ror #24
 9f0:	6f746361 	svcvs	0x00746361
 9f4:	00745f72 	rsbseq	r5, r4, r2, ror pc
 9f8:	00000000 	andeq	r0, r0, r0
 9fc:	0000004f 	andeq	r0, r0, pc, asr #32
 a00:	27830002 	strcs	r0, [r3, r2]
 a04:	035a0000 	cmpeq	sl, #0
 a08:	004f0000 	subeq	r0, pc, r0
 a0c:	5f5f0000 	svcpl	0x005f0000
 a10:	00323373 	eorseq	r3, r2, r3, ror r3
 a14:	0000005a 	andeq	r0, r0, sl, asr r0
 a18:	33755f5f 	cmncc	r5, #380	; 0x17c
 a1c:	00880032 	addeq	r0, r8, r2, lsr r0
 a20:	6e690000 	cdpvs	0, 6, cr0, cr9, cr0, {0}
 a24:	72726574 	rsbsvc	r6, r2, #116, 10	; 0x1d000000
 a28:	5f747075 	svcpl	0x00747075
 a2c:	72756f73 	rsbsvc	r6, r5, #460	; 0x1cc
 a30:	655f6563 	ldrbvs	r6, [pc, #-1379]	; 4d5 <__standby_start+0x4d5>
 a34:	0000eb00 	andeq	lr, r0, r0, lsl #22
 a38:	61747300 	cmnvs	r4, r0, lsl #6
 a3c:	7962646e 	stmdbvc	r2!, {r1, r2, r3, r5, r6, sl, sp, lr}^
 a40:	746e695f 	strbtvc	r6, [lr], #-2399	; 0xfffff6a1
 a44:	6765725f 			; <UNDEFINED> instruction: 0x6765725f
 a48:	0000745f 	andeq	r7, r0, pc, asr r4
 a4c:	18000000 	stmdane	r0, {}	; <UNPREDICTABLE>
 a50:	02000000 	andeq	r0, r0, #0
 a54:	002add00 	eoreq	sp, sl, r0, lsl #26
 a58:	0000c900 	andeq	ip, r0, r0, lsl #18
 a5c:	00004f00 	andeq	r4, r0, r0, lsl #30
 a60:	735f5f00 	cmpvc	pc, #0, 30
 a64:	00003233 	andeq	r3, r0, r3, lsr r2
 a68:	50000000 	andpl	r0, r0, r0
 a6c:	02000000 	andeq	r0, r0, #0
 a70:	002ba600 	eoreq	sl, fp, r0, lsl #12
 a74:	00017a00 	andeq	r7, r1, r0, lsl #20
 a78:	00004f00 	andeq	r4, r0, r0, lsl #30
 a7c:	735f5f00 	cmpvc	pc, #0, 30
 a80:	5a003233 	bpl	d354 <__standby_start+0xd354>
 a84:	5f000000 	svcpl	0x00000000
 a88:	3233755f 	eorscc	r7, r3, #398458880	; 0x17c00000
 a8c:	00007800 	andeq	r7, r0, r0, lsl #16
 a90:	535f5f00 	cmppl	pc, #0, 30
 a94:	444e4154 	strbmi	r4, [lr], #-340	; 0xfffffeac
 a98:	4b5f5942 	blmi	17d6fa8 <__standby_start+0x17d6fa8>
 a9c:	525f5945 	subspl	r5, pc, #1130496	; 0x114000
 aa0:	cb004745 	blgt	127bc <__standby_start+0x127bc>
 aa4:	5f000000 	svcpl	0x00000000
 aa8:	6174735f 	cmnvs	r4, pc, asr r3
 aac:	7962646e 	stmdbvc	r2!, {r1, r2, r3, r5, r6, sl, sp, lr}^
 ab0:	79656b5f 	stmdbvc	r5!, {r0, r1, r2, r3, r4, r6, r8, r9, fp, sp, lr}^
 ab4:	6765725f 			; <UNDEFINED> instruction: 0x6765725f
 ab8:	0000745f 	andeq	r7, r0, pc, asr r4
 abc:	5f000000 	svcpl	0x00000000
 ac0:	02000000 	andeq	r0, r0, #0
 ac4:	002d2000 	eoreq	r2, sp, r0
 ac8:	0003c700 	andeq	ip, r3, r0, lsl #14
 acc:	00004100 	andeq	r4, r0, r0, lsl #2
 ad0:	755f5f00 	ldrbvc	r5, [pc, #-3840]	; fffffbd8 <__bss_end+0xfffd2fc>
 ad4:	005a0038 	subseq	r0, sl, r8, lsr r0
 ad8:	5f5f0000 	svcpl	0x005f0000
 adc:	00323373 	eorseq	r3, r2, r3, ror r3
 ae0:	00000065 	andeq	r0, r0, r5, rrx
 ae4:	33755f5f 	cmncc	r5, #380	; 0x17c
 ae8:	007e0032 	rsbseq	r0, lr, r2, lsr r0
 aec:	6f700000 	svcvs	0x00700000
 af0:	5f726577 	svcpl	0x00726577
 af4:	5f6c6f76 	svcpl	0x006c6f76
 af8:	65707974 	ldrbvs	r7, [r0, #-2420]!	; 0xfffff68c
 afc:	b500655f 	strlt	r6, [r0, #-1375]	; 0xfffffaa1
 b00:	61000000 	tstvs	r0, r0
 b04:	695f7078 	ldmdbvs	pc, {r3, r4, r5, r6, ip, sp, lr}^	; <UNPREDICTABLE>
 b08:	006f666e 	rsbeq	r6, pc, lr, ror #12
 b0c:	00000123 	andeq	r0, r0, r3, lsr #2
 b10:	5f697774 	svcpl	0x00697774
 b14:	745f706f 	ldrbvc	r7, [pc], #-111	; b1c <__standby_start+0xb1c>
 b18:	5f657079 	svcpl	0x00657079
 b1c:	00000065 	andeq	r0, r0, r5, rrx
 b20:	00650000 	rsbeq	r0, r5, r0
 b24:	00020000 	andeq	r0, r2, r0
 b28:	000030e7 	andeq	r3, r0, r7, ror #1
 b2c:	00000538 	andeq	r0, r0, r8, lsr r5
 b30:	0000004f 	andeq	r0, r0, pc, asr #32
 b34:	33735f5f 	cmncc	r3, #380	; 0x17c
 b38:	005a0032 	subseq	r0, sl, r2, lsr r0
 b3c:	5f5f0000 	svcpl	0x005f0000
 b40:	00323375 	eorseq	r3, r2, r5, ror r3
 b44:	00000088 	andeq	r0, r0, r8, lsl #1
 b48:	54535f5f 	ldrbpl	r5, [r3], #-3935	; 0xfffff0a1
 b4c:	42444e41 	submi	r4, r4, #1040	; 0x410
 b50:	4d545f59 	ldclmi	15, cr5, [r4, #-356]	; 0xfffffe9c
 b54:	45525f52 	ldrbmi	r5, [r2, #-3922]	; 0xfffff0ae
 b58:	037c0047 	cmneq	ip, #71	; 0x47
 b5c:	5f5f0000 	svcpl	0x005f0000
 b60:	6e617473 	mcrvs	4, 3, r7, cr1, cr3, {3}
 b64:	5f796264 	svcpl	0x00796264
 b68:	5f726d74 	svcpl	0x00726d74
 b6c:	5f676572 	svcpl	0x00676572
 b70:	03870074 	orreq	r0, r7, #116	; 0x74
 b74:	6d740000 	ldclvs	0, cr0, [r4, #-0]
 b78:	76655f72 	uqsub16vc	r5, r5, r2
 b7c:	5f746e65 	svcpl	0x00746e65
 b80:	65707974 	ldrbvs	r7, [r0, #-2420]!	; 0xfffff68c
 b84:	0000655f 	andeq	r6, r0, pc, asr r5
 b88:	5f000000 	svcpl	0x00000000
 b8c:	02000000 	andeq	r0, r0, #0
 b90:	00361f00 	eorseq	r1, r6, r0, lsl #30
 b94:	0002c000 	andeq	ip, r2, r0
 b98:	00004100 	andeq	r4, r0, r0, lsl #2
 b9c:	755f5f00 	ldrbvc	r5, [pc, #-3840]	; fffffca4 <__bss_end+0xfffd3c8>
 ba0:	005a0038 	subseq	r0, sl, r8, lsr r0
 ba4:	5f5f0000 	svcpl	0x005f0000
 ba8:	00323373 	eorseq	r3, r2, r3, ror r3
 bac:	00000065 	andeq	r0, r0, r5, rrx
 bb0:	33755f5f 	cmncc	r5, #380	; 0x17c
 bb4:	007e0032 	rsbseq	r0, lr, r2, lsr r0
 bb8:	61740000 	cmnvs	r4, r0
 bbc:	77745f67 	ldrbvc	r5, [r4, -r7, ror #30]!
 bc0:	725f6369 	subsvc	r6, pc, #-1543503871	; 0xa4000001
 bc4:	0e006765 	cdpeq	7, 0, cr6, cr0, cr5, {3}
 bc8:	5f000001 	svcpl	0x00000001
 bcc:	6977745f 	ldmdbvs	r7!, {r0, r1, r2, r3, r4, r6, sl, ip, sp, lr}^
 bd0:	65725f63 	ldrbvs	r5, [r2, #-3939]!	; 0xfffff09d
 bd4:	00745f67 	rsbseq	r5, r4, r7, ror #30
 bd8:	00000119 	andeq	r0, r0, r9, lsl r1
 bdc:	5f697774 	svcpl	0x00697774
 be0:	745f706f 	ldrbvc	r7, [pc], #-111	; be8 <__standby_start+0xbe8>
 be4:	5f657079 	svcpl	0x00657079
 be8:	00000065 	andeq	r0, r0, r5, rrx
 bec:	00220000 	eoreq	r0, r2, r0
 bf0:	00020000 	andeq	r0, r2, r0
 bf4:	000038df 	ldrdeq	r3, [r0], -pc	; <UNPREDICTABLE>
 bf8:	000000e8 	andeq	r0, r0, r8, ror #1
 bfc:	0000004f 	andeq	r0, r0, pc, asr #32
 c00:	33735f5f 	cmncc	r3, #380	; 0x17c
 c04:	005a0032 	subseq	r0, sl, r2, lsr r0
 c08:	5f5f0000 	svcpl	0x005f0000
 c0c:	00323375 	eorseq	r3, r2, r5, ror r3
 c10:	00000000 	andeq	r0, r0, r0
 c14:	00000022 	andeq	r0, r0, r2, lsr #32
 c18:	3a340002 	bcc	d00c28 <__standby_start+0xd00c28>
 c1c:	04e80000 	strbteq	r0, [r8], #0
 c20:	00410000 	subeq	r0, r1, r0
 c24:	5f5f0000 	svcpl	0x005f0000
 c28:	00323373 	eorseq	r3, r2, r3, ror r3
 c2c:	00000053 	andeq	r0, r0, r3, asr r0
 c30:	33755f5f 	cmncc	r5, #380	; 0x17c
 c34:	00000032 	andeq	r0, r0, r2, lsr r0
 c38:	00220000 	eoreq	r0, r2, r0
 c3c:	00020000 	andeq	r0, r2, r0
 c40:	00003f1c 	andeq	r3, r0, ip, lsl pc
 c44:	00000553 	andeq	r0, r0, r3, asr r5
 c48:	00000064 	andeq	r0, r0, r4, rrx
 c4c:	33735f5f 	cmncc	r3, #380	; 0x17c
 c50:	006f0032 	rsbeq	r0, pc, r2, lsr r0	; <UNPREDICTABLE>
 c54:	5f5f0000 	svcpl	0x005f0000
 c58:	00323375 	eorseq	r3, r2, r5, ror r3
 c5c:	00000000 	andeq	r0, r0, r0
 c60:	0000004e 	andeq	r0, r0, lr, asr #32
 c64:	446f0002 	strbtmi	r0, [pc], #-2	; c6c <__standby_start+0xc6c>
 c68:	06690000 	strbteq	r0, [r9], -r0
 c6c:	00480000 	subeq	r0, r8, r0
 c70:	72640000 	rsbvc	r0, r4, #0
 c74:	705f6d61 	subsvc	r6, pc, r1, ror #26
 c78:	5f617261 	svcpl	0x00617261
 c7c:	01890074 	orreq	r0, r9, r4, ror r0
 c80:	5f5f0000 	svcpl	0x005f0000
 c84:	00323373 	eorseq	r3, r2, r3, ror r3
 c88:	00000194 	muleq	r0, r4, r1
 c8c:	33755f5f 	cmncc	r5, #380	; 0x17c
 c90:	01a60032 			; <UNDEFINED> instruction: 0x01a60032
 c94:	5f5f0000 	svcpl	0x005f0000
 c98:	00343675 	eorseq	r3, r4, r5, ror r6
 c9c:	000001b8 			; <UNDEFINED> instruction: 0x000001b8
 ca0:	72645f5f 	rsbvc	r5, r4, #380	; 0x17c
 ca4:	705f6d61 	subsvc	r6, pc, r1, ror #26
 ca8:	5f617261 	svcpl	0x00617261
 cac:	00000074 	andeq	r0, r0, r4, ror r0
	...

Disassembly of section .debug_aranges:

00000000 <.debug_aranges>:
   0:	0000001c 	andeq	r0, r0, ip, lsl r0
   4:	00000002 	andeq	r0, r0, r2
   8:	00040000 	andeq	r0, r4, r0
   c:	00000000 	andeq	r0, r0, r0
  10:	f0000000 			; <UNDEFINED> instruction: 0xf0000000
  14:	000003ac 	andeq	r0, r0, ip, lsr #7
	...
  20:	0000001c 	andeq	r0, r0, ip, lsl r0
  24:	040e0002 	streq	r0, [lr], #-2
  28:	00040000 	andeq	r0, r4, r0
  2c:	00000000 	andeq	r0, r0, r0
  30:	f00003ac 			; <UNDEFINED> instruction: 0xf00003ac
  34:	0000003c 	andeq	r0, r0, ip, lsr r0
	...
  40:	0000001c 	andeq	r0, r0, ip, lsl r0
  44:	05290002 	streq	r0, [r9, #-2]!
  48:	00040000 	andeq	r0, r4, r0
  4c:	00000000 	andeq	r0, r0, r0
  50:	f00003e8 			; <UNDEFINED> instruction: 0xf00003e8
  54:	00000124 	andeq	r0, r0, r4, lsr #2
	...
  60:	0000001c 	andeq	r0, r0, ip, lsl r0
  64:	058e0002 	streq	r0, [lr, #2]
  68:	00040000 	andeq	r0, r4, r0
  6c:	00000000 	andeq	r0, r0, r0
  70:	f000050c 			; <UNDEFINED> instruction: 0xf000050c
  74:	00000580 	andeq	r0, r0, r0, lsl #11
	...
  80:	0000001c 	andeq	r0, r0, ip, lsl r0
  84:	27830002 	strcs	r0, [r3, r2]
  88:	00040000 	andeq	r0, r4, r0
  8c:	00000000 	andeq	r0, r0, r0
  90:	f0000a8c 			; <UNDEFINED> instruction: 0xf0000a8c
  94:	00000168 	andeq	r0, r0, r8, ror #2
	...
  a0:	0000001c 	andeq	r0, r0, ip, lsl r0
  a4:	2add0002 	bcs	ff7400b4 <__bss_end+0xf73d7d8>
  a8:	00040000 	andeq	r0, r4, r0
  ac:	00000000 	andeq	r0, r0, r0
  b0:	f0000bf4 			; <UNDEFINED> instruction: 0xf0000bf4
  b4:	00000020 	andeq	r0, r0, r0, lsr #32
	...
  c0:	0000001c 	andeq	r0, r0, ip, lsl r0
  c4:	2ba60002 	blcs	fe9800d4 <__bss_end+0xe97d7f8>
  c8:	00040000 	andeq	r0, r4, r0
  cc:	00000000 	andeq	r0, r0, r0
  d0:	f0000c14 			; <UNDEFINED> instruction: 0xf0000c14
  d4:	000000a0 	andeq	r0, r0, r0, lsr #1
	...
  e0:	0000001c 	andeq	r0, r0, ip, lsl r0
  e4:	2d200002 	stccs	0, cr0, [r0, #-8]!
  e8:	00040000 	andeq	r0, r4, r0
  ec:	00000000 	andeq	r0, r0, r0
  f0:	f0000cb4 			; <UNDEFINED> instruction: 0xf0000cb4
  f4:	00000698 	muleq	r0, r8, r6
	...
 100:	0000001c 	andeq	r0, r0, ip, lsl r0
 104:	30e70002 	rsccc	r0, r7, r2
 108:	00040000 	andeq	r0, r4, r0
 10c:	00000000 	andeq	r0, r0, r0
 110:	f000134c 			; <UNDEFINED> instruction: 0xf000134c
 114:	000001f0 	strdeq	r0, [r0], -r0	; <UNPREDICTABLE>
	...
 120:	0000001c 	andeq	r0, r0, ip, lsl r0
 124:	361f0002 	ldrcc	r0, [pc], -r2
 128:	00040000 	andeq	r0, r4, r0
 12c:	00000000 	andeq	r0, r0, r0
 130:	f000153c 			; <UNDEFINED> instruction: 0xf000153c
 134:	00000340 	andeq	r0, r0, r0, asr #6
	...
 140:	0000001c 	andeq	r0, r0, ip, lsl r0
 144:	38df0002 	ldmcc	pc, {r1}^	; <UNPREDICTABLE>
 148:	00040000 	andeq	r0, r4, r0
 14c:	00000000 	andeq	r0, r0, r0
 150:	f000187c 			; <UNDEFINED> instruction: 0xf000187c
 154:	00000020 	andeq	r0, r0, r0, lsr #32
	...
 160:	0000001c 	andeq	r0, r0, ip, lsl r0
 164:	39c70002 	stmibcc	r7, {r1}^
 168:	00040000 	andeq	r0, r4, r0
 16c:	00000000 	andeq	r0, r0, r0
 170:	f000189c 			; <UNDEFINED> instruction: 0xf000189c
 174:	00000034 	andeq	r0, r0, r4, lsr r0
	...
 180:	0000001c 	andeq	r0, r0, ip, lsl r0
 184:	3a340002 	bcc	d00194 <__standby_start+0xd00194>
 188:	00040000 	andeq	r0, r4, r0
 18c:	00000000 	andeq	r0, r0, r0
 190:	f00018d0 			; <UNDEFINED> instruction: 0xf00018d0
 194:	00000368 	andeq	r0, r0, r8, ror #6
	...
 1a0:	0000001c 	andeq	r0, r0, ip, lsl r0
 1a4:	3f1c0002 	svccc	0x001c0002
 1a8:	00040000 	andeq	r0, r4, r0
 1ac:	00000000 	andeq	r0, r0, r0
 1b0:	f0001c38 			; <UNDEFINED> instruction: 0xf0001c38
 1b4:	000003e0 	andeq	r0, r0, r0, ror #7
	...
 1c0:	0000001c 	andeq	r0, r0, ip, lsl r0
 1c4:	446f0002 	strbtmi	r0, [pc], #-2	; 1cc <__standby_start+0x1cc>
 1c8:	00040000 	andeq	r0, r4, r0
 1cc:	00000000 	andeq	r0, r0, r0
 1d0:	f0002018 			; <UNDEFINED> instruction: 0xf0002018
 1d4:	00000640 	andeq	r0, r0, r0, asr #12
	...

Disassembly of section .debug_ranges:

00000000 <.debug_ranges>:
   0:	00000114 	andeq	r0, r0, r4, lsl r1
   4:	00000118 	andeq	r0, r0, r8, lsl r1
   8:	00000120 	andeq	r0, r0, r0, lsr #2
   c:	00000314 	andeq	r0, r0, r4, lsl r3
	...
  18:	00000114 	andeq	r0, r0, r4, lsl r1
  1c:	00000118 	andeq	r0, r0, r8, lsl r1
  20:	00000120 	andeq	r0, r0, r0, lsr #2
  24:	00000314 	andeq	r0, r0, r4, lsl r3
	...

Disassembly of section .debug_str:

00000000 <.debug_str>:
       0:	6769726f 	strbvs	r7, [r9, -pc, ror #4]!
       4:	6c6c705f 	stclvs	0, cr7, [ip], #-380	; 0xfffffe84
       8:	63614600 	cmnvs	r1, #0, 12
       c:	4d726f74 	ldclmi	15, cr6, [r2, #-464]!	; 0xfffffe30
      10:	63614600 	cmnvs	r1, #0, 12
      14:	4e726f74 	mrcmi	15, 3, r6, cr2, cr4, {3}
      18:	63614600 	cmnvs	r1, #0, 12
      1c:	50726f74 	rsbspl	r6, r2, r4, ror pc
      20:	75706300 	ldrbvc	r6, [r0, #-768]!	; 0xfffffd00
      24:	7669645f 			; <UNDEFINED> instruction: 0x7669645f
      28:	6c6c7000 	stclvs	0, cr7, [ip], #-0
      2c:	6361665f 	cmnvs	r1, #99614720	; 0x5f00000
      30:	5f726f74 	svcpl	0x00726f74
      34:	4e490074 	mcrmi	0, 2, r0, cr9, cr4, {3}
      38:	4f535f54 	svcmi	0x00535f54
      3c:	45435255 	strbmi	r5, [r3, #-597]	; 0xfffffdab
      40:	4253555f 	subsmi	r5, r3, #398458880	; 0x17c00000
      44:	4e490030 	mcrmi	0, 2, r0, cr9, cr0, {1}
      48:	4f535f54 	svcmi	0x00535f54
      4c:	45435255 	strbmi	r5, [r3, #-597]	; 0xfffffdab
      50:	4253555f 	subsmi	r5, r3, #398458880	; 0x17c00000
      54:	72640031 	rsbvc	r0, r4, #49	; 0x31
      58:	745f6d61 	ldrbvc	r6, [pc], #-3425	; 60 <__standby_start+0x60>
      5c:	696e6172 	stmdbvs	lr!, {r1, r4, r5, r6, r8, sp, lr}^
      60:	615f676e 	cmpvs	pc, lr, ror #14
      64:	5f616572 	svcpl	0x00616572
      68:	6b636162 	blvs	18d85f8 <__standby_start+0x18d85f8>
      6c:	544e4900 	strbpl	r4, [lr], #-2304	; 0xfffff700
      70:	554f535f 	strbpl	r5, [pc, #-863]	; fffffd19 <__bss_end+0xfffd43d>
      74:	5f454352 	svcpl	0x00454352
      78:	33425355 	movtcc	r5, #9045	; 0x2355
      7c:	544e4900 	strbpl	r4, [lr], #-2304	; 0xfffff700
      80:	554f535f 	strbpl	r5, [pc, #-863]	; fffffd29 <__bss_end+0xfffd44d>
      84:	5f454352 	svcpl	0x00454352
      88:	34425355 	strbcc	r5, [r2], #-853	; 0xfffffcab
      8c:	6d697400 	cfstrdvs	mvd7, [r9, #-0]
      90:	666f5f65 	strbtvs	r5, [pc], -r5, ror #30
      94:	4e490066 	cdpmi	0, 4, cr0, cr9, cr6, {3}
      98:	4f535f54 	svcmi	0x00535f54
      9c:	45435255 	strbmi	r5, [r3, #-597]	; 0xfffffdab
      a0:	4253555f 	subsmi	r5, r3, #398458880	; 0x17c00000
      a4:	5f5f0032 	svcpl	0x005f0032
      a8:	5f737362 	svcpl	0x00737362
      ac:	00646e65 	rsbeq	r6, r4, r5, ror #28
      b0:	346e7573 	strbtcc	r7, [lr], #-1395	; 0xfffffa8d
      b4:	6c635f69 	stclvs	15, cr5, [r3], #-420	; 0xfffffe5c
      b8:	69645f6b 	stmdbvs	r4!, {r0, r1, r3, r5, r6, r8, r9, sl, fp, ip, lr}^
      bc:	00745f76 	rsbseq	r5, r4, r6, ror pc
      c0:	6d617264 	sfmvs	f7, 2, [r1, #-400]!	; 0xfffffe70
      c4:	776f705f 			; <UNDEFINED> instruction: 0x776f705f
      c8:	755f7265 	ldrbvc	r7, [pc, #-613]	; fffffe6b <__bss_end+0xfffd58f>
      cc:	72705f70 	rsbsvc	r5, r0, #112, 30	; 0x1c0
      d0:	7365636f 	cmnvc	r5, #-1140850687	; 0xbc000001
      d4:	616d0073 	smcvs	53251	; 0xd003
      d8:	61006e69 	tstvs	r0, r9, ror #28
      dc:	645f6978 	ldrbvs	r6, [pc], #-2424	; e4 <__standby_start+0xe4>
      e0:	49007669 	stmdbmi	r0, {r0, r3, r5, r6, r9, sl, ip, sp, lr}
      e4:	535f544e 	cmppl	pc, #1308622848	; 0x4e000000
      e8:	4352554f 	cmpmi	r2, #331350016	; 0x13c00000
      ec:	4f545f45 	svcmi	0x00545f45
      f0:	50484355 	subpl	r4, r8, r5, asr r3
      f4:	69004c4e 	stmdbvs	r0, {r1, r2, r3, r6, sl, fp, lr}
      f8:	7265746e 	rsbvc	r7, r5, #1845493760	; 0x6e000000
      fc:	74707572 	ldrbtvc	r7, [r0], #-1394	; 0xfffffa8e
     100:	756f735f 	strbvc	r7, [pc, #-863]!	; fffffda9 <__bss_end+0xfffd4cd>
     104:	5f656372 	svcpl	0x00656372
     108:	4f500065 	svcmi	0x00500065
     10c:	5f524557 	svcpl	0x00524557
     110:	5f4c4f56 	svcpl	0x004c4f56
     114:	43444344 	movtmi	r4, #17220	; 0x4344
     118:	4f500031 	svcmi	0x00500031
     11c:	5f524557 	svcpl	0x00524557
     120:	5f4c4f56 	svcpl	0x004c4f56
     124:	43444344 	movtmi	r4, #17220	; 0x4344
     128:	4f500032 	svcmi	0x00500032
     12c:	5f524557 	svcpl	0x00524557
     130:	5f4c4f56 	svcpl	0x004c4f56
     134:	43444344 	movtmi	r4, #17220	; 0x4344
     138:	5f5f0033 	svcpl	0x005f0033
     13c:	00323375 	eorseq	r3, r2, r5, ror r3
     140:	6d617264 	sfmvs	f7, 2, [r1, #-400]!	; 0xfffffe70
     144:	776f705f 			; <UNDEFINED> instruction: 0x776f705f
     148:	735f7265 	cmpvc	pc, #1342177286	; 0x50000006
     14c:	5f657661 	svcpl	0x00657661
     150:	636f7270 	cmnvs	pc, #112, 4
     154:	00737365 	rsbseq	r7, r3, r5, ror #6
     158:	5f697774 	svcpl	0x00697774
     15c:	74726f70 	ldrbtvc	r6, [r2], #-3952	; 0xfffff090
     160:	62706100 	rsbsvs	r6, r0, #0, 2
     164:	7669645f 			; <UNDEFINED> instruction: 0x7669645f
     168:	6e6f6c00 	cdpvs	12, 6, cr6, cr15, cr0, {0}
     16c:	6f6c2067 	svcvs	0x006c2067
     170:	6920676e 	stmdbvs	r0!, {r1, r2, r3, r5, r6, r8, r9, sl, sp, lr}
     174:	6100746e 	tstvs	r0, lr, ror #8
     178:	645f6268 	ldrbvs	r6, [pc], #-616	; 180 <__standby_start+0x180>
     17c:	72007669 	andvc	r7, r0, #110100480	; 0x6900000
     180:	72657365 	rsbvc	r7, r5, #-1811939327	; 0x94000001
     184:	00646576 	rsbeq	r6, r4, r6, ror r5
     188:	705f7761 	subsvc	r7, pc, r1, ror #14
     18c:	615f756d 	cmpvs	pc, sp, ror #10
     190:	74006772 	strvc	r6, [r0], #-1906	; 0xfffff88e
     194:	7450706d 	ldrbvc	r7, [r0], #-109	; 0xffffff93
     198:	6d740072 	ldclvs	0, cr0, [r4, #-456]!	; 0xfffffe38
     19c:	6c635f70 	stclvs	15, cr5, [r3], #-448	; 0xfffffe40
     1a0:	69645f6b 	stmdbvs	r4!, {r0, r1, r3, r5, r6, r8, r9, sl, fp, ip, lr}^
     1a4:	6e750076 	mrcvs	0, 3, r0, cr5, cr6, {3}
     1a8:	6e676973 	mcrvs	9, 3, r6, cr7, cr3, {3}
     1ac:	63206465 	teqvs	r0, #1694498816	; 0x65000000
     1b0:	00726168 	rsbseq	r6, r2, r8, ror #2
     1b4:	6e617473 	mcrvs	4, 3, r7, cr1, cr3, {3}
     1b8:	5f796264 	svcpl	0x00796264
     1bc:	5f726d74 	svcpl	0x00726d74
     1c0:	00746573 	rsbseq	r6, r4, r3, ror r5
     1c4:	73625f5f 	cmnvc	r2, #380	; 0x17c
     1c8:	74735f73 	ldrbtvc	r5, [r3], #-3955	; 0xfffff08d
     1cc:	00747261 	rsbseq	r7, r4, r1, ror #4
     1d0:	61636f6c 	cmnvs	r3, ip, ror #30
     1d4:	6c705f6c 	ldclvs	15, cr5, [r0], #-432	; 0xfffffe50
     1d8:	6873006c 	ldmdavs	r3!, {r2, r3, r5, r6}^
     1dc:	2074726f 	rsbscs	r7, r4, pc, ror #4
     1e0:	00746e69 	rsbseq	r6, r4, r9, ror #28
     1e4:	45574f50 	ldrbmi	r4, [r7, #-3920]	; 0xfffff0b0
     1e8:	4f565f52 	svcmi	0x00565f52
     1ec:	444c5f4c 	strbmi	r5, [ip], #-3916	; 0xfffff0b4
     1f0:	5000314f 	andpl	r3, r0, pc, asr #2
     1f4:	5245574f 	subpl	r5, r5, #20709376	; 0x13c0000
     1f8:	4c4f565f 	mcrrmi	6, 5, r5, pc, cr15
     1fc:	4f444c5f 	svcmi	0x00444c5f
     200:	4f500032 	svcmi	0x00500032
     204:	5f524557 	svcpl	0x00524557
     208:	5f4c4f56 	svcpl	0x004c4f56
     20c:	334f444c 	movtcc	r4, #62540	; 0xf44c
     210:	574f5000 	strbpl	r5, [pc, -r0]
     214:	565f5245 	ldrbpl	r5, [pc], -r5, asr #4
     218:	4c5f4c4f 	mrrcmi	12, 4, r4, pc, cr15	; <UNPREDICTABLE>
     21c:	00344f44 	eorseq	r4, r4, r4, asr #30
     220:	676e6f6c 	strbvs	r6, [lr, -ip, ror #30]!
     224:	6e6f6c20 	cdpvs	12, 6, cr6, cr15, cr0, {1}
     228:	6e752067 	cdpvs	0, 7, cr2, cr5, cr7, {3}
     22c:	6e676973 	mcrvs	9, 3, r6, cr7, cr3, {3}
     230:	69206465 	stmdbvs	r0!, {r0, r2, r5, r6, sl, sp, lr}
     234:	6100746e 	tstvs	r0, lr, ror #8
     238:	655f7078 	ldrbvs	r7, [pc, #-120]	; 1c8 <__standby_start+0x1c8>
     23c:	746e6576 	strbtvc	r6, [lr], #-1398	; 0xfffffa8a
     240:	76656400 	strbtvc	r6, [r5], -r0, lsl #8
     244:	6464615f 	strbtvs	r6, [r4], #-351	; 0xfffffea1
     248:	70730072 	rsbsvc	r0, r3, r2, ror r0
     24c:	6361625f 	cmnvs	r1, #-268435451	; 0xf0000005
     250:	0070756b 	rsbseq	r7, r0, fp, ror #10
     254:	705f7761 	subsvc	r7, pc, r1, ror #14
     258:	6e695f6d 	cdpvs	15, 6, cr5, cr9, cr13, {3}
     25c:	70006f66 	andvc	r6, r0, r6, ror #30
     260:	7265776f 	rsbvc	r7, r5, #29097984	; 0x1bc0000
     264:	6c6f765f 	stclvs	6, cr7, [pc], #-380	; f0 <__standby_start+0xf0>
     268:	7079745f 	rsbsvc	r7, r9, pc, asr r4
     26c:	00655f65 	rsbeq	r5, r5, r5, ror #30
     270:	6e617473 	mcrvs	4, 3, r7, cr1, cr3, {3}
     274:	2e796264 	cdpcs	2, 7, cr6, cr9, cr4, {3}
     278:	4e490063 	cdpmi	0, 4, cr0, cr9, cr3, {3}
     27c:	4f535f54 	svcmi	0x00535f54
     280:	45435255 	strbmi	r5, [r3, #-597]	; 0xfffffdab
     284:	5458455f 	ldrbpl	r4, [r8], #-1375	; 0xfffffaa1
     288:	00494d4e 	subeq	r4, r9, lr, asr #26
     28c:	726f6873 	rsbvc	r6, pc, #7536640	; 0x730000
     290:	6e752074 	mrcvs	0, 3, r2, cr5, cr4, {3}
     294:	6e676973 	mcrvs	9, 3, r6, cr7, cr3, {3}
     298:	69206465 	stmdbvs	r0!, {r0, r2, r5, r6, sl, sp, lr}
     29c:	7300746e 	movwvc	r7, #1134	; 0x46e
     2a0:	646e6174 	strbtvs	r6, [lr], #-372	; 0xfffffe8c
     2a4:	635f7962 	cmpvs	pc, #1605632	; 0x188000
     2a8:	675f6b6c 	ldrbvs	r6, [pc, -ip, ror #22]
     2ac:	705f7465 	subsvc	r7, pc, r5, ror #8
     2b0:	665f6c6c 	ldrbvs	r6, [pc], -ip, ror #24
     2b4:	6f746361 	svcvs	0x00746361
     2b8:	682f0072 	stmdavs	pc!, {r1, r4, r5, r6}	; <UNPREDICTABLE>
     2bc:	2f656d6f 	svccs	0x00656d6f
     2c0:	72646e61 	rsbvc	r6, r4, #1552	; 0x610
     2c4:	2f64696f 	svccs	0x0064696f
     2c8:	6e72656b 	cdpvs	5, 7, cr6, cr2, cr11, {3}
     2cc:	612f6c65 	teqvs	pc, r5, ror #24
     2d0:	2f686372 	svccs	0x00686372
     2d4:	2f6d7261 	svccs	0x006d7261
     2d8:	6863616d 	stmdavs	r3!, {r0, r2, r3, r5, r6, r8, sp, lr}^
     2dc:	6e75732d 	cdpvs	3, 7, cr7, cr5, cr13, {1}
     2e0:	702f6935 	eorvc	r6, pc, r5, lsr r9	; <UNPREDICTABLE>
     2e4:	74732f6d 	ldrbtvc	r2, [r3], #-3949	; 0xfffff093
     2e8:	62646e61 	rsbvs	r6, r4, #1552	; 0x610
     2ec:	4e490079 	mcrmi	0, 2, r0, cr9, cr9, {3}
     2f0:	4f535f54 	svcmi	0x00535f54
     2f4:	45435255 	strbmi	r5, [r3, #-597]	; 0xfffffdab
     2f8:	41524c5f 	cmpmi	r2, pc, asr ip
     2fc:	5f004344 	svcpl	0x00004344
     300:	0038755f 	eorseq	r7, r8, pc, asr r5
     304:	5f544e49 	svcpl	0x00544e49
     308:	52554f53 	subspl	r4, r5, #332	; 0x14c
     30c:	545f4543 	ldrbpl	r4, [pc], #-1347	; 314 <__standby_start+0x314>
     310:	52454d49 	subpl	r4, r5, #4672	; 0x1240
     314:	4e490030 	mcrmi	0, 2, r0, cr9, cr0, {1}
     318:	4f535f54 	svcmi	0x00535f54
     31c:	45435255 	strbmi	r5, [r3, #-597]	; 0xfffffdab
     320:	4d49545f 	cfstrdmi	mvd5, [r9, #-380]	; 0xfffffe84
     324:	00315245 	eorseq	r5, r1, r5, asr #4
     328:	20554e47 	subscs	r4, r5, r7, asr #28
     32c:	2e342043 	cdpcs	0, 3, cr2, cr4, cr3, {2}
     330:	00312e35 	eorseq	r2, r1, r5, lsr lr
     334:	5f544e49 	svcpl	0x00544e49
     338:	52554f53 	subspl	r4, r5, #332	; 0x14c
     33c:	4b5f4543 	blmi	17d1850 <__standby_start+0x17d1850>
     340:	41505945 	cmpmi	r0, r5, asr #18
     344:	77610044 	strbvc	r0, [r1, -r4, asr #32]!
     348:	6174735f 	cmnvs	r4, pc, asr r3
     34c:	7962646e 	stmdbvc	r2!, {r1, r2, r3, r5, r6, sl, sp, lr}^
     350:	7261705f 	rsbvc	r7, r1, #95	; 0x5f
     354:	63640061 	cmnvs	r4, #97	; 0x61
     358:	00326364 	eorseq	r6, r2, r4, ror #6
     35c:	63646364 	cmnvs	r4, #100, 6	; 0x90000001
     360:	4e490033 	mcrmi	0, 2, r0, cr9, cr3, {1}
     364:	4f535f54 	svcmi	0x00535f54
     368:	45435255 	strbmi	r5, [r3, #-597]	; 0xfffffdab
     36c:	3052495f 	subscc	r4, r2, pc, asr r9
     370:	544e4900 	strbpl	r4, [lr], #-2304	; 0xfffff700
     374:	554f535f 	strbpl	r5, [pc, #-863]	; 1d <__standby_start+0x1d>
     378:	5f454352 	svcpl	0x00454352
     37c:	00315249 	eorseq	r5, r1, r9, asr #4
     380:	6e617473 	mcrvs	4, 3, r7, cr1, cr3, {3}
     384:	5f796264 	svcpl	0x00796264
     388:	5f6b6c63 	svcpl	0x006b6c63
     38c:	5f746573 	svcpl	0x00746573
     390:	5f6c6c70 	svcpl	0x006c6c70
     394:	74636166 	strbtvc	r6, [r3], #-358	; 0xfffffe9a
     398:	4900726f 	stmdbmi	r0, {r0, r1, r2, r3, r5, r6, r9, ip, sp, lr}
     39c:	535f544e 	cmppl	pc, #1308622848	; 0x4e000000
     3a0:	4352554f 	cmpmi	r2, #331350016	; 0x13c00000
     3a4:	4c415f45 	mcrrmi	15, 4, r5, r1, cr5
     3a8:	004d5241 	subeq	r5, sp, r1, asr #4
     3ac:	74636146 	strbtvc	r6, [r3], #-326	; 0xfffffeba
     3b0:	004b726f 	subeq	r7, fp, pc, ror #4
     3b4:	74736564 	ldrbtvc	r6, [r3], #-1380	; 0xfffffa9c
     3b8:	61747300 	cmnvs	r4, r0, lsl #6
     3bc:	7962646e 	stmdbvc	r2!, {r1, r2, r3, r5, r6, sl, sp, lr}^
     3c0:	65646d5f 	strbvs	r6, [r4, #-3423]!	; 0xfffff2a1
     3c4:	0079616c 	rsbseq	r6, r9, ip, ror #2
     3c8:	5f706d74 	svcpl	0x00706d74
     3cc:	00747364 	rsbseq	r7, r4, r4, ror #6
     3d0:	5f757063 	svcpl	0x00757063
     3d4:	6c5f736d 	mrrcvs	3, 6, r7, pc, cr13	; <UNPREDICTABLE>
     3d8:	63706f6f 	cmnvs	r0, #444	; 0x1bc
     3dc:	7300746e 	movwvc	r7, #1134	; 0x46e
     3e0:	646e6174 	strbtvs	r6, [lr], #-372	; 0xfffffe8c
     3e4:	6d5f7962 	ldclvs	9, cr7, [pc, #-392]	; 264 <__standby_start+0x264>
     3e8:	70636d65 	rsbvc	r6, r3, r5, ror #26
     3ec:	6d740079 	ldclvs	0, cr0, [r4, #-484]!	; 0xfffffe1c
     3f0:	72735f70 	rsbsvc	r5, r3, #112, 30	; 0x1c0
     3f4:	6f630063 	svcvs	0x00630063
     3f8:	6e6f6d6d 	cdpvs	13, 6, cr6, cr15, cr13, {3}
     3fc:	5000632e 	andpl	r6, r0, lr, lsr #6
     400:	54356c6c 	ldrtpl	r6, [r5], #-3180	; 0xfffff394
     404:	00656e75 	rsbeq	r6, r5, r5, ror lr
     408:	65766157 	ldrbvs	r6, [r6, #-343]!	; 0xfffffea9
     40c:	70657453 	rsbvc	r7, r5, r3, asr r4
     410:	635f5f00 	cmpvs	pc, #0, 30
     414:	5f756d63 	svcpl	0x00756d63
     418:	63626861 	cmnvs	r2, #6356992	; 0x610000
     41c:	675f6b6c 	ldrbvs	r6, [pc, -ip, ror #22]
     420:	30657461 	rsbcc	r7, r5, r1, ror #8
     424:	6765725f 			; <UNDEFINED> instruction: 0x6765725f
     428:	30363030 	eorscc	r3, r6, r0, lsr r0
     42c:	5000745f 	andpl	r7, r0, pc, asr r4
     430:	54356c6c 	ldrtpl	r6, [r5], #-3180	; 0xfffff394
     434:	32656e75 	rsbcc	r6, r5, #1872	; 0x750
     438:	43655600 	cmnmi	r5, #0, 12
     43c:	54006b6c 	strpl	r6, [r0], #-2924	; 0xfffff494
     440:	65526576 	ldrbvs	r6, [r2, #-1398]	; 0xfffffa8a
     444:	00746573 	rsbseq	r6, r4, r3, ror r5
     448:	63635f5f 	cmnvs	r3, #380	; 0x17c
     44c:	685f756d 	ldmdavs	pc, {r0, r2, r3, r5, r6, r8, sl, ip, sp, lr}^	; <UNPREDICTABLE>
     450:	5f696d64 	svcpl	0x00696d64
     454:	5f6b6c63 	svcpl	0x006b6c63
     458:	30676572 	rsbcc	r6, r7, r2, ror r5
     45c:	5f303531 	svcpl	0x00303531
     460:	5f5f0074 	svcpl	0x005f0074
     464:	554d4343 	strbpl	r4, [sp, #-835]	; 0xfffffcbd
     468:	4248415f 	submi	r4, r8, #-1073741801	; 0xc0000017
     46c:	5f4b4c43 	svcpl	0x004b4c43
     470:	45544147 	ldrbmi	r4, [r4, #-327]	; 0xfffffeb9
     474:	45525f30 	ldrbmi	r5, [r2, #-3888]	; 0xfffff0d0
     478:	36303047 	ldrtcc	r3, [r0], -r7, asr #32
     47c:	624d0030 	subvs	r0, sp, #48	; 0x30
     480:	6c437375 	mcrrvs	3, 7, r7, r3, cr5
     484:	7354006b 	cmpvc	r4, #107	; 0x6b
     488:	65746147 	ldrbvs	r6, [r4, #-327]!	; 0xfffffeb9
     48c:	69705300 	ldmdbvs	r0!, {r8, r9, ip, lr}^
     490:	6b6c4331 	blvs	1b1115c <__standby_start+0x1b1115c>
     494:	64634c00 	strbtvs	r4, [r3], #-3072	; 0xfffff400
     498:	30684330 	rsbcc	r4, r8, r0, lsr r3
     49c:	006b6c43 	rsbeq	r6, fp, r3, asr #24
     4a0:	43435f5f 	movtmi	r5, #16223	; 0x3f5f
     4a4:	505f554d 	subspl	r5, pc, sp, asr #10
     4a8:	5f324c4c 	svcpl	0x00324c4c
     4ac:	494e5554 	stmdbmi	lr, {r2, r4, r6, r8, sl, ip, lr}^
     4b0:	525f474e 	subspl	r4, pc, #20447232	; 0x1380000
     4b4:	30304745 	eorscc	r4, r0, r5, asr #14
     4b8:	56004330 			; <UNDEFINED> instruction: 0x56004330
     4bc:	61474f43 	mrsvs	r4, SPSR
     4c0:	74436e69 	strbvc	r6, [r3], #-3689	; 0xfffff197
     4c4:	7473006c 	ldrbtvc	r0, [r3], #-108	; 0xffffff94
     4c8:	62646e61 	rsbvs	r6, r4, #1552	; 0x610
     4cc:	6c635f79 	stclvs	15, cr5, [r3], #-484	; 0xfffffe1c
     4d0:	78655f6b 	stmdavc	r5!, {r0, r1, r3, r5, r6, r8, r9, sl, fp, ip, lr}^
     4d4:	5f007469 	svcpl	0x00007469
     4d8:	4d43435f 	stclmi	3, cr4, [r3, #-380]	; 0xfffffe84
     4dc:	45465f55 	strbmi	r5, [r6, #-3925]	; 0xfffff0ab
     4e0:	504d4544 	subpl	r4, sp, r4, asr #10
     4e4:	4b4c435f 	blmi	1311268 <__standby_start+0x1311268>
     4e8:	435f5f00 	cmpmi	pc, #0, 30
     4ec:	5f554d43 	svcpl	0x00554d43
     4f0:	4d415244 	sfmmi	f5, 2, [r1, #-272]	; 0xfffffef0
     4f4:	5441475f 	strbpl	r4, [r1], #-1887	; 0xfffff8a1
     4f8:	45525f45 	ldrbmi	r5, [r2, #-3909]	; 0xfffff0bb
     4fc:	30313047 	eorscc	r3, r1, r7, asr #32
     500:	5f5f0030 	svcpl	0x005f0030
     504:	756d6363 	strbvc	r6, [sp, #-867]!	; 0xfffffc9d
     508:	6464615f 	strbtvs	r6, [r4], #-351	; 0xfffffea1
     50c:	6c635f61 	stclvs	15, cr5, [r3], #-388	; 0xfffffe7c
     510:	65725f6b 	ldrbvs	r5, [r2, #-3947]!	; 0xfffff095
     514:	34313067 	ldrtcc	r3, [r1], #-103	; 0xffffff99
     518:	00745f30 	rsbseq	r5, r4, r0, lsr pc
     51c:	63635f5f 	cmnvs	r3, #380	; 0x17c
     520:	645f756d 	ldrbvs	r7, [pc], #-1389	; 528 <__standby_start+0x528>
     524:	5f6d6172 	svcpl	0x006d6172
     528:	65746167 	ldrbvs	r6, [r4, #-359]!	; 0xfffffe99
     52c:	6765725f 			; <UNDEFINED> instruction: 0x6765725f
     530:	30303130 	eorscc	r3, r0, r0, lsr r1
     534:	5000745f 	andpl	r7, r0, pc, asr r4
     538:	4474736f 	ldrbtmi	r7, [r4], #-879	; 0xfffffc91
     53c:	53007669 	movwpl	r7, #1641	; 0x669
     540:	47306970 			; <UNDEFINED> instruction: 0x47306970
     544:	00657461 	rsbeq	r7, r5, r1, ror #8
     548:	6d4d6453 	cfstrdvs	mvd6, [sp, #-332]	; 0xfffffeb4
     54c:	6c433063 	mcrrvs	0, 6, r3, r3, cr3
     550:	6c43006b 	mcrrvs	0, 6, r0, r3, cr11
     554:	6572506b 	ldrbvs	r5, [r2, #-107]!	; 0xffffff95
     558:	00766944 	rsbseq	r6, r6, r4, asr #18
     55c:	474f4356 	smlsldmi	r4, pc, r6, r3	; <UNPREDICTABLE>
     560:	456e6961 	strbmi	r6, [lr, #-2401]!	; 0xfffff69f
     564:	4c50006e 	mrrcmi	0, 6, r0, r0, cr14	; <UNPREDICTABLE>
     568:	506e494c 	rsbpl	r4, lr, ip, asr #18
     56c:	7265776f 	rsbvc	r7, r5, #29097984	; 0x1bc0000
     570:	435f5f00 	cmpmi	pc, #0, 30
     574:	5f554d43 	svcpl	0x00554d43
     578:	5344564c 	movtpl	r5, #17996	; 0x464c
     57c:	4b4c435f 	blmi	1311300 <__standby_start+0x1311300>
     580:	4745525f 	smlsldmi	r5, r5, pc, r2	; <UNPREDICTABLE>
     584:	43343130 	teqmi	r4, #48, 2
     588:	6f695000 	svcvs	0x00695000
     58c:	65746147 	ldrbvs	r6, [r4, #-327]!	; 0xfffffeb9
     590:	6c6c5000 	stclvs	0, cr5, [ip], #-0
     594:	6c744334 	ldclvs	3, cr4, [r4], #-208	; 0xffffff30
     598:	61747300 	cmnvs	r4, r0, lsl #6
     59c:	7962646e 	stmdbvc	r2!, {r1, r2, r3, r5, r6, sl, sp, lr}^
     5a0:	6b6c635f 	blvs	1b19324 <__standby_start+0x1b19324>
     5a4:	726f635f 	rsbvc	r6, pc, #2080374785	; 0x7c000001
     5a8:	6f683265 	svcvs	0x00683265
     5ac:	5f006373 	svcpl	0x00006373
     5b0:	6d63635f 	stclvs	3, cr6, [r3, #-380]!	; 0xfffffe84
     5b4:	6c705f75 	ldclvs	15, cr5, [r0], #-468	; 0xfffffe2c
     5b8:	745f316c 	ldrbvc	r3, [pc], #-364	; 5c0 <__standby_start+0x5c0>
     5bc:	6e696e75 	mcrvs	14, 3, r6, cr9, cr5, {3}
     5c0:	725f3267 	subsvc	r3, pc, #1879048198	; 0x70000006
     5c4:	30306765 	eorscc	r6, r0, r5, ror #14
     5c8:	745f3833 	ldrbvc	r3, [pc], #-2099	; 5d0 <__standby_start+0x5d0>
     5cc:	435f5f00 	cmpmi	pc, #0, 30
     5d0:	5f554d43 	svcpl	0x00554d43
     5d4:	55444f4d 	strbpl	r4, [r4, #-3917]	; 0xfffff0b3
     5d8:	5f31454c 	svcpl	0x0031454c
     5dc:	004b4c43 	subeq	r4, fp, r3, asr #24
     5e0:	6e617473 	mcrvs	4, 3, r7, cr1, cr3, {3}
     5e4:	5f796264 	svcpl	0x00796264
     5e8:	5f6b6c63 	svcpl	0x006b6c63
     5ec:	65627061 	strbvs	r7, [r2, #-97]!	; 0xffffff9f
     5f0:	00746978 	rsbseq	r6, r4, r8, ror r9
     5f4:	454f444c 	strbmi	r4, [pc, #-1100]	; 1b0 <__standby_start+0x1b0>
     5f8:	5f5f006e 	svcpl	0x005f006e
     5fc:	756d6363 	strbvc	r6, [sp, #-867]!	; 0xfffffc9d
     600:	6c6c705f 	stclvs	0, cr7, [ip], #-380	; 0xfffffe84
     604:	61735f36 	cmnvs	r3, r6, lsr pc
     608:	725f6174 	subsvc	r6, pc, #116, 2
     60c:	30306765 	eorscc	r6, r0, r5, ror #14
     610:	745f3832 	ldrbvc	r3, [pc], #-2098	; 618 <__standby_start+0x618>
     614:	6e614200 	cdpvs	2, 6, cr4, cr1, cr0, {0}
     618:	64695764 	strbtvs	r5, [r9], #-1892	; 0xfffff89c
     61c:	53006874 	movwpl	r6, #2164	; 0x874
     620:	6b6c4373 	blvs	1b113f4 <__standby_start+0x1b113f4>
     624:	62735500 	rsbsvs	r5, r3, #0, 10
     628:	006b6c43 	rsbeq	r6, fp, r3, asr #24
     62c:	63635f5f 	cmnvs	r3, #380	; 0x17c
     630:	6c5f756d 	cfldr64vs	mvdx7, [pc], {109}	; 0x6d
     634:	68636463 	stmdavs	r3!, {r0, r1, r5, r6, sl, sp, lr}^
     638:	6c635f30 	stclvs	15, cr5, [r3], #-192	; 0xffffff40
     63c:	00745f6b 	rsbseq	r5, r4, fp, ror #30
     640:	3064634c 	rsbcc	r6, r4, ip, asr #6
     644:	43316843 	teqmi	r1, #4390912	; 0x430000
     648:	5f006b6c 	svcpl	0x00006b6c
     64c:	6d63635f 	stclvs	3, cr6, [r3, #-380]!	; 0xfffffe84
     650:	626d5f75 	rsbvs	r5, sp, #468	; 0x1d4
     654:	635f7375 	cmpvs	pc, #-738197503	; 0xd4000001
     658:	725f6b6c 	subsvc	r6, pc, #108, 22	; 0x1b000
     65c:	31306765 	teqcc	r0, r5, ror #14
     660:	745f6335 	ldrbvc	r6, [pc], #-821	; 668 <__standby_start+0x668>
     664:	435f5f00 	cmpmi	pc, #0, 30
     668:	5f554d43 	svcpl	0x00554d43
     66c:	494d4448 	stmdbmi	sp, {r3, r6, sl, lr}^
     670:	4b4c435f 	blmi	13113f4 <__standby_start+0x13113f4>
     674:	4745525f 	smlsldmi	r5, r5, pc, r2	; <UNPREDICTABLE>
     678:	30353130 	eorscc	r3, r5, r0, lsr r1
     67c:	73657200 	cmnvc	r5, #0, 4
     680:	65767265 	ldrbvs	r7, [r6, #-613]!	; 0xfffffd9b
     684:	41003564 	tstmi	r0, r4, ror #10
     688:	47306270 			; <UNDEFINED> instruction: 0x47306270
     68c:	00657461 	rsbeq	r7, r5, r1, ror #8
     690:	65736572 	ldrbvs	r6, [r3, #-1394]!	; 0xfffffa8e
     694:	64657672 	strbtvs	r7, [r5], #-1650	; 0xfffff98e
     698:	70530038 	subsvc	r0, r3, r8, lsr r0
     69c:	6c436365 	mcrrvs	3, 6, r6, r3, cr5
     6a0:	7253316b 	subsvc	r3, r3, #-1073741798	; 0xc000001a
     6a4:	5f5f0063 	svcpl	0x005f0063
     6a8:	554d4343 	strbpl	r4, [sp, #-835]	; 0xfffffcbd
     6ac:	4c4c505f 	mcrrmi	0, 5, r5, ip, cr15
     6b0:	44445f35 	strbmi	r5, [r4], #-3893	; 0xfffff0cb
     6b4:	45525f52 	ldrbmi	r5, [r2, #-3922]	; 0xfffff0ae
     6b8:	32303047 	eorscc	r3, r0, #71	; 0x47
     6bc:	6f480030 	svcvs	0x00480030
     6c0:	74436373 	strbvc	r6, [r3], #-883	; 0xfffffc8d
     6c4:	5f5f006c 	svcpl	0x005f006c
     6c8:	756d6363 	strbvc	r6, [sp, #-867]!	; 0xfffffc9d
     6cc:	6c6c705f 	stclvs	0, cr7, [ip], #-380	; 0xfffffe84
     6d0:	75745f31 	ldrbvc	r5, [r4, #-3889]!	; 0xfffff0cf
     6d4:	676e696e 	strbvs	r6, [lr, -lr, ror #18]!
     6d8:	6765725f 			; <UNDEFINED> instruction: 0x6765725f
     6dc:	34303030 	ldrtcc	r3, [r0], #-48	; 0xffffffd0
     6e0:	5f00745f 	svcpl	0x0000745f
     6e4:	4d43435f 	stclmi	3, cr4, [r3, #-380]	; 0xfffffe84
     6e8:	4c505f55 	mrrcmi	15, 5, r5, r0, cr5
     6ec:	565f344c 	ldrbpl	r3, [pc], -ip, asr #8
     6f0:	45525f45 	ldrbmi	r5, [r2, #-3909]	; 0xfffff0bb
     6f4:	31303047 	teqcc	r0, r7, asr #32
     6f8:	5f5f0038 	svcpl	0x005f0038
     6fc:	756d6363 	strbvc	r6, [sp, #-867]!	; 0xfffffc9d
     700:	6270615f 	rsbsvs	r6, r0, #-1073741801	; 0xc0000017
     704:	6b6c6331 	blvs	1b193d0 <__standby_start+0x1b193d0>
     708:	7461725f 	strbtvc	r7, [r1], #-607	; 0xfffffda1
     70c:	725f6f69 	subsvc	r6, pc, #420	; 0x1a4
     710:	30306765 	eorscc	r6, r0, r5, ror #14
     714:	745f3835 	ldrbvc	r3, [pc], #-2101	; 71c <__standby_start+0x71c>
     718:	61747300 	cmnvs	r4, r0, lsl #6
     71c:	7962646e 	stmdbvc	r2!, {r1, r2, r3, r5, r6, sl, sp, lr}^
     720:	6b6c635f 	blvs	1b194a4 <__standby_start+0x1b194a4>
     724:	736f685f 	cmnvc	pc, #6225920	; 0x5f0000
     728:	73696463 	cmnvc	r9, #1660944384	; 0x63000000
     72c:	656c6261 	strbvs	r6, [ip, #-609]!	; 0xfffffd9f
     730:	4f444c00 	svcmi	0x00444c00
     734:	7074754f 	rsbsvc	r7, r4, pc, asr #10
     738:	5f007475 	svcpl	0x00007475
     73c:	6d63635f 	stclvs	3, cr6, [r3, #-380]!	; 0xfffffe84
     740:	73755f75 	cmnvc	r5, #468	; 0x1d4
     744:	6c635f62 	stclvs	15, cr5, [r3], #-392	; 0xfffffe78
     748:	65725f6b 	ldrbvs	r5, [r2, #-3947]!	; 0xfffff095
     74c:	63303067 	teqvs	r0, #103	; 0x67
     750:	00745f63 	rsbseq	r5, r4, r3, ror #30
     754:	6147734d 	mrsvs	r7, SPSR
     758:	41006574 	tstmi	r0, r4, ror r5
     75c:	47316270 			; <UNDEFINED> instruction: 0x47316270
     760:	00657461 	rsbeq	r7, r5, r1, ror #8
     764:	43435f5f 	movtmi	r5, #16223	; 0x3f5f
     768:	505f554d 	subspl	r5, pc, sp, asr #10
     76c:	5f364c4c 	svcpl	0x00364c4c
     770:	41544153 	cmpmi	r4, r3, asr r1
     774:	4745525f 	smlsldmi	r5, r5, pc, r2	; <UNPREDICTABLE>
     778:	38323030 	ldmdacc	r2!, {r4, r5, ip, sp}
     77c:	72615500 	rsbvc	r5, r1, #0, 10
     780:	61473274 	cmpvs	r7, r4, ror r2
     784:	4d006574 	cfstr32mi	mvfx6, [r0, #-464]	; 0xfffffe30
     788:	6b6c4373 	blvs	1b1155c <__standby_start+0x1b1155c>
     78c:	635f5f00 	cmpvs	pc, #0, 30
     790:	5f756d63 	svcpl	0x00756d63
     794:	75646f6d 	strbvc	r6, [r4, #-3949]!	; 0xfffff093
     798:	5f31656c 	svcpl	0x0031656c
     79c:	5f6b6c63 	svcpl	0x006b6c63
     7a0:	5f5f0074 	svcpl	0x005f0074
     7a4:	756d6363 	strbvc	r6, [sp, #-867]!	; 0xfffffc9d
     7a8:	63736f5f 	cmnvs	r3, #380	; 0x17c
     7ac:	5f6d3432 	svcpl	0x006d3432
     7b0:	30676572 	rsbcc	r6, r7, r2, ror r5
     7b4:	5f303530 	svcpl	0x00303530
     7b8:	64530074 	ldrbvs	r0, [r3], #-116	; 0xffffff8c
     7bc:	32636d4d 	rsbcc	r6, r3, #4928	; 0x1340
     7c0:	006b6c43 	rsbeq	r6, fp, r3, asr #24
     7c4:	43435f5f 	movtmi	r5, #16223	; 0x3f5f
     7c8:	4d5f554d 	cfldr64mi	mvdx5, [pc, #-308]	; 69c <__standby_start+0x69c>
     7cc:	5f535542 	svcpl	0x00535542
     7d0:	5f4b4c43 	svcpl	0x004b4c43
     7d4:	30474552 	subcc	r4, r7, r2, asr r5
     7d8:	00433531 	subeq	r3, r3, r1, lsr r5
     7dc:	3064634c 	rsbcc	r6, r4, ip, asr #6
     7e0:	65746147 	ldrbvs	r6, [r4, #-327]!	; 0xfffffeb9
     7e4:	76694400 	strbtvc	r4, [r9], -r0, lsl #8
     7e8:	7355004d 	cmpvc	r5, #77	; 0x4d
     7ec:	61473062 	mrsvs	r3, SPSR
     7f0:	5f006574 	svcpl	0x00006574
     7f4:	6d63635f 	stclvs	3, cr6, [r3, #-380]!	; 0xfffffe84
     7f8:	6c705f75 	ldclvs	15, cr5, [r0], #-468	; 0xfffffe2c
     7fc:	645f356c 	ldrbvs	r3, [pc], #-1388	; 804 <__standby_start+0x804>
     800:	725f7264 	subsvc	r7, pc, #100, 4	; 0x40000006
     804:	30306765 	eorscc	r6, r0, r5, ror #14
     808:	745f3032 	ldrbvc	r3, [pc], #-50	; 810 <__standby_start+0x810>
     80c:	635f5f00 	cmpvs	pc, #0, 30
     810:	5f756d63 	svcpl	0x00756d63
     814:	326c6c70 	rsbcc	r6, ip, #112, 24	; 0x7000
     818:	6475615f 	ldrbtvs	r6, [r5], #-351	; 0xfffffea1
     81c:	725f6f69 	subsvc	r6, pc, #420	; 0x1a4
     820:	30306765 	eorscc	r6, r0, r5, ror #14
     824:	745f3830 	ldrbvc	r3, [pc], #-2096	; 82c <__standby_start+0x82c>
     828:	435f5f00 	cmpmi	pc, #0, 30
     82c:	5f554d43 	svcpl	0x00554d43
     830:	5f535641 	svcpl	0x00535641
     834:	5f4b4c43 	svcpl	0x004b4c43
     838:	30474552 	subcc	r4, r7, r2, asr r5
     83c:	00343431 	eorseq	r3, r4, r1, lsr r4
     840:	71657246 	cmnvc	r5, r6, asr #4
     844:	65646f4d 	strbvs	r6, [r4, #-3917]!	; 0xfffff0b3
     848:	4c4c5000 	marmi	acc0, r5, ip
     84c:	50766944 	rsbspl	r6, r6, r4, asr #18
     850:	69775400 	ldmdbvs	r7!, {sl, ip, lr}^
     854:	74614730 	strbtvc	r4, [r1], #-1840	; 0xfffff8d0
     858:	6c500065 	mrrcvs	0, 6, r0, r0, cr5	; <UNPREDICTABLE>
     85c:	7554316c 	ldrbvc	r3, [r4, #-364]	; 0xfffffe94
     860:	6300656e 	movwvs	r6, #1390	; 0x56e
     864:	725f7563 	subsvc	r7, pc, #415236096	; 0x18c00000
     868:	625f6765 	subsvs	r6, pc, #26476544	; 0x1940000
     86c:	006b6361 	rsbeq	r6, fp, r1, ror #6
     870:	43435f5f 	movtmi	r5, #16223	; 0x3f5f
     874:	415f554d 	cmpmi	pc, sp, asr #10
     878:	4c434248 	sfmmi	f4, 2, [r3], {72}	; 0x48
     87c:	41475f4b 	mrsmi	r5, SPSR
     880:	5f314554 	svcpl	0x00314554
     884:	30474552 	subcc	r4, r7, r2, asr r5
     888:	00343630 	eorseq	r3, r4, r0, lsr r6
     88c:	31697053 	qdsubcc	r7, r3, r9
     890:	65746147 	ldrbvs	r6, [r4, #-327]!	; 0xfffffeb9
     894:	73694200 	cmnvc	r9, #0, 4
     898:	74614774 	strbtvc	r4, [r1], #-1908	; 0xfffff88c
     89c:	5f5f0065 	svcpl	0x005f0065
     8a0:	756d6363 	strbvc	r6, [sp, #-867]!	; 0xfffffc9d
     8a4:	6973635f 	ldmdbvs	r3!, {r0, r1, r2, r3, r4, r6, r8, r9, sp, lr}^
     8a8:	6b6c635f 	blvs	1b1962c <__standby_start+0x1b1962c>
     8ac:	4100745f 	tstmi	r0, pc, asr r4
     8b0:	6c434248 	sfmvs	f4, 2, [r3], {72}	; 0x48
     8b4:	7669446b 	strbtvc	r4, [r9], -fp, ror #8
     8b8:	6d645300 	stclvs	3, cr5, [r4, #-0]
     8bc:	4730636d 	ldrmi	r6, [r0, -sp, ror #6]!
     8c0:	00657461 	rsbeq	r7, r5, r1, ror #8
     8c4:	63635f5f 	cmnvs	r3, #380	; 0x17c
     8c8:	615f756d 	cmpvs	pc, sp, ror #10
     8cc:	6c636268 	sfmvs	f6, 2, [r3], #-416	; 0xfffffe60
     8d0:	61675f6b 	cmnvs	r7, fp, ror #30
     8d4:	5f316574 	svcpl	0x00316574
     8d8:	30676572 	rsbcc	r6, r7, r2, ror r5
     8dc:	5f343630 	svcpl	0x00343630
     8e0:	5f5f0074 	svcpl	0x005f0074
     8e4:	756d6363 	strbvc	r6, [sp, #-867]!	; 0xfffffc9d
     8e8:	6c616d5f 	stclvs	13, cr6, [r1], #-380	; 0xfffffe84
     8ec:	30303469 	eorscc	r3, r0, r9, ror #8
     8f0:	6b6c635f 	blvs	1b19674 <__standby_start+0x1b19674>
     8f4:	6765725f 			; <UNDEFINED> instruction: 0x6765725f
     8f8:	34353130 	ldrtcc	r3, [r5], #-304	; 0xfffffed0
     8fc:	4300745f 	movwmi	r7, #1119	; 0x45f
     900:	43306973 	teqmi	r0, #1884160	; 0x1cc000
     904:	73006b6c 	movwvc	r6, #2924	; 0xb6c
     908:	646e6174 	strbtvs	r6, [lr], #-372	; 0xfffffe8c
     90c:	635f7962 	cmpvs	pc, #1605632	; 0x188000
     910:	645f6b6c 	ldrbvs	r6, [pc], #-2924	; 918 <__standby_start+0x918>
     914:	676d6172 			; <UNDEFINED> instruction: 0x676d6172
     918:	6e697461 	cdpvs	4, 6, cr7, cr9, cr1, {3}
     91c:	72560067 	subsvc	r0, r6, #103	; 0x67
     920:	754f6765 	strbvc	r6, [pc, #-1893]	; 1c3 <__standby_start+0x1c3>
     924:	006e4574 	rsbeq	r4, lr, r4, ror r5
     928:	6e617473 	mcrvs	4, 3, r7, cr1, cr3, {3}
     92c:	5f796264 	svcpl	0x00796264
     930:	5f6b6c63 	svcpl	0x006b6c63
     934:	65726f63 	ldrbvs	r6, [r2, #-3939]!	; 0xfffff09d
     938:	6c6c7032 	stclvs	0, cr7, [ip], #-200	; 0xffffff38
     93c:	635f5f00 	cmpvs	pc, #0, 30
     940:	5f756d63 	svcpl	0x00756d63
     944:	5f737067 	svcpl	0x00737067
     948:	5f6b6c63 	svcpl	0x006b6c63
     94c:	30676572 	rsbcc	r6, r7, r2, ror r5
     950:	5f306430 	svcpl	0x00306430
     954:	68410074 	stmdavs	r1, {r2, r4, r5, r6}^
     958:	74614762 	strbtvc	r4, [r1], #-1890	; 0xfffff89e
     95c:	41003065 	tstmi	r0, r5, rrx
     960:	61476268 	mrsvs	r6, SPSR
     964:	00316574 	eorseq	r6, r1, r4, ror r5
     968:	43733249 	cmnmi	r3, #-1879048188	; 0x90000004
     96c:	5f006b6c 	svcpl	0x00006b6c
     970:	4d43435f 	stclmi	3, cr4, [r3, #-380]	; 0xfffffe84
     974:	53435f55 	movtpl	r5, #16213	; 0x3f55
     978:	4c435f49 	mcrrmi	15, 4, r5, r3, cr9
     97c:	5f5f004b 	svcpl	0x005f004b
     980:	756d6363 	strbvc	r6, [sp, #-867]!	; 0xfffffc9d
     984:	79656b5f 	stmdbvc	r5!, {r0, r1, r2, r3, r4, r6, r8, r9, fp, sp, lr}^
     988:	5f646170 	svcpl	0x00646170
     98c:	5f6b6c63 	svcpl	0x006b6c63
     990:	30676572 	rsbcc	r6, r7, r2, ror r5
     994:	5f346330 	svcpl	0x00346330
     998:	6c500074 	mrrcvs	0, 7, r0, r0, cr4	; <UNPREDICTABLE>
     99c:	7443316c 	strbvc	r3, [r3], #-364	; 0xfffffe94
     9a0:	6144006c 	mrsvs	r0, SPSR
     9a4:	6146706d 	mrsvs	r7, SPSR
     9a8:	726f7463 	rsbvc	r7, pc, #1660944384	; 0x63000000
     9ac:	79654b00 	stmdbvc	r5!, {r8, r9, fp, lr}^
     9b0:	47646170 			; <UNDEFINED> instruction: 0x47646170
     9b4:	00657461 	rsbeq	r7, r5, r1, ror #8
     9b8:	32697053 	rsbcc	r7, r9, #83	; 0x53
     9bc:	65746147 	ldrbvs	r6, [r4, #-327]!	; 0xfffffeb9
     9c0:	46654400 	strbtmi	r4, [r5], -r0, lsl #8
     9c4:	6c433065 	mcrrvs	0, 6, r3, r3, cr5
     9c8:	6c50006b 	mrrcvs	0, 6, r0, r0, cr11	; <UNPREDICTABLE>
     9cc:	6977536c 	ldmdbvs	r7!, {r2, r3, r5, r6, r8, r9, ip, lr}^
     9d0:	00686374 	rsbeq	r6, r8, r4, ror r3
     9d4:	30657654 	rsbcc	r7, r5, r4, asr r6
     9d8:	65746147 	ldrbvs	r6, [r4, #-327]!	; 0xfffffeb9
     9dc:	61747300 	cmnvs	r4, r0, lsl #6
     9e0:	7962646e 	stmdbvc	r2!, {r1, r2, r3, r5, r6, sl, sp, lr}^
     9e4:	6b6c635f 	blvs	1b19768 <__standby_start+0x1b19768>
     9e8:	696e695f 	stmdbvs	lr!, {r0, r1, r2, r3, r4, r6, r8, fp, sp, lr}^
     9ec:	5f5f0074 	svcpl	0x005f0074
     9f0:	756d6363 	strbvc	r6, [sp, #-867]!	; 0xfffffc9d
     9f4:	6c6c705f 	stclvs	0, cr7, [ip], #-380	; 0xfffffe84
     9f8:	6f635f31 	svcvs	0x00635f31
     9fc:	725f6572 	subsvc	r6, pc, #478150656	; 0x1c800000
     a00:	30306765 	eorscc	r6, r0, r5, ror #14
     a04:	745f3030 	ldrbvc	r3, [pc], #-48	; a0c <__standby_start+0xa0c>
     a08:	65705300 	ldrbvs	r5, [r0, #-768]!	; 0xfffffd00
     a0c:	6b6c4363 	blvs	1b117a0 <__standby_start+0x1b117a0>
     a10:	74614732 	strbtvc	r4, [r1], #-1842	; 0xfffff8ce
     a14:	72490065 	subvc	r0, r9, #101	; 0x65
     a18:	6b6c4330 	blvs	1b116e0 <__standby_start+0x1b116e0>
     a1c:	62704100 	rsbsvs	r4, r0, #0, 2
     a20:	6b6c4331 	blvs	1b116ec <__standby_start+0x1b116ec>
     a24:	00766944 	rsbseq	r6, r6, r4, asr #18
     a28:	6e617473 	mcrvs	4, 3, r7, cr1, cr3, {3}
     a2c:	5f796264 	svcpl	0x00796264
     a30:	5f6b6c63 	svcpl	0x006b6c63
     a34:	656f646c 	strbvs	r6, [pc, #-1132]!	; 5d0 <__standby_start+0x5d0>
     a38:	6c62616e 	stfvse	f6, [r2], #-440	; 0xfffffe48
     a3c:	5f5f0065 	svcpl	0x005f0065
     a40:	554d4343 	strbpl	r4, [sp, #-835]	; 0xfffffcbd
     a44:	4c414d5f 	mcrrmi	13, 5, r4, r1, cr15
     a48:	30303449 	eorscc	r3, r0, r9, asr #8
     a4c:	4b4c435f 	blmi	13117d0 <__standby_start+0x13117d0>
     a50:	4745525f 	smlsldmi	r5, r5, pc, r2	; <UNPREDICTABLE>
     a54:	34353130 	ldrtcc	r3, [r5], #-304	; 0xfffffed0
     a58:	61747300 	cmnvs	r4, r0, lsl #6
     a5c:	7962646e 	stmdbvc	r2!, {r1, r2, r3, r5, r6, sl, sp, lr}^
     a60:	6b6c635f 	blvs	1b197e4 <__standby_start+0x1b197e4>
     a64:	726f635f 	rsbvc	r6, pc, #2080374785	; 0x7c000001
     a68:	6f6c3265 	svcvs	0x006c3265
     a6c:	72006373 	andvc	r6, r0, #-872415231	; 0xcc000001
     a70:	72657365 	rsbvc	r7, r5, #-1811939327	; 0x94000001
     a74:	31646576 	smccc	18006	; 0x4656
     a78:	65720031 	ldrbvs	r0, [r2, #-49]!	; 0xffffffcf
     a7c:	76726573 			; <UNDEFINED> instruction: 0x76726573
     a80:	32316465 	eorscc	r6, r1, #1694498816	; 0x65000000
     a84:	73657200 	cmnvc	r5, #0, 4
     a88:	65767265 	ldrbvs	r7, [r6, #-613]!	; 0xfffffd9b
     a8c:	00333164 	eorseq	r3, r3, r4, ror #2
     a90:	43435f5f 	movtmi	r5, #16223	; 0x3f5f
     a94:	555f554d 	ldrbpl	r5, [pc, #-1357]	; 54f <__standby_start+0x54f>
     a98:	435f4253 	cmpmi	pc, #805306373	; 0x30000005
     a9c:	525f4b4c 	subspl	r4, pc, #76, 22	; 0x13000
     aa0:	30304745 	eorscc	r4, r0, r5, asr #14
     aa4:	72004343 	andvc	r4, r0, #201326593	; 0xc000001
     aa8:	72657365 	rsbvc	r7, r5, #-1811939327	; 0x94000001
     aac:	31646576 	smccc	18006	; 0x4656
     ab0:	65720035 	ldrbvs	r0, [r2, #-53]!	; 0xffffffcb
     ab4:	76726573 			; <UNDEFINED> instruction: 0x76726573
     ab8:	36316465 	ldrtcc	r6, [r1], -r5, ror #8
     abc:	73657200 	cmnvc	r5, #0, 4
     ac0:	65767265 	ldrbvs	r7, [r6, #-613]!	; 0xfffffd9b
     ac4:	00373164 	eorseq	r3, r7, r4, ror #2
     ac8:	65736572 	ldrbvs	r6, [r3, #-1394]!	; 0xfffffa8e
     acc:	64657672 	strbtvs	r7, [r5], #-1650	; 0xfffff98e
     ad0:	72003831 	andvc	r3, r0, #3211264	; 0x310000
     ad4:	72657365 	rsbvc	r7, r5, #-1811939327	; 0x94000001
     ad8:	31646576 	smccc	18006	; 0x4656
     adc:	69530039 	ldmdbvs	r3, {r0, r3, r4, r5}^
     ae0:	45616d67 	strbmi	r6, [r1, #-3431]!	; 0xfffff299
     ae4:	6850006e 	ldmdavs	r0, {r1, r2, r3, r5, r6}^
     ae8:	65705379 	ldrbvs	r5, [r0, #-889]!	; 0xfffffc87
     aec:	6b6c4363 	blvs	1b11880 <__standby_start+0x1b11880>
     af0:	65746147 	ldrbvs	r6, [r4, #-327]!	; 0xfffffeb9
     af4:	64705300 	ldrbtvs	r5, [r0], #-768	; 0xfffffd00
     af8:	61476669 	mrsvs	r6, SPSR
     afc:	57006574 	smlsdxpl	r0, r4, r5, r6
     b00:	42657661 	rsbmi	r7, r5, #101711872	; 0x6100000
     b04:	6f74746f 	svcvs	0x0074746f
     b08:	7473006d 	ldrbtvc	r0, [r3], #-109	; 0xffffff93
     b0c:	62646e61 	rsbvs	r6, r4, #1552	; 0x610
     b10:	6c635f79 	stclvs	15, cr5, [r3], #-484	; 0xfffffe1c
     b14:	70615f6b 	rsbvc	r5, r1, fp, ror #30
     b18:	696e6962 	stmdbvs	lr!, {r1, r5, r6, r8, fp, sp, lr}^
     b1c:	70530074 	subsvc	r0, r3, r4, ror r0
     b20:	6c433069 	mcrrvs	0, 6, r3, r3, cr9
     b24:	5f5f006b 	svcpl	0x005f006b
     b28:	554d4343 	strbpl	r4, [sp, #-835]	; 0xfffffcbd
     b2c:	444f4d5f 	strbmi	r4, [pc], #-3423	; b34 <__standby_start+0xb34>
     b30:	30454c55 	subcc	r4, r5, r5, asr ip
     b34:	4b4c435f 	blmi	13118b8 <__standby_start+0x13118b8>
     b38:	70654900 	rsbvc	r4, r5, r0, lsl #18
     b3c:	65746147 	ldrbvs	r6, [r4, #-327]!	; 0xfffffeb9
     b40:	61747300 	cmnvs	r4, r0, lsl #6
     b44:	7962646e 	stmdbvc	r2!, {r1, r2, r3, r5, r6, sl, sp, lr}^
     b48:	6b6c635f 	blvs	1b198cc <__standby_start+0x1b198cc>
     b4c:	6270615f 	rsbsvs	r6, r0, #-1073741801	; 0xc0000017
     b50:	736f6832 	cmnvc	pc, #3276800	; 0x320000
     b54:	5f5f0063 	svcpl	0x005f0063
     b58:	756d6363 	strbvc	r6, [sp, #-867]!	; 0xfffffc9d
     b5c:	7065695f 	rsbvc	r6, r5, pc, asr r9
     b60:	6b6c635f 	blvs	1b198e4 <__standby_start+0x1b198e4>
     b64:	6765725f 			; <UNDEFINED> instruction: 0x6765725f
     b68:	30363130 	eorscc	r3, r6, r0, lsr r1
     b6c:	7300745f 	movwvc	r7, #1119	; 0x45f
     b70:	646e6174 	strbtvs	r6, [lr], #-372	; 0xfffffe8c
     b74:	635f7962 	cmpvs	pc, #1605632	; 0x188000
     b78:	6b636f6c 	blvs	18dc930 <__standby_start+0x18dc930>
     b7c:	7200632e 	andvc	r6, r0, #-1207959552	; 0xb8000000
     b80:	72657365 	rsbvc	r7, r5, #-1811939327	; 0x94000001
     b84:	32646576 	rsbcc	r6, r4, #494927872	; 0x1d800000
     b88:	65720030 	ldrbvs	r0, [r2, #-48]!	; 0xffffffd0
     b8c:	76726573 			; <UNDEFINED> instruction: 0x76726573
     b90:	31326465 	teqcc	r2, r5, ror #8
     b94:	61747300 	cmnvs	r4, r0, lsl #6
     b98:	7962646e 	stmdbvc	r2!, {r1, r2, r3, r5, r6, sl, sp, lr}^
     b9c:	6b6c635f 	blvs	1b19920 <__standby_start+0x1b19920>
     ba0:	6f646c5f 	svcvs	0x00646c5f
     ba4:	61736964 	cmnvs	r3, r4, ror #18
     ba8:	00656c62 	rsbeq	r6, r5, r2, ror #24
     bac:	61476556 	cmpvs	r7, r6, asr r5
     bb0:	48006574 	stmdami	r0, {r2, r4, r5, r6, r8, sl, sp, lr}
     bb4:	43696d64 	cmnmi	r9, #100, 26	; 0x1900
     bb8:	50006b6c 	andpl	r6, r0, ip, ror #22
     bbc:	79424c4c 	stmdbvc	r2, {r2, r3, r6, sl, fp, lr}^
     bc0:	73736170 	cmnvc	r3, #112, 2
     bc4:	73657200 	cmnvc	r5, #0, 4
     bc8:	65767265 	ldrbvs	r7, [r6, #-613]!	; 0xfffffd9b
     bcc:	00343164 	eorseq	r3, r4, r4, ror #2
     bd0:	63617246 	cmnvs	r1, #1610612740	; 0x60000004
     bd4:	00746553 	rsbseq	r6, r4, r3, asr r5
     bd8:	63635f5f 	cmnvs	r3, #380	; 0x17c
     bdc:	615f756d 	cmpvs	pc, sp, ror #10
     be0:	63316270 	teqvs	r1, #112, 4
     be4:	675f6b6c 	ldrbvs	r6, [pc, -ip, ror #22]
     be8:	5f657461 	svcpl	0x00657461
     bec:	30676572 	rsbcc	r6, r7, r2, ror r5
     bf0:	5f633630 	svcpl	0x00633630
     bf4:	764c0074 			; <UNDEFINED> instruction: 0x764c0074
     bf8:	6c437364 	mcrrvs	3, 6, r7, r3, cr4
     bfc:	4356006b 	cmpmi	r6, #107	; 0x6b
     c00:	7473524f 	ldrbtvc	r5, [r3], #-591	; 0xfffffdb1
     c04:	5f006e49 	svcpl	0x00006e49
     c08:	4d43435f 	stclmi	3, cr4, [r3, #-380]	; 0xfffffe84
     c0c:	58415f55 	stmdapl	r1, {r0, r2, r4, r6, r8, r9, sl, fp, ip, lr}^
     c10:	4b4c4349 	blmi	131193c <__standby_start+0x131193c>
     c14:	5441475f 	strbpl	r4, [r1], #-1887	; 0xfffff8a1
     c18:	45525f45 	ldrbmi	r5, [r2, #-3909]	; 0xfffff0bb
     c1c:	35303047 	ldrcc	r3, [r0, #-71]!	; 0xffffffb9
     c20:	79530063 	ldmdbvc	r3, {r0, r1, r5, r6}^
     c24:	6b6c4373 	blvs	1b119f8 <__standby_start+0x1b119f8>
     c28:	00766944 	rsbseq	r6, r6, r4, asr #18
     c2c:	6e617473 	mcrvs	4, 3, r7, cr1, cr3, {3}
     c30:	5f796264 	svcpl	0x00796264
     c34:	5f6b6c63 	svcpl	0x006b6c63
     c38:	646c6c70 	strbtvs	r6, [ip], #-3184	; 0xfffff390
     c3c:	62617369 	rsbvs	r7, r1, #-1543503871	; 0xa4000001
     c40:	6100656c 	tstvs	r0, ip, ror #10
     c44:	6c636270 	sfmvs	f6, 2, [r3], #-448	; 0xfffffe40
     c48:	6b61626b 	blvs	18595fc <__standby_start+0x18595fc>
     c4c:	6f6e6f00 	svcvs	0x006e6f00
     c50:	50006666 	andpl	r6, r0, r6, ror #12
     c54:	69424c4c 	stmdbvs	r2, {r2, r3, r6, sl, fp, lr}^
     c58:	6e457361 	cdpvs	3, 4, cr7, cr5, cr1, {3}
     c5c:	435f5f00 	cmpmi	pc, #0, 30
     c60:	5f554d43 	svcpl	0x00554d43
     c64:	324c4c50 	subcc	r4, ip, #80, 24	; 0x5000
     c68:	4455415f 	ldrbmi	r4, [r5], #-351	; 0xfffffea1
     c6c:	525f4f49 	subspl	r4, pc, #292	; 0x124
     c70:	30304745 	eorscc	r4, r0, r5, asr #14
     c74:	5f003830 	svcpl	0x00003830
     c78:	4d43435f 	stclmi	3, cr4, [r3, #-380]	; 0xfffffe84
     c7c:	434c5f55 	movtmi	r5, #53077	; 0xcf55
     c80:	31484344 	mrscc	r4, SPSR
     c84:	4b4c435f 	blmi	1311a08 <__standby_start+0x1311a08>
     c88:	635f5f00 	cmpvs	pc, #0, 30
     c8c:	5f756d63 	svcpl	0x00756d63
     c90:	356c6c70 	strbcc	r6, [ip, #-3184]!	; 0xfffff390
     c94:	6e75745f 	mrcvs	4, 3, r7, cr5, cr15, {2}
     c98:	5f676e69 	svcpl	0x00676e69
     c9c:	30676572 	rsbcc	r6, r7, r2, ror r5
     ca0:	5f343230 	svcpl	0x00343230
     ca4:	5f5f0074 	svcpl	0x005f0074
     ca8:	4d43435f 	stclmi	3, cr4, [r3, #-380]	; 0xfffffe84
     cac:	4c505f55 	mrrcmi	15, 5, r5, r0, cr5
     cb0:	435f314c 	cmpmi	pc, #76, 2
     cb4:	5f45524f 	svcpl	0x0045524f
     cb8:	30474552 	subcc	r4, r7, r2, asr r5
     cbc:	00303030 	eorseq	r3, r0, r0, lsr r0
     cc0:	74726155 	ldrbtvc	r6, [r2], #-341	; 0xfffffeab
     cc4:	74614731 	strbtvc	r4, [r1], #-1841	; 0xfffff8cf
     cc8:	70470065 	subvc	r0, r7, r5, rrx
     ccc:	6b6c4373 	blvs	1b11aa0 <__standby_start+0x1b11aa0>
     cd0:	435f5f00 	cmpmi	pc, #0, 30
     cd4:	5f554d43 	svcpl	0x00554d43
     cd8:	41444441 	mrsmi	r4, SPSR
     cdc:	4b4c435f 	blmi	1311a60 <__standby_start+0x1311a60>
     ce0:	4745525f 	smlsldmi	r5, r5, pc, r2	; <UNPREDICTABLE>
     ce4:	30343130 	eorscc	r3, r4, r0, lsr r1
     ce8:	64705300 	ldrbtvs	r5, [r0], #-768	; 0xfffffd00
     cec:	6c436669 	mcrrvs	6, 6, r6, r3, cr9
     cf0:	5f5f006b 	svcpl	0x005f006b
     cf4:	756d6363 	strbvc	r6, [sp, #-867]!	; 0xfffffc9d
     cf8:	6c6c705f 	stclvs	0, cr7, [ip], #-380	; 0xfffffe84
     cfc:	69765f33 	ldmdbvs	r6!, {r0, r1, r4, r5, r8, r9, sl, fp, ip, lr}^
     d00:	5f6f6564 	svcpl	0x006f6564
     d04:	30676572 	rsbcc	r6, r7, r2, ror r5
     d08:	5f303130 	svcpl	0x00303130
     d0c:	64530074 	ldrbvs	r0, [r3], #-116	; 0xffffff8c
     d10:	476d6172 			; <UNDEFINED> instruction: 0x476d6172
     d14:	00657461 	rsbeq	r7, r5, r1, ror #8
     d18:	32697754 	rsbcc	r7, r9, #84, 14	; 0x1500000
     d1c:	65746147 	ldrbvs	r6, [r4, #-327]!	; 0xfffffeb9
     d20:	635f5f00 	cmpvs	pc, #0, 30
     d24:	5f756d63 	svcpl	0x00756d63
     d28:	30627061 	rsbcc	r7, r2, r1, rrx
     d2c:	5f6b6c63 	svcpl	0x006b6c63
     d30:	65746167 	ldrbvs	r6, [r4, #-359]!	; 0xfffffe99
     d34:	6765725f 			; <UNDEFINED> instruction: 0x6765725f
     d38:	38363030 	ldmdacc	r6!, {r4, r5, ip, sp}
     d3c:	5300745f 	movwpl	r7, #1119	; 0x45f
     d40:	43326970 	teqmi	r2, #112, 18	; 0x1c0000
     d44:	4d006b6c 	vstrmi	d6, [r0, #-432]	; 0xfffffe50
     d48:	47696c61 	strbmi	r6, [r9, -r1, ror #24]!
     d4c:	00657461 	rsbeq	r7, r5, r1, ror #8
     d50:	6e617473 	mcrvs	4, 3, r7, cr1, cr3, {3}
     d54:	5f796264 	svcpl	0x00796264
     d58:	5f6b6c63 	svcpl	0x006b6c63
     d5c:	32627061 	rsbcc	r7, r2, #97	; 0x61
     d60:	63736f6c 	cmnvs	r3, #108, 30	; 0x1b0
     d64:	43534f00 	cmpmi	r3, #0, 30
     d68:	474d3432 	smlaldxmi	r3, sp, r2, r4
     d6c:	44006d73 	strmi	r6, [r0], #-3443	; 0xfffff28d
     d70:	476d6172 			; <UNDEFINED> instruction: 0x476d6172
     d74:	00657461 	rsbeq	r7, r5, r1, ror #8
     d78:	50627355 	rsbpl	r7, r2, r5, asr r3
     d7c:	52307968 	eorspl	r7, r0, #104, 18	; 0x1a0000
     d80:	53007473 	movwpl	r7, #1139	; 0x473
     d84:	636d6d64 	cmnvs	sp, #100, 26	; 0x1900
     d88:	74614732 	strbtvc	r4, [r1], #-1842	; 0xfffff8ce
     d8c:	5f5f0065 	svcpl	0x005f0065
     d90:	756d6363 	strbvc	r6, [sp, #-867]!	; 0xfffffc9d
     d94:	6c6c705f 	stclvs	0, cr7, [ip], #-380	; 0xfffffe84
     d98:	69765f37 	ldmdbvs	r6!, {r0, r1, r2, r4, r5, r8, r9, sl, fp, ip, lr}^
     d9c:	316f6564 	cmncc	pc, r4, ror #10
     da0:	6765725f 			; <UNDEFINED> instruction: 0x6765725f
     da4:	30333030 	eorscc	r3, r3, r0, lsr r0
     da8:	4400745f 	strmi	r7, [r0], #-1119	; 0xfffffba1
     dac:	30654265 	rsbcc	r4, r5, r5, ror #4
     db0:	006b6c43 	rsbeq	r6, fp, r3, asr #24
     db4:	65646f4d 	strbvs	r6, [r4, #-3917]!	; 0xfffff0b3
     db8:	006c6553 	rsbeq	r6, ip, r3, asr r5
     dbc:	43435f5f 	movtmi	r5, #16223	; 0x3f5f
     dc0:	505f554d 	subspl	r5, pc, sp, asr #10
     dc4:	5f374c4c 	svcpl	0x00374c4c
     dc8:	45444956 	strbmi	r4, [r4, #-2390]	; 0xfffff6aa
     dcc:	525f314f 	subspl	r3, pc, #-1073741805	; 0xc0000013
     dd0:	30304745 	eorscc	r4, r0, r5, asr #14
     dd4:	5f003033 	svcpl	0x00003033
     dd8:	3233735f 	eorscc	r7, r3, #2080374785	; 0x7c000001
     ddc:	63684f00 	cmnvs	r8, #0, 30
     de0:	61473069 	mrsvs	r3, SPSR
     de4:	49006574 	stmdbmi	r0, {r2, r4, r5, r6, r8, sl, sp, lr}
     de8:	61473072 	cmpvs	r7, r2, ror r0
     dec:	5f006574 	svcpl	0x00006574
     df0:	4d43435f 	stclmi	3, cr4, [r3, #-380]	; 0xfffffe84
     df4:	50475f55 	subpl	r5, r7, r5, asr pc
     df8:	4c435f53 	mcrrmi	15, 5, r5, r3, cr3
     dfc:	45525f4b 	ldrbmi	r5, [r2, #-3915]	; 0xfffff0b5
     e00:	44303047 	ldrtmi	r3, [r0], #-71	; 0xffffffb9
     e04:	5f5f0030 	svcpl	0x005f0030
     e08:	756d6363 	strbvc	r6, [sp, #-867]!	; 0xfffffc9d
     e0c:	646f6d5f 	strbtvs	r6, [pc], #-3423	; e14 <__standby_start+0xe14>
     e10:	30656c75 	rsbcc	r6, r5, r5, ror ip
     e14:	6b6c635f 	blvs	1b19b98 <__standby_start+0x1b19b98>
     e18:	5f00745f 	svcpl	0x0000745f
     e1c:	4d43435f 	stclmi	3, cr4, [r3, #-380]	; 0xfffffe84
     e20:	534f5f55 	movtpl	r5, #65365	; 0xff55
     e24:	4d343243 	lfmmi	f3, 4, [r4, #-268]!	; 0xfffffef4
     e28:	4745525f 	smlsldmi	r5, r5, pc, r2	; <UNPREDICTABLE>
     e2c:	30353030 	eorscc	r3, r5, r0, lsr r0
     e30:	6c6c5000 	stclvs	0, cr5, [ip], #-0
     e34:	6e755431 	mrcvs	4, 3, r5, cr5, cr1, {1}
     e38:	53003265 	movwpl	r3, #613	; 0x265
     e3c:	47726d74 			; <UNDEFINED> instruction: 0x47726d74
     e40:	00657461 	rsbeq	r7, r5, r1, ror #8
     e44:	63616d45 	cmnvs	r1, #4416	; 0x1140
     e48:	65746147 	ldrbvs	r6, [r4, #-327]!	; 0xfffffeb9
     e4c:	79654b00 	stmdbvc	r5!, {r8, r9, fp, lr}^
     e50:	6c656946 	stclvs	9, cr6, [r5], #-280	; 0xfffffee8
     e54:	5f5f0064 	svcpl	0x005f0064
     e58:	756d6363 	strbvc	r6, [sp, #-867]!	; 0xfffffc9d
     e5c:	64766c5f 	ldrbtvs	r6, [r6], #-3167	; 0xfffff3a1
     e60:	6c635f73 	stclvs	15, cr5, [r3], #-460	; 0xfffffe34
     e64:	65725f6b 	ldrbvs	r5, [r2, #-3947]!	; 0xfffff095
     e68:	34313067 	ldrtcc	r3, [r1], #-103	; 0xffffff99
     e6c:	00745f63 	rsbseq	r5, r4, r3, ror #30
     e70:	356c6c50 	strbcc	r6, [ip, #-3152]!	; 0xfffff3b0
     e74:	006c7443 	rsbeq	r7, ip, r3, asr #8
     e78:	63635f5f 	cmnvs	r3, #380	; 0x17c
     e7c:	765f756d 	ldrbvc	r7, [pc], -sp, ror #10
     e80:	6c635f65 	stclvs	15, cr5, [r3], #-404	; 0xfffffe6c
     e84:	65725f6b 	ldrbvs	r5, [r2, #-3947]!	; 0xfffff095
     e88:	33313067 	teqcc	r1, #103	; 0x67
     e8c:	00745f63 	rsbseq	r5, r4, r3, ror #30
     e90:	63635f5f 	cmnvs	r3, #380	; 0x17c
     e94:	705f756d 	subsvc	r7, pc, sp, ror #10
     e98:	5f326c6c 	svcpl	0x00326c6c
     e9c:	696e7574 	stmdbvs	lr!, {r2, r4, r5, r6, r8, sl, ip, sp, lr}^
     ea0:	725f676e 	subsvc	r6, pc, #28835840	; 0x1b80000
     ea4:	30306765 	eorscc	r6, r0, r5, ror #14
     ea8:	745f6330 	ldrbvc	r6, [pc], #-816	; eb0 <__standby_start+0xeb0>
     eac:	67695300 	strbvs	r5, [r9, -r0, lsl #6]!
     eb0:	6e49616d 	dvfvsez	f6, f1, #5.0
     eb4:	74754f00 	ldrbtvc	r4, [r5], #-3840	; 0xfffff100
     eb8:	45747570 	ldrbmi	r7, [r4, #-1392]!	; 0xfffffa90
     ebc:	7473006e 	ldrbtvc	r0, [r3], #-110	; 0xffffff92
     ec0:	62646e61 	rsbvs	r6, r4, #1552	; 0x610
     ec4:	6c635f79 	stclvs	15, cr5, [r3], #-484	; 0xfffffe1c
     ec8:	65675f6b 	strbvs	r5, [r7, #-3947]!	; 0xfffff095
     ecc:	76696474 			; <UNDEFINED> instruction: 0x76696474
     ed0:	435f5f00 	cmpmi	pc, #0, 30
     ed4:	5f554d43 	svcpl	0x00554d43
     ed8:	334c4c50 	movtcc	r4, #52304	; 0xcc50
     edc:	4449565f 	strbmi	r5, [r9], #-1631	; 0xfffff9a1
     ee0:	525f4f45 	subspl	r4, pc, #276	; 0x114
     ee4:	30304745 	eorscc	r4, r0, r5, asr #14
     ee8:	5f003031 	svcpl	0x00003031
     eec:	4d43435f 	stclmi	3, cr4, [r3, #-380]	; 0xfffffe84
     ef0:	4c505f55 	mrrcmi	15, 5, r5, r0, cr5
     ef4:	545f354c 	ldrbpl	r3, [pc], #-1356	; efc <__standby_start+0xefc>
     ef8:	4e494e55 	mcrmi	14, 2, r4, cr9, cr5, {2}
     efc:	525f3247 	subspl	r3, pc, #1879048196	; 0x70000004
     f00:	30304745 	eorscc	r4, r0, r5, asr #14
     f04:	41004333 	tstmi	r0, r3, lsr r3
     f08:	47616464 	strbmi	r6, [r1, -r4, ror #8]!
     f0c:	00657461 	rsbeq	r7, r5, r1, ror #8
     f10:	424f4356 	submi	r4, pc, #1476395009	; 0x58000001
     f14:	00736169 	rsbseq	r6, r3, r9, ror #2
     f18:	63635f5f 	cmnvs	r3, #380	; 0x17c
     f1c:	6c5f756d 	cfldr64vs	mvdx7, [pc], {109}	; 0x6d
     f20:	68636463 	stmdavs	r3!, {r0, r1, r5, r6, sl, sp, lr}^
     f24:	6c635f31 	stclvs	15, cr5, [r3], #-196	; 0xffffff3c
     f28:	00745f6b 	rsbseq	r5, r4, fp, ror #30
     f2c:	65426544 	strbvs	r6, [r2, #-1348]	; 0xfffffabc
     f30:	74614730 	strbtvc	r4, [r1], #-1840	; 0xfffff8d0
     f34:	64530065 	ldrbvs	r0, [r3], #-101	; 0xffffff9b
     f38:	31636d4d 	cmncc	r3, sp, asr #26
     f3c:	006b6c43 	rsbeq	r6, fp, r3, asr #24
     f40:	43435f5f 	movtmi	r5, #16223	; 0x3f5f
     f44:	495f554d 	ldmdbmi	pc, {r0, r2, r3, r6, r8, sl, ip, lr}^	; <UNPREDICTABLE>
     f48:	435f5045 	cmpmi	pc, #69	; 0x45
     f4c:	525f4b4c 	subspl	r4, pc, #76, 22	; 0x13000
     f50:	31304745 	teqcc	r0, r5, asr #14
     f54:	73003036 	movwvc	r3, #54	; 0x36
     f58:	646e6174 	strbtvs	r6, [lr], #-372	; 0xfffffe8c
     f5c:	635f7962 	cmpvs	pc, #1605632	; 0x188000
     f60:	685f6b6c 	ldmdavs	pc, {r2, r3, r5, r6, r8, r9, fp, sp, lr}^	; <UNPREDICTABLE>
     f64:	6563736f 	strbvs	r7, [r3, #-879]!	; 0xfffffc91
     f68:	6c62616e 	stfvse	f6, [r2], #-440	; 0xfffffe48
     f6c:	5f5f0065 	svcpl	0x005f0065
     f70:	554d4343 	strbpl	r4, [sp, #-835]	; 0xfffffcbd
     f74:	4250415f 	subsmi	r4, r0, #-1073741801	; 0xc0000017
     f78:	4b4c4331 	blmi	1311c44 <__standby_start+0x1311c44>
     f7c:	5441525f 	strbpl	r5, [r1], #-607	; 0xfffffda1
     f80:	525f4f49 	subspl	r4, pc, #292	; 0x124
     f84:	30304745 	eorscc	r4, r0, r5, asr #14
     f88:	72003835 	andvc	r3, r0, #3473408	; 0x350000
     f8c:	72657365 	rsbvc	r7, r5, #-1811939327	; 0x94000001
     f90:	30646576 	rsbcc	r6, r4, r6, ror r5
     f94:	73657200 	cmnvc	r5, #0, 4
     f98:	65767265 	ldrbvs	r7, [r6, #-613]!	; 0xfffffd9b
     f9c:	72003164 	andvc	r3, r0, #100, 2
     fa0:	72657365 	rsbvc	r7, r5, #-1811939327	; 0x94000001
     fa4:	32646576 	rsbcc	r6, r4, #494927872	; 0x1d800000
     fa8:	73657200 	cmnvc	r5, #0, 4
     fac:	65767265 	ldrbvs	r7, [r6, #-613]!	; 0xfffffd9b
     fb0:	72003364 	andvc	r3, r0, #100, 6	; 0x90000001
     fb4:	72657365 	rsbvc	r7, r5, #-1811939327	; 0x94000001
     fb8:	34646576 	strbtcc	r6, [r4], #-1398	; 0xfffffa8a
     fbc:	435f5f00 	cmpmi	pc, #0, 30
     fc0:	5f554d43 	svcpl	0x00554d43
     fc4:	314c4c50 	cmpcc	ip, r0, asr ip
     fc8:	4e55545f 	mrcmi	4, 2, r5, cr5, cr15, {2}
     fcc:	32474e49 	subcc	r4, r7, #1168	; 0x490
     fd0:	4745525f 	smlsldmi	r5, r5, pc, r2	; <UNPREDICTABLE>
     fd4:	38333030 	ldmdacc	r3!, {r4, r5, ip, sp}
     fd8:	73657200 	cmnvc	r5, #0, 4
     fdc:	65767265 	ldrbvs	r7, [r6, #-613]!	; 0xfffffd9b
     fe0:	72003664 	andvc	r3, r0, #100, 12	; 0x6400000
     fe4:	72657365 	rsbvc	r7, r5, #-1811939327	; 0x94000001
     fe8:	37646576 			; <UNDEFINED> instruction: 0x37646576
     fec:	65705300 	ldrbvs	r5, [r0, #-768]!	; 0xfffffd00
     ff0:	6b6c4363 	blvs	1b11d84 <__standby_start+0x1b11d84>
     ff4:	74614731 	strbtvc	r4, [r1], #-1841	; 0xfffff8cf
     ff8:	65720065 	ldrbvs	r0, [r2, #-101]!	; 0xffffff9b
     ffc:	76726573 			; <UNDEFINED> instruction: 0x76726573
    1000:	00396465 	eorseq	r6, r9, r5, ror #8
    1004:	63657053 	cmnvs	r5, #83	; 0x53
    1008:	326b6c43 	rsbcc	r6, fp, #17152	; 0x4300
    100c:	00637253 	rsbeq	r7, r3, r3, asr r2
    1010:	6e617473 	mcrvs	4, 3, r7, cr1, cr3, {3}
    1014:	5f796264 	svcpl	0x00796264
    1018:	5f6b6c63 	svcpl	0x006b6c63
    101c:	656c6c70 	strbvs	r6, [ip, #-3184]!	; 0xfffff390
    1020:	6c62616e 	stfvse	f6, [r2], #-440	; 0xfffffe48
    1024:	69490065 	stmdbvs	r9, {r0, r2, r5, r6}^
    1028:	74614773 	strbtvc	r4, [r1], #-1907	; 0xfffff88d
    102c:	534f0065 	movtpl	r0, #61541	; 0xf065
    1030:	4d343243 	lfmmi	f3, 4, [r4, #-268]!	; 0xfffffef4
    1034:	44006e45 	strmi	r6, [r0], #-3653	; 0xfffff1bb
    1038:	6147616d 	mrsvs	r6, SPSR
    103c:	50006574 	andpl	r6, r0, r4, ror r5
    1040:	6e454c4c 	cdpvs	12, 4, cr4, cr5, cr12, {2}
    1044:	435f5f00 	cmpmi	pc, #0, 30
    1048:	5f554d43 	svcpl	0x00554d43
    104c:	5059454b 	subspl	r4, r9, fp, asr #10
    1050:	435f4441 	cmpmi	pc, #1090519040	; 0x41000000
    1054:	525f4b4c 	subspl	r4, pc, #76, 22	; 0x13000
    1058:	30304745 	eorscc	r4, r0, r5, asr #14
    105c:	5f003443 	svcpl	0x00003443
    1060:	4d43435f 	stclmi	3, cr4, [r3, #-380]	; 0xfffffe84
    1064:	59535f55 	ldmdbpl	r3, {r0, r2, r4, r6, r8, r9, sl, fp, ip, lr}^
    1068:	4b4c4353 	blmi	1311dbc <__standby_start+0x1311dbc>
    106c:	5441525f 	strbpl	r5, [r1], #-607	; 0xfffffda1
    1070:	525f4f49 	subspl	r4, pc, #292	; 0x124
    1074:	30304745 	eorscc	r4, r0, r5, asr #14
    1078:	41003435 	tstmi	r0, r5, lsr r4
    107c:	43616464 	cmnmi	r1, #100, 8	; 0x64000000
    1080:	54006b6c 	strpl	r6, [r0], #-2924	; 0xfffff494
    1084:	6b6c4373 	blvs	1b11e58 <__standby_start+0x1b11e58>
    1088:	63684500 	cmnvs	r8, #0, 10
    108c:	61473069 	mrsvs	r3, SPSR
    1090:	49006574 	stmdbmi	r0, {r2, r4, r5, r6, r8, sl, sp, lr}
    1094:	4674696e 	ldrbtmi	r6, [r4], -lr, ror #18
    1098:	00716572 	rsbseq	r6, r1, r2, ror r5
    109c:	5079654b 	rsbspl	r6, r9, fp, asr #10
    10a0:	6c436461 	cfstrdvs	mvd6, [r3], {97}	; 0x61
    10a4:	4c50006b 	mrrcmi	0, 6, r0, r0, cr11	; <UNPREDICTABLE>
    10a8:	6169424c 	cmnvs	r9, ip, asr #4
    10ac:	614e0073 	cmpvs	lr, r3, ror r0
    10b0:	6147646e 	mrsvs	r6, SPSR
    10b4:	53006574 	movwpl	r6, #1396	; 0x574
    10b8:	74614773 	strbtvc	r4, [r1], #-1907	; 0xfffff88d
    10bc:	5f5f0065 	svcpl	0x005f0065
    10c0:	756d6363 	strbvc	r6, [sp, #-867]!	; 0xfffffc9d
    10c4:	6465665f 	strbtvs	r6, [r5], #-1631	; 0xfffff9a1
    10c8:	5f706d65 	svcpl	0x00706d65
    10cc:	5f6b6c63 	svcpl	0x006b6c63
    10d0:	6d430074 	stclvs	0, cr0, [r3, #-464]	; 0xfffffe30
    10d4:	67655275 			; <UNDEFINED> instruction: 0x67655275
    10d8:	6d644800 	stclvs	8, cr4, [r4, #-0]
    10dc:	61474469 	mrsvs	r4, SPSR
    10e0:	56006574 			; <UNDEFINED> instruction: 0x56006574
    10e4:	31676572 	smccc	30290	; 0x7652
    10e8:	4574754f 	ldrbmi	r7, [r4, #-1359]!	; 0xfffffab1
    10ec:	5f5f006e 	svcpl	0x005f006e
    10f0:	756d6363 	strbvc	r6, [sp, #-867]!	; 0xfffffc9d
    10f4:	6c6c705f 	stclvs	0, cr7, [ip], #-380	; 0xfffffe84
    10f8:	75745f35 	ldrbvc	r5, [r4, #-3893]!	; 0xfffff0cb
    10fc:	676e696e 	strbvs	r6, [lr, -lr, ror #18]!
    1100:	65725f32 	ldrbvs	r5, [r2, #-3890]!	; 0xfffff0ce
    1104:	33303067 	teqcc	r0, #103	; 0x67
    1108:	00745f63 	rsbseq	r5, r4, r3, ror #30
    110c:	326c6c50 	rsbcc	r6, ip, #80, 24	; 0x5000
    1110:	656e7554 	strbvs	r7, [lr, #-1364]!	; 0xfffffaac
    1114:	635f5f00 	cmpvs	pc, #0, 30
    1118:	5f756d63 	svcpl	0x00756d63
    111c:	63697861 	cmnvs	r9, #6356992	; 0x610000
    1120:	675f6b6c 	ldrbvs	r6, [pc, -ip, ror #22]
    1124:	5f657461 	svcpl	0x00657461
    1128:	30676572 	rsbcc	r6, r7, r2, ror r5
    112c:	5f633530 	svcpl	0x00633530
    1130:	444c0074 	strbmi	r0, [ip], #-116	; 0xffffff8c
    1134:	6e45324f 	cdpvs	2, 4, cr3, cr5, cr15, {2}
    1138:	63614600 	cmnvs	r1, #0, 12
    113c:	4d726f74 	ldclmi	15, cr6, [r2, #-464]!	; 0xfffffe30
    1140:	6c500031 	mrrcvs	0, 3, r0, r0, cr1	; <UNPREDICTABLE>
    1144:	7443376c 	strbvc	r3, [r3], #-1900	; 0xfffff894
    1148:	5f5f006c 	svcpl	0x005f006c
    114c:	756d6363 	strbvc	r6, [sp, #-867]!	; 0xfffffc9d
    1150:	6765725f 			; <UNDEFINED> instruction: 0x6765725f
    1154:	73696c5f 	cmnvc	r9, #24320	; 0x5f00
    1158:	00745f74 	rsbseq	r5, r4, r4, ror pc
    115c:	646e614e 	strbtvs	r6, [lr], #-334	; 0xfffffeb2
    1160:	006b6c43 	rsbeq	r6, fp, r3, asr #24
    1164:	4943484f 	stmdbmi	r3, {r0, r1, r2, r3, r6, fp, lr}^
    1168:	65705330 	ldrbvs	r5, [r0, #-816]!	; 0xfffffcd0
    116c:	6b6c4363 	blvs	1b11f00 <__standby_start+0x1b11f00>
    1170:	65746147 	ldrbvs	r6, [r4, #-327]!	; 0xfffffeb9
    1174:	435f5f00 	cmpmi	pc, #0, 30
    1178:	5f554d43 	svcpl	0x00554d43
    117c:	314c4c50 	cmpcc	ip, r0, asr ip
    1180:	4e55545f 	mrcmi	4, 2, r5, cr5, cr15, {2}
    1184:	5f474e49 	svcpl	0x00474e49
    1188:	30474552 	subcc	r4, r7, r2, asr r5
    118c:	00343030 	eorseq	r3, r4, r0, lsr r0
    1190:	43706549 	cmnmi	r0, #306184192	; 0x12400000
    1194:	5f006b6c 	svcpl	0x00006b6c
    1198:	6d63635f 	stclvs	3, cr6, [r3, #-380]!	; 0xfffffe84
    119c:	76615f75 	uqsub16vc	r5, r1, r5
    11a0:	6c635f73 	stclvs	15, cr5, [r3], #-460	; 0xfffffe34
    11a4:	65725f6b 	ldrbvs	r5, [r2, #-3947]!	; 0xfffff095
    11a8:	34313067 	ldrtcc	r3, [r1], #-103	; 0xffffff99
    11ac:	00745f34 	rsbseq	r5, r4, r4, lsr pc
    11b0:	696c614d 	stmdbvs	ip!, {r0, r2, r3, r6, r8, sp, lr}^
    11b4:	006b6c43 	rsbeq	r6, fp, r3, asr #24
    11b8:	43737641 	cmnmi	r3, #68157440	; 0x4100000
    11bc:	4c006b6c 	stcmi	11, cr6, [r0], {108}	; 0x6c
    11c0:	65526463 	ldrbvs	r6, [r2, #-1123]	; 0xfffffb9d
    11c4:	00746573 	rsbseq	r6, r4, r3, ror r5
    11c8:	50627355 	rsbpl	r7, r2, r5, asr r3
    11cc:	52317968 	eorspl	r7, r1, #104, 18	; 0x1a0000
    11d0:	5f007473 	svcpl	0x00007473
    11d4:	6d63635f 	stclvs	3, cr6, [r3, #-380]!	; 0xfffffe84
    11d8:	79735f75 	ldmdbvc	r3!, {r0, r2, r4, r5, r6, r8, r9, sl, fp, ip, lr}^
    11dc:	6b6c6373 	blvs	1b19fb0 <__standby_start+0x1b19fb0>
    11e0:	61725f6c 	cmnvs	r2, ip, ror #30
    11e4:	5f6f6974 	svcpl	0x006f6974
    11e8:	30676572 	rsbcc	r6, r7, r2, ror r5
    11ec:	5f343530 	svcpl	0x00343530
    11f0:	61550074 	cmpvs	r5, r4, ror r0
    11f4:	47337472 			; <UNDEFINED> instruction: 0x47337472
    11f8:	00657461 	rsbeq	r7, r5, r1, ror #8
    11fc:	65466544 	strbvs	r6, [r6, #-1348]	; 0xfffffabc
    1200:	74614730 	strbtvc	r4, [r1], #-1840	; 0xfffff8d0
    1204:	6c500065 	mrrcvs	0, 6, r0, r0, cr5	; <UNPREDICTABLE>
    1208:	7443336c 	strbvc	r3, [r3], #-876	; 0xfffffc94
    120c:	7841006c 	stmdavc	r1, {r2, r3, r5, r6}^
    1210:	74614769 	strbtvc	r4, [r1], #-1897	; 0xfffff897
    1214:	70470065 	subvc	r0, r7, r5, rrx
    1218:	74614773 	strbtvc	r4, [r1], #-1907	; 0xfffff88d
    121c:	6c500065 	mrrcvs	0, 6, r0, r0, cr5	; <UNPREDICTABLE>
    1220:	7443366c 	strbvc	r3, [r3], #-1644	; 0xfffff994
    1224:	5f5f006c 	svcpl	0x005f006c
    1228:	554d4343 	strbpl	r4, [sp, #-835]	; 0xfffffcbd
    122c:	44434c5f 	strbmi	r4, [r3], #-3167	; 0xfffff3a1
    1230:	5f304843 	svcpl	0x00304843
    1234:	004b4c43 	subeq	r4, fp, r3, asr #24
    1238:	6b636f4c 	blvs	18dcf70 <__standby_start+0x18dcf70>
    123c:	656d6954 	strbvs	r6, [sp, #-2388]!	; 0xfffff6ac
    1240:	435f5f00 	cmpmi	pc, #0, 30
    1244:	5f554d43 	svcpl	0x00554d43
    1248:	435f4556 	cmpmi	pc, #360710144	; 0x15800000
    124c:	525f4b4c 	subspl	r4, pc, #76, 22	; 0x13000
    1250:	31304745 	teqcc	r0, r5, asr #14
    1254:	55004333 	strpl	r4, [r0, #-819]	; 0xfffffccd
    1258:	30747261 	rsbscc	r7, r4, r1, ror #4
    125c:	65746147 	ldrbvs	r6, [r4, #-327]!	; 0xfffffeb9
    1260:	6f635600 	svcvs	0x00635600
    1264:	73616942 	cmnvc	r1, #1081344	; 0x108000
    1268:	65725000 	ldrbvs	r5, [r2, #-0]!
    126c:	76694476 			; <UNDEFINED> instruction: 0x76694476
    1270:	435f5f00 	cmpmi	pc, #0, 30
    1274:	5f554d43 	svcpl	0x00554d43
    1278:	31425041 	mrscc	r5, SPSR
    127c:	5f4b4c43 	svcpl	0x004b4c43
    1280:	45544147 	ldrbmi	r4, [r4, #-327]	; 0xfffffeb9
    1284:	4745525f 	smlsldmi	r5, r5, pc, r2	; <UNPREDICTABLE>
    1288:	43363030 	teqmi	r6, #48	; 0x30
    128c:	49584100 	ldmdbmi	r8, {r8, lr}^
    1290:	446b6c43 	strbtmi	r6, [fp], #-3139	; 0xfffff3bd
    1294:	5f007669 	svcpl	0x00007669
    1298:	4d43435f 	stclmi	3, cr4, [r3, #-380]	; 0xfffffe84
    129c:	4c505f55 	mrrcmi	15, 5, r5, r0, cr5
    12a0:	545f354c 	ldrbpl	r3, [pc], #-1356	; 12a8 <__standby_start+0x12a8>
    12a4:	4e494e55 	mcrmi	14, 2, r4, cr9, cr5, {2}
    12a8:	45525f47 	ldrbmi	r5, [r2, #-3911]	; 0xfffff0b9
    12ac:	32303047 	eorscc	r3, r0, #71	; 0x47
    12b0:	43560034 	cmpmi	r6, #52	; 0x34
    12b4:	6961474f 	stmdbvs	r1!, {r0, r1, r2, r3, r6, r8, r9, sl, lr}^
    12b8:	7473006e 	ldrbtvc	r0, [r3], #-110	; 0xffffff92
    12bc:	62646e61 	rsbvs	r6, r4, #1552	; 0x610
    12c0:	6c635f79 	stclvs	15, cr5, [r3], #-484	; 0xfffffe1c
    12c4:	65735f6b 	ldrbvs	r5, [r3, #-3947]!	; 0xfffff095
    12c8:	76696474 			; <UNDEFINED> instruction: 0x76696474
    12cc:	33434100 	movtcc	r4, #12544	; 0x3100
    12d0:	6c433832 	mcrrvs	8, 3, r3, r3, cr2
    12d4:	6372536b 	cmnvs	r2, #-1409286143	; 0xac000001
    12d8:	65724600 	ldrbvs	r4, [r2, #-1536]!	; 0xfffffa00
    12dc:	6e657571 	mcrvs	5, 3, r7, cr5, cr1, {3}
    12e0:	54007963 	strpl	r7, [r0], #-2403	; 0xfffff69d
    12e4:	47316977 			; <UNDEFINED> instruction: 0x47316977
    12e8:	00657461 	rsbeq	r7, r5, r1, ror #8
    12ec:	326c6c50 	rsbcc	r6, ip, #80, 24	; 0x5000
    12f0:	006c7443 	rsbeq	r7, ip, r3, asr #8
    12f4:	43435f5f 	movtmi	r5, #16223	; 0x3f5f
    12f8:	525f554d 	subspl	r5, pc, #322961408	; 0x13400000
    12fc:	4c5f4745 	mrrcmi	7, 4, r4, pc, cr5	; <UNPREDICTABLE>
    1300:	00545349 	subseq	r5, r4, r9, asr #6
    1304:	63635f5f 	cmnvs	r3, #380	; 0x17c
    1308:	705f756d 	subsvc	r7, pc, sp, ror #10
    130c:	5f346c6c 	svcpl	0x00346c6c
    1310:	725f6576 	subsvc	r6, pc, #494927872	; 0x1d800000
    1314:	30306765 	eorscc	r6, r0, r5, ror #14
    1318:	745f3831 	ldrbvc	r3, [pc], #-2097	; 1320 <__standby_start+0x1320>
    131c:	42504100 	subsmi	r4, r0, #0, 2
    1320:	6b6c4330 	blvs	1b11fe8 <__standby_start+0x1b11fe8>
    1324:	00766944 	rsbseq	r6, r6, r4, asr #18
    1328:	43424841 	movtmi	r4, #10305	; 0x2841
    132c:	65536b6c 	ldrbvs	r6, [r3, #-2924]	; 0xfffff494
    1330:	7343006c 	movtvc	r0, #12396	; 0x306c
    1334:	61473069 	mrsvs	r3, SPSR
    1338:	53006574 	movwpl	r6, #1396	; 0x574
    133c:	636d6d64 	cmnvs	sp, #100, 26	; 0x1900
    1340:	74614731 	strbtvc	r4, [r1], #-1841	; 0xfffff8cf
    1344:	5f5f0065 	svcpl	0x005f0065
    1348:	554d4343 	strbpl	r4, [sp, #-835]	; 0xfffffcbd
    134c:	4250415f 	subsmi	r4, r0, #-1073741801	; 0xc0000017
    1350:	4b4c4330 	blmi	1312018 <__standby_start+0x1312018>
    1354:	5441475f 	strbpl	r4, [r1], #-1887	; 0xfffff8a1
    1358:	45525f45 	ldrbmi	r5, [r2, #-3909]	; 0xfffff0bb
    135c:	36303047 	ldrtcc	r3, [r0], -r7, asr #32
    1360:	69460038 	stmdbvs	r6, {r3, r4, r5}^
    1364:	6e655071 	mcrvs	0, 3, r5, cr5, cr1, {3}
    1368:	72490064 	subvc	r0, r9, #100	; 0x64
    136c:	69725071 	ldmdbvs	r2!, {r0, r4, r5, r6, ip, lr}^
    1370:	7249006f 	subvc	r0, r9, #111	; 0x6f
    1374:	6e655071 	mcrvs	0, 3, r5, cr5, cr1, {3}
    1378:	72490064 	subvc	r0, r9, #100	; 0x64
    137c:	726f4671 	rsbvc	r4, pc, #118489088	; 0x7100000
    1380:	49006563 	stmdbmi	r0, {r0, r1, r5, r6, r8, sl, sp, lr}
    1384:	6e457172 	mcrvs	1, 2, r7, cr5, cr2, {3}
    1388:	00676552 	rsbeq	r6, r7, r2, asr r5
    138c:	6e617473 	mcrvs	4, 3, r7, cr1, cr3, {3}
    1390:	5f796264 	svcpl	0x00796264
    1394:	5f746e69 	svcpl	0x00746e69
    1398:	74697865 	strbtvc	r7, [r9], #-2149	; 0xfffff79b
    139c:	71724900 	cmnvc	r2, r0, lsl #18
    13a0:	70736552 	rsbsvc	r6, r3, r2, asr r5
    13a4:	61747300 	cmnvs	r4, r0, lsl #6
    13a8:	7962646e 	stmdbvc	r2!, {r1, r2, r3, r5, r6, sl, sp, lr}^
    13ac:	6575715f 	ldrbvs	r7, [r5, #-351]!	; 0xfffffea1
    13b0:	695f7972 	ldmdbvs	pc, {r1, r4, r5, r6, r8, fp, ip, sp, lr}^	; <UNPREDICTABLE>
    13b4:	7300746e 	movwvc	r7, #1134	; 0x46e
    13b8:	646e6174 	strbtvs	r6, [lr], #-372	; 0xfffffe8c
    13bc:	655f7962 	ldrbvs	r7, [pc, #-2402]	; a62 <__standby_start+0xa62>
    13c0:	6c62616e 	stfvse	f6, [r2], #-440	; 0xfffffe48
    13c4:	6e695f65 	cdpvs	15, 6, cr5, cr9, cr5, {3}
    13c8:	79540074 	ldmdbvc	r4, {r2, r4, r5, r6}^
    13cc:	65536570 	ldrbvs	r6, [r3, #-1392]	; 0xfffffa90
    13d0:	7473006c 	ldrbtvc	r0, [r3], #-108	; 0xffffff94
    13d4:	62646e61 	rsbvs	r6, r4, #1552	; 0x610
    13d8:	6e695f79 	mcrvs	15, 3, r5, cr9, cr9, {3}
    13dc:	6e695f74 	mcrvs	15, 3, r5, cr9, cr4, {3}
    13e0:	74007469 	strvc	r7, [r0], #-1129	; 0xfffffb97
    13e4:	7253706d 	subsvc	r7, r3, #109	; 0x6d
    13e8:	6d4e0063 	stclvs	0, cr0, [lr, #-396]	; 0xfffffe74
    13ec:	72744369 	rsbsvc	r4, r4, #-1543503871	; 0xa4000001
    13f0:	6572006c 	ldrbvs	r0, [r2, #-108]!	; 0xffffff94
    13f4:	746c7573 	strbtvc	r7, [ip], #-1395	; 0xfffffa8d
    13f8:	63655600 	cmnvs	r5, #0, 12
    13fc:	00726f74 	rsbseq	r6, r2, r4, ror pc
    1400:	65736142 	ldrbvs	r6, [r3, #-322]!	; 0xfffffebe
    1404:	72646441 	rsbvc	r6, r4, #1090519040	; 0x41000000
    1408:	71724900 	cmnvc	r2, r0, lsl #18
    140c:	6b73614d 	blvs	1cd9948 <__standby_start+0x1cd9948>
    1410:	61747300 	cmnvs	r4, r0, lsl #6
    1414:	7962646e 	stmdbvc	r2!, {r1, r2, r3, r5, r6, sl, sp, lr}^
    1418:	746e695f 	strbtvc	r6, [lr], #-2399	; 0xfffff6a1
    141c:	6765725f 			; <UNDEFINED> instruction: 0x6765725f
    1420:	7400745f 	strvc	r7, [r0], #-1119	; 0xfffffba1
    1424:	7247706d 	subvc	r7, r7, #109	; 0x6d
    1428:	72490070 	subvc	r0, r9, #112	; 0x70
    142c:	73614d71 	cmnvc	r1, #7232	; 0x1c40
    1430:	6765526b 	strbvs	r5, [r5, -fp, ror #4]!
    1434:	746e4900 	strbtvc	r4, [lr], #-2304	; 0xfffff700
    1438:	67655263 	strbvs	r5, [r5, -r3, ror #4]!
    143c:	71724900 	cmnvc	r2, r0, lsl #18
    1440:	526c6553 	rsbpl	r6, ip, #348127232	; 0x14c00000
    1444:	73006765 	movwvc	r6, #1893	; 0x765
    1448:	646e6174 	strbtvs	r6, [lr], #-372	; 0xfffffe8c
    144c:	695f7962 	ldmdbvs	pc, {r1, r5, r6, r8, fp, ip, sp, lr}^	; <UNPREDICTABLE>
    1450:	632e746e 	teqvs	lr, #1845493760	; 0x6e000000
    1454:	61747300 	cmnvs	r4, r0, lsl #6
    1458:	7962646e 	stmdbvc	r2!, {r1, r2, r3, r5, r6, sl, sp, lr}^
    145c:	2e72695f 	mrccs	9, 3, r6, cr2, cr15, {2}
    1460:	74730063 	ldrbtvc	r0, [r3], #-99	; 0xffffff9d
    1464:	62646e61 	rsbvs	r6, r4, #1552	; 0x610
    1468:	72695f79 	rsbvc	r5, r9, #484	; 0x1e4
    146c:	6978655f 	ldmdbvs	r8!, {r0, r1, r2, r3, r4, r6, r8, sl, sp, lr}^
    1470:	74730074 	ldrbtvc	r0, [r3], #-116	; 0xffffff8c
    1474:	62646e61 	rsbvs	r6, r4, #1552	; 0x610
    1478:	72695f79 	rsbvc	r5, r9, #484	; 0x1e4
    147c:	7265765f 	rsbvc	r7, r5, #99614720	; 0x5f00000
    1480:	00796669 	rsbseq	r6, r9, r9, ror #12
    1484:	6e617473 	mcrvs	4, 3, r7, cr1, cr3, {3}
    1488:	5f796264 	svcpl	0x00796264
    148c:	695f7269 	ldmdbvs	pc, {r0, r3, r5, r6, r9, ip, sp, lr}^	; <UNPREDICTABLE>
    1490:	0074696e 	rsbseq	r6, r4, lr, ror #18
    1494:	6e617473 	mcrvs	4, 3, r7, cr1, cr3, {3}
    1498:	5f796264 	svcpl	0x00796264
    149c:	645f7269 	ldrbvs	r7, [pc], #-617	; 14a4 <__standby_start+0x14a4>
    14a0:	63657465 	cmnvs	r5, #1694498816	; 0x65000000
    14a4:	724c0074 	subvc	r0, ip, #116	; 0x74
    14a8:	5f636461 	svcpl	0x00636461
    14ac:	73746e49 	cmnvc	r4, #1168	; 0x490
    14b0:	735f5f00 	cmpvc	pc, #0, 30
    14b4:	646e6174 	strbtvs	r6, [lr], #-372	; 0xfffffe8c
    14b8:	6b5f7962 	blvs	17dfa48 <__standby_start+0x17dfa48>
    14bc:	725f7965 	subsvc	r7, pc, #1654784	; 0x194000
    14c0:	745f6765 	ldrbvc	r6, [pc], #-1893	; 14c8 <__standby_start+0x14c8>
    14c4:	79654b00 	stmdbvc	r5!, {r8, r9, fp, lr}^
    14c8:	73746e49 	cmnvc	r4, #1168	; 0x490
    14cc:	61747300 	cmnvs	r4, r0, lsl #6
    14d0:	7962646e 	stmdbvc	r2!, {r1, r2, r3, r5, r6, sl, sp, lr}^
    14d4:	79656b5f 	stmdbvc	r5!, {r0, r1, r2, r3, r4, r6, r8, r9, fp, sp, lr}^
    14d8:	4b00632e 	blmi	1a198 <__standby_start+0x1a198>
    14dc:	65527965 	ldrbvs	r7, [r2, #-2405]	; 0xfffff69b
    14e0:	724c0067 	subvc	r0, ip, #103	; 0x67
    14e4:	5f636461 	svcpl	0x00636461
    14e8:	63746e49 	cmnvs	r4, #1168	; 0x490
    14ec:	61747300 	cmnvs	r4, r0, lsl #6
    14f0:	7962646e 	stmdbvc	r2!, {r1, r2, r3, r5, r6, sl, sp, lr}^
    14f4:	79656b5f 	stmdbvc	r5!, {r0, r1, r2, r3, r4, r6, r8, r9, fp, sp, lr}^
    14f8:	6978655f 	ldmdbvs	r8!, {r0, r1, r2, r3, r4, r6, r8, sl, sp, lr}^
    14fc:	74730074 	ldrbtvc	r0, [r3], #-116	; 0xffffff8c
    1500:	62646e61 	rsbvs	r6, r4, #1552	; 0x610
    1504:	656b5f79 	strbvs	r5, [fp, #-3961]!	; 0xfffff087
    1508:	6e695f79 	mcrvs	15, 3, r5, cr9, cr9, {3}
    150c:	4b007469 	blmi	1e6b8 <__standby_start+0x1e6b8>
    1510:	61447965 	mrsvs	r7, SPSR
    1514:	00306174 	eorseq	r6, r0, r4, ror r1
    1518:	4479654b 	ldrbtmi	r6, [r9], #-1355	; 0xfffffab5
    151c:	31617461 	cmncc	r1, r1, ror #8
    1520:	61724c00 	cmnvs	r2, r0, lsl #24
    1524:	435f6364 	cmpmi	pc, #100, 6	; 0x90000001
    1528:	006c7274 	rsbeq	r7, ip, r4, ror r2
    152c:	6461724c 	strbtvs	r7, [r1], #-588	; 0xfffffdb4
    1530:	61445f63 	mrsvs	r5, SPSR
    1534:	00316174 	eorseq	r6, r1, r4, ror r1
    1538:	4979654b 	ldmdbmi	r9!, {r0, r1, r3, r6, r8, sl, sp, lr}^
    153c:	0063746e 	rsbeq	r7, r3, lr, ror #8
    1540:	6e617473 	mcrvs	4, 3, r7, cr1, cr3, {3}
    1544:	5f796264 	svcpl	0x00796264
    1548:	72657571 	rsbvc	r7, r5, #473956352	; 0x1c400000
    154c:	656b5f79 	strbvs	r5, [fp, #-3961]!	; 0xfffff087
    1550:	5f5f0079 	svcpl	0x005f0079
    1554:	4e415453 	mcrmi	4, 2, r5, cr1, cr3, {2}
    1558:	5f594244 	svcpl	0x00594244
    155c:	5f59454b 	svcpl	0x0059454b
    1560:	00474552 	subeq	r4, r7, r2, asr r5
    1564:	6461724c 	strbtvs	r7, [r1], #-588	; 0xfffffdb4
    1568:	61445f63 	mrsvs	r5, SPSR
    156c:	00306174 	eorseq	r6, r0, r4, ror r1
    1570:	4379654b 	cmnmi	r9, #314572800	; 0x12c00000
    1574:	006c7274 	rsbeq	r7, ip, r4, ror r2
    1578:	6e617473 	mcrvs	4, 3, r7, cr1, cr3, {3}
    157c:	5f796264 	svcpl	0x00796264
    1580:	5f746567 	svcpl	0x00746567
    1584:	746c6f76 	strbtvc	r6, [ip], #-3958	; 0xfffff08a
    1588:	00656761 	rsbeq	r6, r5, r1, ror #14
    158c:	69766964 	ldmdbvs	r6!, {r2, r5, r6, r8, fp, sp, lr}^
    1590:	726f6973 	rsbvc	r6, pc, #1884160	; 0x1cc000
    1594:	6e696600 	cdpvs	6, 6, cr6, cr9, cr0, {0}
    1598:	6e695f64 	cdpvs	15, 6, cr5, cr9, cr4, {3}
    159c:	6d006f66 	stcvs	15, cr6, [r0, #-408]	; 0xfffffe68
    15a0:	755f7861 	ldrbvc	r7, [pc, #-2145]	; d47 <__standby_start+0xd47>
    15a4:	6d740056 	ldclvs	0, cr0, [r4, #-344]!	; 0xfffffea8
    15a8:	76694470 			; <UNDEFINED> instruction: 0x76694470
    15ac:	61747300 	cmnvs	r4, r0, lsl #6
    15b0:	7962646e 	stmdbvc	r2!, {r1, r2, r3, r5, r6, sl, sp, lr}^
    15b4:	776f705f 			; <UNDEFINED> instruction: 0x776f705f
    15b8:	632e7265 	teqvs	lr, #1342177286	; 0x50000006
    15bc:	61747300 	cmnvs	r4, r0, lsl #6
    15c0:	7962646e 	stmdbvc	r2!, {r1, r2, r3, r5, r6, sl, sp, lr}^
    15c4:	776f705f 			; <UNDEFINED> instruction: 0x776f705f
    15c8:	695f7265 	ldmdbvs	pc, {r0, r2, r5, r6, r9, ip, sp, lr}^	; <UNPREDICTABLE>
    15cc:	0074696e 	rsbseq	r6, r4, lr, ror #18
    15d0:	5f495754 	svcpl	0x00495754
    15d4:	575f504f 	ldrbpl	r5, [pc, -pc, asr #32]
    15d8:	6f760052 	svcvs	0x00760052
    15dc:	626e5f6c 	rsbvs	r5, lr, #108, 30	; 0x1b0
    15e0:	00737469 	rsbseq	r7, r3, r9, ror #8
    15e4:	6e617473 	mcrvs	4, 3, r7, cr1, cr3, {3}
    15e8:	5f796264 	svcpl	0x00796264
    15ec:	5f746573 	svcpl	0x00746573
    15f0:	746c6f76 	strbtvc	r6, [ip], #-3958	; 0xfffff08a
    15f4:	00656761 	rsbeq	r6, r5, r1, ror #14
    15f8:	5f6c6f76 	svcpl	0x006c6f76
    15fc:	66696873 			; <UNDEFINED> instruction: 0x66696873
    1600:	78610074 	stmdavc	r1!, {r2, r4, r5, r6}^
    1604:	5f303270 	svcpl	0x00303270
    1608:	6f666e69 	svcvs	0x00666e69
    160c:	70786100 	rsbsvc	r6, r8, r0, lsl #2
    1610:	666e695f 			; <UNDEFINED> instruction: 0x666e695f
    1614:	5754006f 	ldrbpl	r0, [r4, -pc, rrx]
    1618:	504f5f49 	subpl	r5, pc, r9, asr #30
    161c:	0044525f 	subeq	r5, r4, pc, asr r2
    1620:	656b6177 	strbvs	r6, [fp, #-375]!	; 0xfffffe89
    1624:	735f7075 	cmpvc	pc, #117	; 0x75
    1628:	74006372 	strvc	r6, [r0], #-882	; 0xfffffc8e
    162c:	7551706d 	ldrbvc	r7, [r1, #-109]	; 0xffffff93
    1630:	7400746f 	strvc	r7, [r0], #-1135	; 0xfffffb91
    1634:	6f5f6977 	svcvs	0x005f6977
    1638:	79745f70 	ldmdbvc	r4!, {r4, r5, r6, r8, r9, sl, fp, ip, lr}^
    163c:	655f6570 	ldrbvs	r6, [pc, #-1392]	; 10d4 <__standby_start+0x10d4>
    1640:	67657200 	strbvs	r7, [r5, -r0, lsl #4]!
    1644:	6c61765f 	stclvs	6, cr7, [r1], #-380	; 0xfffffe84
    1648:	65747300 	ldrbvs	r7, [r4, #-768]!	; 0xfffffd00
    164c:	56755f70 	uhsub16pl	r5, r5, r0
    1650:	6e696d00 	cdpvs	13, 6, cr6, cr9, cr0, {0}
    1654:	0056755f 	subseq	r7, r6, pc, asr r5
    1658:	32707861 	rsbscc	r7, r0, #6356992	; 0x610000
    165c:	646c5f30 	strbtvs	r5, [ip], #-3888	; 0xfffff0d0
    1660:	645f346f 	ldrbvs	r3, [pc], #-1135	; 1668 <__standby_start+0x1668>
    1664:	00617461 	rsbeq	r7, r1, r1, ror #8
    1668:	6b73616d 	blvs	1cd9c24 <__standby_start+0x1cd9c24>
    166c:	6c6f7600 	stclvs	6, cr7, [pc], #-0	; 1674 <__standby_start+0x1674>
    1670:	6765725f 			; <UNDEFINED> instruction: 0x6765725f
    1674:	76696400 	strbtvc	r6, [r9], -r0, lsl #8
    1678:	6e656469 	cdpvs	4, 6, cr6, cr5, cr9, {3}
    167c:	68630064 	stmdavs	r3!, {r2, r5, r6}^
    1680:	5f6b6365 	svcpl	0x006b6365
    1684:	676e6172 			; <UNDEFINED> instruction: 0x676e6172
    1688:	74730065 	ldrbtvc	r0, [r3], #-101	; 0xffffff9b
    168c:	62646e61 	rsbvs	r6, r4, #1552	; 0x610
    1690:	6f705f79 	svcvs	0x00705f79
    1694:	5f726577 	svcpl	0x00726577
    1698:	74697865 	strbtvc	r7, [r9], #-2149	; 0xfffff79b
    169c:	77617200 	strbvc	r7, [r1, -r0, lsl #4]!
    16a0:	62696c5f 	rsbvs	r6, r9, #24320	; 0x5f00
    16a4:	6964755f 	stmdbvs	r4!, {r0, r1, r2, r3, r4, r6, r8, sl, ip, sp, lr}^
    16a8:	4d540076 	ldclmi	0, cr0, [r4, #-472]	; 0xfffffe28
    16ac:	56455f52 			; <UNDEFINED> instruction: 0x56455f52
    16b0:	5f544e45 	svcpl	0x00544e45
    16b4:	45574f50 	ldrbmi	r4, [r7, #-3920]	; 0xfffff0b0
    16b8:	46464f52 			; <UNDEFINED> instruction: 0x46464f52
    16bc:	616c4100 	cmnvs	ip, r0, lsl #2
    16c0:	48576d72 	ldmdami	r7, {r1, r4, r5, r6, r8, sl, fp, sp, lr}^
    16c4:	4100534d 	tstmi	r0, sp, asr #6
    16c8:	6d72616c 	ldfvse	f6, [r2, #-432]!	; 0xfffffe50
    16cc:	53717249 	cmnpl	r1, #-1879048188	; 0x90000004
    16d0:	54006174 	strpl	r6, [r0], #-372	; 0xfffffe8c
    16d4:	455f524d 	ldrbmi	r5, [pc, #-589]	; 148f <__standby_start+0x148f>
    16d8:	544e4556 	strbpl	r4, [lr], #-1366	; 0xfffffaaa
    16dc:	414c415f 	cmpmi	ip, pc, asr r1
    16e0:	41004d52 	tstmi	r0, r2, asr sp
    16e4:	43317376 	teqmi	r1, #-671088639	; 0xd8000001
    16e8:	4100746e 	tstmi	r0, lr, ror #8
    16ec:	6d72616c 	ldfvse	f6, [r2, #-432]!	; 0xfffffe50
    16f0:	45717249 	ldrbmi	r7, [r1, #-585]!	; 0xfffffdb7
    16f4:	7452006e 	ldrbvc	r0, [r2], #-110	; 0xffffff92
    16f8:	4d484463 	cfstrdmi	mvd4, [r8, #-396]	; 0xfffffe74
    16fc:	6f440053 	svcvs	0x00440053
    1700:	6c744367 	ldclvs	3, cr4, [r4], #-412	; 0xfffffe64
    1704:	63745200 	cmnvs	r4, #0, 4
    1708:	00444d59 	subeq	r4, r4, r9, asr sp
    170c:	30726d54 	rsbscc	r6, r2, r4, asr sp
    1710:	56746e49 	ldrbtpl	r6, [r4], -r9, asr #28
    1714:	52006c61 	andpl	r6, r0, #24832	; 0x6100
    1718:	4d486374 	stclmi	3, cr6, [r8, #-464]	; 0xfffffe30
    171c:	5f5f0053 	svcpl	0x005f0053
    1720:	6e617473 	mcrvs	4, 3, r7, cr1, cr3, {3}
    1724:	5f796264 	svcpl	0x00796264
    1728:	5f726d74 	svcpl	0x00726d74
    172c:	5f676572 	svcpl	0x00676572
    1730:	6d540074 	ldclvs	0, cr0, [r4, #-464]	; 0xfffffe30
    1734:	74433172 	strbvc	r3, [r3], #-370	; 0xfffffe8e
    1738:	6d54006c 	ldclvs	0, cr0, [r4, #-432]	; 0xfffffe50
    173c:	6e433072 	mcrvs	0, 2, r3, cr3, cr2, {3}
    1740:	6c615674 	stclvs	6, cr5, [r1], #-464	; 0xfffffe30
    1744:	726d7400 	rsbvc	r7, sp, #0, 8
    1748:	6576655f 	ldrbvs	r6, [r6, #-1375]!	; 0xfffffaa1
    174c:	745f746e 	ldrbvc	r7, [pc], #-1134	; 1754 <__standby_start+0x1754>
    1750:	5f657079 	svcpl	0x00657079
    1754:	6d540065 	ldclvs	0, cr0, [r4, #-404]	; 0xfffffe6c
    1758:	74433572 	strbvc	r3, [r3], #-1394	; 0xfffffa8e
    175c:	6d54006c 	ldclvs	0, cr0, [r4, #-432]	; 0xfffffe50
    1760:	6e493272 	mcrvs	2, 2, r3, cr9, cr2, {3}
    1764:	6c615674 	stclvs	6, cr5, [r1], #-464	; 0xfffffe30
    1768:	535f5f00 	cmppl	pc, #0, 30
    176c:	444e4154 	strbmi	r4, [lr], #-340	; 0xfffffeac
    1770:	545f5942 	ldrbpl	r5, [pc], #-2370	; 1778 <__standby_start+0x1778>
    1774:	525f524d 	subspl	r5, pc, #-805306364	; 0xd0000004
    1778:	54004745 	strpl	r4, [r0], #-1861	; 0xfffff8bb
    177c:	4332726d 	teqmi	r2, #-805306362	; 0xd0000006
    1780:	6156746e 	cmpvs	r6, lr, ror #8
    1784:	6d54006c 	ldclvs	0, cr0, [r4, #-432]	; 0xfffffe50
    1788:	6e493472 	mcrvs	4, 2, r3, cr9, cr2, {3}
    178c:	6c615674 	stclvs	6, cr5, [r1], #-464	; 0xfffffe30
    1790:	726d5400 	rsbvc	r5, sp, #0, 8
    1794:	746e4334 	strbtvc	r4, [lr], #-820	; 0xfffffccc
    1798:	006c6156 	rsbeq	r6, ip, r6, asr r1
    179c:	43737641 	cmnmi	r3, #68157440	; 0x4100000
    17a0:	41006c74 	tstmi	r0, r4, ror ip
    17a4:	6d72616c 	ldfvse	f6, [r2, #-432]!	; 0xfffffe50
    17a8:	43006e45 	movwmi	r6, #3653	; 0xe45
    17ac:	3436746e 	ldrtcc	r7, [r6], #-1134	; 0xfffffb92
    17b0:	54006948 	strpl	r6, [r0], #-2376	; 0xfffff6b8
    17b4:	4332726d 	teqmi	r2, #-805306362	; 0xd0000006
    17b8:	73006c74 	movwvc	r6, #3188	; 0xc74
    17bc:	646e6174 	strbtvs	r6, [lr], #-372	; 0xfffffe8c
    17c0:	745f7962 	ldrbvc	r7, [pc], #-2402	; 17c8 <__standby_start+0x17c8>
    17c4:	645f726d 	ldrbvs	r7, [pc], #-621	; 17cc <__standby_start+0x17cc>
    17c8:	62617369 	rsbvs	r7, r1, #-1543503871	; 0xa4000001
    17cc:	775f656c 	ldrbvc	r6, [pc, -ip, ror #10]
    17d0:	68637461 	stmdavs	r3!, {r0, r5, r6, sl, ip, sp, lr}^
    17d4:	00676f64 	rsbeq	r6, r7, r4, ror #30
    17d8:	4d676f44 	stclmi	15, cr6, [r7, #-272]!	; 0xfffffef0
    17dc:	0065646f 	rsbeq	r6, r5, pc, ror #8
    17e0:	36746e43 	ldrbtcc	r6, [r4], -r3, asr #28
    17e4:	006f4c34 	rsbeq	r4, pc, r4, lsr ip	; <UNPREDICTABLE>
    17e8:	6f636573 	svcvs	0x00636573
    17ec:	7300646e 	movwvc	r6, #1134	; 0x46e
    17f0:	646e6174 	strbtvs	r6, [lr], #-372	; 0xfffffe8c
    17f4:	745f7962 	ldrbvc	r7, [pc], #-2402	; 17fc <__standby_start+0x17fc>
    17f8:	655f726d 	ldrbvs	r7, [pc, #-621]	; 1593 <__standby_start+0x1593>
    17fc:	00746978 	rsbseq	r6, r4, r8, ror r9
    1800:	63736f4c 	cmnvs	r3, #76, 30	; 0x130
    1804:	006c7443 	rsbeq	r7, ip, r3, asr #8
    1808:	36746e43 	ldrbtcc	r6, [r4], -r3, asr #28
    180c:	6c744334 	ldclvs	3, cr4, [r4], #-208	; 0xffffff30
    1810:	726d5400 	rsbvc	r5, sp, #0, 8
    1814:	746e4931 	strbtvc	r4, [lr], #-2353	; 0xfffff6cf
    1818:	006c6156 	rsbeq	r6, ip, r6, asr r1
    181c:	44737641 	ldrbtmi	r7, [r3], #-1601	; 0xfffff9bf
    1820:	54007669 	strpl	r7, [r0], #-1641	; 0xfffff997
    1824:	4333726d 	teqmi	r3, #-805306362	; 0xd0000006
    1828:	49006c74 	stmdbmi	r0, {r2, r4, r5, r6, sl, fp, sp, lr}
    182c:	7453746e 	ldrbvc	r7, [r3], #-1134	; 0xfffffb92
    1830:	6d540061 	ldclvs	0, cr0, [r4, #-388]	; 0xfffffe7c
    1834:	52704772 	rsbspl	r4, r0, #29884416	; 0x1c80000
    1838:	54006765 	strpl	r6, [r0], #-1893	; 0xfffff89b
    183c:	4331726d 	teqmi	r1, #-805306362	; 0xd0000006
    1840:	6156746e 	cmpvs	r6, lr, ror #8
    1844:	7473006c 	ldrbtvc	r0, [r3], #-108	; 0xffffff94
    1848:	62646e61 	rsbvs	r6, r4, #1552	; 0x610
    184c:	6d745f79 	ldclvs	15, cr5, [r4, #-484]!	; 0xfffffe1c
    1850:	646d5f72 	strbtvs	r5, [sp], #-3954	; 0xfffff08e
    1854:	0079616c 	rsbseq	r6, r9, ip, ror #2
    1858:	49726d54 	ldmdbmi	r2!, {r2, r4, r6, r8, sl, fp, sp, lr}^
    185c:	7443746e 	strbvc	r7, [r3], #-1134	; 0xfffffb92
    1860:	7473006c 	ldrbtvc	r0, [r3], #-108	; 0xffffff94
    1864:	62646e61 	rsbvs	r6, r4, #1552	; 0x610
    1868:	6d745f79 	ldclvs	15, cr5, [r4, #-484]!	; 0xfffffe1c
    186c:	6e695f72 	mcrvs	15, 3, r5, cr9, cr2, {3}
    1870:	54007469 	strpl	r7, [r0], #-1129	; 0xfffffb97
    1874:	4933726d 	ldmdbmi	r3!, {r0, r2, r3, r5, r6, r9, ip, sp, lr}
    1878:	6156746e 	cmpvs	r6, lr, ror #8
    187c:	7473006c 	ldrbtvc	r0, [r3], #-108	; 0xffffff94
    1880:	62646e61 	rsbvs	r6, r4, #1552	; 0x610
    1884:	6d745f79 	ldclvs	15, cr5, [r4, #-484]!	; 0xfffffe1c
    1888:	00632e72 	rsbeq	r2, r3, r2, ror lr
    188c:	6e617473 	mcrvs	4, 3, r7, cr1, cr3, {3}
    1890:	5f796264 	svcpl	0x00796264
    1894:	5f726d74 	svcpl	0x00726d74
    1898:	62616e65 	rsbvs	r6, r1, #1616	; 0x650
    189c:	775f656c 	ldrbvc	r6, [pc, -ip, ror #10]
    18a0:	68637461 	stmdavs	r3!, {r0, r5, r6, sl, ip, sp, lr}^
    18a4:	00676f64 	rsbeq	r6, r7, r4, ror #30
    18a8:	30737641 	rsbscc	r7, r3, r1, asr #12
    18ac:	00746e43 	rsbseq	r6, r4, r3, asr #28
    18b0:	35726d54 	ldrbcc	r6, [r2, #-3412]!	; 0xfffff2ac
    18b4:	56746e49 	ldrbtpl	r6, [r4], -r9, asr #28
    18b8:	73006c61 	movwvc	r6, #3169	; 0xc61
    18bc:	646e6174 	strbtvs	r6, [lr], #-372	; 0xfffffe8c
    18c0:	745f7962 	ldrbvc	r7, [pc], #-2402	; 18c8 <__standby_start+0x18c8>
    18c4:	715f726d 	cmpvc	pc, sp, ror #4
    18c8:	79726575 	ldmdbvc	r2!, {r0, r2, r4, r5, r6, r8, sl, sp, lr}^
    18cc:	726d5400 	rsbvc	r5, sp, #0, 8
    18d0:	746e4335 	strbtvc	r4, [lr], #-821	; 0xfffffccb
    18d4:	006c6156 	rsbeq	r6, ip, r6, asr r1
    18d8:	52726d54 	rsbspl	r6, r2, #84, 26	; 0x1500
    18dc:	54006765 	strpl	r6, [r0], #-1893	; 0xfffff89b
    18e0:	4330726d 	teqmi	r0, #-805306362	; 0xd0000006
    18e4:	54006c74 	strpl	r6, [r0], #-3188	; 0xfffff38c
    18e8:	4334726d 	teqmi	r4, #-805306362	; 0xd0000006
    18ec:	72006c74 	andvc	r6, r0, #116, 24	; 0x7400
    18f0:	655f6765 	ldrbvs	r6, [pc, #-1893]	; 1193 <__standby_start+0x1193>
    18f4:	54007266 	strpl	r7, [r0], #-614	; 0xfffffd9a
    18f8:	74436977 	strbvc	r6, [r3], #-2423	; 0xfffff689
    18fc:	6765526c 	strbvs	r5, [r5, -ip, ror #4]!
    1900:	006b6142 	rsbeq	r6, fp, r2, asr #2
    1904:	5f706f6e 	svcpl	0x00706f6e
    1908:	64616572 	strbtvs	r6, [r1], #-1394	; 0xfffffa8e
    190c:	67657200 	strbvs	r7, [r5, -r0, lsl #4]!
    1910:	7365725f 	cmnvc	r5, #-268435451	; 0xf0000005
    1914:	5f007465 	svcpl	0x00007465
    1918:	6e617473 	mcrvs	4, 3, r7, cr1, cr3, {3}
    191c:	5f796264 	svcpl	0x00796264
    1920:	5f697774 	svcpl	0x00697774
    1924:	706f7473 	rsbvc	r7, pc, r3, ror r4	; <UNPREDICTABLE>
    1928:	6f726700 	svcvs	0x00726700
    192c:	74007075 	strvc	r7, [r0], #-117	; 0xffffff8b
    1930:	725f6977 	subsvc	r6, pc, #1949696	; 0x1dc000
    1934:	5f006765 	svcpl	0x00006765
    1938:	6977745f 	ldmdbvs	r7!, {r0, r1, r2, r3, r4, r6, sl, ip, sp, lr}^
    193c:	65725f63 	ldrbvs	r5, [r2, #-3939]!	; 0xfffff09d
    1940:	00745f67 	rsbseq	r5, r4, r7, ror #30
    1944:	5f676572 	svcpl	0x00676572
    1948:	726b6c63 	rsbvc	r6, fp, #25344	; 0x6300
    194c:	67657200 	strbvs	r7, [r5, -r0, lsl #4]!
    1950:	7461645f 	strbtvc	r6, [r1], #-1119	; 0xfffffba1
    1954:	57540061 	ldrbpl	r0, [r4, -r1, rrx]
    1958:	45525f49 	ldrbmi	r5, [r2, #-3913]	; 0xfffff0b7
    195c:	41425f47 	mrsmi	r5, SPSR
    1960:	73004553 	movwvc	r4, #1363	; 0x553
    1964:	646e6174 	strbtvs	r6, [lr], #-372	; 0xfffffe8c
    1968:	745f7962 	ldrbvc	r7, [pc], #-2402	; 1970 <__standby_start+0x1970>
    196c:	655f6977 	ldrbvs	r6, [pc, #-2423]	; ffd <__standby_start+0xffd>
    1970:	00746978 	rsbseq	r6, r4, r8, ror r9
    1974:	5f676572 	svcpl	0x00676572
    1978:	64617378 	strbtvs	r7, [r1], #-888	; 0xfffffc88
    197c:	54007264 	strpl	r7, [r0], #-612	; 0xfffffd9c
    1980:	6c436977 	mcrrvs	9, 7, r6, r3, cr7
    1984:	6765526b 	strbvs	r5, [r5, -fp, ror #4]!
    1988:	006b6142 	rsbeq	r6, fp, r2, asr #2
    198c:	6e617473 	mcrvs	4, 3, r7, cr1, cr3, {3}
    1990:	5f796264 	svcpl	0x00796264
    1994:	2e697774 	mcrcs	7, 3, r7, cr9, cr4, {3}
    1998:	77740063 	ldrbvc	r0, [r4, -r3, rrx]!
    199c:	79625f69 	stmdbvc	r2!, {r0, r3, r5, r6, r8, r9, sl, fp, ip, lr}^
    19a0:	725f6574 	subsvc	r6, pc, #116, 10	; 0x1d000000
    19a4:	61620077 	smcvs	8199	; 0x2007
    19a8:	00726464 	rsbseq	r6, r2, r4, ror #8
    19ac:	706f7473 	rsbvc	r7, pc, r3, ror r4	; <UNPREDICTABLE>
    19b0:	74756f5f 	ldrbtvc	r6, [r5], #-3935	; 0xfffff0a1
    19b4:	6d697400 	cfstrdvs	mvd7, [r9, #-0]
    19b8:	74756f65 	ldrbtvc	r6, [r5], #-3941	; 0xfffff09b
    19bc:	67657200 	strbvs	r7, [r5, -r0, lsl #4]!
    19c0:	6c74635f 	ldclvs	3, cr6, [r4], #-380	; 0xfffffe84
    19c4:	61747300 	cmnvs	r4, r0, lsl #6
    19c8:	7962646e 	stmdbvc	r2!, {r1, r2, r3, r5, r6, sl, sp, lr}^
    19cc:	6977745f 	ldmdbvs	r7!, {r0, r1, r2, r3, r4, r6, sl, ip, sp, lr}^
    19d0:	696e695f 	stmdbvs	lr!, {r0, r1, r2, r3, r4, r6, r8, fp, sp, lr}^
    19d4:	61740074 	cmnvs	r4, r4, ror r0
    19d8:	77745f67 	ldrbvc	r5, [r4, -r7, ror #30]!
    19dc:	725f6369 	subsvc	r6, pc, #-1543503871	; 0xa4000001
    19e0:	72006765 	andvc	r6, r0, #26476544	; 0x1940000
    19e4:	735f6765 	cmpvc	pc, #26476544	; 0x1940000
    19e8:	72646461 	rsbvc	r6, r4, #1627389952	; 0x61000000
    19ec:	67657200 	strbvs	r7, [r5, -r0, lsl #4]!
    19f0:	74636c5f 	strbtvc	r6, [r3], #-3167	; 0xfffff3a1
    19f4:	6572006c 	ldrbvs	r0, [r2, #-108]!	; 0xffffff94
    19f8:	74735f67 	ldrbtvc	r5, [r3], #-3943	; 0xfffff099
    19fc:	73757461 	cmnvc	r5, #1627389952	; 0x61000000
    1a00:	61747300 	cmnvs	r4, r0, lsl #6
    1a04:	745f6574 	ldrbvc	r6, [pc], #-1396	; 1a0c <__standby_start+0x1a0c>
    1a08:	7300706d 	movwvc	r7, #109	; 0x6d
    1a0c:	646e6174 	strbtvs	r6, [lr], #-372	; 0xfffffe8c
    1a10:	755f7962 	ldrbvc	r7, [pc, #-2402]	; 10b6 <__standby_start+0x10b6>
    1a14:	632e6273 	teqvs	lr, #805306375	; 0x30000007
    1a18:	61747300 	cmnvs	r4, r0, lsl #6
    1a1c:	7962646e 	stmdbvc	r2!, {r1, r2, r3, r5, r6, sl, sp, lr}^
    1a20:	6273755f 	rsbsvs	r7, r3, #398458880	; 0x17c00000
    1a24:	6978655f 	ldmdbvs	r8!, {r0, r1, r2, r3, r4, r6, r8, sl, sp, lr}^
    1a28:	74730074 	ldrbtvc	r0, [r3], #-116	; 0xffffff8c
    1a2c:	62646e61 	rsbvs	r6, r4, #1552	; 0x610
    1a30:	73695f79 	cmnvc	r9, #484	; 0x1e4
    1a34:	6273755f 	rsbsvs	r7, r3, #398458880	; 0x17c00000
    1a38:	6174735f 	cmnvs	r4, pc, asr r3
    1a3c:	5f737574 	svcpl	0x00737574
    1a40:	6e616863 	cdpvs	8, 6, cr6, cr1, cr3, {3}
    1a44:	73006567 	movwvc	r6, #1383	; 0x567
    1a48:	646e6174 	strbtvs	r6, [lr], #-372	; 0xfffffe8c
    1a4c:	715f7962 	cmpvc	pc, r2, ror #18
    1a50:	79726575 	ldmdbvc	r2!, {r0, r2, r4, r5, r6, r8, sl, sp, lr}^
    1a54:	6273755f 	rsbsvs	r7, r3, #398458880	; 0x17c00000
    1a58:	6576655f 	ldrbvs	r6, [r6, #-1375]!	; 0xfffffaa1
    1a5c:	7300746e 	movwvc	r7, #1134	; 0x46e
    1a60:	646e6174 	strbtvs	r6, [lr], #-372	; 0xfffffe8c
    1a64:	755f7962 	ldrbvc	r7, [pc, #-2402]	; 110a <__standby_start+0x110a>
    1a68:	695f6273 	ldmdbvs	pc, {r0, r1, r4, r5, r6, r9, sp, lr}^	; <UNPREDICTABLE>
    1a6c:	0074696e 	rsbseq	r6, r4, lr, ror #18
    1a70:	616c6564 	cmnvs	ip, r4, ror #10
    1a74:	736d5f79 	cmnvc	sp, #484	; 0x1e4
    1a78:	2e2f2e00 	cdpcs	14, 2, cr2, cr15, cr0, {0}
    1a7c:	6d702f2e 	ldclvs	15, cr2, [r0, #-184]!	; 0xffffff48
    1a80:	6265645f 	rsbvs	r6, r5, #1593835520	; 0x5f000000
    1a84:	632e6775 	teqvs	lr, #30670848	; 0x1d40000
    1a88:	76617300 	strbtvc	r7, [r1], -r0, lsl #6
    1a8c:	75735f65 	ldrbvc	r5, [r3, #-3941]!	; 0xfffff09b
    1a90:	5f69356e 	svcpl	0x0069356e
    1a94:	5f6d656d 	svcpl	0x006d656d
    1a98:	74617473 	strbtvc	r7, [r1], #-1139	; 0xfffffb8d
    1a9c:	74007375 	strvc	r7, [r0], #-885	; 0xfffffc8b
    1aa0:	65677261 	strbvs	r7, [r7, #-609]!	; 0xfffffd9f
    1aa4:	6f690074 	svcvs	0x00690074
    1aa8:	696e695f 	stmdbvs	lr!, {r0, r1, r2, r3, r4, r6, r8, fp, sp, lr}^
    1aac:	69685f74 	stmdbvs	r8!, {r2, r4, r5, r6, r8, r9, sl, fp, ip, lr}^
    1ab0:	63006867 	movwvs	r6, #2151	; 0x867
    1ab4:	676e6168 	strbvs	r6, [lr, -r8, ror #2]!
    1ab8:	75725f65 	ldrbvc	r5, [r2, #-3941]!	; 0xfffff09b
    1abc:	6d69746e 	cfstrdvs	mvd7, [r9, #-440]!	; 0xfffffe48
    1ac0:	6e655f65 	cdpvs	15, 6, cr5, cr5, cr5, {3}
    1ac4:	65720076 	ldrbvs	r0, [r2, #-118]!	; 0xffffff8a
    1ac8:	726f7473 	rsbvc	r7, pc, #1929379840	; 0x73000000
    1acc:	65705f65 	ldrbvs	r5, [r0, #-3941]!	; 0xfffff09b
    1ad0:	6f636672 	svcvs	0x00636672
    1ad4:	65746e75 	ldrbvs	r6, [r4, #-3701]!	; 0xfffff18b
    1ad8:	6f6c0072 	svcvs	0x006c0072
    1adc:	665f706f 	ldrbvs	r7, [pc], -pc, rrx
    1ae0:	0067616c 	rsbeq	r6, r7, ip, ror #2
    1ae4:	616c6564 	cmnvs	ip, r4, ror #10
    1ae8:	73755f79 	cmnvc	r5, #484	; 0x1e4
    1aec:	65766f00 	ldrbvs	r6, [r6, #-3840]!	; 0xfffff100
    1af0:	61656872 	smcvs	22146	; 0x5682
    1af4:	6e650064 	cdpvs	0, 6, cr0, cr5, cr4, {3}
    1af8:	656c6261 	strbvs	r6, [ip, #-609]!	; 0xfffffd9f
    1afc:	7669645f 			; <UNDEFINED> instruction: 0x7669645f
    1b00:	72656469 	rsbvc	r6, r5, #1761607680	; 0x69000000
    1b04:	76617300 	strbtvc	r7, [r1], -r0, lsl #6
    1b08:	75735f65 	ldrbvc	r5, [r3, #-3941]!	; 0xfffff09b
    1b0c:	5f69356e 	svcpl	0x0069356e
    1b10:	5f6d656d 	svcpl	0x006d656d
    1b14:	74617473 	strbtvc	r7, [r1], #-1139	; 0xfffffb8d
    1b18:	6e5f7375 	mrcvs	3, 2, r7, cr15, cr5, {3}
    1b1c:	756d6d6f 	strbvc	r6, [sp, #-3439]!	; 0xfffff291
    1b20:	73657200 	cmnvc	r5, #0, 4
    1b24:	635f7465 	cmpvs	pc, #1694498816	; 0x65000000
    1b28:	746e756f 	strbtvc	r7, [lr], #-1391	; 0xfffffa91
    1b2c:	73007265 	movwvc	r7, #613	; 0x265
    1b30:	5f657661 	svcpl	0x00657661
    1b34:	5f6d656d 	svcpl	0x006d656d
    1b38:	74617473 	strbtvc	r7, [r1], #-1139	; 0xfffffb8d
    1b3c:	6e5f7375 	mrcvs	3, 2, r7, cr15, cr5, {3}
    1b40:	756d6d6f 	strbvc	r6, [sp, #-3439]!	; 0xfffff291
    1b44:	5f6f6900 	svcpl	0x006f6900
    1b48:	68676968 	stmdavs	r7!, {r3, r5, r6, r8, fp, sp, lr}^
    1b4c:	63616200 	cmnvs	r1, #0, 4
    1b50:	5f70756b 	svcpl	0x0070756b
    1b54:	66726570 			; <UNDEFINED> instruction: 0x66726570
    1b58:	756f635f 	strbvc	r6, [pc, #-863]!	; 1801 <__standby_start+0x1801>
    1b5c:	7265746e 	rsbvc	r7, r5, #1845493760	; 0x6e000000
    1b60:	616e655f 	cmnvs	lr, pc, asr r5
    1b64:	5f656c62 	svcpl	0x00656c62
    1b68:	00676572 	rsbeq	r6, r7, r2, ror r5
    1b6c:	65766173 	ldrbvs	r6, [r6, #-371]!	; 0xfffffe8d
    1b70:	6d656d5f 	stclvs	13, cr6, [r5, #-380]!	; 0xfffffe84
    1b74:	616c665f 	cmnvs	ip, pc, asr r6
    1b78:	6d630067 	stclvs	0, cr0, [r3, #-412]!	; 0xfffffe64
    1b7c:	65725f75 	ldrbvs	r5, [r2, #-3957]!	; 0xfffff08b
    1b80:	61620067 	cmnvs	r2, r7, rrx
    1b84:	70756b63 	rsbsvc	r6, r5, r3, ror #22
    1b88:	7265705f 	rsbvc	r7, r5, #95	; 0x5f
    1b8c:	756f6366 	strbvc	r6, [pc, #-870]!	; 182e <__standby_start+0x182e>
    1b90:	7265746e 	rsbvc	r7, r5, #1845493760	; 0x6e000000
    1b94:	5f737500 	svcpl	0x00737500
    1b98:	00746e63 	rsbseq	r6, r4, r3, ror #28
    1b9c:	725f6f64 	subsvc	r6, pc, #100, 30	; 0x190
    1ba0:	74657365 	strbtvc	r7, [r5], #-869	; 0xfffffc9b
    1ba4:	6b616600 	blvs	185b3ac <__standby_start+0x185b3ac>
    1ba8:	75625f65 	strbvc	r5, [r2, #-3941]!	; 0xfffff09b
    1bac:	775f7973 			; <UNDEFINED> instruction: 0x775f7973
    1bb0:	69746961 	ldmdbvs	r4!, {r0, r5, r6, r8, fp, sp, lr}^
    1bb4:	6200676e 	andvs	r6, r0, #28835840	; 0x1b80000
    1bb8:	756b6361 	strbvc	r6, [fp, #-865]!	; 0xfffffc9f
    1bbc:	65705f70 	ldrbvs	r5, [r0, #-3952]!	; 0xfffff090
    1bc0:	635f6672 	cmpvs	pc, #119537664	; 0x7200000
    1bc4:	746e756f 	strbtvc	r7, [lr], #-1391	; 0xfffffa91
    1bc8:	635f7265 	cmpvs	pc, #1342177286	; 0x50000006
    1bcc:	5f6c7274 	svcpl	0x006c7274
    1bd0:	00676572 	rsbeq	r6, r7, r2, ror r5
    1bd4:	695f6f69 	ldmdbvs	pc, {r0, r3, r5, r6, r8, r9, sl, fp, sp, lr}^	; <UNPREDICTABLE>
    1bd8:	5f74696e 	svcpl	0x0074696e
    1bdc:	00776f6c 	rsbseq	r6, r7, ip, ror #30
    1be0:	5f756d6d 	svcpl	0x00756d6d
    1be4:	67616c66 	strbvs	r6, [r1, -r6, ror #24]!
    1be8:	5f6f6900 	svcpl	0x006f6900
    1bec:	74696e69 	strbtvc	r6, [r9], #-3689	; 0xfffff197
    1bf0:	74656700 	strbtvc	r6, [r5], #-1792	; 0xfffff900
    1bf4:	6d656d5f 	stclvs	13, cr6, [r5, #-380]!	; 0xfffffe84
    1bf8:	6174735f 	cmnvs	r4, pc, asr r3
    1bfc:	00737574 	rsbseq	r7, r3, r4, ror r5
    1c00:	65766173 	ldrbvs	r6, [r6, #-371]!	; 0xfffffe8d
    1c04:	6c665f64 	stclvs	15, cr5, [r6], #-400	; 0xfffffe70
    1c08:	63006761 	movwvs	r6, #1889	; 0x761
    1c0c:	665f7570 			; <UNDEFINED> instruction: 0x665f7570
    1c10:	00716572 	rsbseq	r6, r1, r2, ror r5
    1c14:	74696e69 	strbtvc	r6, [r9], #-3689	; 0xfffff197
    1c18:	7265705f 	rsbvc	r7, r5, #95	; 0x5f
    1c1c:	756f6366 	strbvc	r6, [pc, #-870]!	; 18be <__standby_start+0x18be>
    1c20:	7265746e 	rsbvc	r7, r5, #1845493760	; 0x6e000000
    1c24:	61660073 	smcvs	24579	; 0x6003
    1c28:	726f7463 	rsbvc	r7, pc, #1660944384	; 0x63000000
    1c2c:	66006b5f 			; <UNDEFINED> instruction: 0x66006b5f
    1c30:	6f746361 	svcvs	0x00746361
    1c34:	006d5f72 	rsbeq	r5, sp, r2, ror pc
    1c38:	74636166 	strbtvc	r6, [r3], #-358	; 0xfffffe9a
    1c3c:	6e5f726f 	cdpvs	2, 5, cr7, cr15, cr15, {3}
    1c40:	63616600 	cmnvs	r1, #0, 12
    1c44:	5f726f74 	svcpl	0x00726f74
    1c48:	65670070 	strbvs	r0, [r7, #-112]!	; 0xffffff90
    1c4c:	79635f74 	stmdbvc	r3!, {r2, r4, r5, r6, r8, r9, sl, fp, ip, lr}^
    1c50:	63656c63 	cmnvs	r5, #25344	; 0x6300
    1c54:	746e756f 	strbtvc	r7, [lr], #-1391	; 0xfffffa91
    1c58:	76617300 	strbtvc	r7, [r1], -r0, lsl #6
    1c5c:	656d5f65 	strbvs	r5, [sp, #-3941]!	; 0xfffff09b
    1c60:	74735f6d 	ldrbtvc	r5, [r3], #-3949	; 0xfffff093
    1c64:	73757461 	cmnvc	r5, #1627389952	; 0x61000000
    1c68:	67657200 	strbvs	r7, [r5, -r0, lsl #4]!
    1c6c:	636f695f 	cmnvs	pc, #1556480	; 0x17c000
    1c70:	52440072 	subpl	r0, r4, #114	; 0x72
    1c74:	5f434d41 	svcpl	0x00434d41
    1c78:	74736f68 	ldrbtvc	r6, [r3], #-3944	; 0xfffff098
    1c7c:	74726f70 	ldrbtvc	r6, [r2], #-3952	; 0xfffff090
    1c80:	7465735f 	strbtvc	r7, [r5], #-863	; 0xfffffca1
    1c84:	6d007075 	stcvs	0, cr7, [r0, #-468]	; 0xfffffe2c
    1c88:	5f6c7463 	svcpl	0x006c7463
    1c8c:	65646f6d 	strbvs	r6, [r4, #-3949]!	; 0xfffff093
    1c90:	6978655f 	ldmdbvs	r8!, {r0, r1, r2, r3, r4, r6, r8, sl, sp, lr}^
    1c94:	636d0074 	cmnvs	sp, #116	; 0x74
    1c98:	635f6c74 	cmpvs	pc, #116, 24	; 0x7400
    1c9c:	69666e6f 	stmdbvs	r6!, {r0, r1, r2, r3, r5, r6, r9, sl, fp, sp, lr}^
    1ca0:	65727567 	ldrbvs	r7, [r2, #-1383]!	; 0xfffffa99
    1ca4:	736f685f 	cmnvc	pc, #6225920	; 0x5f0000
    1ca8:	726f7074 	rsbvc	r7, pc, #116	; 0x74
    1cac:	6d630074 	stclvs	0, cr0, [r3, #-464]!	; 0xfffffe30
    1cb0:	756e5f64 	strbvc	r5, [lr, #-3940]!	; 0xfffff09c
    1cb4:	6f70006d 	svcvs	0x0070006d
    1cb8:	705f7472 	subsvc	r7, pc, r2, ror r4	; <UNPREDICTABLE>
    1cbc:	6c5f6972 	mrrcvs	9, 7, r6, pc, cr2	; <UNPREDICTABLE>
    1cc0:	6c657665 	stclvs	6, cr7, [r5], #-404	; 0xfffffe6c
    1cc4:	67657200 	strbvs	r7, [r5, -r0, lsl #4]!
    1cc8:	73717a5f 	cmnvc	r1, #389120	; 0x5f000
    1ccc:	52440072 	subpl	r0, r4, #114	; 0x72
    1cd0:	5f434d41 	svcpl	0x00434d41
    1cd4:	74697865 	strbtvc	r7, [r9], #-2149	; 0xfffff79b
    1cd8:	6c65735f 	stclvs	3, cr7, [r5], #-380	; 0xfffffe84
    1cdc:	66657266 	strbtvs	r7, [r5], -r6, ror #4
    1ce0:	68736572 	ldmdavs	r3!, {r1, r4, r5, r6, r8, sl, sp, lr}^
    1ce4:	67657200 	strbvs	r7, [r5, -r0, lsl #4]!
    1ce8:	7263645f 	rsbvc	r6, r3, #1593835520	; 0x5f000000
    1cec:	67657200 	strbvs	r7, [r5, -r0, lsl #4]!
    1cf0:	7272645f 	rsbsvc	r6, r2, #1593835520	; 0x5f000000
    1cf4:	41524400 	cmpmi	r2, r0, lsl #8
    1cf8:	725f434d 	subsvc	r4, pc, #872415233	; 0x34000001
    1cfc:	61727465 	cmnvs	r2, r5, ror #8
    1d00:	6e696e69 	cdpvs	14, 6, cr6, cr9, cr9, {3}
    1d04:	52440067 	subpl	r0, r4, #103	; 0x67
    1d08:	5f434d41 	svcpl	0x00434d41
    1d0c:	65746e65 	ldrbvs	r6, [r4, #-3685]!	; 0xfffff19b
    1d10:	65735f72 	ldrbvs	r5, [r3, #-3954]!	; 0xfffff08e
    1d14:	6572666c 	ldrbvs	r6, [r2, #-1644]!	; 0xfffff994
    1d18:	73657266 	cmnvc	r5, #1610612742	; 0x60000006
    1d1c:	72640068 	rsbvc	r0, r4, #104	; 0x68
    1d20:	685f6d61 	ldmdavs	pc, {r0, r5, r6, r8, sl, fp, sp, lr}^	; <UNPREDICTABLE>
    1d24:	7074736f 	rsbsvc	r7, r4, pc, ror #6
    1d28:	5f74726f 	svcpl	0x0074726f
    1d2c:	75746573 	ldrbvc	r6, [r4, #-1395]!	; 0xfffffa8d
    1d30:	65720070 	ldrbvs	r0, [r2, #-112]!	; 0xffffff90
    1d34:	63635f67 	cmnvs	r3, #412	; 0x19c
    1d38:	72640072 	rsbvc	r0, r4, #114	; 0x72
    1d3c:	685f6d61 	ldmdavs	pc, {r0, r5, r6, r8, sl, fp, sp, lr}^	; <UNPREDICTABLE>
    1d40:	7074736f 	rsbsvc	r7, r4, pc, ror #6
    1d44:	5f74726f 	svcpl	0x0074726f
    1d48:	6f5f6e6f 	svcvs	0x005f6e6f
    1d4c:	72006666 	andvc	r6, r0, #106954752	; 0x6600000
    1d50:	7a5f6765 	bvc	17dbaec <__standby_start+0x17dbaec>
    1d54:	30726371 	rsbscc	r6, r2, r1, ror r3
    1d58:	41524400 	cmpmi	r2, r0, lsl #8
    1d5c:	685f434d 	ldmdavs	pc, {r0, r2, r3, r6, r8, r9, lr}^	; <UNPREDICTABLE>
    1d60:	7074736f 	rsbsvc	r7, r4, pc, ror #6
    1d64:	5f74726f 	svcpl	0x0074726f
    1d68:	63656863 	cmnvs	r5, #6488064	; 0x630000
    1d6c:	68615f6b 	stmdavs	r1!, {r0, r1, r3, r5, r6, r8, r9, sl, fp, ip, lr}^
    1d70:	69665f62 	stmdbvs	r6!, {r1, r5, r6, r8, r9, sl, fp, ip, lr}^
    1d74:	735f6f66 	cmpvc	pc, #408	; 0x198
    1d78:	75746174 	ldrbvc	r6, [r4, #-372]!	; 0xfffffe8c
    1d7c:	52440073 	subpl	r0, r4, #115	; 0x73
    1d80:	5f434d41 	svcpl	0x00434d41
    1d84:	74736f68 	ldrbtvc	r6, [r3], #-3944	; 0xfffff098
    1d88:	74726f70 	ldrbtvc	r6, [r2], #-3952	; 0xfffff090
    1d8c:	5f6e6f5f 	svcpl	0x006e6f5f
    1d90:	0066666f 	rsbeq	r6, r6, pc, ror #12
    1d94:	6c74636d 	ldclvs	3, cr6, [r4], #-436	; 0xfffffe4c
    1d98:	6572705f 	ldrbvs	r7, [r2, #-95]!	; 0xffffffa1
    1d9c:	72616863 	rsbvc	r6, r1, #6488064	; 0x630000
    1da0:	615f6567 	cmpvs	pc, r7, ror #10
    1da4:	44006c6c 	strmi	r6, [r0], #-3180	; 0xfffff394
    1da8:	434d4152 	movtmi	r4, #53586	; 0xd152
    1dac:	6978655f 	ldmdbvs	r8!, {r0, r1, r2, r3, r4, r6, r8, sl, sp, lr}^
    1db0:	6f705f74 	svcvs	0x00705f74
    1db4:	5f726577 	svcpl	0x00726577
    1db8:	6e776f64 	cdpvs	15, 7, cr6, cr7, cr4, {3}
    1dbc:	67657200 	strbvs	r7, [r5, -r0, lsl #4]!
    1dc0:	7270745f 	rsbsvc	r7, r0, #1593835520	; 0x5f000000
    1dc4:	65720030 	ldrbvs	r0, [r2, #-48]!	; 0xffffffd0
    1dc8:	70745f67 	rsbsvc	r5, r4, r7, ror #30
    1dcc:	72003172 	andvc	r3, r0, #-2147483620	; 0x8000001c
    1dd0:	745f6765 	ldrbvc	r6, [pc], #-1893	; 1dd8 <__standby_start+0x1dd8>
    1dd4:	00327270 	eorseq	r7, r2, r0, ror r2
    1dd8:	5f676572 	svcpl	0x00676572
    1ddc:	33727074 	cmncc	r2, #116	; 0x74
    1de0:	61726400 	cmnvs	r2, r0, lsl #8
    1de4:	6f685f6d 	svcvs	0x00685f6d
    1de8:	6f707473 	svcvs	0x00707473
    1dec:	635f7472 	cmpvs	pc, #1912602624	; 0x72000000
    1df0:	6b636568 	blvs	18db398 <__standby_start+0x18db398>
    1df4:	6268615f 	rsbvs	r6, r8, #-1073741801	; 0xc0000017
    1df8:	6669665f 			; <UNDEFINED> instruction: 0x6669665f
    1dfc:	74735f6f 	ldrbtvc	r5, [r3], #-3951	; 0xfffff091
    1e00:	73757461 	cmnvc	r5, #1627389952	; 0x61000000
    1e04:	61726400 	cmnvs	r2, r0, lsl #8
    1e08:	78655f6d 	stmdavc	r5!, {r0, r2, r3, r5, r6, r8, r9, sl, fp, ip, lr}^
    1e0c:	735f7469 	cmpvc	pc, #1761607680	; 0x69000000
    1e10:	72666c65 	rsbvc	r6, r6, #25856	; 0x6500
    1e14:	65726665 	ldrbvs	r6, [r2, #-1637]!	; 0xfffff99b
    1e18:	64006873 	strvs	r6, [r0], #-2163	; 0xfffff78d
    1e1c:	5f6d6172 	svcpl	0x006d6172
    1e20:	65746e65 	ldrbvs	r6, [r4, #-3685]!	; 0xfffff19b
    1e24:	6f705f72 	svcvs	0x00705f72
    1e28:	5f726577 	svcpl	0x00726577
    1e2c:	6e776f64 	cdpvs	15, 7, cr6, cr7, cr4, {3}
    1e30:	67657200 	strbvs	r7, [r5, -r0, lsl #4]!
    1e34:	00726d5f 	rsbseq	r6, r2, pc, asr sp
    1e38:	6d617264 	sfmvs	f7, 2, [r1, #-400]!	; 0xfffffe70
    1e3c:	6172642f 	cmnvs	r2, pc, lsr #8
    1e40:	00632e6d 	rsbeq	r2, r3, sp, ror #28
    1e44:	4d415244 	sfmmi	f5, 2, [r1, #-272]	; 0xfffffef0
    1e48:	6e655f43 	cdpvs	15, 6, cr5, cr5, cr3, {2}
    1e4c:	5f726574 	svcpl	0x00726574
    1e50:	65776f70 	ldrbvs	r6, [r7, #-3952]!	; 0xfffff090
    1e54:	6f645f72 	svcvs	0x00645f72
    1e58:	72006e77 	andvc	r6, r0, #1904	; 0x770
    1e5c:	655f6765 	ldrbvs	r6, [pc, #-1893]	; 16ff <__standby_start+0x16ff>
    1e60:	6d00726d 	sfmvs	f7, 4, [r0, #-436]	; 0xfffffe4c
    1e64:	5f6c7463 	svcpl	0x006c7463
    1e68:	5f746573 	svcpl	0x00746573
    1e6c:	76697264 	strbtvc	r7, [r9], -r4, ror #4
    1e70:	636d0065 	cmnvs	sp, #101	; 0x65
    1e74:	615f6c74 	cmpvs	pc, r4, ror ip	; <UNPREDICTABLE>
    1e78:	725f6268 	subsvc	r6, pc, #104, 4	; 0x80000006
    1e7c:	74657365 	strbtvc	r7, [r5], #-869	; 0xfffffc9b
    1e80:	74636d00 	strbtvc	r6, [r3], #-3328	; 0xfffff300
    1e84:	64645f6c 	strbtvs	r5, [r4], #-3948	; 0xfffff094
    1e88:	725f3372 	subsvc	r3, pc, #-939524095	; 0xc8000001
    1e8c:	74657365 	strbtvc	r7, [r5], #-869	; 0xfffffc9b
    1e90:	726f7000 	rsbvc	r7, pc, #0
    1e94:	61775f74 	cmnvs	r7, r4, ror pc
    1e98:	635f7469 	cmpvs	pc, #1761607680	; 0x69000000
    1e9c:	656c6379 	strbvs	r6, [ip, #-889]!	; 0xfffffc87
    1ea0:	74657200 	strbtvc	r7, [r5], #-512	; 0xfffffe00
    1ea4:	6c61765f 	stclvs	6, cr7, [r1], #-380	; 0xfffffe84
    1ea8:	61726400 	cmnvs	r2, r0, lsl #8
    1eac:	6e655f6d 	cdpvs	15, 6, cr5, cr5, cr13, {3}
    1eb0:	5f726574 	svcpl	0x00726574
    1eb4:	666c6573 			; <UNDEFINED> instruction: 0x666c6573
    1eb8:	72666572 	rsbvc	r6, r6, #478150656	; 0x1c800000
    1ebc:	00687365 	rsbeq	r7, r8, r5, ror #6
    1ec0:	74726f70 	ldrbtvc	r6, [r2], #-3952	; 0xfffff090
    1ec4:	7864695f 	stmdavc	r4!, {r0, r1, r2, r3, r4, r6, r8, fp, sp, lr}^
    1ec8:	61726400 	cmnvs	r2, r0, lsl #8
    1ecc:	78655f6d 	stmdavc	r5!, {r0, r2, r3, r5, r6, r8, r9, sl, fp, ip, lr}^
    1ed0:	705f7469 	subsvc	r7, pc, r9, ror #8
    1ed4:	7265776f 	rsbvc	r7, r5, #29097984	; 0x1bc0000
    1ed8:	776f645f 			; <UNDEFINED> instruction: 0x776f645f
    1edc:	6572006e 	ldrbvs	r0, [r2, #-110]!	; 0xffffff92
    1ee0:	6d655f67 	stclvs	15, cr5, [r5, #-412]!	; 0xfffffe64
    1ee4:	72003272 	andvc	r3, r0, #536870919	; 0x20000007
    1ee8:	655f6765 	ldrbvs	r6, [pc, #-1893]	; 178b <__standby_start+0x178b>
    1eec:	0033726d 	eorseq	r7, r3, sp, ror #4
    1ef0:	6f697270 	svcvs	0x00697270
    1ef4:	74636d00 	strbtvc	r6, [r3], #-3328	; 0xfffff300
    1ef8:	65735f6c 	ldrbvs	r5, [r3, #-3948]!	; 0xfffff094
    1efc:	5f707574 	svcpl	0x00707574
    1f00:	6d617264 	sfmvs	f7, 2, [r1, #-400]!	; 0xfffffe70
    1f04:	6f6c635f 	svcvs	0x006c635f
    1f08:	5f006b63 	svcpl	0x00006b63
    1f0c:	3436755f 	ldrtcc	r7, [r6], #-1375	; 0xfffffaa1
    1f10:	69686300 	stmdbvs	r8!, {r8, r9, sp, lr}^
    1f14:	65645f70 	strbvs	r5, [r4, #-3952]!	; 0xfffff090
    1f18:	636d006e 	cmnvs	sp, #110	; 0x6e
    1f1c:	655f6c74 	ldrbvs	r6, [pc, #-3188]	; 12b0 <__standby_start+0x12b0>
    1f20:	6c62616e 	stfvse	f6, [r2], #-440	; 0xfffffe48
    1f24:	6c645f65 	stclvs	15, cr5, [r4], #-404	; 0xfffffe6c
    1f28:	4400786c 	strmi	r7, [r0], #-2156	; 0xfffff794
    1f2c:	434d4152 	movtmi	r4, #53586	; 0xd152
    1f30:	7465675f 	strbtvc	r6, [r5], #-1887	; 0xfffff8a1
    1f34:	6172645f 	cmnvs	r2, pc, asr r4
    1f38:	69735f6d 	ldmdbvs	r3!, {r0, r2, r3, r5, r6, r8, r9, sl, fp, ip, lr}^
    1f3c:	6400657a 	strvs	r6, [r0], #-1402	; 0xfffffa86
    1f40:	5f6d6172 	svcpl	0x006d6172
    1f44:	5f746573 	svcpl	0x00746573
    1f48:	636f6c63 	cmnvs	pc, #25344	; 0x6300
    1f4c:	5f5f006b 	svcpl	0x005f006b
    1f50:	6d617264 	sfmvs	f7, 2, [r1, #-400]!	; 0xfffffe70
    1f54:	7261705f 	rsbvc	r7, r1, #95	; 0x5f
    1f58:	00745f61 	rsbseq	r5, r4, r1, ror #30
    1f5c:	6d617264 	sfmvs	f7, 2, [r1, #-400]!	; 0xfffffe70
    1f60:	7465735f 	strbtvc	r7, [r5], #-863	; 0xfffffca1
    1f64:	7475615f 	ldrbtvc	r6, [r5], #-351	; 0xfffffea1
    1f68:	6665726f 	strbtvs	r7, [r5], -pc, ror #4
    1f6c:	68736572 	ldmdavs	r3!, {r1, r4, r5, r6, r8, sl, sp, lr}^
    1f70:	6379635f 	cmnvs	r9, #2080374785	; 0x7c000001
    1f74:	7300656c 	movwvc	r6, #1388	; 0x56c
    1f78:	646e6174 	strbtvs	r6, [lr], #-372	; 0xfffffe8c
    1f7c:	755f7962 	ldrbvc	r7, [pc, #-2402]	; 1622 <__standby_start+0x1622>
    1f80:	7669646c 	strbtvc	r6, [r9], -ip, ror #8
    1f84:	61726400 	cmnvs	r2, r0, lsl #8
    1f88:	70745f6d 	rsbsvc	r5, r4, sp, ror #30
    1f8c:	64003072 	strvs	r3, [r0], #-114	; 0xffffff8e
    1f90:	5f6d6172 	svcpl	0x006d6172
    1f94:	31727074 	cmncc	r2, r4, ror r0
    1f98:	61726400 	cmnvs	r2, r0, lsl #8
    1f9c:	70745f6d 	rsbsvc	r5, r4, sp, ror #30
    1fa0:	64003272 	strvs	r3, [r0], #-626	; 0xfffffd8e
    1fa4:	5f6d6172 	svcpl	0x006d6172
    1fa8:	33727074 	cmncc	r2, #116	; 0x74
    1fac:	61726400 	cmnvs	r2, r0, lsl #8
    1fb0:	70745f6d 	rsbsvc	r5, r4, sp, ror #30
    1fb4:	64003472 	strvs	r3, [r0], #-1138	; 0xfffffb8e
    1fb8:	5f6d6172 	svcpl	0x006d6172
    1fbc:	35727074 	ldrbcc	r7, [r2, #-116]!	; 0xffffff8c
    1fc0:	61726400 	cmnvs	r2, r0, lsl #8
    1fc4:	63735f6d 	cmnvs	r3, #436	; 0x1b4
    1fc8:	725f6e61 	subsvc	r6, pc, #1552	; 0x610
    1fcc:	70646165 	rsbvc	r6, r4, r5, ror #2
    1fd0:	00657069 	rsbeq	r7, r5, r9, rrx
    1fd4:	6d617264 	sfmvs	f7, 2, [r1, #-400]!	; 0xfffffe70
    1fd8:	726d655f 	rsbvc	r6, sp, #398458880	; 0x17c00000
    1fdc:	72640031 	rsbvc	r0, r4, #49	; 0x31
    1fe0:	735f6d61 	cmpvc	pc, #6208	; 0x1840
    1fe4:	645f7465 	ldrbvs	r7, [pc], #-1125	; 1fec <__standby_start+0x1fec>
    1fe8:	65766972 	ldrbvs	r6, [r6, #-2418]!	; 0xfffff68e
    1fec:	61726400 	cmnvs	r2, r0, lsl #8
    1ff0:	65675f6d 	strbvs	r5, [r7, #-3949]!	; 0xfffff093
    1ff4:	69735f74 	ldmdbvs	r3!, {r2, r4, r5, r6, r8, r9, sl, fp, ip, lr}^
    1ff8:	6400657a 	strvs	r6, [r0], #-1402	; 0xfffffa86
    1ffc:	705f7371 	subsvc	r7, pc, r1, ror r3	; <UNPREDICTABLE>
    2000:	65736168 	ldrbvs	r6, [r3, #-360]!	; 0xfffffe98
    2004:	61726400 	cmnvs	r2, r0, lsl #8
    2008:	68635f6d 	stmdavs	r3!, {r0, r2, r3, r5, r6, r8, r9, sl, fp, ip, lr}^
    200c:	645f7069 	ldrbvs	r7, [pc], #-105	; 2014 <__standby_start+0x2014>
    2010:	69736e65 	ldmdbvs	r3!, {r0, r2, r5, r6, r9, sl, fp, sp, lr}^
    2014:	44007974 	strmi	r7, [r0], #-2420	; 0xfffff68c
    2018:	434d4152 	movtmi	r4, #53586	; 0xd152
    201c:	696e695f 	stmdbvs	lr!, {r0, r1, r2, r3, r4, r6, r8, fp, sp, lr}^
    2020:	636d0074 	cmnvs	sp, #116	; 0x74
    2024:	645f6c74 	ldrbvs	r6, [pc], #-3188	; 202c <__standby_start+0x202c>
    2028:	62617369 	rsbvs	r7, r1, #-1543503871	; 0xa4000001
    202c:	645f656c 	ldrbvs	r6, [pc], #-1388	; 2034 <__standby_start+0x2034>
    2030:	64006c6c 	strvs	r6, [r0], #-3180	; 0xfffff394
    2034:	5f6d6172 	svcpl	0x006d6172
    2038:	5f74646f 	svcpl	0x0074646f
    203c:	44006e65 	strmi	r6, [r0], #-3685	; 0xfffff19b
    2040:	434d4152 	movtmi	r4, #53586	; 0xd152
    2044:	6978655f 	ldmdbvs	r8!, {r0, r1, r2, r3, r4, r6, r8, sl, sp, lr}^
    2048:	72640074 	rsbvc	r0, r4, #116	; 0x74
    204c:	695f6d61 	ldmdbvs	pc, {r0, r5, r6, r8, sl, fp, sp, lr}^	; <UNPREDICTABLE>
    2050:	0074696e 	rsbseq	r6, r4, lr, ror #18
    2054:	6c74636d 	ldclvs	3, cr6, [r4], #-436	; 0xfffffe4c
    2058:	616e655f 	cmnvs	lr, pc, asr r5
    205c:	5f656c62 	svcpl	0x00656c62
    2060:	306c6c64 	rsbcc	r6, ip, r4, ror #24
    2064:	41524400 	cmpmi	r2, r0, lsl #8
    2068:	635f434d 	cmpvs	pc, #872415233	; 0x34000001
    206c:	6b636f6c 	blvs	18dde24 <__standby_start+0x18dde24>
    2070:	74756f5f 	ldrbtvc	r6, [r5], #-3935	; 0xfffff0a1
    2074:	5f747570 	svcpl	0x00747570
    2078:	64006e65 	strvs	r6, [r0], #-3685	; 0xfffff19b
    207c:	5f6d6172 	svcpl	0x006d6172
    2080:	5f737562 	svcpl	0x00737562
    2084:	74646977 	strbtvc	r6, [r4], #-2423	; 0xfffff689
    2088:	52440068 	subpl	r0, r4, #104	; 0x68
    208c:	5f434d41 	svcpl	0x00434d41
    2090:	5f746573 	svcpl	0x00746573
    2094:	6f747561 	svcvs	0x00747561
    2098:	72666572 	rsbvc	r6, r6, #478150656	; 0x1c800000
    209c:	5f687365 	svcpl	0x00687365
    20a0:	6c637963 	stclvs	9, cr7, [r3], #-396	; 0xfffffe74
    20a4:	72640065 	rsbvc	r0, r4, #101	; 0x65
    20a8:	725f6d61 	subsvc	r6, pc, #6208	; 0x1840
    20ac:	5f6b6e61 	svcpl	0x006b6e61
    20b0:	006d756e 	rsbeq	r7, sp, lr, ror #10
    20b4:	6d617264 	sfmvs	f7, 2, [r1, #-400]!	; 0xfffffe70
    20b8:	7361625f 	cmnvc	r1, #-268435451	; 0xf0000005
    20bc:	64646165 	strbtvs	r6, [r4], #-357	; 0xfffffe9b
    20c0:	72640072 	rsbvc	r0, r4, #114	; 0x72
    20c4:	642f6d61 	strtvs	r6, [pc], #-3425	; 20cc <__standby_start+0x20cc>
    20c8:	5f6d6172 	svcpl	0x006d6172
    20cc:	74696e69 	strbtvc	r6, [r9], #-3689	; 0xfffff197
    20d0:	6d00632e 	stcvs	3, cr6, [r0, #-184]	; 0xffffff48
    20d4:	5f6c7463 	svcpl	0x006c7463
    20d8:	5f6d7469 	svcpl	0x006d7469
    20dc:	61736964 	cmnvs	r3, r4, ror #18
    20e0:	00656c62 	rsbeq	r6, r5, r2, ror #24
    20e4:	5f706d74 	svcpl	0x00706d74
    20e8:	006c6176 	rsbeq	r6, ip, r6, ror r1
    20ec:	6d617264 	sfmvs	f7, 2, [r1, #-400]!	; 0xfffffe70
    20f0:	00717a5f 	rsbseq	r7, r1, pc, asr sl
    20f4:	6d617264 	sfmvs	f7, 2, [r1, #-400]!	; 0xfffffe70
    20f8:	726d655f 	rsbvc	r6, sp, #398458880	; 0x17c00000
    20fc:	72640032 	rsbvc	r0, r4, #50	; 0x32
    2100:	655f6d61 	ldrbvs	r6, [pc, #-3425]	; 13a7 <__standby_start+0x13a7>
    2104:	0033726d 	eorseq	r7, r3, sp, ror #4
    2108:	6d617264 	sfmvs	f7, 2, [r1, #-400]!	; 0xfffffe70
    210c:	6978655f 	ldmdbvs	r8!, {r0, r1, r2, r3, r4, r6, r8, sl, sp, lr}^
    2110:	72640074 	rsbvc	r0, r4, #116	; 0x74
    2114:	635f6d61 	cmpvs	pc, #6208	; 0x1840
    2118:	6d006b6c 	vstrvs	d6, [r0, #-432]	; 0xfffffe50
    211c:	5f6c7463 	svcpl	0x006c7463
    2120:	5f6d7469 	svcpl	0x006d7469
    2124:	62616e65 	rsbvs	r6, r1, #1616	; 0x650
    2128:	6800656c 	stmdavs	r0, {r2, r3, r5, r6, r8, sl, sp, lr}
    212c:	5f726370 	svcpl	0x00726370
    2130:	756c6176 	strbvc	r6, [ip, #-374]!	; 0xfffffe8a
    2134:	52440065 	subpl	r0, r4, #101	; 0x65
    2138:	5f434d41 	svcpl	0x00434d41
    213c:	6e616373 	mcrvs	3, 3, r6, cr1, cr3, {3}
    2140:	6165725f 	cmnvs	r5, pc, asr r2
    2144:	70697064 	rsbvc	r7, r9, r4, rrx
    2148:	72640065 	rsbvc	r0, r4, #101	; 0x65
    214c:	695f6d61 	ldmdbvs	pc, {r0, r5, r6, r8, sl, fp, sp, lr}^	; <UNPREDICTABLE>
    2150:	69775f6f 	ldmdbvs	r7!, {r0, r1, r2, r3, r5, r6, r8, r9, sl, fp, ip, lr}^
    2154:	00687464 	rsbeq	r7, r8, r4, ror #8
    2158:	6d617264 	sfmvs	f7, 2, [r1, #-400]!	; 0xfffffe70
    215c:	7079745f 	rsbsvc	r7, r9, pc, asr r4
    2160:	6c640065 	stclvs	0, cr0, [r4], #-404	; 0xfffffe6c
    2164:	756e5f6c 	strbvc	r5, [lr, #-3948]!	; 0xfffff094
    2168:	7264006d 	rsbvc	r0, r4, #109	; 0x6d
    216c:	635f6d61 	cmpvs	pc, #6208	; 0x1840
    2170:	Address 0x00002170 is out of bounds.


Disassembly of section .comment:

00000000 <.comment>:
   0:	3a434347 	bcc	10d0d24 <__standby_start+0x10d0d24>
   4:	6f532820 	svcvs	0x00532820
   8:	65637275 	strbvs	r7, [r3, #-629]!	; 0xfffffd8b
   c:	47207972 			; <UNDEFINED> instruction: 0x47207972
  10:	4c202b2b 	stcmi	11, cr2, [r0], #-172	; 0xffffff54
  14:	20657469 	rsbcs	r7, r5, r9, ror #8
  18:	30313032 	eorscc	r3, r1, r2, lsr r0
  1c:	2d39302e 	ldccs	0, cr3, [r9, #-184]!	; 0xffffff48
  20:	20293035 	eorcs	r3, r9, r5, lsr r0
  24:	2e352e34 	mrccs	14, 1, r2, cr5, cr4, {1}
  28:	Address 0x00000028 is out of bounds.


Disassembly of section .ARM.attributes:

00000000 <.ARM.attributes>:
   0:	00002c41 	andeq	r2, r0, r1, asr #24
   4:	61656100 	cmnvs	r5, r0, lsl #2
   8:	01006962 	tsteq	r0, r2, ror #18
   c:	00000022 	andeq	r0, r0, r2, lsr #32
  10:	412d3705 	teqmi	sp, r5, lsl #14
  14:	070a0600 	streq	r0, [sl, -r0, lsl #12]
  18:	09010841 	stmdbeq	r1, {r0, r6, fp}
  1c:	14041202 	strne	r1, [r4], #-514	; 0xfffffdfe
  20:	17011501 	strne	r1, [r1, -r1, lsl #10]
  24:	1a011803 	bne	46038 <__standby_start+0x46038>
  28:	2c041e02 	stccs	14, cr1, [r4], {2}
  2c:	Address 0x0000002c is out of bounds.


Disassembly of section .debug_frame:

00000000 <.debug_frame>:
   0:	0000000c 	andeq	r0, r0, ip
   4:	ffffffff 			; <UNDEFINED> instruction: 0xffffffff
   8:	7c020001 	stcvc	0, cr0, [r2], {1}
   c:	000d0c0e 	andeq	r0, sp, lr, lsl #24
  10:	0000001c 	andeq	r0, r0, ip, lsl r0
  14:	00000000 	andeq	r0, r0, r0
  18:	f0000000 			; <UNDEFINED> instruction: 0xf0000000
  1c:	000003ac 	andeq	r0, r0, ip, lsr #7
  20:	42180e42 	andsmi	r0, r8, #1056	; 0x420
  24:	0287018e 	addeq	r0, r7, #-2147483613	; 0x80000023
  28:	04850386 	streq	r0, [r5], #902	; 0x386
  2c:	06830584 	streq	r0, [r3], r4, lsl #11
  30:	0000000c 	andeq	r0, r0, ip
  34:	ffffffff 			; <UNDEFINED> instruction: 0xffffffff
  38:	7c020001 	stcvc	0, cr0, [r2], {1}
  3c:	000d0c0e 	andeq	r0, sp, lr, lsl #24
  40:	0000000c 	andeq	r0, r0, ip
  44:	00000030 	andeq	r0, r0, r0, lsr r0
  48:	f00003ac 			; <UNDEFINED> instruction: 0xf00003ac
  4c:	00000028 	andeq	r0, r0, r8, lsr #32
  50:	0000000c 	andeq	r0, r0, ip
  54:	00000030 	andeq	r0, r0, r0, lsr r0
  58:	f00003d4 			; <UNDEFINED> instruction: 0xf00003d4
  5c:	00000014 	andeq	r0, r0, r4, lsl r0
  60:	0000000c 	andeq	r0, r0, ip
  64:	ffffffff 			; <UNDEFINED> instruction: 0xffffffff
  68:	7c020001 	stcvc	0, cr0, [r2], {1}
  6c:	000d0c0e 	andeq	r0, sp, lr, lsl #24
  70:	0000000c 	andeq	r0, r0, ip
  74:	00000060 	andeq	r0, r0, r0, rrx
  78:	f000050c 			; <UNDEFINED> instruction: 0xf000050c
  7c:	00000094 	muleq	r0, r4, r0
  80:	0000000c 	andeq	r0, r0, ip
  84:	00000060 	andeq	r0, r0, r0, rrx
  88:	f00005a0 			; <UNDEFINED> instruction: 0xf00005a0
  8c:	00000044 	andeq	r0, r0, r4, asr #32
  90:	0000000c 	andeq	r0, r0, ip
  94:	00000060 	andeq	r0, r0, r0, rrx
  98:	f00005e4 			; <UNDEFINED> instruction: 0xf00005e4
  9c:	00000030 	andeq	r0, r0, r0, lsr r0
  a0:	0000000c 	andeq	r0, r0, ip
  a4:	00000060 	andeq	r0, r0, r0, rrx
  a8:	f0000614 			; <UNDEFINED> instruction: 0xf0000614
  ac:	00000034 	andeq	r0, r0, r4, lsr r0
  b0:	0000000c 	andeq	r0, r0, ip
  b4:	00000060 	andeq	r0, r0, r0, rrx
  b8:	f0000648 			; <UNDEFINED> instruction: 0xf0000648
  bc:	00000034 	andeq	r0, r0, r4, lsr r0
  c0:	0000000c 	andeq	r0, r0, ip
  c4:	00000060 	andeq	r0, r0, r0, rrx
  c8:	f000067c 			; <UNDEFINED> instruction: 0xf000067c
  cc:	00000068 	andeq	r0, r0, r8, rrx
  d0:	0000000c 	andeq	r0, r0, ip
  d4:	00000060 	andeq	r0, r0, r0, rrx
  d8:	f00006e4 			; <UNDEFINED> instruction: 0xf00006e4
  dc:	00000068 	andeq	r0, r0, r8, rrx
  e0:	0000000c 	andeq	r0, r0, ip
  e4:	00000060 	andeq	r0, r0, r0, rrx
  e8:	f000074c 			; <UNDEFINED> instruction: 0xf000074c
  ec:	00000020 	andeq	r0, r0, r0, lsr #32
  f0:	0000000c 	andeq	r0, r0, ip
  f4:	00000060 	andeq	r0, r0, r0, rrx
  f8:	f000076c 			; <UNDEFINED> instruction: 0xf000076c
  fc:	00000020 	andeq	r0, r0, r0, lsr #32
 100:	0000000c 	andeq	r0, r0, ip
 104:	00000060 	andeq	r0, r0, r0, rrx
 108:	f000078c 			; <UNDEFINED> instruction: 0xf000078c
 10c:	00000048 	andeq	r0, r0, r8, asr #32
 110:	0000000c 	andeq	r0, r0, ip
 114:	00000060 	andeq	r0, r0, r0, rrx
 118:	f00007d4 			; <UNDEFINED> instruction: 0xf00007d4
 11c:	00000048 	andeq	r0, r0, r8, asr #32
 120:	0000000c 	andeq	r0, r0, ip
 124:	00000060 	andeq	r0, r0, r0, rrx
 128:	f000081c 			; <UNDEFINED> instruction: 0xf000081c
 12c:	00000060 	andeq	r0, r0, r0, rrx
 130:	0000000c 	andeq	r0, r0, ip
 134:	00000060 	andeq	r0, r0, r0, rrx
 138:	f000087c 			; <UNDEFINED> instruction: 0xf000087c
 13c:	00000058 	andeq	r0, r0, r8, asr r0
 140:	0000000c 	andeq	r0, r0, ip
 144:	00000060 	andeq	r0, r0, r0, rrx
 148:	f00008d4 			; <UNDEFINED> instruction: 0xf00008d4
 14c:	00000064 	andeq	r0, r0, r4, rrx
 150:	0000000c 	andeq	r0, r0, ip
 154:	00000060 	andeq	r0, r0, r0, rrx
 158:	f0000938 			; <UNDEFINED> instruction: 0xf0000938
 15c:	00000054 	andeq	r0, r0, r4, asr r0
 160:	0000000c 	andeq	r0, r0, ip
 164:	00000060 	andeq	r0, r0, r0, rrx
 168:	f000098c 			; <UNDEFINED> instruction: 0xf000098c
 16c:	00000030 	andeq	r0, r0, r0, lsr r0
 170:	0000000c 	andeq	r0, r0, ip
 174:	00000060 	andeq	r0, r0, r0, rrx
 178:	f00009bc 			; <UNDEFINED> instruction: 0xf00009bc
 17c:	00000024 	andeq	r0, r0, r4, lsr #32
 180:	0000000c 	andeq	r0, r0, ip
 184:	00000060 	andeq	r0, r0, r0, rrx
 188:	f00009e0 			; <UNDEFINED> instruction: 0xf00009e0
 18c:	00000020 	andeq	r0, r0, r0, lsr #32
 190:	0000000c 	andeq	r0, r0, ip
 194:	00000060 	andeq	r0, r0, r0, rrx
 198:	f0000a00 			; <UNDEFINED> instruction: 0xf0000a00
 19c:	00000040 	andeq	r0, r0, r0, asr #32
 1a0:	0000000c 	andeq	r0, r0, ip
 1a4:	00000060 	andeq	r0, r0, r0, rrx
 1a8:	f0000a40 			; <UNDEFINED> instruction: 0xf0000a40
 1ac:	0000004c 	andeq	r0, r0, ip, asr #32
 1b0:	0000000c 	andeq	r0, r0, ip
 1b4:	ffffffff 			; <UNDEFINED> instruction: 0xffffffff
 1b8:	7c020001 	stcvc	0, cr0, [r2], {1}
 1bc:	000d0c0e 	andeq	r0, sp, lr, lsl #24
 1c0:	0000000c 	andeq	r0, r0, ip
 1c4:	000001b0 			; <UNDEFINED> instruction: 0x000001b0
 1c8:	f0000a8c 			; <UNDEFINED> instruction: 0xf0000a8c
 1cc:	00000094 	muleq	r0, r4, r0
 1d0:	0000000c 	andeq	r0, r0, ip
 1d4:	000001b0 			; <UNDEFINED> instruction: 0x000001b0
 1d8:	f0000b20 			; <UNDEFINED> instruction: 0xf0000b20
 1dc:	0000005c 	andeq	r0, r0, ip, asr r0
 1e0:	00000014 	andeq	r0, r0, r4, lsl r0
 1e4:	000001b0 			; <UNDEFINED> instruction: 0x000001b0
 1e8:	f0000b7c 			; <UNDEFINED> instruction: 0xf0000b7c
 1ec:	00000048 	andeq	r0, r0, r8, asr #32
 1f0:	42080e4a 	andmi	r0, r8, #1184	; 0x4a0
 1f4:	0284018e 	addeq	r0, r4, #-2147483613	; 0x80000023
 1f8:	0000000c 	andeq	r0, r0, ip
 1fc:	000001b0 			; <UNDEFINED> instruction: 0x000001b0
 200:	f0000bc4 			; <UNDEFINED> instruction: 0xf0000bc4
 204:	00000030 	andeq	r0, r0, r0, lsr r0
 208:	0000000c 	andeq	r0, r0, ip
 20c:	ffffffff 			; <UNDEFINED> instruction: 0xffffffff
 210:	7c020001 	stcvc	0, cr0, [r2], {1}
 214:	000d0c0e 	andeq	r0, sp, lr, lsl #24
 218:	0000000c 	andeq	r0, r0, ip
 21c:	00000208 	andeq	r0, r0, r8, lsl #4
 220:	f0000bf4 			; <UNDEFINED> instruction: 0xf0000bf4
 224:	00000008 	andeq	r0, r0, r8
 228:	0000000c 	andeq	r0, r0, ip
 22c:	00000208 	andeq	r0, r0, r8, lsl #4
 230:	f0000bfc 			; <UNDEFINED> instruction: 0xf0000bfc
 234:	00000008 	andeq	r0, r0, r8
 238:	0000000c 	andeq	r0, r0, ip
 23c:	00000208 	andeq	r0, r0, r8, lsl #4
 240:	f0000c04 			; <UNDEFINED> instruction: 0xf0000c04
 244:	00000008 	andeq	r0, r0, r8
 248:	0000000c 	andeq	r0, r0, ip
 24c:	00000208 	andeq	r0, r0, r8, lsl #4
 250:	f0000c0c 			; <UNDEFINED> instruction: 0xf0000c0c
 254:	00000008 	andeq	r0, r0, r8
 258:	0000000c 	andeq	r0, r0, ip
 25c:	ffffffff 			; <UNDEFINED> instruction: 0xffffffff
 260:	7c020001 	stcvc	0, cr0, [r2], {1}
 264:	000d0c0e 	andeq	r0, sp, lr, lsl #24
 268:	00000018 	andeq	r0, r0, r8, lsl r0
 26c:	00000258 	andeq	r0, r0, r8, asr r2
 270:	f0000c14 			; <UNDEFINED> instruction: 0xf0000c14
 274:	00000058 	andeq	r0, r0, r8, asr r0
 278:	44100e42 	ldrmi	r0, [r0], #-3650	; 0xfffff1be
 27c:	0285018e 	addeq	r0, r5, #-2147483613	; 0x80000023
 280:	04830384 	streq	r0, [r3], #900	; 0x384
 284:	0000000c 	andeq	r0, r0, ip
 288:	00000258 	andeq	r0, r0, r8, asr r2
 28c:	f0000c6c 			; <UNDEFINED> instruction: 0xf0000c6c
 290:	00000020 	andeq	r0, r0, r0, lsr #32
 294:	0000000c 	andeq	r0, r0, ip
 298:	00000258 	andeq	r0, r0, r8, asr r2
 29c:	f0000c8c 			; <UNDEFINED> instruction: 0xf0000c8c
 2a0:	00000028 	andeq	r0, r0, r8, lsr #32
 2a4:	0000000c 	andeq	r0, r0, ip
 2a8:	ffffffff 			; <UNDEFINED> instruction: 0xffffffff
 2ac:	7c020001 	stcvc	0, cr0, [r2], {1}
 2b0:	000d0c0e 	andeq	r0, sp, lr, lsl #24
 2b4:	0000000c 	andeq	r0, r0, ip
 2b8:	000002a4 	andeq	r0, r0, r4, lsr #5
 2bc:	f0000cb4 			; <UNDEFINED> instruction: 0xf0000cb4
 2c0:	00000050 	andeq	r0, r0, r0, asr r0
 2c4:	0000000c 	andeq	r0, r0, ip
 2c8:	000002a4 	andeq	r0, r0, r4, lsr #5
 2cc:	f0000d04 			; <UNDEFINED> instruction: 0xf0000d04
 2d0:	00000044 	andeq	r0, r0, r4, asr #32
 2d4:	00000018 	andeq	r0, r0, r8, lsl r0
 2d8:	000002a4 	andeq	r0, r0, r4, lsr #5
 2dc:	f0000d48 			; <UNDEFINED> instruction: 0xf0000d48
 2e0:	0000024c 	andeq	r0, r0, ip, asr #4
 2e4:	42100e42 	andsmi	r0, r0, #1056	; 0x420
 2e8:	0284018e 	addeq	r0, r4, #-2147483613	; 0x80000023
 2ec:	04800381 	streq	r0, [r0], #897	; 0x381
 2f0:	00000018 	andeq	r0, r0, r8, lsl r0
 2f4:	000002a4 	andeq	r0, r0, r4, lsr #5
 2f8:	f0000f94 			; <UNDEFINED> instruction: 0xf0000f94
 2fc:	0000021c 	andeq	r0, r0, ip, lsl r2
 300:	44100e42 	ldrmi	r0, [r0], #-3650	; 0xfffff1be
 304:	0284018e 	addeq	r0, r4, #-2147483613	; 0x80000023
 308:	04800381 	streq	r0, [r0], #897	; 0x381
 30c:	00000020 	andeq	r0, r0, r0, lsr #32
 310:	000002a4 	andeq	r0, r0, r4, lsr #5
 314:	f00011b0 			; <UNDEFINED> instruction: 0xf00011b0
 318:	00000128 	andeq	r0, r0, r8, lsr #2
 31c:	42200e42 	eormi	r0, r0, #1056	; 0x420
 320:	0287018e 	addeq	r0, r7, #-2147483613	; 0x80000023
 324:	04850386 	streq	r0, [r5], #902	; 0x386
 328:	06820584 	streq	r0, [r2], r4, lsl #11
 32c:	08800781 	stmeq	r0, {r0, r7, r8, r9, sl}
 330:	0000001c 	andeq	r0, r0, ip, lsl r0
 334:	000002a4 	andeq	r0, r0, r4, lsr #5
 338:	f00012d8 			; <UNDEFINED> instruction: 0xf00012d8
 33c:	00000074 	andeq	r0, r0, r4, ror r0
 340:	42180e42 	andsmi	r0, r8, #1056	; 0x420
 344:	0285018e 	addeq	r0, r5, #-2147483613	; 0x80000023
 348:	04820384 	streq	r0, [r2], #900	; 0x384
 34c:	06800581 	streq	r0, [r0], r1, lsl #11
 350:	0000000c 	andeq	r0, r0, ip
 354:	ffffffff 			; <UNDEFINED> instruction: 0xffffffff
 358:	7c020001 	stcvc	0, cr0, [r2], {1}
 35c:	000d0c0e 	andeq	r0, sp, lr, lsl #24
 360:	00000018 	andeq	r0, r0, r8, lsl r0
 364:	00000350 	andeq	r0, r0, r0, asr r3
 368:	f000134c 			; <UNDEFINED> instruction: 0xf000134c
 36c:	00000088 	andeq	r0, r0, r8, lsl #1
 370:	44100e42 	ldrmi	r0, [r0], #-3650	; 0xfffff1be
 374:	0285018e 	addeq	r0, r5, #-2147483613	; 0x80000023
 378:	04830384 	streq	r0, [r3], #900	; 0x384
 37c:	0000000c 	andeq	r0, r0, ip
 380:	00000350 	andeq	r0, r0, r0, asr r3
 384:	f00013d4 			; <UNDEFINED> instruction: 0xf00013d4
 388:	0000004c 	andeq	r0, r0, ip, asr #32
 38c:	0000000c 	andeq	r0, r0, ip
 390:	00000350 	andeq	r0, r0, r0, asr r3
 394:	f0001420 			; <UNDEFINED> instruction: 0xf0001420
 398:	00000050 	andeq	r0, r0, r0, asr r0
 39c:	0000000c 	andeq	r0, r0, ip
 3a0:	00000350 	andeq	r0, r0, r0, asr r3
 3a4:	f0001470 			; <UNDEFINED> instruction: 0xf0001470
 3a8:	00000024 	andeq	r0, r0, r4, lsr #32
 3ac:	0000000c 	andeq	r0, r0, ip
 3b0:	00000350 	andeq	r0, r0, r0, asr r3
 3b4:	f0001494 			; <UNDEFINED> instruction: 0xf0001494
 3b8:	00000028 	andeq	r0, r0, r8, lsr #32
 3bc:	0000000c 	andeq	r0, r0, ip
 3c0:	00000350 	andeq	r0, r0, r0, asr r3
 3c4:	f00014bc 			; <UNDEFINED> instruction: 0xf00014bc
 3c8:	00000030 	andeq	r0, r0, r0, lsr r0
 3cc:	00000014 	andeq	r0, r0, r4, lsl r0
 3d0:	00000350 	andeq	r0, r0, r0, asr r3
 3d4:	f00014ec 			; <UNDEFINED> instruction: 0xf00014ec
 3d8:	00000050 	andeq	r0, r0, r0, asr r0
 3dc:	46080e42 	strmi	r0, [r8], -r2, asr #28
 3e0:	0284018e 	addeq	r0, r4, #-2147483613	; 0x80000023
 3e4:	0000000c 	andeq	r0, r0, ip
 3e8:	ffffffff 			; <UNDEFINED> instruction: 0xffffffff
 3ec:	7c020001 	stcvc	0, cr0, [r2], {1}
 3f0:	000d0c0e 	andeq	r0, sp, lr, lsl #24
 3f4:	0000000c 	andeq	r0, r0, ip
 3f8:	000003e4 	andeq	r0, r0, r4, ror #7
 3fc:	f000153c 			; <UNDEFINED> instruction: 0xf000153c
 400:	00000050 	andeq	r0, r0, r0, asr r0
 404:	00000014 	andeq	r0, r0, r4, lsl r0
 408:	000003e4 	andeq	r0, r0, r4, ror #7
 40c:	f000158c 			; <UNDEFINED> instruction: 0xf000158c
 410:	00000048 	andeq	r0, r0, r8, asr #32
 414:	44080e42 	strmi	r0, [r8], #-3650	; 0xfffff1be
 418:	0284018e 	addeq	r0, r4, #-2147483613	; 0x80000023
 41c:	00000018 	andeq	r0, r0, r8, lsl r0
 420:	000003e4 	andeq	r0, r0, r4, ror #7
 424:	f00015d4 			; <UNDEFINED> instruction: 0xf00015d4
 428:	000002a8 	andeq	r0, r0, r8, lsr #5
 42c:	420c0e44 	andmi	r0, ip, #68, 28	; 0x440
 430:	0285018e 	addeq	r0, r5, #-2147483613	; 0x80000023
 434:	00000384 	andeq	r0, r0, r4, lsl #7
 438:	0000000c 	andeq	r0, r0, ip
 43c:	ffffffff 			; <UNDEFINED> instruction: 0xffffffff
 440:	7c020001 	stcvc	0, cr0, [r2], {1}
 444:	000d0c0e 	andeq	r0, sp, lr, lsl #24
 448:	0000000c 	andeq	r0, r0, ip
 44c:	00000438 	andeq	r0, r0, r8, lsr r4
 450:	f000187c 			; <UNDEFINED> instruction: 0xf000187c
 454:	00000008 	andeq	r0, r0, r8
 458:	0000000c 	andeq	r0, r0, ip
 45c:	00000438 	andeq	r0, r0, r8, lsr r4
 460:	f0001884 			; <UNDEFINED> instruction: 0xf0001884
 464:	00000008 	andeq	r0, r0, r8
 468:	0000000c 	andeq	r0, r0, ip
 46c:	00000438 	andeq	r0, r0, r8, lsr r4
 470:	f000188c 			; <UNDEFINED> instruction: 0xf000188c
 474:	00000008 	andeq	r0, r0, r8
 478:	0000000c 	andeq	r0, r0, ip
 47c:	00000438 	andeq	r0, r0, r8, lsr r4
 480:	f0001894 			; <UNDEFINED> instruction: 0xf0001894
 484:	00000008 	andeq	r0, r0, r8
 488:	0000000c 	andeq	r0, r0, ip
 48c:	ffffffff 			; <UNDEFINED> instruction: 0xffffffff
 490:	7c020001 	stcvc	0, cr0, [r2], {1}
 494:	000d0c0e 	andeq	r0, sp, lr, lsl #24
 498:	0000000c 	andeq	r0, r0, ip
 49c:	00000488 	andeq	r0, r0, r8, lsl #9
 4a0:	f00018d0 			; <UNDEFINED> instruction: 0xf00018d0
 4a4:	00000050 	andeq	r0, r0, r0, asr r0
 4a8:	00000010 	andeq	r0, r0, r0, lsl r0
 4ac:	00000488 	andeq	r0, r0, r8, lsl #9
 4b0:	f0001920 			; <UNDEFINED> instruction: 0xf0001920
 4b4:	00000020 	andeq	r0, r0, r0, lsr #32
 4b8:	00080e42 	andeq	r0, r8, r2, asr #28
 4bc:	00000010 	andeq	r0, r0, r0, lsl r0
 4c0:	00000488 	andeq	r0, r0, r8, lsl #9
 4c4:	f0001940 			; <UNDEFINED> instruction: 0xf0001940
 4c8:	00000020 	andeq	r0, r0, r0, lsr #32
 4cc:	00080e42 	andeq	r0, r8, r2, asr #28
 4d0:	0000000c 	andeq	r0, r0, ip
 4d4:	00000488 	andeq	r0, r0, r8, lsl #9
 4d8:	f0001960 			; <UNDEFINED> instruction: 0xf0001960
 4dc:	00000018 	andeq	r0, r0, r8, lsl r0
 4e0:	00000010 	andeq	r0, r0, r0, lsl r0
 4e4:	00000488 	andeq	r0, r0, r8, lsl #9
 4e8:	f0001978 			; <UNDEFINED> instruction: 0xf0001978
 4ec:	00000010 	andeq	r0, r0, r0, lsl r0
 4f0:	00080e42 	andeq	r0, r8, r2, asr #28
 4f4:	0000000c 	andeq	r0, r0, ip
 4f8:	00000488 	andeq	r0, r0, r8, lsl #9
 4fc:	f0001988 			; <UNDEFINED> instruction: 0xf0001988
 500:	00000010 	andeq	r0, r0, r0, lsl r0
 504:	00000010 	andeq	r0, r0, r0, lsl r0
 508:	00000488 	andeq	r0, r0, r8, lsl #9
 50c:	f0001998 			; <UNDEFINED> instruction: 0xf0001998
 510:	00000010 	andeq	r0, r0, r0, lsl r0
 514:	00080e42 	andeq	r0, r8, r2, asr #28
 518:	00000010 	andeq	r0, r0, r0, lsl r0
 51c:	00000488 	andeq	r0, r0, r8, lsl #9
 520:	f00019a8 			; <UNDEFINED> instruction: 0xf00019a8
 524:	00000024 	andeq	r0, r0, r4, lsr #32
 528:	00080e42 	andeq	r0, r8, r2, asr #28
 52c:	00000010 	andeq	r0, r0, r0, lsl r0
 530:	00000488 	andeq	r0, r0, r8, lsl #9
 534:	f00019cc 			; <UNDEFINED> instruction: 0xf00019cc
 538:	00000024 	andeq	r0, r0, r4, lsr #32
 53c:	00080e42 	andeq	r0, r8, r2, asr #28
 540:	0000000c 	andeq	r0, r0, ip
 544:	00000488 	andeq	r0, r0, r8, lsl #9
 548:	f00019f0 			; <UNDEFINED> instruction: 0xf00019f0
 54c:	00000008 	andeq	r0, r0, r8
 550:	0000000c 	andeq	r0, r0, ip
 554:	00000488 	andeq	r0, r0, r8, lsl #9
 558:	f00019f8 			; <UNDEFINED> instruction: 0xf00019f8
 55c:	0000001c 	andeq	r0, r0, ip, lsl r0
 560:	0000000c 	andeq	r0, r0, ip
 564:	00000488 	andeq	r0, r0, r8, lsl #9
 568:	f0001a14 			; <UNDEFINED> instruction: 0xf0001a14
 56c:	0000002c 	andeq	r0, r0, ip, lsr #32
 570:	0000000c 	andeq	r0, r0, ip
 574:	00000488 	andeq	r0, r0, r8, lsl #9
 578:	f0001a40 			; <UNDEFINED> instruction: 0xf0001a40
 57c:	00000020 	andeq	r0, r0, r0, lsr #32
 580:	0000000c 	andeq	r0, r0, ip
 584:	00000488 	andeq	r0, r0, r8, lsl #9
 588:	f0001a60 			; <UNDEFINED> instruction: 0xf0001a60
 58c:	00000014 	andeq	r0, r0, r4, lsl r0
 590:	0000001c 	andeq	r0, r0, ip, lsl r0
 594:	00000488 	andeq	r0, r0, r8, lsl #9
 598:	f0001a74 			; <UNDEFINED> instruction: 0xf0001a74
 59c:	000000e8 	andeq	r0, r0, r8, ror #1
 5a0:	4a180e42 	bmi	603eb0 <__standby_start+0x603eb0>
 5a4:	0286018e 	addeq	r0, r6, #-2147483613	; 0x80000023
 5a8:	04840385 	streq	r0, [r4], #901	; 0x385
 5ac:	06800581 	streq	r0, [r0], r1, lsl #11
 5b0:	00000018 	andeq	r0, r0, r8, lsl r0
 5b4:	00000488 	andeq	r0, r0, r8, lsl #9
 5b8:	f0001b5c 			; <UNDEFINED> instruction: 0xf0001b5c
 5bc:	00000054 	andeq	r0, r0, r4, asr r0
 5c0:	42100e42 	andsmi	r0, r0, #1056	; 0x420
 5c4:	0286018e 	addeq	r0, r6, #-2147483613	; 0x80000023
 5c8:	04840385 	streq	r0, [r4], #901	; 0x385
 5cc:	0000000c 	andeq	r0, r0, ip
 5d0:	00000488 	andeq	r0, r0, r8, lsl #9
 5d4:	f0001bb0 			; <UNDEFINED> instruction: 0xf0001bb0
 5d8:	0000000c 	andeq	r0, r0, ip
 5dc:	0000000c 	andeq	r0, r0, ip
 5e0:	00000488 	andeq	r0, r0, r8, lsl #9
 5e4:	f0001bbc 			; <UNDEFINED> instruction: 0xf0001bbc
 5e8:	00000018 	andeq	r0, r0, r8, lsl r0
 5ec:	0000000c 	andeq	r0, r0, ip
 5f0:	00000488 	andeq	r0, r0, r8, lsl #9
 5f4:	f0001bd4 			; <UNDEFINED> instruction: 0xf0001bd4
 5f8:	00000018 	andeq	r0, r0, r8, lsl r0
 5fc:	0000000c 	andeq	r0, r0, ip
 600:	00000488 	andeq	r0, r0, r8, lsl #9
 604:	f0001bec 			; <UNDEFINED> instruction: 0xf0001bec
 608:	00000018 	andeq	r0, r0, r8, lsl r0
 60c:	00000018 	andeq	r0, r0, r8, lsl r0
 610:	00000488 	andeq	r0, r0, r8, lsl #9
 614:	f0001c04 			; <UNDEFINED> instruction: 0xf0001c04
 618:	00000034 	andeq	r0, r0, r4, lsr r0
 61c:	42100e42 	andsmi	r0, r0, #1056	; 0x420
 620:	0286018e 	addeq	r0, r6, #-2147483613	; 0x80000023
 624:	04840385 	streq	r0, [r4], #901	; 0x385
 628:	0000000c 	andeq	r0, r0, ip
 62c:	ffffffff 			; <UNDEFINED> instruction: 0xffffffff
 630:	7c020001 	stcvc	0, cr0, [r2], {1}
 634:	000d0c0e 	andeq	r0, sp, lr, lsl #24
 638:	0000000c 	andeq	r0, r0, ip
 63c:	00000628 	andeq	r0, r0, r8, lsr #12
 640:	f0001c38 			; <UNDEFINED> instruction: 0xf0001c38
 644:	0000002c 	andeq	r0, r0, ip, lsr #32
 648:	0000000c 	andeq	r0, r0, ip
 64c:	00000628 	andeq	r0, r0, r8, lsr #12
 650:	f0001c64 			; <UNDEFINED> instruction: 0xf0001c64
 654:	0000002c 	andeq	r0, r0, ip, lsr #32
 658:	0000000c 	andeq	r0, r0, ip
 65c:	00000628 	andeq	r0, r0, r8, lsr #12
 660:	f0001c90 			; <UNDEFINED> instruction: 0xf0001c90
 664:	0000002c 	andeq	r0, r0, ip, lsr #32
 668:	0000000c 	andeq	r0, r0, ip
 66c:	00000628 	andeq	r0, r0, r8, lsr #12
 670:	f0001cbc 			; <UNDEFINED> instruction: 0xf0001cbc
 674:	00000004 	andeq	r0, r0, r4
 678:	0000000c 	andeq	r0, r0, ip
 67c:	00000628 	andeq	r0, r0, r8, lsr #12
 680:	f0001cc0 			; <UNDEFINED> instruction: 0xf0001cc0
 684:	00000028 	andeq	r0, r0, r8, lsr #32
 688:	00000014 	andeq	r0, r0, r4, lsl r0
 68c:	00000628 	andeq	r0, r0, r8, lsr #12
 690:	f0001ce8 			; <UNDEFINED> instruction: 0xf0001ce8
 694:	00000064 	andeq	r0, r0, r4, rrx
 698:	8e080e42 	cdphi	14, 0, cr0, cr8, cr2, {2}
 69c:	00028401 	andeq	r8, r2, r1, lsl #8
 6a0:	00000014 	andeq	r0, r0, r4, lsl r0
 6a4:	00000628 	andeq	r0, r0, r8, lsr #12
 6a8:	f0001d4c 			; <UNDEFINED> instruction: 0xf0001d4c
 6ac:	00000060 	andeq	r0, r0, r0, rrx
 6b0:	42080e42 	andmi	r0, r8, #1056	; 0x420
 6b4:	0284018e 	addeq	r0, r4, #-2147483613	; 0x80000023
 6b8:	0000000c 	andeq	r0, r0, ip
 6bc:	00000628 	andeq	r0, r0, r8, lsr #12
 6c0:	f0001dac 			; <UNDEFINED> instruction: 0xf0001dac
 6c4:	00000020 	andeq	r0, r0, r0, lsr #32
 6c8:	00000014 	andeq	r0, r0, r4, lsl r0
 6cc:	00000628 	andeq	r0, r0, r8, lsr #12
 6d0:	f0001dcc 			; <UNDEFINED> instruction: 0xf0001dcc
 6d4:	00000048 	andeq	r0, r0, r8, asr #32
 6d8:	42080e44 	andmi	r0, r8, #68, 28	; 0x440
 6dc:	0284018e 	addeq	r0, r4, #-2147483613	; 0x80000023
 6e0:	00000014 	andeq	r0, r0, r4, lsl r0
 6e4:	00000628 	andeq	r0, r0, r8, lsr #12
 6e8:	f0001e14 			; <UNDEFINED> instruction: 0xf0001e14
 6ec:	00000030 	andeq	r0, r0, r0, lsr r0
 6f0:	44080e42 	strmi	r0, [r8], #-3650	; 0xfffff1be
 6f4:	0284018e 	addeq	r0, r4, #-2147483613	; 0x80000023
 6f8:	00000028 	andeq	r0, r0, r8, lsr #32
 6fc:	00000628 	andeq	r0, r0, r8, lsr #12
 700:	f0001e44 			; <UNDEFINED> instruction: 0xf0001e44
 704:	0000019c 	muleq	r0, ip, r1
 708:	42240e44 	eormi	r0, r4, #68, 28	; 0x440
 70c:	8e48480e 	cdphi	8, 4, cr4, cr8, cr14, {0}
 710:	8a028b01 	bhi	a331c <__standby_start+0xa331c>
 714:	88048903 	stmdahi	r4, {r0, r1, r8, fp, pc}
 718:	86068705 	strhi	r8, [r6], -r5, lsl #14
 71c:	84088507 	strhi	r8, [r8], #-1287	; 0xfffffaf9
 720:	00000009 	andeq	r0, r0, r9
 724:	00000014 	andeq	r0, r0, r4, lsl r0
 728:	00000628 	andeq	r0, r0, r8, lsr #12
 72c:	f0001fe0 			; <UNDEFINED> instruction: 0xf0001fe0
 730:	00000018 	andeq	r0, r0, r8, lsl r0
 734:	8e080e42 	cdphi	14, 0, cr0, cr8, cr2, {2}
 738:	00028301 	andeq	r8, r2, r1, lsl #6
 73c:	0000000c 	andeq	r0, r0, ip
 740:	00000628 	andeq	r0, r0, r8, lsr #12
 744:	f0001ff8 			; <UNDEFINED> instruction: 0xf0001ff8
 748:	00000004 	andeq	r0, r0, r4
 74c:	0000000c 	andeq	r0, r0, ip
 750:	00000628 	andeq	r0, r0, r8, lsr #12
 754:	f0001ffc 			; <UNDEFINED> instruction: 0xf0001ffc
 758:	00000004 	andeq	r0, r0, r4
 75c:	0000000c 	andeq	r0, r0, ip
 760:	00000628 	andeq	r0, r0, r8, lsr #12
 764:	f0002000 			; <UNDEFINED> instruction: 0xf0002000
 768:	00000004 	andeq	r0, r0, r4
 76c:	0000000c 	andeq	r0, r0, ip
 770:	00000628 	andeq	r0, r0, r8, lsr #12
 774:	f0002004 			; <UNDEFINED> instruction: 0xf0002004
 778:	00000004 	andeq	r0, r0, r4
 77c:	0000000c 	andeq	r0, r0, ip
 780:	00000628 	andeq	r0, r0, r8, lsr #12
 784:	f0002008 			; <UNDEFINED> instruction: 0xf0002008
 788:	00000004 	andeq	r0, r0, r4
 78c:	0000000c 	andeq	r0, r0, ip
 790:	00000628 	andeq	r0, r0, r8, lsr #12
 794:	f000200c 			; <UNDEFINED> instruction: 0xf000200c
 798:	00000004 	andeq	r0, r0, r4
 79c:	0000000c 	andeq	r0, r0, ip
 7a0:	00000628 	andeq	r0, r0, r8, lsr #12
 7a4:	f0002010 			; <UNDEFINED> instruction: 0xf0002010
 7a8:	00000004 	andeq	r0, r0, r4
 7ac:	0000000c 	andeq	r0, r0, ip
 7b0:	00000628 	andeq	r0, r0, r8, lsr #12
 7b4:	f0002014 			; <UNDEFINED> instruction: 0xf0002014
 7b8:	00000004 	andeq	r0, r0, r4
 7bc:	0000000c 	andeq	r0, r0, ip
 7c0:	ffffffff 			; <UNDEFINED> instruction: 0xffffffff
 7c4:	7c020001 	stcvc	0, cr0, [r2], {1}
 7c8:	000d0c0e 	andeq	r0, sp, lr, lsl #24
 7cc:	00000014 	andeq	r0, r0, r4, lsl r0
 7d0:	000007bc 			; <UNDEFINED> instruction: 0x000007bc
 7d4:	f0002018 			; <UNDEFINED> instruction: 0xf0002018
 7d8:	00000030 	andeq	r0, r0, r0, lsr r0
 7dc:	44080e42 	strmi	r0, [r8], #-3650	; 0xfffff1be
 7e0:	0284018e 	addeq	r0, r4, #-2147483613	; 0x80000023
 7e4:	0000000c 	andeq	r0, r0, ip
 7e8:	000007bc 			; <UNDEFINED> instruction: 0x000007bc
 7ec:	f0002048 			; <UNDEFINED> instruction: 0xf0002048
 7f0:	00000020 	andeq	r0, r0, r0, lsr #32
 7f4:	0000000c 	andeq	r0, r0, ip
 7f8:	000007bc 			; <UNDEFINED> instruction: 0x000007bc
 7fc:	f0002068 			; <UNDEFINED> instruction: 0xf0002068
 800:	0000001c 	andeq	r0, r0, ip, lsl r0
 804:	0000000c 	andeq	r0, r0, ip
 808:	000007bc 			; <UNDEFINED> instruction: 0x000007bc
 80c:	f0002084 			; <UNDEFINED> instruction: 0xf0002084
 810:	00000018 	andeq	r0, r0, r8, lsl r0
 814:	00000014 	andeq	r0, r0, r4, lsl r0
 818:	000007bc 			; <UNDEFINED> instruction: 0x000007bc
 81c:	f000209c 			; <UNDEFINED> instruction: 0xf000209c
 820:	00000054 	andeq	r0, r0, r4, asr r0
 824:	44080e42 	strmi	r0, [r8], #-3650	; 0xfffff1be
 828:	0284018e 	addeq	r0, r4, #-2147483613	; 0x80000023
 82c:	00000014 	andeq	r0, r0, r4, lsl r0
 830:	000007bc 			; <UNDEFINED> instruction: 0x000007bc
 834:	f00020f0 			; <UNDEFINED> instruction: 0xf00020f0
 838:	000000d8 	ldrdeq	r0, [r0], -r8
 83c:	42080e46 	andmi	r0, r8, #1120	; 0x460
 840:	0284018e 	addeq	r0, r4, #-2147483613	; 0x80000023
 844:	0000000c 	andeq	r0, r0, ip
 848:	000007bc 			; <UNDEFINED> instruction: 0x000007bc
 84c:	f00021c8 			; <UNDEFINED> instruction: 0xf00021c8
 850:	0000005c 	andeq	r0, r0, ip, asr r0
 854:	0000000c 	andeq	r0, r0, ip
 858:	000007bc 			; <UNDEFINED> instruction: 0x000007bc
 85c:	f0002224 			; <UNDEFINED> instruction: 0xf0002224
 860:	00000034 	andeq	r0, r0, r4, lsr r0
 864:	0000001c 	andeq	r0, r0, ip, lsl r0
 868:	000007bc 			; <UNDEFINED> instruction: 0x000007bc
 86c:	f0002258 			; <UNDEFINED> instruction: 0xf0002258
 870:	00000100 	andeq	r0, r0, r0, lsl #2
 874:	42180e46 	andsmi	r0, r8, #1120	; 0x460
 878:	0288018e 	addeq	r0, r8, #-2147483613	; 0x80000023
 87c:	04860387 	streq	r0, [r6], #903	; 0x387
 880:	06840585 	streq	r0, [r4], r5, lsl #11
 884:	0000000c 	andeq	r0, r0, ip
 888:	000007bc 			; <UNDEFINED> instruction: 0x000007bc
 88c:	f0002358 			; <UNDEFINED> instruction: 0xf0002358
 890:	00000008 	andeq	r0, r0, r8
 894:	0000000c 	andeq	r0, r0, ip
 898:	000007bc 			; <UNDEFINED> instruction: 0x000007bc
 89c:	f0002360 			; <UNDEFINED> instruction: 0xf0002360
 8a0:	00000034 	andeq	r0, r0, r4, lsr r0
 8a4:	0000000c 	andeq	r0, r0, ip
 8a8:	000007bc 			; <UNDEFINED> instruction: 0x000007bc
 8ac:	f0002394 			; <UNDEFINED> instruction: 0xf0002394
 8b0:	00000020 	andeq	r0, r0, r0, lsr #32
 8b4:	0000000c 	andeq	r0, r0, ip
 8b8:	000007bc 			; <UNDEFINED> instruction: 0x000007bc
 8bc:	f00023b4 			; <UNDEFINED> instruction: 0xf00023b4
 8c0:	00000030 	andeq	r0, r0, r0, lsr r0
 8c4:	0000000c 	andeq	r0, r0, ip
 8c8:	000007bc 			; <UNDEFINED> instruction: 0x000007bc
 8cc:	f00023e4 			; <UNDEFINED> instruction: 0xf00023e4
 8d0:	00000074 	andeq	r0, r0, r4, ror r0
 8d4:	0000001c 	andeq	r0, r0, ip, lsl r0
 8d8:	000007bc 			; <UNDEFINED> instruction: 0x000007bc
 8dc:	f0002458 			; <UNDEFINED> instruction: 0xf0002458
 8e0:	000001dc 	ldrdeq	r0, [r0], -ip
 8e4:	42180e42 	andsmi	r0, r8, #1056	; 0x420
 8e8:	0288018e 	addeq	r0, r8, #-2147483613	; 0x80000023
 8ec:	04860387 	streq	r0, [r6], #903	; 0x387
 8f0:	06840585 	streq	r0, [r4], r5, lsl #11
 8f4:	0000000c 	andeq	r0, r0, ip
 8f8:	000007bc 			; <UNDEFINED> instruction: 0x000007bc
 8fc:	f0002634 			; <UNDEFINED> instruction: 0xf0002634
 900:	00000008 	andeq	r0, r0, r8
 904:	0000000c 	andeq	r0, r0, ip
 908:	000007bc 			; <UNDEFINED> instruction: 0x000007bc
 90c:	f000263c 			; <UNDEFINED> instruction: 0xf000263c
 910:	00000008 	andeq	r0, r0, r8
 914:	0000000c 	andeq	r0, r0, ip
 918:	000007bc 			; <UNDEFINED> instruction: 0x000007bc
 91c:	f0002644 			; <UNDEFINED> instruction: 0xf0002644
 920:	00000004 	andeq	r0, r0, r4
 924:	0000000c 	andeq	r0, r0, ip
 928:	000007bc 			; <UNDEFINED> instruction: 0x000007bc
 92c:	f0002648 			; <UNDEFINED> instruction: 0xf0002648
 930:	00000004 	andeq	r0, r0, r4
 934:	0000000c 	andeq	r0, r0, ip
 938:	000007bc 			; <UNDEFINED> instruction: 0x000007bc
 93c:	f000264c 			; <UNDEFINED> instruction: 0xf000264c
 940:	00000004 	andeq	r0, r0, r4
 944:	0000000c 	andeq	r0, r0, ip
 948:	000007bc 			; <UNDEFINED> instruction: 0x000007bc
 94c:	f0002650 			; <UNDEFINED> instruction: 0xf0002650
 950:	00000004 	andeq	r0, r0, r4
 954:	0000000c 	andeq	r0, r0, ip
 958:	000007bc 			; <UNDEFINED> instruction: 0x000007bc
 95c:	f0002654 			; <UNDEFINED> instruction: 0xf0002654
 960:	00000004 	andeq	r0, r0, r4
