
suspend.elf:     file format elf32-littlearm


Disassembly of section .text:

00000000 <main>:
       0:	e92d4038 	push	{r3, r4, r5, lr}
       4:	eb000078 	bl	1ec <save_sp_nommu>
       8:	e59f3194 	ldr	r3, [pc, #404]	; 1a4 <__suspend_start+0x1a4>
       c:	e59f5194 	ldr	r5, [pc, #404]	; 1a8 <__suspend_start+0x1a8>
      10:	e5830000 	str	r0, [r3]
      14:	e3a00a03 	mov	r0, #12288	; 0x3000
      18:	eb000949 	bl	2544 <save_sun5i_mem_status>
      1c:	eb000077 	bl	200 <mem_flush_tlb>
      20:	e3030001 	movw	r0, #12289	; 0x3001
      24:	eb000946 	bl	2544 <save_sun5i_mem_status>
      28:	eb0000f0 	bl	3f0 <mem_preload_tlb>
      2c:	e3030002 	movw	r0, #12290	; 0x3002
      30:	eb000943 	bl	2544 <save_sun5i_mem_status>
      34:	e59f3170 	ldr	r3, [pc, #368]	; 1ac <__suspend_start+0x1ac>
      38:	e3a04000 	mov	r4, #0
      3c:	e4c54001 	strb	r4, [r5], #1
      40:	e1550003 	cmp	r5, r3
      44:	9afffffa 	bls	34 <__suspend_start+0x34>
      48:	e3030004 	movw	r0, #12292	; 0x3004
      4c:	eb00093c 	bl	2544 <save_sun5i_mem_status>
      50:	e59f1158 	ldr	r1, [pc, #344]	; 1b0 <__suspend_start+0x1b0>
      54:	e3a02e23 	mov	r2, #560	; 0x230
      58:	e59f0154 	ldr	r0, [pc, #340]	; 1b4 <__suspend_start+0x1b4>
      5c:	eb000056 	bl	1bc <mem_memcpy>
      60:	eb000208 	bl	888 <mem_clk_init>
      64:	e3030005 	movw	r0, #12293	; 0x3005
      68:	eb000935 	bl	2544 <save_sun5i_mem_status>
      6c:	eb00019b 	bl	6e0 <mem_int_init>
      70:	e3030006 	movw	r0, #12294	; 0x3006
      74:	eb000932 	bl	2544 <save_sun5i_mem_status>
      78:	eb0001f2 	bl	848 <mem_tmr_init>
      7c:	e3030007 	movw	r0, #12295	; 0x3007
      80:	eb00092f 	bl	2544 <save_sun5i_mem_status>
      84:	e1a00004 	mov	r0, r4
      88:	eb0002ee 	bl	c48 <mem_twi_init>
      8c:	e3030008 	movw	r0, #12296	; 0x3008
      90:	eb00092b 	bl	2544 <save_sun5i_mem_status>
      94:	e59f3108 	ldr	r3, [pc, #264]	; 1a4 <__suspend_start+0x1a4>
      98:	e5930018 	ldr	r0, [r3, #24]
      9c:	eb0004ef 	bl	1460 <mem_power_init>
      a0:	e59f3110 	ldr	r3, [pc, #272]	; 1b8 <__suspend_start+0x1b8>
      a4:	e3500000 	cmp	r0, #0
      a8:	0a000004 	beq	c0 <__suspend_start+0xc0>
      ac:	e5932000 	ldr	r2, [r3]
      b0:	e2422001 	sub	r2, r2, #1
      b4:	e5832000 	str	r2, [r3]
      b8:	e3520000 	cmp	r2, #0
      bc:	1afffff4 	bne	94 <__suspend_start+0x94>
      c0:	e5933000 	ldr	r3, [r3]
      c4:	e3530000 	cmp	r3, #0
      c8:	0a000023 	beq	15c <__suspend_start+0x15c>
      cc:	e59f30e4 	ldr	r3, [pc, #228]	; 1b8 <__suspend_start+0x1b8>
      d0:	e3a02005 	mov	r2, #5
      d4:	e3030009 	movw	r0, #12297	; 0x3009
      d8:	e5832000 	str	r2, [r3]
      dc:	eb000918 	bl	2544 <save_sun5i_mem_status>
      e0:	eb0006fc 	bl	1cd8 <dram_power_save_process>
      e4:	e3500000 	cmp	r0, #0
      e8:	1a00001b 	bne	15c <__suspend_start+0x15c>
      ec:	eb000276 	bl	acc <mem_clk_dramgating>
      f0:	e303000d 	movw	r0, #12301	; 0x300d
      f4:	eb000906 	bl	2514 <save_mem_status>
      f8:	eb000136 	bl	5d8 <disable_mmu>
      fc:	eb00003f 	bl	200 <mem_flush_tlb>
     100:	e3030012 	movw	r0, #12306	; 0x3012
     104:	eb00090a 	bl	2534 <save_mem_status_nommu>
     108:	eb0000f5 	bl	4e4 <mem_preload_tlb_nommu>
     10c:	eb0005f3 	bl	18e0 <mem_power_off_nommu>
     110:	e59f30a0 	ldr	r3, [pc, #160]	; 1b8 <__suspend_start+0x1b8>
     114:	e3500000 	cmp	r0, #0
     118:	0a000004 	beq	130 <__suspend_start+0x130>
     11c:	e5932000 	ldr	r2, [r3]
     120:	e2422001 	sub	r2, r2, #1
     124:	e5832000 	str	r2, [r3]
     128:	e3520000 	cmp	r2, #0
     12c:	1afffff6 	bne	10c <__suspend_start+0x10c>
     130:	e5933000 	ldr	r3, [r3]
     134:	e3530000 	cmp	r3, #0
     138:	0a000005 	beq	154 <__suspend_start+0x154>
     13c:	e59f3074 	ldr	r3, [pc, #116]	; 1b8 <__suspend_start+0x1b8>
     140:	e3a02005 	mov	r2, #5
     144:	e3030015 	movw	r0, #12309	; 0x3015
     148:	e5832000 	str	r2, [r3]
     14c:	eb0008f8 	bl	2534 <save_mem_status_nommu>
     150:	ea000000 	b	158 <__suspend_start+0x158>
     154:	eb00012e 	bl	614 <enable_mmu>
     158:	eb00089f 	bl	23dc <init_DRAM>
     15c:	e59f3040 	ldr	r3, [pc, #64]	; 1a4 <__suspend_start+0x1a4>
     160:	e5930018 	ldr	r0, [r3, #24]
     164:	eb00053f 	bl	1668 <mem_power_exit>
     168:	e59f3048 	ldr	r3, [pc, #72]	; 1b8 <__suspend_start+0x1b8>
     16c:	e3500000 	cmp	r0, #0
     170:	0a000004 	beq	188 <__suspend_start+0x188>
     174:	e5932000 	ldr	r2, [r3]
     178:	e2422001 	sub	r2, r2, #1
     17c:	e5832000 	str	r2, [r3]
     180:	e3520000 	cmp	r2, #0
     184:	1afffff4 	bne	15c <__suspend_start+0x15c>
     188:	e5933000 	ldr	r3, [r3]
     18c:	e3e00000 	mvn	r0, #0
     190:	e3530000 	cmp	r3, #0
     194:	13a02005 	movne	r2, #5
     198:	159f3018 	ldrne	r3, [pc, #24]	; 1b8 <__suspend_start+0x1b8>
     19c:	15832000 	strne	r2, [r3]
     1a0:	e8bd8038 	pop	{r3, r4, r5, pc}
     1a4:	000035e0 	andeq	r3, r0, r0, ror #11
     1a8:	000035e0 	andeq	r3, r0, r0, ror #11
     1ac:	00003868 	andeq	r3, r0, r8, ror #16
     1b0:	c0110000 	andsgt	r0, r1, r0
     1b4:	000035e4 	andeq	r3, r0, r4, ror #11
     1b8:	00003464 	andeq	r3, r0, r4, ror #8

000001bc <mem_memcpy>:
     1bc:	ea000002 	b	1cc <mem_memcpy+0x10>
     1c0:	e4d13001 	ldrb	r3, [r1], #1
     1c4:	e2422001 	sub	r2, r2, #1
     1c8:	e4c03001 	strb	r3, [r0], #1
     1cc:	e3520000 	cmp	r2, #0
     1d0:	cafffffa 	bgt	1c0 <mem_memcpy+0x4>
     1d4:	e12fff1e 	bx	lr
	...

000001e0 <save_sp>:
     1e0:	e1a0000d 	mov	r0, sp
     1e4:	e59fd468 	ldr	sp, [pc, #1128]	; 654 <__turn_mmu_on+0x14>
     1e8:	e1a0f00e 	mov	pc, lr

000001ec <save_sp_nommu>:
     1ec:	e1a0000d 	mov	r0, sp
     1f0:	e59fd460 	ldr	sp, [pc, #1120]	; 658 <__turn_mmu_on+0x18>
     1f4:	e1a0f00e 	mov	pc, lr

000001f8 <restore_sp>:
     1f8:	e1a0d000 	mov	sp, r0
     1fc:	e1a0f00e 	mov	pc, lr

00000200 <mem_flush_tlb>:
     200:	e92d000f 	push	{r0, r1, r2, r3}
     204:	f57ff04f 	dsb	sy
     208:	e3a00000 	mov	r0, #0
     20c:	ee080f17 	mcr	15, 0, r0, cr8, cr7, {0}
     210:	ee070fd5 	mcr	15, 0, r0, cr7, cr5, {6}
     214:	f57ff04f 	dsb	sy
     218:	f57ff06f 	isb	sy
     21c:	e3a00000 	mov	r0, #0
     220:	ee0a0f10 	mcr	15, 0, r0, cr10, cr0, {0}
     224:	e3a00000 	mov	r0, #0
     228:	ee0a0f30 	mcr	15, 0, r0, cr10, cr0, {1}
     22c:	f57ff04f 	dsb	sy
     230:	f57ff06f 	isb	sy
     234:	e8bd000f 	pop	{r0, r1, r2, r3}
     238:	e1a0f00e 	mov	pc, lr

0000023c <flush_dcache>:
     23c:	e92d1fff 	push	{r0, r1, r2, r3, r4, r5, r6, r7, r8, r9, sl, fp, ip}
     240:	f57ff05f 	dmb	sy
     244:	ee300f30 	mrc	15, 1, r0, cr0, cr0, {1}
     248:	e2103407 	ands	r3, r0, #117440512	; 0x7000000
     24c:	e1a03ba3 	lsr	r3, r3, #23
     250:	0a00001a 	beq	2c0 <finished>
     254:	e3a0a000 	mov	sl, #0

00000258 <loop1>:
     258:	e08a20aa 	add	r2, sl, sl, lsr #1
     25c:	e1a01230 	lsr	r1, r0, r2
     260:	e2011007 	and	r1, r1, #7
     264:	e3510002 	cmp	r1, #2
     268:	ba000011 	blt	2b4 <skip>
     26c:	ee40af10 	mcr	15, 2, sl, cr0, cr0, {0}
     270:	f57ff06f 	isb	sy
     274:	ee301f10 	mrc	15, 1, r1, cr0, cr0, {0}
     278:	e2012007 	and	r2, r1, #7
     27c:	e2822004 	add	r2, r2, #4
     280:	e59f43d4 	ldr	r4, [pc, #980]	; 65c <__turn_mmu_on+0x1c>
     284:	e01441a1 	ands	r4, r4, r1, lsr #3
     288:	e16f5f14 	clz	r5, r4
     28c:	e59f73cc 	ldr	r7, [pc, #972]	; 660 <__turn_mmu_on+0x20>
     290:	e01776a1 	ands	r7, r7, r1, lsr #13

00000294 <loop2>:
     294:	e1a09004 	mov	r9, r4

00000298 <loop3>:
     298:	e18ab519 	orr	fp, sl, r9, lsl r5
     29c:	e18bb217 	orr	fp, fp, r7, lsl r2
     2a0:	ee07bf5e 	mcr	15, 0, fp, cr7, cr14, {2}
     2a4:	e2599001 	subs	r9, r9, #1
     2a8:	aafffffa 	bge	298 <loop3>
     2ac:	e2577001 	subs	r7, r7, #1
     2b0:	aafffff7 	bge	294 <loop2>

000002b4 <skip>:
     2b4:	e28aa002 	add	sl, sl, #2
     2b8:	e153000a 	cmp	r3, sl
     2bc:	caffffe5 	bgt	258 <loop1>

000002c0 <finished>:
     2c0:	e3a0a000 	mov	sl, #0
     2c4:	ee40af10 	mcr	15, 2, sl, cr0, cr0, {0}
     2c8:	f57ff04f 	dsb	sy
     2cc:	f57ff06f 	isb	sy
     2d0:	e8bd1fff 	pop	{r0, r1, r2, r3, r4, r5, r6, r7, r8, r9, sl, fp, ip}
     2d4:	e1a0f00e 	mov	pc, lr

000002d8 <flush_icache>:
     2d8:	e92d000f 	push	{r0, r1, r2, r3}
     2dc:	e3a00000 	mov	r0, #0
     2e0:	ee070f15 	mcr	15, 0, r0, cr7, cr5, {0}
     2e4:	f57ff06f 	isb	sy
     2e8:	e8bd000f 	pop	{r0, r1, r2, r3}
     2ec:	e1a0f00e 	mov	pc, lr

000002f0 <invalidate_branch_predictor>:
     2f0:	e92d000f 	push	{r0, r1, r2, r3}
     2f4:	e3a00000 	mov	r0, #0
     2f8:	ee070fd5 	mcr	15, 0, r0, cr7, cr5, {6}
     2fc:	f57ff06f 	isb	sy
     300:	e8bd000f 	pop	{r0, r1, r2, r3}
     304:	e1a0f00e 	mov	pc, lr

00000308 <disable_cache>:
     308:	e92d000f 	push	{r0, r1, r2, r3}
     30c:	ee110f10 	mrc	15, 0, r0, cr1, cr0, {0}
     310:	e3c00a01 	bic	r0, r0, #4096	; 0x1000
     314:	e3c00004 	bic	r0, r0, #4
     318:	ee010f10 	mcr	15, 0, r0, cr1, cr0, {0}
     31c:	f57ff06f 	isb	sy
     320:	e8bd000f 	pop	{r0, r1, r2, r3}
     324:	e1a0f00e 	mov	pc, lr

00000328 <disable_dcache>:
     328:	e92d000f 	push	{r0, r1, r2, r3}
     32c:	ee110f10 	mrc	15, 0, r0, cr1, cr0, {0}
     330:	e3c00004 	bic	r0, r0, #4
     334:	ee010f10 	mcr	15, 0, r0, cr1, cr0, {0}
     338:	f57ff06f 	isb	sy
     33c:	e8bd000f 	pop	{r0, r1, r2, r3}
     340:	e1a0f00e 	mov	pc, lr

00000344 <disable_icache>:
     344:	e92d000f 	push	{r0, r1, r2, r3}
     348:	ee110f10 	mrc	15, 0, r0, cr1, cr0, {0}
     34c:	e3c00a01 	bic	r0, r0, #4096	; 0x1000
     350:	ee010f10 	mcr	15, 0, r0, cr1, cr0, {0}
     354:	f57ff06f 	isb	sy
     358:	e8bd000f 	pop	{r0, r1, r2, r3}
     35c:	e1a0f00e 	mov	pc, lr

00000360 <enable_icache>:
     360:	e92d000f 	push	{r0, r1, r2, r3}
     364:	ee110f10 	mrc	15, 0, r0, cr1, cr0, {0}
     368:	e3800a01 	orr	r0, r0, #4096	; 0x1000
     36c:	ee010f10 	mcr	15, 0, r0, cr1, cr0, {0}
     370:	f57ff06f 	isb	sy
     374:	e8bd000f 	pop	{r0, r1, r2, r3}
     378:	e1a0f00e 	mov	pc, lr

0000037c <disable_l2cache>:
     37c:	e92d000f 	push	{r0, r1, r2, r3}
     380:	ee110f30 	mrc	15, 0, r0, cr1, cr0, {1}
     384:	e3c00002 	bic	r0, r0, #2
     388:	ee010f30 	mcr	15, 0, r0, cr1, cr0, {1}
     38c:	f57ff06f 	isb	sy
     390:	e8bd000f 	pop	{r0, r1, r2, r3}
     394:	e1a0f00e 	mov	pc, lr

00000398 <disable_program_flow_prediction>:
     398:	e92d000f 	push	{r0, r1, r2, r3}
     39c:	ee110f10 	mrc	15, 0, r0, cr1, cr0, {0}
     3a0:	e3c00b02 	bic	r0, r0, #2048	; 0x800
     3a4:	ee010f10 	mcr	15, 0, r0, cr1, cr0, {0}
     3a8:	f57ff06f 	isb	sy
     3ac:	e8bd000f 	pop	{r0, r1, r2, r3}
     3b0:	e1a0f00e 	mov	pc, lr

000003b4 <enable_cache>:
     3b4:	e92d000f 	push	{r0, r1, r2, r3}
     3b8:	ee110f10 	mrc	15, 0, r0, cr1, cr0, {0}
     3bc:	e3800a01 	orr	r0, r0, #4096	; 0x1000
     3c0:	e3800004 	orr	r0, r0, #4
     3c4:	ee010f10 	mcr	15, 0, r0, cr1, cr0, {0}
     3c8:	f57ff06f 	isb	sy
     3cc:	e8bd000f 	pop	{r0, r1, r2, r3}
     3d0:	e1a0f00e 	mov	pc, lr

000003d4 <enable_program_flow_prediction>:
     3d4:	e92d000f 	push	{r0, r1, r2, r3}
     3d8:	ee110f10 	mrc	15, 0, r0, cr1, cr0, {0}
     3dc:	e3800b02 	orr	r0, r0, #2048	; 0x800
     3e0:	ee010f10 	mcr	15, 0, r0, cr1, cr0, {0}
     3e4:	f57ff06f 	isb	sy
     3e8:	e8bd000f 	pop	{r0, r1, r2, r3}
     3ec:	e1a0f00e 	mov	pc, lr

000003f0 <mem_preload_tlb>:
     3f0:	e92d000f 	push	{r0, r1, r2, r3}
     3f4:	e3a00000 	mov	r0, #0
     3f8:	ee0a0f10 	mcr	15, 0, r0, cr10, cr0, {0}
     3fc:	f57ff06f 	isb	sy
     400:	e59f025c 	ldr	r0, [pc, #604]	; 664 <__turn_mmu_on+0x24>
     404:	ee0a0f11 	mcr	15, 0, r0, cr10, cr1, {0}
     408:	e59f0258 	ldr	r0, [pc, #600]	; 668 <__turn_mmu_on+0x28>
     40c:	ee0a0f11 	mcr	15, 0, r0, cr10, cr1, {0}
     410:	e59f0254 	ldr	r0, [pc, #596]	; 66c <__turn_mmu_on+0x2c>
     414:	ee0a0f11 	mcr	15, 0, r0, cr10, cr1, {0}
     418:	e59f0250 	ldr	r0, [pc, #592]	; 670 <__turn_mmu_on+0x30>
     41c:	ee0a0f11 	mcr	15, 0, r0, cr10, cr1, {0}
     420:	e59f024c 	ldr	r0, [pc, #588]	; 674 <__turn_mmu_on+0x34>
     424:	ee0a0f11 	mcr	15, 0, r0, cr10, cr1, {0}
     428:	e59f0248 	ldr	r0, [pc, #584]	; 678 <__turn_mmu_on+0x38>
     42c:	ee0a0f11 	mcr	15, 0, r0, cr10, cr1, {0}
     430:	e59f0244 	ldr	r0, [pc, #580]	; 67c <__turn_mmu_on+0x3c>
     434:	ee0a0f11 	mcr	15, 0, r0, cr10, cr1, {0}
     438:	e59f0240 	ldr	r0, [pc, #576]	; 680 <__turn_mmu_on+0x40>
     43c:	ee0a0f11 	mcr	15, 0, r0, cr10, cr1, {0}
     440:	e3a0020f 	mov	r0, #-268435456	; 0xf0000000
     444:	ee0a0f11 	mcr	15, 0, r0, cr10, cr1, {0}
     448:	e59f0234 	ldr	r0, [pc, #564]	; 684 <__turn_mmu_on+0x44>
     44c:	ee0a0f11 	mcr	15, 0, r0, cr10, cr1, {0}
     450:	e59f0230 	ldr	r0, [pc, #560]	; 688 <__turn_mmu_on+0x48>
     454:	ee0a0f11 	mcr	15, 0, r0, cr10, cr1, {0}
     458:	e59f022c 	ldr	r0, [pc, #556]	; 68c <__turn_mmu_on+0x4c>
     45c:	ee0a0f11 	mcr	15, 0, r0, cr10, cr1, {0}
     460:	e59f0228 	ldr	r0, [pc, #552]	; 690 <__turn_mmu_on+0x50>
     464:	ee0a0f11 	mcr	15, 0, r0, cr10, cr1, {0}
     468:	e59f0224 	ldr	r0, [pc, #548]	; 694 <__turn_mmu_on+0x54>
     46c:	ee0a0f11 	mcr	15, 0, r0, cr10, cr1, {0}
     470:	e59f0220 	ldr	r0, [pc, #544]	; 698 <__turn_mmu_on+0x58>
     474:	ee0a0f11 	mcr	15, 0, r0, cr10, cr1, {0}
     478:	e59f021c 	ldr	r0, [pc, #540]	; 69c <__turn_mmu_on+0x5c>
     47c:	ee0a0f11 	mcr	15, 0, r0, cr10, cr1, {0}
     480:	e59f0218 	ldr	r0, [pc, #536]	; 6a0 <__turn_mmu_on+0x60>
     484:	ee0a0f11 	mcr	15, 0, r0, cr10, cr1, {0}
     488:	e3a00000 	mov	r0, #0
     48c:	ee0a0f30 	mcr	15, 0, r0, cr10, cr0, {1}
     490:	f57ff06f 	isb	sy
     494:	e3a0020f 	mov	r0, #-268435456	; 0xf0000000
     498:	ee0a0f31 	mcr	15, 0, r0, cr10, cr1, {1}
     49c:	e59f01e0 	ldr	r0, [pc, #480]	; 684 <__turn_mmu_on+0x44>
     4a0:	ee0a0f31 	mcr	15, 0, r0, cr10, cr1, {1}
     4a4:	e59f01dc 	ldr	r0, [pc, #476]	; 688 <__turn_mmu_on+0x48>
     4a8:	ee0a0f31 	mcr	15, 0, r0, cr10, cr1, {1}
     4ac:	e59f01d8 	ldr	r0, [pc, #472]	; 68c <__turn_mmu_on+0x4c>
     4b0:	ee0a0f31 	mcr	15, 0, r0, cr10, cr1, {1}
     4b4:	e59f01d4 	ldr	r0, [pc, #468]	; 690 <__turn_mmu_on+0x50>
     4b8:	ee0a0f31 	mcr	15, 0, r0, cr10, cr1, {1}
     4bc:	e59f01d0 	ldr	r0, [pc, #464]	; 694 <__turn_mmu_on+0x54>
     4c0:	ee0a0f31 	mcr	15, 0, r0, cr10, cr1, {1}
     4c4:	e59f01cc 	ldr	r0, [pc, #460]	; 698 <__turn_mmu_on+0x58>
     4c8:	ee0a0f31 	mcr	15, 0, r0, cr10, cr1, {1}
     4cc:	e59f01c8 	ldr	r0, [pc, #456]	; 69c <__turn_mmu_on+0x5c>
     4d0:	ee0a0f31 	mcr	15, 0, r0, cr10, cr1, {1}
     4d4:	e59f01c4 	ldr	r0, [pc, #452]	; 6a0 <__turn_mmu_on+0x60>
     4d8:	ee0a0f31 	mcr	15, 0, r0, cr10, cr1, {1}
     4dc:	e8bd000f 	pop	{r0, r1, r2, r3}
     4e0:	e1a0f00e 	mov	pc, lr

000004e4 <mem_preload_tlb_nommu>:
     4e4:	e92d000f 	push	{r0, r1, r2, r3}
     4e8:	e3a00000 	mov	r0, #0
     4ec:	ee0a0f10 	mcr	15, 0, r0, cr10, cr0, {0}
     4f0:	f57ff06f 	isb	sy
     4f4:	e59f01a8 	ldr	r0, [pc, #424]	; 6a4 <__turn_mmu_on+0x64>
     4f8:	ee0a0f11 	mcr	15, 0, r0, cr10, cr1, {0}
     4fc:	e59f01a4 	ldr	r0, [pc, #420]	; 6a8 <__turn_mmu_on+0x68>
     500:	ee0a0f11 	mcr	15, 0, r0, cr10, cr1, {0}
     504:	e59f01a0 	ldr	r0, [pc, #416]	; 6ac <__turn_mmu_on+0x6c>
     508:	ee0a0f11 	mcr	15, 0, r0, cr10, cr1, {0}
     50c:	e59f019c 	ldr	r0, [pc, #412]	; 6b0 <__turn_mmu_on+0x70>
     510:	ee0a0f11 	mcr	15, 0, r0, cr10, cr1, {0}
     514:	e59f0198 	ldr	r0, [pc, #408]	; 6b4 <__turn_mmu_on+0x74>
     518:	ee0a0f11 	mcr	15, 0, r0, cr10, cr1, {0}
     51c:	e59f0194 	ldr	r0, [pc, #404]	; 6b8 <__turn_mmu_on+0x78>
     520:	ee0a0f11 	mcr	15, 0, r0, cr10, cr1, {0}
     524:	e59f0190 	ldr	r0, [pc, #400]	; 6bc <__turn_mmu_on+0x7c>
     528:	ee0a0f11 	mcr	15, 0, r0, cr10, cr1, {0}
     52c:	e59f018c 	ldr	r0, [pc, #396]	; 6c0 <__turn_mmu_on+0x80>
     530:	ee0a0f11 	mcr	15, 0, r0, cr10, cr1, {0}
     534:	e3a00000 	mov	r0, #0
     538:	ee0a0f11 	mcr	15, 0, r0, cr10, cr1, {0}
     53c:	e3a00b01 	mov	r0, #1024	; 0x400
     540:	ee0a0f11 	mcr	15, 0, r0, cr10, cr1, {0}
     544:	e3a00b02 	mov	r0, #2048	; 0x800
     548:	ee0a0f11 	mcr	15, 0, r0, cr10, cr1, {0}
     54c:	e3a00b03 	mov	r0, #3072	; 0xc00
     550:	ee0a0f11 	mcr	15, 0, r0, cr10, cr1, {0}
     554:	e3a00a01 	mov	r0, #4096	; 0x1000
     558:	ee0a0f11 	mcr	15, 0, r0, cr10, cr1, {0}
     55c:	e3a00b05 	mov	r0, #5120	; 0x1400
     560:	ee0a0f11 	mcr	15, 0, r0, cr10, cr1, {0}
     564:	e3a00b06 	mov	r0, #6144	; 0x1800
     568:	ee0a0f11 	mcr	15, 0, r0, cr10, cr1, {0}
     56c:	e3a00b07 	mov	r0, #7168	; 0x1c00
     570:	ee0a0f11 	mcr	15, 0, r0, cr10, cr1, {0}
     574:	e3a00b1f 	mov	r0, #31744	; 0x7c00
     578:	ee0a0f11 	mcr	15, 0, r0, cr10, cr1, {0}
     57c:	e3a00000 	mov	r0, #0
     580:	ee0a0f30 	mcr	15, 0, r0, cr10, cr0, {1}
     584:	f57ff06f 	isb	sy
     588:	e3a00000 	mov	r0, #0
     58c:	ee0a0f31 	mcr	15, 0, r0, cr10, cr1, {1}
     590:	e3a00b01 	mov	r0, #1024	; 0x400
     594:	ee0a0f31 	mcr	15, 0, r0, cr10, cr1, {1}
     598:	e3a00b02 	mov	r0, #2048	; 0x800
     59c:	ee0a0f31 	mcr	15, 0, r0, cr10, cr1, {1}
     5a0:	e3a00b03 	mov	r0, #3072	; 0xc00
     5a4:	ee0a0f31 	mcr	15, 0, r0, cr10, cr1, {1}
     5a8:	e3a00a01 	mov	r0, #4096	; 0x1000
     5ac:	ee0a0f31 	mcr	15, 0, r0, cr10, cr1, {1}
     5b0:	e3a00b05 	mov	r0, #5120	; 0x1400
     5b4:	ee0a0f31 	mcr	15, 0, r0, cr10, cr1, {1}
     5b8:	e3a00b06 	mov	r0, #6144	; 0x1800
     5bc:	ee0a0f31 	mcr	15, 0, r0, cr10, cr1, {1}
     5c0:	e3a00b07 	mov	r0, #7168	; 0x1c00
     5c4:	ee0a0f31 	mcr	15, 0, r0, cr10, cr1, {1}
     5c8:	e3a00b1f 	mov	r0, #31744	; 0x7c00
     5cc:	ee0a0f31 	mcr	15, 0, r0, cr10, cr1, {1}
     5d0:	e8bd000f 	pop	{r0, r1, r2, r3}
     5d4:	e1a0f00e 	mov	pc, lr

000005d8 <disable_mmu>:
     5d8:	ee111f10 	mrc	15, 0, r1, cr1, cr0, {0}
     5dc:	e3c11a01 	bic	r1, r1, #4096	; 0x1000
     5e0:	e3c11007 	bic	r1, r1, #7
     5e4:	e3c11000 	bic	r1, r1, #0
     5e8:	ea000004 	b	600 <__turn_mmu_off>
     5ec:	e320f000 	nop	{0}
     5f0:	e320f000 	nop	{0}
     5f4:	e320f000 	nop	{0}
     5f8:	e320f000 	nop	{0}
     5fc:	e320f000 	nop	{0}

00000600 <__turn_mmu_off>:
     600:	ee011f10 	mcr	15, 0, r1, cr1, cr0, {0}
     604:	ee103f10 	mrc	15, 0, r3, cr0, cr0, {0}
     608:	e1a03003 	mov	r3, r3
     60c:	e1a03003 	mov	r3, r3
     610:	e1a0f00e 	mov	pc, lr

00000614 <enable_mmu>:
     614:	ee111f10 	mrc	15, 0, r1, cr1, cr0, {0}
     618:	e3811a01 	orr	r1, r1, #4096	; 0x1000
     61c:	e3811007 	orr	r1, r1, #7
     620:	e3811000 	orr	r1, r1, #0
     624:	ea000005 	b	640 <__turn_mmu_on>
     628:	e320f000 	nop	{0}
     62c:	e320f000 	nop	{0}
     630:	e320f000 	nop	{0}
     634:	e320f000 	nop	{0}
     638:	e320f000 	nop	{0}
     63c:	e320f000 	nop	{0}

00000640 <__turn_mmu_on>:
     640:	ee011f10 	mcr	15, 0, r1, cr1, cr0, {0}
     644:	ee103f10 	mrc	15, 0, r3, cr0, cr0, {0}
     648:	e1a03003 	mov	r3, r3
     64c:	e1a03003 	mov	r3, r3
     650:	e1a0f00e 	mov	pc, lr
     654:	f0007ffc 			; <UNDEFINED> instruction: 0xf0007ffc
     658:	00007ffc 	strdeq	r7, [r0], -ip
     65c:	000003ff 	strdeq	r0, [r0], -pc	; <UNPREDICTABLE>
     660:	00007fff 	strdeq	r7, [r0], -pc	; <UNPREDICTABLE>
     664:	f1c20000 			; <UNDEFINED> instruction: 0xf1c20000
     668:	f1c2ac00 			; <UNDEFINED> instruction: 0xf1c2ac00
     66c:	f1c2b000 			; <UNDEFINED> instruction: 0xf1c2b000
     670:	f1c2b400 			; <UNDEFINED> instruction: 0xf1c2b400
     674:	f1c20400 			; <UNDEFINED> instruction: 0xf1c20400
     678:	f1c20c00 			; <UNDEFINED> instruction: 0xf1c20c00
     67c:	f1c22800 			; <UNDEFINED> instruction: 0xf1c22800
     680:	f1c01000 			; <UNDEFINED> instruction: 0xf1c01000
     684:	f0000400 			; <UNDEFINED> instruction: 0xf0000400
     688:	f0000800 			; <UNDEFINED> instruction: 0xf0000800
     68c:	f0000c00 			; <UNDEFINED> instruction: 0xf0000c00
     690:	f0001000 			; <UNDEFINED> instruction: 0xf0001000
     694:	f0001400 			; <UNDEFINED> instruction: 0xf0001400
     698:	f0001800 			; <UNDEFINED> instruction: 0xf0001800
     69c:	f0001c00 			; <UNDEFINED> instruction: 0xf0001c00
     6a0:	f0007c00 			; <UNDEFINED> instruction: 0xf0007c00
     6a4:	01c20000 	biceq	r0, r2, r0
     6a8:	01c2ac00 	biceq	sl, r2, r0, lsl #24
     6ac:	01c2b000 	biceq	fp, r2, r0
     6b0:	01c2b400 	biceq	fp, r2, r0, lsl #8
     6b4:	01c20400 	biceq	r0, r2, r0, lsl #8
     6b8:	01c20c00 	biceq	r0, r2, r0, lsl #24
     6bc:	01c22800 	biceq	r2, r2, r0, lsl #16
     6c0:	01c01000 	biceq	r1, r0, r0
     6c4:	e320f000 	nop	{0}
     6c8:	e320f000 	nop	{0}
     6cc:	e320f000 	nop	{0}
     6d0:	e320f000 	nop	{0}
     6d4:	e320f000 	nop	{0}
     6d8:	e320f000 	nop	{0}
     6dc:	e320f000 	nop	{0}

000006e0 <mem_int_init>:
     6e0:	e59f3084 	ldr	r3, [pc, #132]	; 76c <mem_int_init+0x8c>
     6e4:	e3a00000 	mov	r0, #0
     6e8:	e59f2080 	ldr	r2, [pc, #128]	; 770 <mem_int_init+0x90>
     6ec:	e5823000 	str	r3, [r2]
     6f0:	e5931040 	ldr	r1, [r3, #64]	; 0x40
     6f4:	e5821004 	str	r1, [r2, #4]
     6f8:	e5931044 	ldr	r1, [r3, #68]	; 0x44
     6fc:	e5821008 	str	r1, [r2, #8]
     700:	e5931048 	ldr	r1, [r3, #72]	; 0x48
     704:	e582100c 	str	r1, [r2, #12]
     708:	e5931050 	ldr	r1, [r3, #80]	; 0x50
     70c:	e5821010 	str	r1, [r2, #16]
     710:	e5931054 	ldr	r1, [r3, #84]	; 0x54
     714:	e5821014 	str	r1, [r2, #20]
     718:	e5931058 	ldr	r1, [r3, #88]	; 0x58
     71c:	e5821018 	str	r1, [r2, #24]
     720:	e5931030 	ldr	r1, [r3, #48]	; 0x30
     724:	e582101c 	str	r1, [r2, #28]
     728:	e5931034 	ldr	r1, [r3, #52]	; 0x34
     72c:	e5821020 	str	r1, [r2, #32]
     730:	e5931038 	ldr	r1, [r3, #56]	; 0x38
     734:	e5821024 	str	r1, [r2, #36]	; 0x24
     738:	e3e02000 	mvn	r2, #0
     73c:	e5830040 	str	r0, [r3, #64]	; 0x40
     740:	e5830044 	str	r0, [r3, #68]	; 0x44
     744:	e5830048 	str	r0, [r3, #72]	; 0x48
     748:	e5832050 	str	r2, [r3, #80]	; 0x50
     74c:	e5832054 	str	r2, [r3, #84]	; 0x54
     750:	e5832058 	str	r2, [r3, #88]	; 0x58
     754:	e2822002 	add	r2, r2, #2
     758:	e5830030 	str	r0, [r3, #48]	; 0x30
     75c:	e5830034 	str	r0, [r3, #52]	; 0x34
     760:	e5830038 	str	r0, [r3, #56]	; 0x38
     764:	e5832010 	str	r2, [r3, #16]
     768:	e12fff1e 	bx	lr
     76c:	f1c20400 			; <UNDEFINED> instruction: 0xf1c20400
     770:	00003814 	andeq	r3, r0, r4, lsl r8

00000774 <mem_int_exit>:
     774:	e59f3050 	ldr	r3, [pc, #80]	; 7cc <mem_int_exit+0x58>
     778:	e3a00000 	mov	r0, #0
     77c:	e5932000 	ldr	r2, [r3]
     780:	e5931004 	ldr	r1, [r3, #4]
     784:	e5821040 	str	r1, [r2, #64]	; 0x40
     788:	e5931008 	ldr	r1, [r3, #8]
     78c:	e5821044 	str	r1, [r2, #68]	; 0x44
     790:	e593100c 	ldr	r1, [r3, #12]
     794:	e5821048 	str	r1, [r2, #72]	; 0x48
     798:	e5931010 	ldr	r1, [r3, #16]
     79c:	e5821050 	str	r1, [r2, #80]	; 0x50
     7a0:	e5931014 	ldr	r1, [r3, #20]
     7a4:	e5821054 	str	r1, [r2, #84]	; 0x54
     7a8:	e5931018 	ldr	r1, [r3, #24]
     7ac:	e5821058 	str	r1, [r2, #88]	; 0x58
     7b0:	e593101c 	ldr	r1, [r3, #28]
     7b4:	e5821030 	str	r1, [r2, #48]	; 0x30
     7b8:	e5931020 	ldr	r1, [r3, #32]
     7bc:	e5933024 	ldr	r3, [r3, #36]	; 0x24
     7c0:	e5821034 	str	r1, [r2, #52]	; 0x34
     7c4:	e5823038 	str	r3, [r2, #56]	; 0x38
     7c8:	e12fff1e 	bx	lr
     7cc:	00003814 	andeq	r3, r0, r4, lsl r8

000007d0 <mem_enable_int>:
     7d0:	e59f303c 	ldr	r3, [pc, #60]	; 814 <mem_enable_int+0x44>
     7d4:	e1a022a0 	lsr	r2, r0, #5
     7d8:	e2821010 	add	r1, r2, #16
     7dc:	e200001f 	and	r0, r0, #31
     7e0:	e92d4010 	push	{r4, lr}
     7e4:	e3a04001 	mov	r4, #1
     7e8:	e5933000 	ldr	r3, [r3]
     7ec:	e2822014 	add	r2, r2, #20
     7f0:	e1a00014 	lsl	r0, r4, r0
     7f4:	e793c101 	ldr	ip, [r3, r1, lsl #2]
     7f8:	e180c00c 	orr	ip, r0, ip
     7fc:	e783c101 	str	ip, [r3, r1, lsl #2]
     800:	e7931102 	ldr	r1, [r3, r2, lsl #2]
     804:	e1c10000 	bic	r0, r1, r0
     808:	e7830102 	str	r0, [r3, r2, lsl #2]
     80c:	e3a00000 	mov	r0, #0
     810:	e8bd8010 	pop	{r4, pc}
     814:	00003814 	andeq	r3, r0, r4, lsl r8

00000818 <mem_query_int>:
     818:	e59f3024 	ldr	r3, [pc, #36]	; 844 <mem_query_int+0x2c>
     81c:	e1a022a0 	lsr	r2, r0, #5
     820:	e2822004 	add	r2, r2, #4
     824:	e200001f 	and	r0, r0, #31
     828:	e5933000 	ldr	r3, [r3]
     82c:	e7933102 	ldr	r3, [r3, r2, lsl #2]
     830:	e3a02001 	mov	r2, #1
     834:	e0132012 	ands	r2, r3, r2, lsl r0
     838:	03e00000 	mvneq	r0, #0
     83c:	13a00000 	movne	r0, #0
     840:	e12fff1e 	bx	lr
     844:	00003814 	andeq	r3, r0, r4, lsl r8

00000848 <mem_tmr_init>:
     848:	e59f2008 	ldr	r2, [pc, #8]	; 858 <mem_tmr_init+0x10>
     84c:	e59f3008 	ldr	r3, [pc, #8]	; 85c <mem_tmr_init+0x14>
     850:	e5832000 	str	r2, [r3]
     854:	e12fff1e 	bx	lr
     858:	f1c20c00 			; <UNDEFINED> instruction: 0xf1c20c00
     85c:	0000383c 	andeq	r3, r0, ip, lsr r8

00000860 <mem_tmr_disable_watchdog>:
     860:	e59f301c 	ldr	r3, [pc, #28]	; 884 <mem_tmr_disable_watchdog+0x24>
     864:	e5933000 	ldr	r3, [r3]
     868:	e5932094 	ldr	r2, [r3, #148]	; 0x94
     86c:	e3c22002 	bic	r2, r2, #2
     870:	e5832094 	str	r2, [r3, #148]	; 0x94
     874:	e5932094 	ldr	r2, [r3, #148]	; 0x94
     878:	e3c22001 	bic	r2, r2, #1
     87c:	e5832094 	str	r2, [r3, #148]	; 0x94
     880:	e12fff1e 	bx	lr
     884:	0000383c 	andeq	r3, r0, ip, lsr r8

00000888 <mem_clk_init>:
     888:	e59f200c 	ldr	r2, [pc, #12]	; 89c <mem_clk_init+0x14>
     88c:	e3a00000 	mov	r0, #0
     890:	e59f3008 	ldr	r3, [pc, #8]	; 8a0 <mem_clk_init+0x18>
     894:	e5832000 	str	r2, [r3]
     898:	e12fff1e 	bx	lr
     89c:	f1c20000 			; <UNDEFINED> instruction: 0xf1c20000
     8a0:	00003840 	andeq	r3, r0, r0, asr #16

000008a4 <mem_clk_plldisable>:
     8a4:	e59f3050 	ldr	r3, [pc, #80]	; 8fc <mem_clk_plldisable+0x58>
     8a8:	e3a00000 	mov	r0, #0
     8ac:	e5933000 	ldr	r3, [r3]
     8b0:	e5932000 	ldr	r2, [r3]
     8b4:	e7df2f9f 	bfc	r2, #31, #1
     8b8:	e5832000 	str	r2, [r3]
     8bc:	e5932008 	ldr	r2, [r3, #8]
     8c0:	e7df2f9f 	bfc	r2, #31, #1
     8c4:	e5832008 	str	r2, [r3, #8]
     8c8:	e5932010 	ldr	r2, [r3, #16]
     8cc:	e7df2f9f 	bfc	r2, #31, #1
     8d0:	e5832010 	str	r2, [r3, #16]
     8d4:	e5932018 	ldr	r2, [r3, #24]
     8d8:	e7df2f9f 	bfc	r2, #31, #1
     8dc:	e5832018 	str	r2, [r3, #24]
     8e0:	e5932028 	ldr	r2, [r3, #40]	; 0x28
     8e4:	e7df2f9f 	bfc	r2, #31, #1
     8e8:	e5832028 	str	r2, [r3, #40]	; 0x28
     8ec:	e5932030 	ldr	r2, [r3, #48]	; 0x30
     8f0:	e7df2f9f 	bfc	r2, #31, #1
     8f4:	e5832030 	str	r2, [r3, #48]	; 0x30
     8f8:	e12fff1e 	bx	lr
     8fc:	00003840 	andeq	r3, r0, r0, asr #16

00000900 <mem_clk_pllenable>:
     900:	e59f3050 	ldr	r3, [pc, #80]	; 958 <mem_clk_pllenable+0x58>
     904:	e3a00000 	mov	r0, #0
     908:	e5933000 	ldr	r3, [r3]
     90c:	e5932000 	ldr	r2, [r3]
     910:	e3822102 	orr	r2, r2, #-2147483648	; 0x80000000
     914:	e5832000 	str	r2, [r3]
     918:	e5932008 	ldr	r2, [r3, #8]
     91c:	e3822102 	orr	r2, r2, #-2147483648	; 0x80000000
     920:	e5832008 	str	r2, [r3, #8]
     924:	e5932010 	ldr	r2, [r3, #16]
     928:	e3822102 	orr	r2, r2, #-2147483648	; 0x80000000
     92c:	e5832010 	str	r2, [r3, #16]
     930:	e5932018 	ldr	r2, [r3, #24]
     934:	e3822102 	orr	r2, r2, #-2147483648	; 0x80000000
     938:	e5832018 	str	r2, [r3, #24]
     93c:	e5932028 	ldr	r2, [r3, #40]	; 0x28
     940:	e3822102 	orr	r2, r2, #-2147483648	; 0x80000000
     944:	e5832028 	str	r2, [r3, #40]	; 0x28
     948:	e5932030 	ldr	r2, [r3, #48]	; 0x30
     94c:	e3822102 	orr	r2, r2, #-2147483648	; 0x80000000
     950:	e5832030 	str	r2, [r3, #48]	; 0x30
     954:	e12fff1e 	bx	lr
     958:	00003840 	andeq	r3, r0, r0, asr #16

0000095c <mem_clk_setdiv>:
     95c:	e3500000 	cmp	r0, #0
     960:	0a000013 	beq	9b4 <mem_clk_setdiv+0x58>
     964:	e59f3050 	ldr	r3, [pc, #80]	; 9bc <mem_clk_setdiv+0x60>
     968:	e59f2050 	ldr	r2, [pc, #80]	; 9c0 <mem_clk_setdiv+0x64>
     96c:	e5823000 	str	r3, [r2]
     970:	e5901000 	ldr	r1, [r0]
     974:	e5932054 	ldr	r2, [r3, #84]	; 0x54
     978:	e7e11251 	ubfx	r1, r1, #4, #2
     97c:	e7c12011 	bfi	r2, r1, #0, #2
     980:	e5832054 	str	r2, [r3, #84]	; 0x54
     984:	e5901000 	ldr	r1, [r0]
     988:	e5932054 	ldr	r2, [r3, #84]	; 0x54
     98c:	e7e11451 	ubfx	r1, r1, #8, #2
     990:	e7c52211 	bfi	r2, r1, #4, #2
     994:	e5832054 	str	r2, [r3, #84]	; 0x54
     998:	e5901000 	ldr	r1, [r0]
     99c:	e3a00000 	mov	r0, #0
     9a0:	e5932054 	ldr	r2, [r3, #84]	; 0x54
     9a4:	e7e11651 	ubfx	r1, r1, #12, #2
     9a8:	e7c92411 	bfi	r2, r1, #8, #2
     9ac:	e5832054 	str	r2, [r3, #84]	; 0x54
     9b0:	e12fff1e 	bx	lr
     9b4:	e3e00000 	mvn	r0, #0
     9b8:	e12fff1e 	bx	lr
     9bc:	f1c20000 			; <UNDEFINED> instruction: 0xf1c20000
     9c0:	00003840 	andeq	r3, r0, r0, asr #16

000009c4 <mem_clk_getdiv>:
     9c4:	e3500000 	cmp	r0, #0
     9c8:	0a000011 	beq	a14 <mem_clk_getdiv+0x50>
     9cc:	e59f3048 	ldr	r3, [pc, #72]	; a1c <mem_clk_getdiv+0x58>
     9d0:	e59f2048 	ldr	r2, [pc, #72]	; a20 <mem_clk_getdiv+0x5c>
     9d4:	e5823000 	str	r3, [r2]
     9d8:	e5931054 	ldr	r1, [r3, #84]	; 0x54
     9dc:	e5902000 	ldr	r2, [r0]
     9e0:	e2011003 	and	r1, r1, #3
     9e4:	e7c72211 	bfi	r2, r1, #4, #4
     9e8:	e5802000 	str	r2, [r0]
     9ec:	e5931054 	ldr	r1, [r3, #84]	; 0x54
     9f0:	e7e11251 	ubfx	r1, r1, #4, #2
     9f4:	e7cb2411 	bfi	r2, r1, #8, #4
     9f8:	e5802000 	str	r2, [r0]
     9fc:	e5933054 	ldr	r3, [r3, #84]	; 0x54
     a00:	e7e13453 	ubfx	r3, r3, #8, #2
     a04:	e7cf2613 	bfi	r2, r3, #12, #4
     a08:	e5802000 	str	r2, [r0]
     a0c:	e3a00000 	mov	r0, #0
     a10:	e12fff1e 	bx	lr
     a14:	e3e00000 	mvn	r0, #0
     a18:	e12fff1e 	bx	lr
     a1c:	f1c20000 			; <UNDEFINED> instruction: 0xf1c20000
     a20:	00003840 	andeq	r3, r0, r0, asr #16

00000a24 <mem_clk_set_pll_factor>:
     a24:	e59f304c 	ldr	r3, [pc, #76]	; a78 <mem_clk_set_pll_factor+0x54>
     a28:	e59f204c 	ldr	r2, [pc, #76]	; a7c <mem_clk_set_pll_factor+0x58>
     a2c:	e5d01000 	ldrb	r1, [r0]
     a30:	e5823000 	str	r3, [r2]
     a34:	e5932000 	ldr	r2, [r3]
     a38:	e7cc2411 	bfi	r2, r1, #8, #5
     a3c:	e5832000 	str	r2, [r3]
     a40:	e5d01001 	ldrb	r1, [r0, #1]
     a44:	e5932000 	ldr	r2, [r3]
     a48:	e7c52211 	bfi	r2, r1, #4, #2
     a4c:	e5832000 	str	r2, [r3]
     a50:	e5d01002 	ldrb	r1, [r0, #2]
     a54:	e5932000 	ldr	r2, [r3]
     a58:	e7c12011 	bfi	r2, r1, #0, #2
     a5c:	e5832000 	str	r2, [r3]
     a60:	e5d01003 	ldrb	r1, [r0, #3]
     a64:	e3a00000 	mov	r0, #0
     a68:	e5932000 	ldr	r2, [r3]
     a6c:	e7d12811 	bfi	r2, r1, #16, #2
     a70:	e5832000 	str	r2, [r3]
     a74:	e12fff1e 	bx	lr
     a78:	f1c20000 			; <UNDEFINED> instruction: 0xf1c20000
     a7c:	00003840 	andeq	r3, r0, r0, asr #16

00000a80 <mem_clk_get_pll_factor>:
     a80:	e59f303c 	ldr	r3, [pc, #60]	; ac4 <mem_clk_get_pll_factor+0x44>
     a84:	e59f203c 	ldr	r2, [pc, #60]	; ac8 <mem_clk_get_pll_factor+0x48>
     a88:	e5823000 	str	r3, [r2]
     a8c:	e5932000 	ldr	r2, [r3]
     a90:	e7e42452 	ubfx	r2, r2, #8, #5
     a94:	e5c02000 	strb	r2, [r0]
     a98:	e5932000 	ldr	r2, [r3]
     a9c:	e7e12252 	ubfx	r2, r2, #4, #2
     aa0:	e5c02001 	strb	r2, [r0, #1]
     aa4:	e5932000 	ldr	r2, [r3]
     aa8:	e7e12052 	ubfx	r2, r2, #0, #2
     aac:	e5c02002 	strb	r2, [r0, #2]
     ab0:	e5933000 	ldr	r3, [r3]
     ab4:	e7e13853 	ubfx	r3, r3, #16, #2
     ab8:	e5c03003 	strb	r3, [r0, #3]
     abc:	e3a00000 	mov	r0, #0
     ac0:	e12fff1e 	bx	lr
     ac4:	f1c20000 			; <UNDEFINED> instruction: 0xf1c20000
     ac8:	00003840 	andeq	r3, r0, r0, asr #16

00000acc <mem_clk_dramgating>:
     acc:	e59f3024 	ldr	r3, [pc, #36]	; af8 <mem_clk_dramgating+0x2c>
     ad0:	e3500000 	cmp	r0, #0
     ad4:	15932000 	ldrne	r2, [r3]
     ad8:	05933000 	ldreq	r3, [r3]
     adc:	15923020 	ldrne	r3, [r2, #32]
     ae0:	05932020 	ldreq	r2, [r3, #32]
     ae4:	13833202 	orrne	r3, r3, #536870912	; 0x20000000
     ae8:	07dd2e90 	bfieq	r2, r0, #29, #1
     aec:	15823020 	strne	r3, [r2, #32]
     af0:	05832020 	streq	r2, [r3, #32]
     af4:	e12fff1e 	bx	lr
     af8:	00003840 	andeq	r3, r0, r0, asr #16

00000afc <_mem_twi_soft_reset>:
     afc:	e59f3044 	ldr	r3, [pc, #68]	; b48 <_mem_twi_soft_reset+0x4c>
     b00:	e59f2044 	ldr	r2, [pc, #68]	; b4c <_mem_twi_soft_reset+0x50>
     b04:	e593106c 	ldr	r1, [r3, #108]	; 0x6c
     b08:	e5823000 	str	r3, [r2]
     b0c:	e3c11001 	bic	r1, r1, #1
     b10:	e583106c 	str	r1, [r3, #108]	; 0x6c
     b14:	e593106c 	ldr	r1, [r3, #108]	; 0x6c
     b18:	e3811001 	orr	r1, r1, #1
     b1c:	e583106c 	str	r1, [r3, #108]	; 0x6c
     b20:	e5923004 	ldr	r3, [r2, #4]
     b24:	e3a02028 	mov	r2, #40	; 0x28
     b28:	e5832014 	str	r2, [r3, #20]
     b2c:	e5932018 	ldr	r2, [r3, #24]
     b30:	e3822001 	orr	r2, r2, #1
     b34:	e5832018 	str	r2, [r3, #24]
     b38:	e5930018 	ldr	r0, [r3, #24]
     b3c:	e2100001 	ands	r0, r0, #1
     b40:	1afffffc 	bne	b38 <_mem_twi_soft_reset+0x3c>
     b44:	e12fff1e 	bx	lr
     b48:	f1c20000 			; <UNDEFINED> instruction: 0xf1c20000
     b4c:	00003844 	andeq	r3, r0, r4, asr #16

00000b50 <_mem_twi_soft_reset_nommu>:
     b50:	e59f3044 	ldr	r3, [pc, #68]	; b9c <_mem_twi_soft_reset_nommu+0x4c>
     b54:	e59f2044 	ldr	r2, [pc, #68]	; ba0 <_mem_twi_soft_reset_nommu+0x50>
     b58:	e593106c 	ldr	r1, [r3, #108]	; 0x6c
     b5c:	e5823000 	str	r3, [r2]
     b60:	e3c11001 	bic	r1, r1, #1
     b64:	e583106c 	str	r1, [r3, #108]	; 0x6c
     b68:	e593106c 	ldr	r1, [r3, #108]	; 0x6c
     b6c:	e3811001 	orr	r1, r1, #1
     b70:	e583106c 	str	r1, [r3, #108]	; 0x6c
     b74:	e5923004 	ldr	r3, [r2, #4]
     b78:	e3a02028 	mov	r2, #40	; 0x28
     b7c:	e5832014 	str	r2, [r3, #20]
     b80:	e5932018 	ldr	r2, [r3, #24]
     b84:	e3822001 	orr	r2, r2, #1
     b88:	e5832018 	str	r2, [r3, #24]
     b8c:	e5930018 	ldr	r0, [r3, #24]
     b90:	e2100001 	ands	r0, r0, #1
     b94:	1afffffc 	bne	b8c <_mem_twi_soft_reset_nommu+0x3c>
     b98:	e12fff1e 	bx	lr
     b9c:	01c20000 	biceq	r0, r2, r0
     ba0:	00003844 	andeq	r3, r0, r4, asr #16

00000ba4 <_mem_twi_stop>:
     ba4:	e59f3098 	ldr	r3, [pc, #152]	; c44 <_mem_twi_stop+0xa0>
     ba8:	e5933004 	ldr	r3, [r3, #4]
     bac:	e593200c 	ldr	r2, [r3, #12]
     bb0:	e20220c0 	and	r2, r2, #192	; 0xc0
     bb4:	e3822010 	orr	r2, r2, #16
     bb8:	e583200c 	str	r2, [r3, #12]
     bbc:	e593200c 	ldr	r2, [r3, #12]
     bc0:	e30f22ff 	movw	r2, #62207	; 0xf2ff
     bc4:	e593100c 	ldr	r1, [r3, #12]
     bc8:	e3110010 	tst	r1, #16
     bcc:	0a000002 	beq	bdc <_mem_twi_stop+0x38>
     bd0:	e2522001 	subs	r2, r2, #1
     bd4:	1afffffa 	bne	bc4 <_mem_twi_stop+0x20>
     bd8:	ea000015 	b	c34 <_mem_twi_stop+0x90>
     bdc:	e3520000 	cmp	r2, #0
     be0:	0a000013 	beq	c34 <_mem_twi_stop+0x90>
     be4:	e30f22ff 	movw	r2, #62207	; 0xf2ff
     be8:	e5931010 	ldr	r1, [r3, #16]
     bec:	e35100f8 	cmp	r1, #248	; 0xf8
     bf0:	0a000002 	beq	c00 <_mem_twi_stop+0x5c>
     bf4:	e2522001 	subs	r2, r2, #1
     bf8:	1afffffa 	bne	be8 <_mem_twi_stop+0x44>
     bfc:	ea00000c 	b	c34 <_mem_twi_stop+0x90>
     c00:	e3520000 	cmp	r2, #0
     c04:	0a00000c 	beq	c3c <_mem_twi_stop+0x98>
     c08:	e30f22ff 	movw	r2, #62207	; 0xf2ff
     c0c:	e5931020 	ldr	r1, [r3, #32]
     c10:	e351003a 	cmp	r1, #58	; 0x3a
     c14:	0a000002 	beq	c24 <_mem_twi_stop+0x80>
     c18:	e2522001 	subs	r2, r2, #1
     c1c:	1afffffa 	bne	c0c <_mem_twi_stop+0x68>
     c20:	ea000003 	b	c34 <_mem_twi_stop+0x90>
     c24:	e3520000 	cmp	r2, #0
     c28:	13a00000 	movne	r0, #0
     c2c:	03e00000 	mvneq	r0, #0
     c30:	e12fff1e 	bx	lr
     c34:	e3e00000 	mvn	r0, #0
     c38:	e12fff1e 	bx	lr
     c3c:	e3e00000 	mvn	r0, #0
     c40:	e12fff1e 	bx	lr
     c44:	00003844 	andeq	r3, r0, r4, asr #16

00000c48 <mem_twi_init>:
     c48:	e59f3040 	ldr	r3, [pc, #64]	; c90 <mem_twi_init+0x48>
     c4c:	e59f2040 	ldr	r2, [pc, #64]	; c94 <mem_twi_init+0x4c>
     c50:	e7933100 	ldr	r3, [r3, r0, lsl #2]
     c54:	e5823004 	str	r3, [r2, #4]
     c58:	e5931014 	ldr	r1, [r3, #20]
     c5c:	e5821008 	str	r1, [r2, #8]
     c60:	e593100c 	ldr	r1, [r3, #12]
     c64:	e2011080 	and	r1, r1, #128	; 0x80
     c68:	e582100c 	str	r1, [r2, #12]
     c6c:	e3a02028 	mov	r2, #40	; 0x28
     c70:	e5832014 	str	r2, [r3, #20]
     c74:	e5932018 	ldr	r2, [r3, #24]
     c78:	e3822001 	orr	r2, r2, #1
     c7c:	e5832018 	str	r2, [r3, #24]
     c80:	e5930018 	ldr	r0, [r3, #24]
     c84:	e2100001 	ands	r0, r0, #1
     c88:	1afffffc 	bne	c80 <mem_twi_init+0x38>
     c8c:	e12fff1e 	bx	lr
     c90:	00003418 	andeq	r3, r0, r8, lsl r4
     c94:	00003844 	andeq	r3, r0, r4, asr #16

00000c98 <mem_twi_exit>:
     c98:	e92d4010 	push	{r4, lr}
     c9c:	e3a00001 	mov	r0, #1
     ca0:	e59f403c 	ldr	r4, [pc, #60]	; ce4 <mem_twi_exit+0x4c>
     ca4:	e5943004 	ldr	r3, [r4, #4]
     ca8:	e5932018 	ldr	r2, [r3, #24]
     cac:	e3822001 	orr	r2, r2, #1
     cb0:	e5832018 	str	r2, [r3, #24]
     cb4:	eb000655 	bl	2610 <change_runtime_env>
     cb8:	e3a0000a 	mov	r0, #10
     cbc:	eb0006a2 	bl	274c <delay_ms>
     cc0:	e5943004 	ldr	r3, [r4, #4]
     cc4:	e5942008 	ldr	r2, [r4, #8]
     cc8:	e3a00000 	mov	r0, #0
     ccc:	e5832014 	str	r2, [r3, #20]
     cd0:	e594200c 	ldr	r2, [r4, #12]
     cd4:	e593100c 	ldr	r1, [r3, #12]
     cd8:	e1812002 	orr	r2, r1, r2
     cdc:	e583200c 	str	r2, [r3, #12]
     ce0:	e8bd8010 	pop	{r4, pc}
     ce4:	00003844 	andeq	r3, r0, r4, asr #16

00000ce8 <setup_twi_env>:
     ce8:	e59f303c 	ldr	r3, [pc, #60]	; d2c <setup_twi_env+0x44>
     cec:	e3a01000 	mov	r1, #0
     cf0:	e59f2038 	ldr	r2, [pc, #56]	; d30 <setup_twi_env+0x48>
     cf4:	e5823000 	str	r3, [r2]
     cf8:	e59f2034 	ldr	r2, [pc, #52]	; d34 <setup_twi_env+0x4c>
     cfc:	e5821000 	str	r1, [r2]
     d00:	e5921014 	ldr	r1, [r2, #20]
     d04:	e3811001 	orr	r1, r1, #1
     d08:	e5821014 	str	r1, [r2, #20]
     d0c:	e5932824 	ldr	r2, [r3, #2084]	; 0x824
     d10:	e3822022 	orr	r2, r2, #34	; 0x22
     d14:	e5832824 	str	r2, [r3, #2084]	; 0x824
     d18:	e2833a0a 	add	r3, r3, #40960	; 0xa000
     d1c:	e5932c0c 	ldr	r2, [r3, #3084]	; 0xc0c
     d20:	e3822040 	orr	r2, r2, #64	; 0x40
     d24:	e5832c0c 	str	r2, [r3, #3084]	; 0xc0c
     d28:	e12fff1e 	bx	lr
     d2c:	f1c20000 			; <UNDEFINED> instruction: 0xf1c20000
     d30:	00003844 	andeq	r3, r0, r4, asr #16
     d34:	f1c20058 			; <UNDEFINED> instruction: 0xf1c20058

00000d38 <twi_byte_rw>:
     d38:	e59fc23c 	ldr	ip, [pc, #572]	; f7c <twi_byte_rw+0x244>
     d3c:	e92d4010 	push	{r4, lr}
     d40:	e3a0e000 	mov	lr, #0
     d44:	e59cc004 	ldr	ip, [ip, #4]
     d48:	e58ce01c 	str	lr, [ip, #28]
     d4c:	e59ce010 	ldr	lr, [ip, #16]
     d50:	e6efe07e 	uxtb	lr, lr
     d54:	e35e00f8 	cmp	lr, #248	; 0xf8
     d58:	1a00007b 	bne	f4c <twi_byte_rw+0x214>
     d5c:	e59ce00c 	ldr	lr, [ip, #12]
     d60:	e38ee020 	orr	lr, lr, #32
     d64:	e58ce00c 	str	lr, [ip, #12]
     d68:	e30fe2ff 	movw	lr, #62207	; 0xf2ff
     d6c:	e59c400c 	ldr	r4, [ip, #12]
     d70:	e3140008 	tst	r4, #8
     d74:	1a000002 	bne	d84 <twi_byte_rw+0x4c>
     d78:	e25ee001 	subs	lr, lr, #1
     d7c:	1afffffa 	bne	d6c <twi_byte_rw+0x34>
     d80:	ea000071 	b	f4c <twi_byte_rw+0x214>
     d84:	e35e0000 	cmp	lr, #0
     d88:	0a00006f 	beq	f4c <twi_byte_rw+0x214>
     d8c:	e59ce010 	ldr	lr, [ip, #16]
     d90:	e6efe07e 	uxtb	lr, lr
     d94:	e35e0008 	cmp	lr, #8
     d98:	1a00006b 	bne	f4c <twi_byte_rw+0x214>
     d9c:	e1a01081 	lsl	r1, r1, #1
     da0:	e58c1008 	str	r1, [ip, #8]
     da4:	e59ce00c 	ldr	lr, [ip, #12]
     da8:	e20ee0f7 	and	lr, lr, #247	; 0xf7
     dac:	e58ce00c 	str	lr, [ip, #12]
     db0:	e30fe2ff 	movw	lr, #62207	; 0xf2ff
     db4:	e59c400c 	ldr	r4, [ip, #12]
     db8:	e3140008 	tst	r4, #8
     dbc:	1a000002 	bne	dcc <twi_byte_rw+0x94>
     dc0:	e25ee001 	subs	lr, lr, #1
     dc4:	1afffffa 	bne	db4 <twi_byte_rw+0x7c>
     dc8:	ea00005f 	b	f4c <twi_byte_rw+0x214>
     dcc:	e35e0000 	cmp	lr, #0
     dd0:	0a00005d 	beq	f4c <twi_byte_rw+0x214>
     dd4:	e59ce010 	ldr	lr, [ip, #16]
     dd8:	e6efe07e 	uxtb	lr, lr
     ddc:	e35e0018 	cmp	lr, #24
     de0:	1a000059 	bne	f4c <twi_byte_rw+0x214>
     de4:	e58c2008 	str	r2, [ip, #8]
     de8:	e59c200c 	ldr	r2, [ip, #12]
     dec:	e20220f7 	and	r2, r2, #247	; 0xf7
     df0:	e58c200c 	str	r2, [ip, #12]
     df4:	e30f22ff 	movw	r2, #62207	; 0xf2ff
     df8:	e59ce00c 	ldr	lr, [ip, #12]
     dfc:	e31e0008 	tst	lr, #8
     e00:	1a000002 	bne	e10 <twi_byte_rw+0xd8>
     e04:	e2522001 	subs	r2, r2, #1
     e08:	1afffffa 	bne	df8 <twi_byte_rw+0xc0>
     e0c:	ea00004e 	b	f4c <twi_byte_rw+0x214>
     e10:	e3520000 	cmp	r2, #0
     e14:	0a00004c 	beq	f4c <twi_byte_rw+0x214>
     e18:	e59c2010 	ldr	r2, [ip, #16]
     e1c:	e6ef2072 	uxtb	r2, r2
     e20:	e3520028 	cmp	r2, #40	; 0x28
     e24:	1a000048 	bne	f4c <twi_byte_rw+0x214>
     e28:	e3500001 	cmp	r0, #1
     e2c:	1a000011 	bne	e78 <twi_byte_rw+0x140>
     e30:	e5d33000 	ldrb	r3, [r3]
     e34:	e58c3008 	str	r3, [ip, #8]
     e38:	e59c300c 	ldr	r3, [ip, #12]
     e3c:	e20330f7 	and	r3, r3, #247	; 0xf7
     e40:	e58c300c 	str	r3, [ip, #12]
     e44:	e30f32ff 	movw	r3, #62207	; 0xf2ff
     e48:	e59c200c 	ldr	r2, [ip, #12]
     e4c:	e3120008 	tst	r2, #8
     e50:	1a000002 	bne	e60 <twi_byte_rw+0x128>
     e54:	e2533001 	subs	r3, r3, #1
     e58:	1afffffa 	bne	e48 <twi_byte_rw+0x110>
     e5c:	ea00003a 	b	f4c <twi_byte_rw+0x214>
     e60:	e3530000 	cmp	r3, #0
     e64:	0a000038 	beq	f4c <twi_byte_rw+0x214>
     e68:	e59c3010 	ldr	r3, [ip, #16]
     e6c:	e6ef3073 	uxtb	r3, r3
     e70:	e3530028 	cmp	r3, #40	; 0x28
     e74:	ea000033 	b	f48 <twi_byte_rw+0x210>
     e78:	e59c200c 	ldr	r2, [ip, #12]
     e7c:	e20220c0 	and	r2, r2, #192	; 0xc0
     e80:	e3822020 	orr	r2, r2, #32
     e84:	e58c200c 	str	r2, [ip, #12]
     e88:	e30f22ff 	movw	r2, #62207	; 0xf2ff
     e8c:	e59c000c 	ldr	r0, [ip, #12]
     e90:	e3100008 	tst	r0, #8
     e94:	1a000002 	bne	ea4 <twi_byte_rw+0x16c>
     e98:	e2522001 	subs	r2, r2, #1
     e9c:	1afffffa 	bne	e8c <twi_byte_rw+0x154>
     ea0:	ea000029 	b	f4c <twi_byte_rw+0x214>
     ea4:	e3520000 	cmp	r2, #0
     ea8:	0a000027 	beq	f4c <twi_byte_rw+0x214>
     eac:	e59c2010 	ldr	r2, [ip, #16]
     eb0:	e6ef2072 	uxtb	r2, r2
     eb4:	e3520010 	cmp	r2, #16
     eb8:	1a000023 	bne	f4c <twi_byte_rw+0x214>
     ebc:	e3811001 	orr	r1, r1, #1
     ec0:	e58c1008 	str	r1, [ip, #8]
     ec4:	e59c200c 	ldr	r2, [ip, #12]
     ec8:	e20220f7 	and	r2, r2, #247	; 0xf7
     ecc:	e58c200c 	str	r2, [ip, #12]
     ed0:	e30f22ff 	movw	r2, #62207	; 0xf2ff
     ed4:	e59c100c 	ldr	r1, [ip, #12]
     ed8:	e3110008 	tst	r1, #8
     edc:	1a000002 	bne	eec <twi_byte_rw+0x1b4>
     ee0:	e2522001 	subs	r2, r2, #1
     ee4:	1afffffa 	bne	ed4 <twi_byte_rw+0x19c>
     ee8:	ea000017 	b	f4c <twi_byte_rw+0x214>
     eec:	e3520000 	cmp	r2, #0
     ef0:	0a000015 	beq	f4c <twi_byte_rw+0x214>
     ef4:	e59c2010 	ldr	r2, [ip, #16]
     ef8:	e6ef2072 	uxtb	r2, r2
     efc:	e3520040 	cmp	r2, #64	; 0x40
     f00:	1a000011 	bne	f4c <twi_byte_rw+0x214>
     f04:	e59c200c 	ldr	r2, [ip, #12]
     f08:	e20220f7 	and	r2, r2, #247	; 0xf7
     f0c:	e58c200c 	str	r2, [ip, #12]
     f10:	e30f22ff 	movw	r2, #62207	; 0xf2ff
     f14:	e59c100c 	ldr	r1, [ip, #12]
     f18:	e3110008 	tst	r1, #8
     f1c:	1a000002 	bne	f2c <twi_byte_rw+0x1f4>
     f20:	e2522001 	subs	r2, r2, #1
     f24:	1afffffa 	bne	f14 <twi_byte_rw+0x1dc>
     f28:	ea000007 	b	f4c <twi_byte_rw+0x214>
     f2c:	e3520000 	cmp	r2, #0
     f30:	0a000005 	beq	f4c <twi_byte_rw+0x214>
     f34:	e59c2008 	ldr	r2, [ip, #8]
     f38:	e5c32000 	strb	r2, [r3]
     f3c:	e59c3010 	ldr	r3, [ip, #16]
     f40:	e6ef3073 	uxtb	r3, r3
     f44:	e3530058 	cmp	r3, #88	; 0x58
     f48:	0a000007 	beq	f6c <twi_byte_rw+0x234>
     f4c:	ebfffeea 	bl	afc <_mem_twi_soft_reset>
     f50:	e3e04000 	mvn	r4, #0
     f54:	ea000001 	b	f60 <twi_byte_rw+0x228>
     f58:	ebfffee7 	bl	afc <_mem_twi_soft_reset>
     f5c:	e3a04000 	mov	r4, #0
     f60:	ebffff0f 	bl	ba4 <_mem_twi_stop>
     f64:	e1a00004 	mov	r0, r4
     f68:	e8bd8010 	pop	{r4, pc}
     f6c:	ebffff0c 	bl	ba4 <_mem_twi_stop>
     f70:	e2504000 	subs	r4, r0, #0
     f74:	0afffff9 	beq	f60 <twi_byte_rw+0x228>
     f78:	eafffff6 	b	f58 <twi_byte_rw+0x220>
     f7c:	00003844 	andeq	r3, r0, r4, asr #16

00000f80 <twi_byte_rw_nommu>:
     f80:	e92d4010 	push	{r4, lr}
     f84:	e59fc250 	ldr	ip, [pc, #592]	; 11dc <twi_byte_rw_nommu+0x25c>
     f88:	e59fe250 	ldr	lr, [pc, #592]	; 11e0 <twi_byte_rw_nommu+0x260>
     f8c:	e58ec004 	str	ip, [lr, #4]
     f90:	e3a0e000 	mov	lr, #0
     f94:	e58ce01c 	str	lr, [ip, #28]
     f98:	e59ce010 	ldr	lr, [ip, #16]
     f9c:	e6efe07e 	uxtb	lr, lr
     fa0:	e35e00f8 	cmp	lr, #248	; 0xf8
     fa4:	1a000082 	bne	11b4 <twi_byte_rw_nommu+0x234>
     fa8:	e59ce00c 	ldr	lr, [ip, #12]
     fac:	e38ee020 	orr	lr, lr, #32
     fb0:	e58ce00c 	str	lr, [ip, #12]
     fb4:	e30fe2ff 	movw	lr, #62207	; 0xf2ff
     fb8:	e59fc21c 	ldr	ip, [pc, #540]	; 11dc <twi_byte_rw_nommu+0x25c>
     fbc:	e59c400c 	ldr	r4, [ip, #12]
     fc0:	e3140008 	tst	r4, #8
     fc4:	1a000002 	bne	fd4 <twi_byte_rw_nommu+0x54>
     fc8:	e25ee001 	subs	lr, lr, #1
     fcc:	1afffff9 	bne	fb8 <twi_byte_rw_nommu+0x38>
     fd0:	ea000077 	b	11b4 <twi_byte_rw_nommu+0x234>
     fd4:	e35e0000 	cmp	lr, #0
     fd8:	0a000075 	beq	11b4 <twi_byte_rw_nommu+0x234>
     fdc:	e59ce010 	ldr	lr, [ip, #16]
     fe0:	e6efe07e 	uxtb	lr, lr
     fe4:	e35e0008 	cmp	lr, #8
     fe8:	1a000071 	bne	11b4 <twi_byte_rw_nommu+0x234>
     fec:	e1a01081 	lsl	r1, r1, #1
     ff0:	e58c1008 	str	r1, [ip, #8]
     ff4:	e59ce00c 	ldr	lr, [ip, #12]
     ff8:	e20ee0f7 	and	lr, lr, #247	; 0xf7
     ffc:	e58ce00c 	str	lr, [ip, #12]
    1000:	e30fe2ff 	movw	lr, #62207	; 0xf2ff
    1004:	e59fc1d0 	ldr	ip, [pc, #464]	; 11dc <twi_byte_rw_nommu+0x25c>
    1008:	e59c400c 	ldr	r4, [ip, #12]
    100c:	e3140008 	tst	r4, #8
    1010:	1a000002 	bne	1020 <twi_byte_rw_nommu+0xa0>
    1014:	e25ee001 	subs	lr, lr, #1
    1018:	1afffff9 	bne	1004 <twi_byte_rw_nommu+0x84>
    101c:	ea000064 	b	11b4 <twi_byte_rw_nommu+0x234>
    1020:	e35e0000 	cmp	lr, #0
    1024:	0a000062 	beq	11b4 <twi_byte_rw_nommu+0x234>
    1028:	e59ce010 	ldr	lr, [ip, #16]
    102c:	e6efe07e 	uxtb	lr, lr
    1030:	e35e0018 	cmp	lr, #24
    1034:	1a00005e 	bne	11b4 <twi_byte_rw_nommu+0x234>
    1038:	e58c2008 	str	r2, [ip, #8]
    103c:	e59c200c 	ldr	r2, [ip, #12]
    1040:	e20220f7 	and	r2, r2, #247	; 0xf7
    1044:	e58c200c 	str	r2, [ip, #12]
    1048:	e30fc2ff 	movw	ip, #62207	; 0xf2ff
    104c:	e59f2188 	ldr	r2, [pc, #392]	; 11dc <twi_byte_rw_nommu+0x25c>
    1050:	e592e00c 	ldr	lr, [r2, #12]
    1054:	e31e0008 	tst	lr, #8
    1058:	1a000002 	bne	1068 <twi_byte_rw_nommu+0xe8>
    105c:	e25cc001 	subs	ip, ip, #1
    1060:	1afffff9 	bne	104c <twi_byte_rw_nommu+0xcc>
    1064:	ea000052 	b	11b4 <twi_byte_rw_nommu+0x234>
    1068:	e35c0000 	cmp	ip, #0
    106c:	0a000050 	beq	11b4 <twi_byte_rw_nommu+0x234>
    1070:	e592c010 	ldr	ip, [r2, #16]
    1074:	e6efc07c 	uxtb	ip, ip
    1078:	e35c0028 	cmp	ip, #40	; 0x28
    107c:	1a00004c 	bne	11b4 <twi_byte_rw_nommu+0x234>
    1080:	e3500001 	cmp	r0, #1
    1084:	1a000012 	bne	10d4 <twi_byte_rw_nommu+0x154>
    1088:	e5d33000 	ldrb	r3, [r3]
    108c:	e5823008 	str	r3, [r2, #8]
    1090:	e592300c 	ldr	r3, [r2, #12]
    1094:	e20330f7 	and	r3, r3, #247	; 0xf7
    1098:	e582300c 	str	r3, [r2, #12]
    109c:	e30f32ff 	movw	r3, #62207	; 0xf2ff
    10a0:	e59f2134 	ldr	r2, [pc, #308]	; 11dc <twi_byte_rw_nommu+0x25c>
    10a4:	e592100c 	ldr	r1, [r2, #12]
    10a8:	e3110008 	tst	r1, #8
    10ac:	1a000002 	bne	10bc <twi_byte_rw_nommu+0x13c>
    10b0:	e2533001 	subs	r3, r3, #1
    10b4:	1afffff9 	bne	10a0 <twi_byte_rw_nommu+0x120>
    10b8:	ea00003d 	b	11b4 <twi_byte_rw_nommu+0x234>
    10bc:	e3530000 	cmp	r3, #0
    10c0:	0a00003b 	beq	11b4 <twi_byte_rw_nommu+0x234>
    10c4:	e5923010 	ldr	r3, [r2, #16]
    10c8:	e6ef3073 	uxtb	r3, r3
    10cc:	e3530028 	cmp	r3, #40	; 0x28
    10d0:	ea000036 	b	11b0 <twi_byte_rw_nommu+0x230>
    10d4:	e592000c 	ldr	r0, [r2, #12]
    10d8:	e20000c0 	and	r0, r0, #192	; 0xc0
    10dc:	e3800020 	orr	r0, r0, #32
    10e0:	e582000c 	str	r0, [r2, #12]
    10e4:	e30f02ff 	movw	r0, #62207	; 0xf2ff
    10e8:	e59f20ec 	ldr	r2, [pc, #236]	; 11dc <twi_byte_rw_nommu+0x25c>
    10ec:	e592c00c 	ldr	ip, [r2, #12]
    10f0:	e31c0008 	tst	ip, #8
    10f4:	1a000002 	bne	1104 <twi_byte_rw_nommu+0x184>
    10f8:	e2500001 	subs	r0, r0, #1
    10fc:	1afffff9 	bne	10e8 <twi_byte_rw_nommu+0x168>
    1100:	ea00002b 	b	11b4 <twi_byte_rw_nommu+0x234>
    1104:	e3500000 	cmp	r0, #0
    1108:	0a000029 	beq	11b4 <twi_byte_rw_nommu+0x234>
    110c:	e5920010 	ldr	r0, [r2, #16]
    1110:	e6ef0070 	uxtb	r0, r0
    1114:	e3500010 	cmp	r0, #16
    1118:	1a000025 	bne	11b4 <twi_byte_rw_nommu+0x234>
    111c:	e3811001 	orr	r1, r1, #1
    1120:	e5821008 	str	r1, [r2, #8]
    1124:	e592100c 	ldr	r1, [r2, #12]
    1128:	e20110f7 	and	r1, r1, #247	; 0xf7
    112c:	e582100c 	str	r1, [r2, #12]
    1130:	e30f12ff 	movw	r1, #62207	; 0xf2ff
    1134:	e59f20a0 	ldr	r2, [pc, #160]	; 11dc <twi_byte_rw_nommu+0x25c>
    1138:	e592000c 	ldr	r0, [r2, #12]
    113c:	e3100008 	tst	r0, #8
    1140:	1a000002 	bne	1150 <twi_byte_rw_nommu+0x1d0>
    1144:	e2511001 	subs	r1, r1, #1
    1148:	1afffff9 	bne	1134 <twi_byte_rw_nommu+0x1b4>
    114c:	ea000018 	b	11b4 <twi_byte_rw_nommu+0x234>
    1150:	e3510000 	cmp	r1, #0
    1154:	0a000016 	beq	11b4 <twi_byte_rw_nommu+0x234>
    1158:	e5921010 	ldr	r1, [r2, #16]
    115c:	e6ef1071 	uxtb	r1, r1
    1160:	e3510040 	cmp	r1, #64	; 0x40
    1164:	1a000012 	bne	11b4 <twi_byte_rw_nommu+0x234>
    1168:	e592100c 	ldr	r1, [r2, #12]
    116c:	e20110f7 	and	r1, r1, #247	; 0xf7
    1170:	e582100c 	str	r1, [r2, #12]
    1174:	e30f22ff 	movw	r2, #62207	; 0xf2ff
    1178:	e59f105c 	ldr	r1, [pc, #92]	; 11dc <twi_byte_rw_nommu+0x25c>
    117c:	e591000c 	ldr	r0, [r1, #12]
    1180:	e3100008 	tst	r0, #8
    1184:	1a000002 	bne	1194 <twi_byte_rw_nommu+0x214>
    1188:	e2522001 	subs	r2, r2, #1
    118c:	1afffff9 	bne	1178 <twi_byte_rw_nommu+0x1f8>
    1190:	ea000007 	b	11b4 <twi_byte_rw_nommu+0x234>
    1194:	e3520000 	cmp	r2, #0
    1198:	0a000005 	beq	11b4 <twi_byte_rw_nommu+0x234>
    119c:	e5912008 	ldr	r2, [r1, #8]
    11a0:	e5c32000 	strb	r2, [r3]
    11a4:	e5913010 	ldr	r3, [r1, #16]
    11a8:	e6ef3073 	uxtb	r3, r3
    11ac:	e3530058 	cmp	r3, #88	; 0x58
    11b0:	0a000005 	beq	11cc <twi_byte_rw_nommu+0x24c>
    11b4:	ebfffe65 	bl	b50 <_mem_twi_soft_reset_nommu>
    11b8:	e3e00000 	mvn	r0, #0
    11bc:	e8bd8010 	pop	{r4, pc}
    11c0:	ebfffe62 	bl	b50 <_mem_twi_soft_reset_nommu>
    11c4:	e3a00000 	mov	r0, #0
    11c8:	e8bd8010 	pop	{r4, pc}
    11cc:	ebfffe74 	bl	ba4 <_mem_twi_stop>
    11d0:	e3500000 	cmp	r0, #0
    11d4:	08bd8010 	popeq	{r4, pc}
    11d8:	eafffff8 	b	11c0 <twi_byte_rw_nommu+0x240>
    11dc:	01c2ac00 	biceq	sl, r2, r0, lsl #24
    11e0:	00003844 	andeq	r3, r0, r4, asr #16

000011e4 <mem_delay>:
    11e4:	e92d000f 	push	{r0, r1, r2, r3}
    11e8:	e3a01011 	mov	r1, #17
    11ec:	e1a03000 	mov	r3, r0

000011f0 <loop2>:
    11f0:	e2500001 	subs	r0, r0, #1
    11f4:	8afffffd 	bhi	11f0 <loop2>
    11f8:	e1a00003 	mov	r0, r3
    11fc:	e2511001 	subs	r1, r1, #1
    1200:	8afffffa 	bhi	11f0 <loop2>
    1204:	e8bd000f 	pop	{r0, r1, r2, r3}
    1208:	e1a0f00e 	mov	pc, lr

0000120c <raw_lib_udiv>:
    120c:	e2512000 	subs	r2, r1, #0
    1210:	e1a03000 	mov	r3, r0
    1214:	13a01000 	movne	r1, #0
    1218:	1a000002 	bne	1228 <raw_lib_udiv+0x1c>
    121c:	ea00000c 	b	1254 <raw_lib_udiv+0x48>
    1220:	e1a02082 	lsl	r2, r2, #1
    1224:	e2811001 	add	r1, r1, #1
    1228:	e3520000 	cmp	r2, #0
    122c:	aafffffb 	bge	1220 <raw_lib_udiv+0x14>
    1230:	e3a00000 	mov	r0, #0
    1234:	e1530002 	cmp	r3, r2
    1238:	e1a00080 	lsl	r0, r0, #1
    123c:	20623003 	rsbcs	r3, r2, r3
    1240:	23800001 	orrcs	r0, r0, #1
    1244:	e2511001 	subs	r1, r1, #1
    1248:	412fff1e 	bxmi	lr
    124c:	e1a020a2 	lsr	r2, r2, #1
    1250:	eafffff7 	b	1234 <raw_lib_udiv+0x28>
    1254:	e1a00002 	mov	r0, r2
    1258:	e12fff1e 	bx	lr

0000125c <find_info>:
    125c:	e3a02000 	mov	r2, #0
    1260:	e1a0c000 	mov	ip, r0
    1264:	e1a03002 	mov	r3, r2
    1268:	ea000007 	b	128c <find_info+0x30>
    126c:	e59f1028 	ldr	r1, [pc, #40]	; 129c <find_info+0x40>
    1270:	e3a0001c 	mov	r0, #28
    1274:	e0201390 	mla	r0, r0, r3, r1
    1278:	e7911002 	ldr	r1, [r1, r2]
    127c:	e282201c 	add	r2, r2, #28
    1280:	e151000c 	cmp	r1, ip
    1284:	012fff1e 	bxeq	lr
    1288:	e2833001 	add	r3, r3, #1
    128c:	e3530006 	cmp	r3, #6
    1290:	1afffff5 	bne	126c <find_info+0x10>
    1294:	e3a00000 	mov	r0, #0
    1298:	e12fff1e 	bx	lr
    129c:	00003468 	andeq	r3, r0, r8, ror #8

000012a0 <mem_set_voltage>:
    12a0:	e92d40f7 	push	{r0, r1, r2, r4, r5, r6, r7, lr}
    12a4:	e1a05000 	mov	r5, r0
    12a8:	e1a06001 	mov	r6, r1
    12ac:	ebffffea 	bl	125c <find_info>
    12b0:	e2504000 	subs	r4, r0, #0
    12b4:	0a000042 	beq	13c4 <mem_set_voltage+0x124>
    12b8:	e5943004 	ldr	r3, [r4, #4]
    12bc:	e1560003 	cmp	r6, r3
    12c0:	ba00003f 	blt	13c4 <mem_set_voltage+0x124>
    12c4:	e5942008 	ldr	r2, [r4, #8]
    12c8:	e1560002 	cmp	r6, r2
    12cc:	da00003e 	ble	13cc <mem_set_voltage+0x12c>
    12d0:	ea00003b 	b	13c4 <mem_set_voltage+0x124>
    12d4:	e594100c 	ldr	r1, [r4, #12]
    12d8:	e2412001 	sub	r2, r1, #1
    12dc:	e0633002 	rsb	r3, r3, r2
    12e0:	e0830006 	add	r0, r3, r6
    12e4:	ebffffc8 	bl	120c <raw_lib_udiv>
    12e8:	e6ef5070 	uxtb	r5, r0
    12ec:	ea000015 	b	1348 <mem_set_voltage+0xa8>
    12f0:	e59f30e0 	ldr	r3, [pc, #224]	; 13d8 <mem_set_voltage+0x138>
    12f4:	e1560003 	cmp	r6, r3
    12f8:	03a05000 	moveq	r5, #0
    12fc:	0a000011 	beq	1348 <mem_set_voltage+0xa8>
    1300:	e594100c 	ldr	r1, [r4, #12]
    1304:	e59f00d0 	ldr	r0, [pc, #208]	; 13dc <mem_set_voltage+0x13c>
    1308:	e0810000 	add	r0, r1, r0
    130c:	e0800006 	add	r0, r0, r6
    1310:	ebffffbd 	bl	120c <raw_lib_udiv>
    1314:	e6ef5070 	uxtb	r5, r0
    1318:	e3550010 	cmp	r5, #16
    131c:	82455006 	subhi	r5, r5, #6
    1320:	8a000002 	bhi	1330 <mem_set_voltage+0x90>
    1324:	e355000d 	cmp	r5, #13
    1328:	9a000002 	bls	1338 <mem_set_voltage+0x98>
    132c:	e2455005 	sub	r5, r5, #5
    1330:	e6ef5075 	uxtb	r5, r5
    1334:	ea000003 	b	1348 <mem_set_voltage+0xa8>
    1338:	03a05009 	moveq	r5, #9
    133c:	0a000001 	beq	1348 <mem_set_voltage+0xa8>
    1340:	e3550008 	cmp	r5, #8
    1344:	23a05008 	movcs	r5, #8
    1348:	e5d42010 	ldrb	r2, [r4, #16]
    134c:	e3a00000 	mov	r0, #0
    1350:	e3a01034 	mov	r1, #52	; 0x34
    1354:	e28d3007 	add	r3, sp, #7
    1358:	e5946014 	ldr	r6, [r4, #20]
    135c:	e5947018 	ldr	r7, [r4, #24]
    1360:	ebfffe74 	bl	d38 <twi_byte_rw>
    1364:	e2502000 	subs	r2, r0, #0
    1368:	1a000015 	bne	13c4 <mem_set_voltage+0x124>
    136c:	e2800001 	add	r0, r0, #1
    1370:	e1a05615 	lsl	r5, r5, r6
    1374:	e5dd3007 	ldrb	r3, [sp, #7]
    1378:	e1a07710 	lsl	r7, r0, r7
    137c:	e6ef5075 	uxtb	r5, r5
    1380:	e2477001 	sub	r7, r7, #1
    1384:	e1a06617 	lsl	r6, r7, r6
    1388:	e6ef6076 	uxtb	r6, r6
    138c:	e0061003 	and	r1, r6, r3
    1390:	e1510005 	cmp	r1, r5
    1394:	01a00002 	moveq	r0, r2
    1398:	0a00000a 	beq	13c8 <mem_set_voltage+0x128>
    139c:	e1c33006 	bic	r3, r3, r6
    13a0:	e3a01034 	mov	r1, #52	; 0x34
    13a4:	e1855003 	orr	r5, r5, r3
    13a8:	e28d3007 	add	r3, sp, #7
    13ac:	e5cd5007 	strb	r5, [sp, #7]
    13b0:	e5d42010 	ldrb	r2, [r4, #16]
    13b4:	ebfffe5f 	bl	d38 <twi_byte_rw>
    13b8:	e3500000 	cmp	r0, #0
    13bc:	13e00000 	mvnne	r0, #0
    13c0:	ea000000 	b	13c8 <mem_set_voltage+0x128>
    13c4:	e3e00000 	mvn	r0, #0
    13c8:	e8bd80fe 	pop	{r1, r2, r3, r4, r5, r6, r7, pc}
    13cc:	e3550006 	cmp	r5, #6
    13d0:	1affffbf 	bne	12d4 <mem_set_voltage+0x34>
    13d4:	eaffffc5 	b	12f0 <mem_set_voltage+0x50>
    13d8:	001312d0 			; <UNDEFINED> instruction: 0x001312d0
    13dc:	ffedb07f 			; <UNDEFINED> instruction: 0xffedb07f

000013e0 <mem_get_voltage>:
    13e0:	e92d4037 	push	{r0, r1, r2, r4, r5, lr}
    13e4:	e1a05000 	mov	r5, r0
    13e8:	ebffff9b 	bl	125c <find_info>
    13ec:	e2504000 	subs	r4, r0, #0
    13f0:	0a000017 	beq	1454 <mem_get_voltage+0x74>
    13f4:	e3a00000 	mov	r0, #0
    13f8:	e3a01034 	mov	r1, #52	; 0x34
    13fc:	e5d42010 	ldrb	r2, [r4, #16]
    1400:	e28d3007 	add	r3, sp, #7
    1404:	ebfffe4b 	bl	d38 <twi_byte_rw>
    1408:	e3500000 	cmp	r0, #0
    140c:	1a000010 	bne	1454 <mem_get_voltage+0x74>
    1410:	e3e01000 	mvn	r1, #0
    1414:	e5943018 	ldr	r3, [r4, #24]
    1418:	e5942014 	ldr	r2, [r4, #20]
    141c:	e3550006 	cmp	r5, #6
    1420:	e1e03311 	mvn	r3, r1, lsl r3
    1424:	e5dd1007 	ldrb	r1, [sp, #7]
    1428:	1594000c 	ldrne	r0, [r4, #12]
    142c:	03a00ffa 	moveq	r0, #1000	; 0x3e8
    1430:	e0013213 	and	r3, r1, r3, lsl r2
    1434:	e1a03253 	asr	r3, r3, r2
    1438:	059f201c 	ldreq	r2, [pc, #28]	; 145c <mem_get_voltage+0x7c>
    143c:	15942004 	ldrne	r2, [r4, #4]
    1440:	e6ef3073 	uxtb	r3, r3
    1444:	07923103 	ldreq	r3, [r2, r3, lsl #2]
    1448:	10202390 	mlane	r0, r0, r3, r2
    144c:	00000390 	muleq	r0, r0, r3
    1450:	ea000000 	b	1458 <mem_get_voltage+0x78>
    1454:	e3e00000 	mvn	r0, #0
    1458:	e8bd803e 	pop	{r1, r2, r3, r4, r5, pc}
    145c:	00003424 	andeq	r3, r0, r4, lsr #8

00001460 <mem_power_init>:
    1460:	e92d4013 	push	{r0, r1, r4, lr}
    1464:	e1a04000 	mov	r4, r0
    1468:	e3a00901 	mov	r0, #16384	; 0x4000
    146c:	eb000428 	bl	2514 <save_mem_status>
    1470:	e3140001 	tst	r4, #1
    1474:	0a000010 	beq	14bc <mem_power_init+0x5c>
    1478:	e3a00000 	mov	r0, #0
    147c:	e3a01034 	mov	r1, #52	; 0x34
    1480:	e3a02042 	mov	r2, #66	; 0x42
    1484:	e28d3007 	add	r3, sp, #7
    1488:	ebfffe2a 	bl	d38 <twi_byte_rw>
    148c:	e3500000 	cmp	r0, #0
    1490:	1a000072 	bne	1660 <mem_power_init+0x200>
    1494:	e5dd3007 	ldrb	r3, [sp, #7]
    1498:	e2800001 	add	r0, r0, #1
    149c:	e3a01034 	mov	r1, #52	; 0x34
    14a0:	e3a02042 	mov	r2, #66	; 0x42
    14a4:	e3833003 	orr	r3, r3, #3
    14a8:	e5cd3007 	strb	r3, [sp, #7]
    14ac:	e28d3007 	add	r3, sp, #7
    14b0:	ebfffe20 	bl	d38 <twi_byte_rw>
    14b4:	e3500000 	cmp	r0, #0
    14b8:	1a000068 	bne	1660 <mem_power_init+0x200>
    14bc:	e3140040 	tst	r4, #64	; 0x40
    14c0:	0a000010 	beq	1508 <mem_power_init+0xa8>
    14c4:	e3a00000 	mov	r0, #0
    14c8:	e3a01034 	mov	r1, #52	; 0x34
    14cc:	e3a02042 	mov	r2, #66	; 0x42
    14d0:	e28d3007 	add	r3, sp, #7
    14d4:	ebfffe17 	bl	d38 <twi_byte_rw>
    14d8:	e3500000 	cmp	r0, #0
    14dc:	1a00005f 	bne	1660 <mem_power_init+0x200>
    14e0:	e5dd3007 	ldrb	r3, [sp, #7]
    14e4:	e2800001 	add	r0, r0, #1
    14e8:	e3a01034 	mov	r1, #52	; 0x34
    14ec:	e3a02042 	mov	r2, #66	; 0x42
    14f0:	e3833002 	orr	r3, r3, #2
    14f4:	e5cd3007 	strb	r3, [sp, #7]
    14f8:	e28d3007 	add	r3, sp, #7
    14fc:	ebfffe0d 	bl	d38 <twi_byte_rw>
    1500:	e3500000 	cmp	r0, #0
    1504:	1a000055 	bne	1660 <mem_power_init+0x200>
    1508:	e3140080 	tst	r4, #128	; 0x80
    150c:	0a000010 	beq	1554 <mem_power_init+0xf4>
    1510:	e3a00000 	mov	r0, #0
    1514:	e3a01034 	mov	r1, #52	; 0x34
    1518:	e3a02042 	mov	r2, #66	; 0x42
    151c:	e28d3007 	add	r3, sp, #7
    1520:	ebfffe04 	bl	d38 <twi_byte_rw>
    1524:	e3500000 	cmp	r0, #0
    1528:	1a00004c 	bne	1660 <mem_power_init+0x200>
    152c:	e5dd3007 	ldrb	r3, [sp, #7]
    1530:	e2800001 	add	r0, r0, #1
    1534:	e3a01034 	mov	r1, #52	; 0x34
    1538:	e3a02042 	mov	r2, #66	; 0x42
    153c:	e3833001 	orr	r3, r3, #1
    1540:	e5cd3007 	strb	r3, [sp, #7]
    1544:	e28d3007 	add	r3, sp, #7
    1548:	ebfffdfa 	bl	d38 <twi_byte_rw>
    154c:	e3500000 	cmp	r0, #0
    1550:	1a000042 	bne	1660 <mem_power_init+0x200>
    1554:	e3140010 	tst	r4, #16
    1558:	0a000010 	beq	15a0 <mem_power_init+0x140>
    155c:	e3a00000 	mov	r0, #0
    1560:	e3a01034 	mov	r1, #52	; 0x34
    1564:	e3a02044 	mov	r2, #68	; 0x44
    1568:	e28d3007 	add	r3, sp, #7
    156c:	ebfffdf1 	bl	d38 <twi_byte_rw>
    1570:	e3500000 	cmp	r0, #0
    1574:	1a000039 	bne	1660 <mem_power_init+0x200>
    1578:	e5dd3007 	ldrb	r3, [sp, #7]
    157c:	e2800001 	add	r0, r0, #1
    1580:	e3a01034 	mov	r1, #52	; 0x34
    1584:	e3a02044 	mov	r2, #68	; 0x44
    1588:	e3833040 	orr	r3, r3, #64	; 0x40
    158c:	e5cd3007 	strb	r3, [sp, #7]
    1590:	e28d3007 	add	r3, sp, #7
    1594:	ebfffde7 	bl	d38 <twi_byte_rw>
    1598:	e3500000 	cmp	r0, #0
    159c:	1a00002f 	bne	1660 <mem_power_init+0x200>
    15a0:	e3140020 	tst	r4, #32
    15a4:	0a000010 	beq	15ec <mem_power_init+0x18c>
    15a8:	e3a00000 	mov	r0, #0
    15ac:	e3a01034 	mov	r1, #52	; 0x34
    15b0:	e3a02044 	mov	r2, #68	; 0x44
    15b4:	e28d3007 	add	r3, sp, #7
    15b8:	ebfffdde 	bl	d38 <twi_byte_rw>
    15bc:	e3500000 	cmp	r0, #0
    15c0:	1a000026 	bne	1660 <mem_power_init+0x200>
    15c4:	e5dd3007 	ldrb	r3, [sp, #7]
    15c8:	e2800001 	add	r0, r0, #1
    15cc:	e3a01034 	mov	r1, #52	; 0x34
    15d0:	e3a02044 	mov	r2, #68	; 0x44
    15d4:	e3833020 	orr	r3, r3, #32
    15d8:	e5cd3007 	strb	r3, [sp, #7]
    15dc:	e28d3007 	add	r3, sp, #7
    15e0:	ebfffdd4 	bl	d38 <twi_byte_rw>
    15e4:	e3500000 	cmp	r0, #0
    15e8:	1a00001c 	bne	1660 <mem_power_init+0x200>
    15ec:	e2140002 	ands	r0, r4, #2
    15f0:	0a00001b 	beq	1664 <mem_power_init+0x204>
    15f4:	e3a00000 	mov	r0, #0
    15f8:	e3a01034 	mov	r1, #52	; 0x34
    15fc:	e3a02043 	mov	r2, #67	; 0x43
    1600:	e28d3007 	add	r3, sp, #7
    1604:	ebfffdcb 	bl	d38 <twi_byte_rw>
    1608:	e3500000 	cmp	r0, #0
    160c:	1a000013 	bne	1660 <mem_power_init+0x200>
    1610:	e5dd3007 	ldrb	r3, [sp, #7]
    1614:	e2800001 	add	r0, r0, #1
    1618:	e3a01034 	mov	r1, #52	; 0x34
    161c:	e3a02043 	mov	r2, #67	; 0x43
    1620:	e3833003 	orr	r3, r3, #3
    1624:	e5cd3007 	strb	r3, [sp, #7]
    1628:	e28d3007 	add	r3, sp, #7
    162c:	ebfffdc1 	bl	d38 <twi_byte_rw>
    1630:	e3500000 	cmp	r0, #0
    1634:	1a000009 	bne	1660 <mem_power_init+0x200>
    1638:	e3a03003 	mov	r3, #3
    163c:	e2800001 	add	r0, r0, #1
    1640:	e5cd3007 	strb	r3, [sp, #7]
    1644:	e3a01034 	mov	r1, #52	; 0x34
    1648:	e3a0204b 	mov	r2, #75	; 0x4b
    164c:	e28d3007 	add	r3, sp, #7
    1650:	ebfffdb8 	bl	d38 <twi_byte_rw>
    1654:	e3500000 	cmp	r0, #0
    1658:	13e00000 	mvnne	r0, #0
    165c:	ea000000 	b	1664 <mem_power_init+0x204>
    1660:	e3e00000 	mvn	r0, #0
    1664:	e8bd801c 	pop	{r2, r3, r4, pc}

00001668 <mem_power_exit>:
    1668:	e3100001 	tst	r0, #1
    166c:	e92d4013 	push	{r0, r1, r4, lr}
    1670:	e1a04000 	mov	r4, r0
    1674:	0a000010 	beq	16bc <mem_power_exit+0x54>
    1678:	e3a00000 	mov	r0, #0
    167c:	e3a01034 	mov	r1, #52	; 0x34
    1680:	e3a02042 	mov	r2, #66	; 0x42
    1684:	e28d3007 	add	r3, sp, #7
    1688:	ebfffdaa 	bl	d38 <twi_byte_rw>
    168c:	e3500000 	cmp	r0, #0
    1690:	1a000069 	bne	183c <mem_power_exit+0x1d4>
    1694:	e5dd3007 	ldrb	r3, [sp, #7]
    1698:	e2800001 	add	r0, r0, #1
    169c:	e3a01034 	mov	r1, #52	; 0x34
    16a0:	e3a02042 	mov	r2, #66	; 0x42
    16a4:	e3c33003 	bic	r3, r3, #3
    16a8:	e5cd3007 	strb	r3, [sp, #7]
    16ac:	e28d3007 	add	r3, sp, #7
    16b0:	ebfffda0 	bl	d38 <twi_byte_rw>
    16b4:	e3500000 	cmp	r0, #0
    16b8:	1a00005f 	bne	183c <mem_power_exit+0x1d4>
    16bc:	e3140040 	tst	r4, #64	; 0x40
    16c0:	0a000010 	beq	1708 <mem_power_exit+0xa0>
    16c4:	e3a00000 	mov	r0, #0
    16c8:	e3a01034 	mov	r1, #52	; 0x34
    16cc:	e3a02042 	mov	r2, #66	; 0x42
    16d0:	e28d3007 	add	r3, sp, #7
    16d4:	ebfffd97 	bl	d38 <twi_byte_rw>
    16d8:	e3500000 	cmp	r0, #0
    16dc:	1a000056 	bne	183c <mem_power_exit+0x1d4>
    16e0:	e5dd3007 	ldrb	r3, [sp, #7]
    16e4:	e2800001 	add	r0, r0, #1
    16e8:	e3a01034 	mov	r1, #52	; 0x34
    16ec:	e3a02042 	mov	r2, #66	; 0x42
    16f0:	e3c33002 	bic	r3, r3, #2
    16f4:	e5cd3007 	strb	r3, [sp, #7]
    16f8:	e28d3007 	add	r3, sp, #7
    16fc:	ebfffd8d 	bl	d38 <twi_byte_rw>
    1700:	e3500000 	cmp	r0, #0
    1704:	1a00004c 	bne	183c <mem_power_exit+0x1d4>
    1708:	e3140080 	tst	r4, #128	; 0x80
    170c:	0a000010 	beq	1754 <mem_power_exit+0xec>
    1710:	e3a00000 	mov	r0, #0
    1714:	e3a01034 	mov	r1, #52	; 0x34
    1718:	e3a02042 	mov	r2, #66	; 0x42
    171c:	e28d3007 	add	r3, sp, #7
    1720:	ebfffd84 	bl	d38 <twi_byte_rw>
    1724:	e3500000 	cmp	r0, #0
    1728:	1a000043 	bne	183c <mem_power_exit+0x1d4>
    172c:	e5dd3007 	ldrb	r3, [sp, #7]
    1730:	e2800001 	add	r0, r0, #1
    1734:	e3a01034 	mov	r1, #52	; 0x34
    1738:	e3a02042 	mov	r2, #66	; 0x42
    173c:	e3c33001 	bic	r3, r3, #1
    1740:	e5cd3007 	strb	r3, [sp, #7]
    1744:	e28d3007 	add	r3, sp, #7
    1748:	ebfffd7a 	bl	d38 <twi_byte_rw>
    174c:	e3500000 	cmp	r0, #0
    1750:	1a000039 	bne	183c <mem_power_exit+0x1d4>
    1754:	e3140010 	tst	r4, #16
    1758:	0a000010 	beq	17a0 <mem_power_exit+0x138>
    175c:	e3a00000 	mov	r0, #0
    1760:	e3a01034 	mov	r1, #52	; 0x34
    1764:	e3a02044 	mov	r2, #68	; 0x44
    1768:	e28d3007 	add	r3, sp, #7
    176c:	ebfffd71 	bl	d38 <twi_byte_rw>
    1770:	e3500000 	cmp	r0, #0
    1774:	1a000030 	bne	183c <mem_power_exit+0x1d4>
    1778:	e5dd3007 	ldrb	r3, [sp, #7]
    177c:	e2800001 	add	r0, r0, #1
    1780:	e3a01034 	mov	r1, #52	; 0x34
    1784:	e3a02044 	mov	r2, #68	; 0x44
    1788:	e3c33040 	bic	r3, r3, #64	; 0x40
    178c:	e5cd3007 	strb	r3, [sp, #7]
    1790:	e28d3007 	add	r3, sp, #7
    1794:	ebfffd67 	bl	d38 <twi_byte_rw>
    1798:	e3500000 	cmp	r0, #0
    179c:	1a000026 	bne	183c <mem_power_exit+0x1d4>
    17a0:	e3140020 	tst	r4, #32
    17a4:	0a000010 	beq	17ec <mem_power_exit+0x184>
    17a8:	e3a00000 	mov	r0, #0
    17ac:	e3a01034 	mov	r1, #52	; 0x34
    17b0:	e3a02044 	mov	r2, #68	; 0x44
    17b4:	e28d3007 	add	r3, sp, #7
    17b8:	ebfffd5e 	bl	d38 <twi_byte_rw>
    17bc:	e3500000 	cmp	r0, #0
    17c0:	1a00001d 	bne	183c <mem_power_exit+0x1d4>
    17c4:	e5dd3007 	ldrb	r3, [sp, #7]
    17c8:	e2800001 	add	r0, r0, #1
    17cc:	e3a01034 	mov	r1, #52	; 0x34
    17d0:	e3a02044 	mov	r2, #68	; 0x44
    17d4:	e3c33020 	bic	r3, r3, #32
    17d8:	e5cd3007 	strb	r3, [sp, #7]
    17dc:	e28d3007 	add	r3, sp, #7
    17e0:	ebfffd54 	bl	d38 <twi_byte_rw>
    17e4:	e3500000 	cmp	r0, #0
    17e8:	1a000013 	bne	183c <mem_power_exit+0x1d4>
    17ec:	e2140002 	ands	r0, r4, #2
    17f0:	0a000012 	beq	1840 <mem_power_exit+0x1d8>
    17f4:	e3a00000 	mov	r0, #0
    17f8:	e3a01034 	mov	r1, #52	; 0x34
    17fc:	e3a02043 	mov	r2, #67	; 0x43
    1800:	e28d3007 	add	r3, sp, #7
    1804:	ebfffd4b 	bl	d38 <twi_byte_rw>
    1808:	e3500000 	cmp	r0, #0
    180c:	1a00000a 	bne	183c <mem_power_exit+0x1d4>
    1810:	e5dd3007 	ldrb	r3, [sp, #7]
    1814:	e2800001 	add	r0, r0, #1
    1818:	e3a01034 	mov	r1, #52	; 0x34
    181c:	e3a02043 	mov	r2, #67	; 0x43
    1820:	e3c33003 	bic	r3, r3, #3
    1824:	e5cd3007 	strb	r3, [sp, #7]
    1828:	e28d3007 	add	r3, sp, #7
    182c:	ebfffd41 	bl	d38 <twi_byte_rw>
    1830:	e3500000 	cmp	r0, #0
    1834:	13e00000 	mvnne	r0, #0
    1838:	ea000000 	b	1840 <mem_power_exit+0x1d8>
    183c:	e3e00000 	mvn	r0, #0
    1840:	e8bd801c 	pop	{r2, r3, r4, pc}

00001844 <mem_power_off>:
    1844:	e92d4013 	push	{r0, r1, r4, lr}
    1848:	e28d4008 	add	r4, sp, #8
    184c:	e3a00000 	mov	r0, #0
    1850:	e3a01034 	mov	r1, #52	; 0x34
    1854:	e5640001 	strb	r0, [r4, #-1]!
    1858:	e3a02031 	mov	r2, #49	; 0x31
    185c:	e1a03004 	mov	r3, r4
    1860:	ebfffd34 	bl	d38 <twi_byte_rw>
    1864:	e3500000 	cmp	r0, #0
    1868:	1a00001a 	bne	18d8 <mem_power_off+0x94>
    186c:	e5dd3007 	ldrb	r3, [sp, #7]
    1870:	e2800001 	add	r0, r0, #1
    1874:	e3a01034 	mov	r1, #52	; 0x34
    1878:	e3a02031 	mov	r2, #49	; 0x31
    187c:	e3833008 	orr	r3, r3, #8
    1880:	e5cd3007 	strb	r3, [sp, #7]
    1884:	e1a03004 	mov	r3, r4
    1888:	ebfffd2a 	bl	d38 <twi_byte_rw>
    188c:	e3500000 	cmp	r0, #0
    1890:	1a000010 	bne	18d8 <mem_power_off+0x94>
    1894:	e3a01034 	mov	r1, #52	; 0x34
    1898:	e3a02012 	mov	r2, #18
    189c:	e1a03004 	mov	r3, r4
    18a0:	ebfffd24 	bl	d38 <twi_byte_rw>
    18a4:	e3500000 	cmp	r0, #0
    18a8:	1a00000a 	bne	18d8 <mem_power_off+0x94>
    18ac:	e5dd3007 	ldrb	r3, [sp, #7]
    18b0:	e2800001 	add	r0, r0, #1
    18b4:	e3a01034 	mov	r1, #52	; 0x34
    18b8:	e3a02012 	mov	r2, #18
    18bc:	e3c3305b 	bic	r3, r3, #91	; 0x5b
    18c0:	e5cd3007 	strb	r3, [sp, #7]
    18c4:	e1a03004 	mov	r3, r4
    18c8:	ebfffd1a 	bl	d38 <twi_byte_rw>
    18cc:	e3500000 	cmp	r0, #0
    18d0:	1a000000 	bne	18d8 <mem_power_off+0x94>
    18d4:	e320f003 	wfi
    18d8:	e3e00000 	mvn	r0, #0
    18dc:	e8bd801c 	pop	{r2, r3, r4, pc}

000018e0 <mem_power_off_nommu>:
    18e0:	e92d4013 	push	{r0, r1, r4, lr}
    18e4:	e28d4008 	add	r4, sp, #8
    18e8:	e3a00000 	mov	r0, #0
    18ec:	e3a01034 	mov	r1, #52	; 0x34
    18f0:	e5640001 	strb	r0, [r4, #-1]!
    18f4:	e3a02031 	mov	r2, #49	; 0x31
    18f8:	e1a03004 	mov	r3, r4
    18fc:	ebfffd9f 	bl	f80 <twi_byte_rw_nommu>
    1900:	e3500000 	cmp	r0, #0
    1904:	1a00001a 	bne	1974 <mem_power_off_nommu+0x94>
    1908:	e5dd3007 	ldrb	r3, [sp, #7]
    190c:	e2800001 	add	r0, r0, #1
    1910:	e3a01034 	mov	r1, #52	; 0x34
    1914:	e3a02031 	mov	r2, #49	; 0x31
    1918:	e3833008 	orr	r3, r3, #8
    191c:	e5cd3007 	strb	r3, [sp, #7]
    1920:	e1a03004 	mov	r3, r4
    1924:	ebfffd95 	bl	f80 <twi_byte_rw_nommu>
    1928:	e3500000 	cmp	r0, #0
    192c:	1a000010 	bne	1974 <mem_power_off_nommu+0x94>
    1930:	e3a01034 	mov	r1, #52	; 0x34
    1934:	e3a02012 	mov	r2, #18
    1938:	e1a03004 	mov	r3, r4
    193c:	ebfffd8f 	bl	f80 <twi_byte_rw_nommu>
    1940:	e3500000 	cmp	r0, #0
    1944:	1a00000a 	bne	1974 <mem_power_off_nommu+0x94>
    1948:	e5dd3007 	ldrb	r3, [sp, #7]
    194c:	e2800001 	add	r0, r0, #1
    1950:	e3a01034 	mov	r1, #52	; 0x34
    1954:	e3a02012 	mov	r2, #18
    1958:	e3c3305b 	bic	r3, r3, #91	; 0x5b
    195c:	e5cd3007 	strb	r3, [sp, #7]
    1960:	e1a03004 	mov	r3, r4
    1964:	ebfffd85 	bl	f80 <twi_byte_rw_nommu>
    1968:	e3500000 	cmp	r0, #0
    196c:	1a000000 	bne	1974 <mem_power_off_nommu+0x94>
    1970:	e320f003 	wfi
    1974:	e3e00000 	mvn	r0, #0
    1978:	e8bd801c 	pop	{r2, r3, r4, pc}

0000197c <mctl_precharge_all>:
    197c:	e59f3020 	ldr	r3, [pc, #32]	; 19a4 <mctl_precharge_all+0x28>
    1980:	e5932004 	ldr	r2, [r3, #4]
    1984:	e3c2233e 	bic	r2, r2, #-134217728	; 0xf8000000
    1988:	e382232a 	orr	r2, r2, #-1476395008	; 0xa8000000
    198c:	e5832004 	str	r2, [r3, #4]
    1990:	e5932004 	ldr	r2, [r3, #4]
    1994:	e3520000 	cmp	r2, #0
    1998:	bafffffc 	blt	1990 <mctl_precharge_all+0x14>
    199c:	e3a00c01 	mov	r0, #256	; 0x100
    19a0:	eafffe0f 	b	11e4 <mem_delay>
    19a4:	f1c01000 			; <UNDEFINED> instruction: 0xf1c01000

000019a8 <mctl_mode_exit>:
    19a8:	e59f3020 	ldr	r3, [pc, #32]	; 19d0 <mctl_mode_exit+0x28>
    19ac:	e5932004 	ldr	r2, [r3, #4]
    19b0:	e3c2233e 	bic	r2, r2, #-134217728	; 0xf8000000
    19b4:	e382232e 	orr	r2, r2, #-1207959552	; 0xb8000000
    19b8:	e5832004 	str	r2, [r3, #4]
    19bc:	e5932004 	ldr	r2, [r3, #4]
    19c0:	e3520000 	cmp	r2, #0
    19c4:	bafffffc 	blt	19bc <mctl_mode_exit+0x14>
    19c8:	e3a00c01 	mov	r0, #256	; 0x100
    19cc:	eafffe04 	b	11e4 <mem_delay>
    19d0:	f1c01000 			; <UNDEFINED> instruction: 0xf1c01000

000019d4 <DRAMC_enter_power_down>:
    19d4:	e59f3020 	ldr	r3, [pc, #32]	; 19fc <DRAMC_enter_power_down+0x28>
    19d8:	e5932004 	ldr	r2, [r3, #4]
    19dc:	e3c2233e 	bic	r2, r2, #-134217728	; 0xf8000000
    19e0:	e382220f 	orr	r2, r2, #-268435456	; 0xf0000000
    19e4:	e5832004 	str	r2, [r3, #4]
    19e8:	e5932004 	ldr	r2, [r3, #4]
    19ec:	e3520000 	cmp	r2, #0
    19f0:	bafffffc 	blt	19e8 <DRAMC_enter_power_down+0x14>
    19f4:	e3a00c01 	mov	r0, #256	; 0x100
    19f8:	eafffdf9 	b	11e4 <mem_delay>
    19fc:	f1c01000 			; <UNDEFINED> instruction: 0xf1c01000

00001a00 <DRAMC_exit_power_down>:
    1a00:	eaffffe8 	b	19a8 <mctl_mode_exit>

00001a04 <DRAMC_hostport_on_off>:
    1a04:	e350001f 	cmp	r0, #31
    1a08:	812fff1e 	bxhi	lr
    1a0c:	e59f3014 	ldr	r3, [pc, #20]	; 1a28 <DRAMC_hostport_on_off+0x24>
    1a10:	e3510000 	cmp	r1, #0
    1a14:	e7932100 	ldr	r2, [r3, r0, lsl #2]
    1a18:	13822001 	orrne	r2, r2, #1
    1a1c:	03c22001 	biceq	r2, r2, #1
    1a20:	e7832100 	str	r2, [r3, r0, lsl #2]
    1a24:	e12fff1e 	bx	lr
    1a28:	f1c01250 			; <UNDEFINED> instruction: 0xf1c01250

00001a2c <DRAMC_exit_selfrefresh>:
    1a2c:	e92d4010 	push	{r4, lr}
    1a30:	ebffffdc 	bl	19a8 <mctl_mode_exit>
    1a34:	e59f3050 	ldr	r3, [pc, #80]	; 1a8c <DRAMC_exit_selfrefresh+0x60>
    1a38:	e5932004 	ldr	r2, [r3, #4]
    1a3c:	e3c2233e 	bic	r2, r2, #-134217728	; 0xf8000000
    1a40:	e3822326 	orr	r2, r2, #-1744830464	; 0x98000000
    1a44:	e5832004 	str	r2, [r3, #4]
    1a48:	e5932004 	ldr	r2, [r3, #4]
    1a4c:	e59f4038 	ldr	r4, [pc, #56]	; 1a8c <DRAMC_exit_selfrefresh+0x60>
    1a50:	e3520000 	cmp	r2, #0
    1a54:	bafffffb 	blt	1a48 <DRAMC_exit_selfrefresh+0x1c>
    1a58:	e3a00c01 	mov	r0, #256	; 0x100
    1a5c:	ebfffde0 	bl	11e4 <mem_delay>
    1a60:	e5943010 	ldr	r3, [r4, #16]
    1a64:	e3c33102 	bic	r3, r3, #-2147483648	; 0x80000000
    1a68:	e5843010 	str	r3, [r4, #16]
    1a6c:	e3a04000 	mov	r4, #0
    1a70:	e1a00004 	mov	r0, r4
    1a74:	e3a01001 	mov	r1, #1
    1a78:	e2844001 	add	r4, r4, #1
    1a7c:	ebffffe0 	bl	1a04 <DRAMC_hostport_on_off>
    1a80:	e354001f 	cmp	r4, #31
    1a84:	1afffff9 	bne	1a70 <DRAMC_exit_selfrefresh+0x44>
    1a88:	e8bd8010 	pop	{r4, pc}
    1a8c:	f1c01000 			; <UNDEFINED> instruction: 0xf1c01000

00001a90 <DRAMC_enter_selfrefresh>:
    1a90:	e92d4010 	push	{r4, lr}
    1a94:	e3a04000 	mov	r4, #0
    1a98:	e1a00004 	mov	r0, r4
    1a9c:	e3a01000 	mov	r1, #0
    1aa0:	e2844001 	add	r4, r4, #1
    1aa4:	ebffffd6 	bl	1a04 <DRAMC_hostport_on_off>
    1aa8:	e354001f 	cmp	r4, #31
    1aac:	1afffff9 	bne	1a98 <DRAMC_enter_selfrefresh+0x8>
    1ab0:	ebffffb1 	bl	197c <mctl_precharge_all>
    1ab4:	e59f3030 	ldr	r3, [pc, #48]	; 1aec <DRAMC_enter_selfrefresh+0x5c>
    1ab8:	e5932004 	ldr	r2, [r3, #4]
    1abc:	e3c2233e 	bic	r2, r2, #-134217728	; 0xf8000000
    1ac0:	e3822209 	orr	r2, r2, #-1879048192	; 0x90000000
    1ac4:	e5832004 	str	r2, [r3, #4]
    1ac8:	e5932004 	ldr	r2, [r3, #4]
    1acc:	e3520000 	cmp	r2, #0
    1ad0:	bafffffc 	blt	1ac8 <DRAMC_enter_selfrefresh+0x38>
    1ad4:	e3a00c01 	mov	r0, #256	; 0x100
    1ad8:	ebfffdc1 	bl	11e4 <mem_delay>
    1adc:	e59f3008 	ldr	r3, [pc, #8]	; 1aec <DRAMC_enter_selfrefresh+0x5c>
    1ae0:	e3a02001 	mov	r2, #1
    1ae4:	e583223c 	str	r2, [r3, #572]	; 0x23c
    1ae8:	e8bd8010 	pop	{r4, pc}
    1aec:	f1c01000 			; <UNDEFINED> instruction: 0xf1c01000

00001af0 <DRAMC_hostport_check_ahb_fifo_status>:
    1af0:	e350001f 	cmp	r0, #31
    1af4:	83a00000 	movhi	r0, #0
    1af8:	959f300c 	ldrls	r3, [pc, #12]	; 1b0c <DRAMC_hostport_check_ahb_fifo_status+0x1c>
    1afc:	95933234 	ldrls	r3, [r3, #564]	; 0x234
    1b00:	91a00033 	lsrls	r0, r3, r0
    1b04:	92000001 	andls	r0, r0, #1
    1b08:	e12fff1e 	bx	lr
    1b0c:	f1c01000 			; <UNDEFINED> instruction: 0xf1c01000

00001b10 <DRAMC_hostport_setup>:
    1b10:	e350001f 	cmp	r0, #31
    1b14:	e92d4010 	push	{r4, lr}
    1b18:	88bd8010 	pophi	{r4, pc}
    1b1c:	e59fc030 	ldr	ip, [pc, #48]	; 1b54 <DRAMC_hostport_setup+0x44>
    1b20:	e2011003 	and	r1, r1, #3
    1b24:	e1a02202 	lsl	r2, r2, #4
    1b28:	e2033003 	and	r3, r3, #3
    1b2c:	e20220ff 	and	r2, r2, #255	; 0xff
    1b30:	e79c4100 	ldr	r4, [ip, r0, lsl #2]
    1b34:	e3c4400c 	bic	r4, r4, #12
    1b38:	e1841101 	orr	r1, r4, r1, lsl #2
    1b3c:	e3c110f0 	bic	r1, r1, #240	; 0xf0
    1b40:	e1812002 	orr	r2, r1, r2
    1b44:	e3c22cff 	bic	r2, r2, #65280	; 0xff00
    1b48:	e1823403 	orr	r3, r2, r3, lsl #8
    1b4c:	e78c3100 	str	r3, [ip, r0, lsl #2]
    1b50:	e8bd8010 	pop	{r4, pc}
    1b54:	f1c01250 			; <UNDEFINED> instruction: 0xf1c01250

00001b58 <mctl_ahb_reset>:
    1b58:	e92d4010 	push	{r4, lr}
    1b5c:	e3a00010 	mov	r0, #16
    1b60:	e59f401c 	ldr	r4, [pc, #28]	; 1b84 <mctl_ahb_reset+0x2c>
    1b64:	e5943060 	ldr	r3, [r4, #96]	; 0x60
    1b68:	e3c33903 	bic	r3, r3, #49152	; 0xc000
    1b6c:	e5843060 	str	r3, [r4, #96]	; 0x60
    1b70:	ebfffd9b 	bl	11e4 <mem_delay>
    1b74:	e5943060 	ldr	r3, [r4, #96]	; 0x60
    1b78:	e3833903 	orr	r3, r3, #49152	; 0xc000
    1b7c:	e5843060 	str	r3, [r4, #96]	; 0x60
    1b80:	e8bd8010 	pop	{r4, pc}
    1b84:	f1c20000 			; <UNDEFINED> instruction: 0xf1c20000

00001b88 <DRAMC_retraining>:
    1b88:	e59f3144 	ldr	r3, [pc, #324]	; 1cd4 <DRAMC_retraining+0x14c>
    1b8c:	e92d4ff0 	push	{r4, r5, r6, r7, r8, r9, sl, fp, lr}
    1b90:	e24dd01c 	sub	sp, sp, #28
    1b94:	e5932004 	ldr	r2, [r3, #4]
    1b98:	e58d2000 	str	r2, [sp]
    1b9c:	e5932010 	ldr	r2, [r3, #16]
    1ba0:	e593b014 	ldr	fp, [r3, #20]
    1ba4:	e5939018 	ldr	r9, [r3, #24]
    1ba8:	e58d2004 	str	r2, [sp, #4]
    1bac:	e593a01c 	ldr	sl, [r3, #28]
    1bb0:	e59381f0 	ldr	r8, [r3, #496]	; 0x1f0
    1bb4:	e59371f4 	ldr	r7, [r3, #500]	; 0x1f4
    1bb8:	e59361f8 	ldr	r6, [r3, #504]	; 0x1f8
    1bbc:	e59321fc 	ldr	r2, [r3, #508]	; 0x1fc
    1bc0:	e59350a8 	ldr	r5, [r3, #168]	; 0xa8
    1bc4:	e58d2008 	str	r2, [sp, #8]
    1bc8:	e5932008 	ldr	r2, [r3, #8]
    1bcc:	e58d200c 	str	r2, [sp, #12]
    1bd0:	e5932000 	ldr	r2, [r3]
    1bd4:	e59330b0 	ldr	r3, [r3, #176]	; 0xb0
    1bd8:	e58d2010 	str	r2, [sp, #16]
    1bdc:	e58d3014 	str	r3, [sp, #20]
    1be0:	e59f40ec 	ldr	r4, [pc, #236]	; 1cd4 <DRAMC_retraining+0x14c>
    1be4:	ebffffdb 	bl	1b58 <mctl_ahb_reset>
    1be8:	eb000096 	bl	1e48 <mctl_ddr3_reset>
    1bec:	eb0000a1 	bl	1e78 <mctl_set_drive>
    1bf0:	eb0000a8 	bl	1e98 <mctl_itm_disable>
    1bf4:	eb0000b3 	bl	1ec8 <mctl_enable_dll0>
    1bf8:	e59d3010 	ldr	r3, [sp, #16]
    1bfc:	e59d2000 	ldr	r2, [sp]
    1c00:	e3a00001 	mov	r0, #1
    1c04:	e5843000 	str	r3, [r4]
    1c08:	e59d3014 	ldr	r3, [sp, #20]
    1c0c:	e5842004 	str	r2, [r4, #4]
    1c10:	e3c324ff 	bic	r2, r3, #-16777216	; 0xff000000
    1c14:	e20536ff 	and	r3, r5, #267386880	; 0xff00000
    1c18:	e3c2260f 	bic	r2, r2, #15728640	; 0xf00000
    1c1c:	e1822003 	orr	r2, r2, r3
    1c20:	e2053202 	and	r3, r5, #536870912	; 0x20000000
    1c24:	e3822205 	orr	r2, r2, #1342177280	; 0x50000000
    1c28:	e1823003 	orr	r3, r2, r3
    1c2c:	e58430a8 	str	r3, [r4, #168]	; 0xa8
    1c30:	eb00013f 	bl	2134 <DRAMC_clock_output_en>
    1c34:	e3a00010 	mov	r0, #16
    1c38:	ebfffd69 	bl	11e4 <mem_delay>
    1c3c:	e1a03004 	mov	r3, r4
    1c40:	e5932000 	ldr	r2, [r3]
    1c44:	e59f4088 	ldr	r4, [pc, #136]	; 1cd4 <DRAMC_retraining+0x14c>
    1c48:	e3520000 	cmp	r2, #0
    1c4c:	bafffffb 	blt	1c40 <DRAMC_retraining+0xb8>
    1c50:	eb0000b1 	bl	1f1c <mctl_enable_dllx>
    1c54:	e59d200c 	ldr	r2, [sp, #12]
    1c58:	e59d3004 	ldr	r3, [sp, #4]
    1c5c:	e5842008 	str	r2, [r4, #8]
    1c60:	e59d2008 	ldr	r2, [sp, #8]
    1c64:	e5843010 	str	r3, [r4, #16]
    1c68:	e584b014 	str	fp, [r4, #20]
    1c6c:	e5849018 	str	r9, [r4, #24]
    1c70:	e584a01c 	str	sl, [r4, #28]
    1c74:	e58481f0 	str	r8, [r4, #496]	; 0x1f0
    1c78:	e58471f4 	str	r7, [r4, #500]	; 0x1f4
    1c7c:	e58461f8 	str	r6, [r4, #504]	; 0x1f8
    1c80:	e58421fc 	str	r2, [r4, #508]	; 0x1fc
    1c84:	e5943000 	ldr	r3, [r4]
    1c88:	e3833102 	orr	r3, r3, #-2147483648	; 0x80000000
    1c8c:	e5843000 	str	r3, [r4]
    1c90:	e59f303c 	ldr	r3, [pc, #60]	; 1cd4 <DRAMC_retraining+0x14c>
    1c94:	e5932000 	ldr	r2, [r3]
    1c98:	e3520000 	cmp	r2, #0
    1c9c:	bafffffb 	blt	1c90 <DRAMC_retraining+0x108>
    1ca0:	e3a02000 	mov	r2, #0
    1ca4:	e3a00801 	mov	r0, #65536	; 0x10000
    1ca8:	e583223c 	str	r2, [r3, #572]	; 0x23c
    1cac:	ebfffd4c 	bl	11e4 <mem_delay>
    1cb0:	eb00007e 	bl	1eb0 <mctl_itm_enable>
    1cb4:	eb000111 	bl	2100 <DRAMC_scan_readpipe>
    1cb8:	e1a04000 	mov	r4, r0
    1cbc:	eb0000dd 	bl	2038 <mctl_configure_hostport>
    1cc0:	e3540000 	cmp	r4, #0
    1cc4:	1affffc5 	bne	1be0 <DRAMC_retraining+0x58>
    1cc8:	e1a00004 	mov	r0, r4
    1ccc:	e28dd01c 	add	sp, sp, #28
    1cd0:	e8bd8ff0 	pop	{r4, r5, r6, r7, r8, r9, sl, fp, pc}
    1cd4:	f1c01000 			; <UNDEFINED> instruction: 0xf1c01000

00001cd8 <dram_power_save_process>:
    1cd8:	e92d4073 	push	{r0, r1, r4, r5, r6, lr}
    1cdc:	e3a05005 	mov	r5, #5
    1ce0:	e59f30a4 	ldr	r3, [pc, #164]	; 1d8c <dram_power_save_process+0xb4>
    1ce4:	e28d4008 	add	r4, sp, #8
    1ce8:	e3a00001 	mov	r0, #1
    1cec:	e3a01034 	mov	r1, #52	; 0x34
    1cf0:	e3a0200a 	mov	r2, #10
    1cf4:	e59360b0 	ldr	r6, [r3, #176]	; 0xb0
    1cf8:	e3c664ff 	bic	r6, r6, #-16777216	; 0xff000000
    1cfc:	e3c6660f 	bic	r6, r6, #15728640	; 0xf00000
    1d00:	e5646001 	strb	r6, [r4, #-1]!
    1d04:	e1a03004 	mov	r3, r4
    1d08:	ebfffc0a 	bl	d38 <twi_byte_rw>
    1d0c:	e3500000 	cmp	r0, #0
    1d10:	1a000011 	bne	1d5c <dram_power_save_process+0x84>
    1d14:	e1a03426 	lsr	r3, r6, #8
    1d18:	e2800001 	add	r0, r0, #1
    1d1c:	e5cd3007 	strb	r3, [sp, #7]
    1d20:	e3a01034 	mov	r1, #52	; 0x34
    1d24:	e3a0200b 	mov	r2, #11
    1d28:	e1a03004 	mov	r3, r4
    1d2c:	ebfffc01 	bl	d38 <twi_byte_rw>
    1d30:	e3500000 	cmp	r0, #0
    1d34:	1a000008 	bne	1d5c <dram_power_save_process+0x84>
    1d38:	e1a03004 	mov	r3, r4
    1d3c:	e2800001 	add	r0, r0, #1
    1d40:	e3a01034 	mov	r1, #52	; 0x34
    1d44:	e3a0200c 	mov	r2, #12
    1d48:	e1a06826 	lsr	r6, r6, #16
    1d4c:	e5cd6007 	strb	r6, [sp, #7]
    1d50:	ebfffbf8 	bl	d38 <twi_byte_rw>
    1d54:	e2504000 	subs	r4, r0, #0
    1d58:	0a000002 	beq	1d68 <dram_power_save_process+0x90>
    1d5c:	e2555001 	subs	r5, r5, #1
    1d60:	1affffde 	bne	1ce0 <dram_power_save_process+0x8>
    1d64:	ea000006 	b	1d84 <dram_power_save_process+0xac>
    1d68:	e3550000 	cmp	r5, #0
    1d6c:	0a000004 	beq	1d84 <dram_power_save_process+0xac>
    1d70:	ebffff46 	bl	1a90 <DRAMC_enter_selfrefresh>
    1d74:	eb000047 	bl	1e98 <mctl_itm_disable>
    1d78:	eb000097 	bl	1fdc <mctl_disable_dll>
    1d7c:	e1a00004 	mov	r0, r4
    1d80:	ea000000 	b	1d88 <dram_power_save_process+0xb0>
    1d84:	e3e00000 	mvn	r0, #0
    1d88:	e8bd807c 	pop	{r2, r3, r4, r5, r6, pc}
    1d8c:	f1c01000 			; <UNDEFINED> instruction: 0xf1c01000

00001d90 <dram_power_up_process>:
    1d90:	eaffff7c 	b	1b88 <DRAMC_retraining>

00001d94 <dram_enter_selfrefresh>:
    1d94:	eaffff3d 	b	1a90 <DRAMC_enter_selfrefresh>

00001d98 <dram_exit_selfrefresh>:
    1d98:	eaffff23 	b	1a2c <DRAMC_exit_selfrefresh>

00001d9c <dram_enter_power_down>:
    1d9c:	eaffff0c 	b	19d4 <DRAMC_enter_power_down>

00001da0 <dram_exit_power_down>:
    1da0:	eaffff16 	b	1a00 <DRAMC_exit_power_down>

00001da4 <dram_hostport_on_off>:
    1da4:	eaffff16 	b	1a04 <DRAMC_hostport_on_off>

00001da8 <dram_hostport_check_ahb_fifo_status>:
    1da8:	eaffff50 	b	1af0 <DRAMC_hostport_check_ahb_fifo_status>

00001dac <dram_hostport_setup>:
    1dac:	eaffff57 	b	1b10 <DRAMC_hostport_setup>

00001db0 <mem_uldiv>:
    1db0:	e3520000 	cmp	r2, #0
    1db4:	e92d40f0 	push	{r4, r5, r6, r7, lr}
    1db8:	13a03000 	movne	r3, #0
    1dbc:	13a0c000 	movne	ip, #0
    1dc0:	1a000003 	bne	1dd4 <mem_uldiv+0x24>
    1dc4:	ea00001a 	b	1e34 <mem_uldiv+0x84>
    1dc8:	e0922002 	adds	r2, r2, r2
    1dcc:	e28cc001 	add	ip, ip, #1
    1dd0:	e0a33003 	adc	r3, r3, r3
    1dd4:	e3520000 	cmp	r2, #0
    1dd8:	e2d34000 	sbcs	r4, r3, #0
    1ddc:	aafffff9 	bge	1dc8 <mem_uldiv+0x18>
    1de0:	e3a04000 	mov	r4, #0
    1de4:	e3a05000 	mov	r5, #0
    1de8:	e1510003 	cmp	r1, r3
    1dec:	01500002 	cmpeq	r0, r2
    1df0:	3a000008 	bcc	1e18 <mem_uldiv+0x68>
    1df4:	e0500002 	subs	r0, r0, r2
    1df8:	e0c11003 	sbc	r1, r1, r3
    1dfc:	e0946004 	adds	r6, r4, r4
    1e00:	e0a57005 	adc	r7, r5, r5
    1e04:	e3a04001 	mov	r4, #1
    1e08:	e3a05000 	mov	r5, #0
    1e0c:	e1844006 	orr	r4, r4, r6
    1e10:	e1855007 	orr	r5, r5, r7
    1e14:	ea000001 	b	1e20 <mem_uldiv+0x70>
    1e18:	e0944004 	adds	r4, r4, r4
    1e1c:	e0a55005 	adc	r5, r5, r5
    1e20:	e25cc001 	subs	ip, ip, #1
    1e24:	4a000004 	bmi	1e3c <mem_uldiv+0x8c>
    1e28:	e1b030a3 	lsrs	r3, r3, #1
    1e2c:	e1a02062 	rrx	r2, r2
    1e30:	eaffffec 	b	1de8 <mem_uldiv+0x38>
    1e34:	e3a04000 	mov	r4, #0
    1e38:	e3a05000 	mov	r5, #0
    1e3c:	e1a00004 	mov	r0, r4
    1e40:	e1a01005 	mov	r1, r5
    1e44:	e8bd80f0 	pop	{r4, r5, r6, r7, pc}

00001e48 <mctl_ddr3_reset>:
    1e48:	e92d4010 	push	{r4, lr}
    1e4c:	e3a00c01 	mov	r0, #256	; 0x100
    1e50:	e59f401c 	ldr	r4, [pc, #28]	; 1e74 <mctl_ddr3_reset+0x2c>
    1e54:	e5943230 	ldr	r3, [r4, #560]	; 0x230
    1e58:	e3c33a01 	bic	r3, r3, #4096	; 0x1000
    1e5c:	e5843230 	str	r3, [r4, #560]	; 0x230
    1e60:	ebfffcdf 	bl	11e4 <mem_delay>
    1e64:	e5943230 	ldr	r3, [r4, #560]	; 0x230
    1e68:	e3833a01 	orr	r3, r3, #4096	; 0x1000
    1e6c:	e5843230 	str	r3, [r4, #560]	; 0x230
    1e70:	e8bd8010 	pop	{r4, pc}
    1e74:	f1c01000 			; <UNDEFINED> instruction: 0xf1c01000

00001e78 <mctl_set_drive>:
    1e78:	e59f3014 	ldr	r3, [pc, #20]	; 1e94 <mctl_set_drive+0x1c>
    1e7c:	e5932230 	ldr	r2, [r3, #560]	; 0x230
    1e80:	e3822c6f 	orr	r2, r2, #28416	; 0x6f00
    1e84:	e38220fc 	orr	r2, r2, #252	; 0xfc
    1e88:	e3c22003 	bic	r2, r2, #3
    1e8c:	e5832230 	str	r2, [r3, #560]	; 0x230
    1e90:	e12fff1e 	bx	lr
    1e94:	f1c01000 			; <UNDEFINED> instruction: 0xf1c01000

00001e98 <mctl_itm_disable>:
    1e98:	e59f300c 	ldr	r3, [pc, #12]	; 1eac <mctl_itm_disable+0x14>
    1e9c:	e5932000 	ldr	r2, [r3]
    1ea0:	e3822201 	orr	r2, r2, #268435456	; 0x10000000
    1ea4:	e5832000 	str	r2, [r3]
    1ea8:	e12fff1e 	bx	lr
    1eac:	f1c01000 			; <UNDEFINED> instruction: 0xf1c01000

00001eb0 <mctl_itm_enable>:
    1eb0:	e59f300c 	ldr	r3, [pc, #12]	; 1ec4 <mctl_itm_enable+0x14>
    1eb4:	e5932000 	ldr	r2, [r3]
    1eb8:	e3c22201 	bic	r2, r2, #268435456	; 0x10000000
    1ebc:	e5832000 	str	r2, [r3]
    1ec0:	e12fff1e 	bx	lr
    1ec4:	f1c01000 			; <UNDEFINED> instruction: 0xf1c01000

00001ec8 <mctl_enable_dll0>:
    1ec8:	e92d4010 	push	{r4, lr}
    1ecc:	e3a00c01 	mov	r0, #256	; 0x100
    1ed0:	e59f4040 	ldr	r4, [pc, #64]	; 1f18 <mctl_enable_dll0+0x50>
    1ed4:	e5943204 	ldr	r3, [r4, #516]	; 0x204
    1ed8:	e3c33103 	bic	r3, r3, #-1073741824	; 0xc0000000
    1edc:	e3833102 	orr	r3, r3, #-2147483648	; 0x80000000
    1ee0:	e5843204 	str	r3, [r4, #516]	; 0x204
    1ee4:	ebfffcbe 	bl	11e4 <mem_delay>
    1ee8:	e5943204 	ldr	r3, [r4, #516]	; 0x204
    1eec:	e3a00a01 	mov	r0, #4096	; 0x1000
    1ef0:	e3c33103 	bic	r3, r3, #-1073741824	; 0xc0000000
    1ef4:	e5843204 	str	r3, [r4, #516]	; 0x204
    1ef8:	ebfffcb9 	bl	11e4 <mem_delay>
    1efc:	e5943204 	ldr	r3, [r4, #516]	; 0x204
    1f00:	e3a00a01 	mov	r0, #4096	; 0x1000
    1f04:	e3c33103 	bic	r3, r3, #-1073741824	; 0xc0000000
    1f08:	e3833101 	orr	r3, r3, #1073741824	; 0x40000000
    1f0c:	e5843204 	str	r3, [r4, #516]	; 0x204
    1f10:	e8bd4010 	pop	{r4, lr}
    1f14:	eafffcb2 	b	11e4 <mem_delay>
    1f18:	f1c01000 			; <UNDEFINED> instruction: 0xf1c01000

00001f1c <mctl_enable_dllx>:
    1f1c:	e59f30b0 	ldr	r3, [pc, #176]	; 1fd4 <mctl_enable_dllx+0xb8>
    1f20:	e92d4010 	push	{r4, lr}
    1f24:	e5934004 	ldr	r4, [r3, #4]
    1f28:	e3a03001 	mov	r3, #1
    1f2c:	e7e24354 	ubfx	r4, r4, #6, #3
    1f30:	e3540003 	cmp	r4, #3
    1f34:	13a04003 	movne	r4, #3
    1f38:	03a04005 	moveq	r4, #5
    1f3c:	e59f2094 	ldr	r2, [pc, #148]	; 1fd8 <mctl_enable_dllx+0xbc>
    1f40:	e1a01103 	lsl	r1, r3, #2
    1f44:	e2833001 	add	r3, r3, #1
    1f48:	e0812002 	add	r2, r1, r2
    1f4c:	e1530004 	cmp	r3, r4
    1f50:	e5921000 	ldr	r1, [r2]
    1f54:	e3c11103 	bic	r1, r1, #-1073741824	; 0xc0000000
    1f58:	e3811102 	orr	r1, r1, #-2147483648	; 0x80000000
    1f5c:	e5821000 	str	r1, [r2]
    1f60:	3afffff5 	bcc	1f3c <mctl_enable_dllx+0x20>
    1f64:	e3a00c01 	mov	r0, #256	; 0x100
    1f68:	ebfffc9d 	bl	11e4 <mem_delay>
    1f6c:	e3a03001 	mov	r3, #1
    1f70:	e59f2060 	ldr	r2, [pc, #96]	; 1fd8 <mctl_enable_dllx+0xbc>
    1f74:	e1a01103 	lsl	r1, r3, #2
    1f78:	e2833001 	add	r3, r3, #1
    1f7c:	e0812002 	add	r2, r1, r2
    1f80:	e1530004 	cmp	r3, r4
    1f84:	e5921000 	ldr	r1, [r2]
    1f88:	e3c11103 	bic	r1, r1, #-1073741824	; 0xc0000000
    1f8c:	e5821000 	str	r1, [r2]
    1f90:	3afffff6 	bcc	1f70 <mctl_enable_dllx+0x54>
    1f94:	e3a00a01 	mov	r0, #4096	; 0x1000
    1f98:	ebfffc91 	bl	11e4 <mem_delay>
    1f9c:	e3a03001 	mov	r3, #1
    1fa0:	e59f2030 	ldr	r2, [pc, #48]	; 1fd8 <mctl_enable_dllx+0xbc>
    1fa4:	e1a01103 	lsl	r1, r3, #2
    1fa8:	e2833001 	add	r3, r3, #1
    1fac:	e0812002 	add	r2, r1, r2
    1fb0:	e1530004 	cmp	r3, r4
    1fb4:	e5921000 	ldr	r1, [r2]
    1fb8:	e3c11103 	bic	r1, r1, #-1073741824	; 0xc0000000
    1fbc:	e3811101 	orr	r1, r1, #1073741824	; 0x40000000
    1fc0:	e5821000 	str	r1, [r2]
    1fc4:	3afffff5 	bcc	1fa0 <mctl_enable_dllx+0x84>
    1fc8:	e3a00a01 	mov	r0, #4096	; 0x1000
    1fcc:	e8bd4010 	pop	{r4, lr}
    1fd0:	eafffc83 	b	11e4 <mem_delay>
    1fd4:	f1c01000 			; <UNDEFINED> instruction: 0xf1c01000
    1fd8:	f1c01204 			; <UNDEFINED> instruction: 0xf1c01204

00001fdc <mctl_disable_dll>:
    1fdc:	e59f3050 	ldr	r3, [pc, #80]	; 2034 <mctl_disable_dll+0x58>
    1fe0:	e5932204 	ldr	r2, [r3, #516]	; 0x204
    1fe4:	e3c22101 	bic	r2, r2, #1073741824	; 0x40000000
    1fe8:	e3822102 	orr	r2, r2, #-2147483648	; 0x80000000
    1fec:	e5832204 	str	r2, [r3, #516]	; 0x204
    1ff0:	e5932208 	ldr	r2, [r3, #520]	; 0x208
    1ff4:	e3c22101 	bic	r2, r2, #1073741824	; 0x40000000
    1ff8:	e3822102 	orr	r2, r2, #-2147483648	; 0x80000000
    1ffc:	e5832208 	str	r2, [r3, #520]	; 0x208
    2000:	e593220c 	ldr	r2, [r3, #524]	; 0x20c
    2004:	e3c22101 	bic	r2, r2, #1073741824	; 0x40000000
    2008:	e3822102 	orr	r2, r2, #-2147483648	; 0x80000000
    200c:	e583220c 	str	r2, [r3, #524]	; 0x20c
    2010:	e5932210 	ldr	r2, [r3, #528]	; 0x210
    2014:	e3c22101 	bic	r2, r2, #1073741824	; 0x40000000
    2018:	e3822102 	orr	r2, r2, #-2147483648	; 0x80000000
    201c:	e5832210 	str	r2, [r3, #528]	; 0x210
    2020:	e5932214 	ldr	r2, [r3, #532]	; 0x214
    2024:	e3c22101 	bic	r2, r2, #1073741824	; 0x40000000
    2028:	e3822102 	orr	r2, r2, #-2147483648	; 0x80000000
    202c:	e5832214 	str	r2, [r3, #532]	; 0x214
    2030:	e12fff1e 	bx	lr
    2034:	f1c01000 			; <UNDEFINED> instruction: 0xf1c01000

00002038 <mctl_configure_hostport>:
    2038:	e59f1024 	ldr	r1, [pc, #36]	; 2064 <mctl_configure_hostport+0x2c>
    203c:	e3a03000 	mov	r3, #0
    2040:	e59f2020 	ldr	r2, [pc, #32]	; 2068 <mctl_configure_hostport+0x30>
    2044:	e1a00103 	lsl	r0, r3, #2
    2048:	e2833001 	add	r3, r3, #1
    204c:	e0802002 	add	r2, r0, r2
    2050:	e5b10004 	ldr	r0, [r1, #4]!
    2054:	e3530020 	cmp	r3, #32
    2058:	e5820000 	str	r0, [r2]
    205c:	1afffff7 	bne	2040 <mctl_configure_hostport+0x8>
    2060:	e12fff1e 	bx	lr
    2064:	0000350c 	andeq	r3, r0, ip, lsl #10
    2068:	f1c01250 			; <UNDEFINED> instruction: 0xf1c01250

0000206c <mctl_setup_dram_clock>:
    206c:	e92d4070 	push	{r4, r5, r6, lr}
    2070:	e3a02018 	mov	r2, #24
    2074:	e3a01000 	mov	r1, #0
    2078:	e59f4070 	ldr	r4, [pc, #112]	; 20f0 <mctl_setup_dram_clock+0x84>
    207c:	ebffff4b 	bl	1db0 <mem_uldiv>
    2080:	e5945020 	ldr	r5, [r4, #32]
    2084:	e3c55033 	bic	r5, r5, #51	; 0x33
    2088:	e3855011 	orr	r5, r5, #17
    208c:	e3c55c1f 	bic	r5, r5, #7936	; 0x1f00
    2090:	e200301f 	and	r3, r0, #31
    2094:	e3a00601 	mov	r0, #1048576	; 0x100000
    2098:	e1853403 	orr	r3, r5, r3, lsl #8
    209c:	e3c33803 	bic	r3, r3, #196608	; 0x30000
    20a0:	e3833801 	orr	r3, r3, #65536	; 0x10000
    20a4:	e3c33202 	bic	r3, r3, #536870912	; 0x20000000
    20a8:	e3833102 	orr	r3, r3, #-2147483648	; 0x80000000
    20ac:	e5843020 	str	r3, [r4, #32]
    20b0:	ebfffc4b 	bl	11e4 <mem_delay>
    20b4:	e5943020 	ldr	r3, [r4, #32]
    20b8:	e3a00a01 	mov	r0, #4096	; 0x1000
    20bc:	e3833202 	orr	r3, r3, #536870912	; 0x20000000
    20c0:	e5843020 	str	r3, [r4, #32]
    20c4:	e59f3028 	ldr	r3, [pc, #40]	; 20f4 <mctl_setup_dram_clock+0x88>
    20c8:	e584315c 	str	r3, [r4, #348]	; 0x15c
    20cc:	e5945060 	ldr	r5, [r4, #96]	; 0x60
    20d0:	e3c55903 	bic	r5, r5, #49152	; 0xc000
    20d4:	e5845060 	str	r5, [r4, #96]	; 0x60
    20d8:	ebfffc41 	bl	11e4 <mem_delay>
    20dc:	e3855903 	orr	r5, r5, #49152	; 0xc000
    20e0:	e3a00a01 	mov	r0, #4096	; 0x1000
    20e4:	e5845060 	str	r5, [r4, #96]	; 0x60
    20e8:	e8bd4070 	pop	{r4, r5, r6, lr}
    20ec:	eafffc3c 	b	11e4 <mem_delay>
    20f0:	f1c20000 			; <UNDEFINED> instruction: 0xf1c20000
    20f4:	82000001 	andhi	r0, r0, #1

000020f8 <DRAMC_exit>:
    20f8:	e3a00000 	mov	r0, #0
    20fc:	e12fff1e 	bx	lr

00002100 <DRAMC_scan_readpipe>:
    2100:	e59f3028 	ldr	r3, [pc, #40]	; 2130 <DRAMC_scan_readpipe+0x30>
    2104:	e5932000 	ldr	r2, [r3]
    2108:	e3822101 	orr	r2, r2, #1073741824	; 0x40000000
    210c:	e5832000 	str	r2, [r3]
    2110:	e5932000 	ldr	r2, [r3]
    2114:	e3120101 	tst	r2, #1073741824	; 0x40000000
    2118:	1afffffc 	bne	2110 <DRAMC_scan_readpipe+0x10>
    211c:	e59f300c 	ldr	r3, [pc, #12]	; 2130 <DRAMC_scan_readpipe+0x30>
    2120:	e593000c 	ldr	r0, [r3, #12]
    2124:	e2100601 	ands	r0, r0, #1048576	; 0x100000
    2128:	13e00000 	mvnne	r0, #0
    212c:	e12fff1e 	bx	lr
    2130:	f1c01000 			; <UNDEFINED> instruction: 0xf1c01000

00002134 <DRAMC_clock_output_en>:
    2134:	e59f2014 	ldr	r2, [pc, #20]	; 2150 <DRAMC_clock_output_en+0x1c>
    2138:	e3500000 	cmp	r0, #0
    213c:	e5923230 	ldr	r3, [r2, #560]	; 0x230
    2140:	13833801 	orrne	r3, r3, #65536	; 0x10000
    2144:	03c33801 	biceq	r3, r3, #65536	; 0x10000
    2148:	e5823230 	str	r3, [r2, #560]	; 0x230
    214c:	e12fff1e 	bx	lr
    2150:	f1c01000 			; <UNDEFINED> instruction: 0xf1c01000

00002154 <DRAMC_set_autorefresh_cycle>:
    2154:	e3013f33 	movw	r3, #7987	; 0x1f33
    2158:	e0030093 	mul	r3, r3, r0
    215c:	e1a03523 	lsr	r3, r3, #10
    2160:	e0833183 	add	r3, r3, r3, lsl #3
    2164:	e24320c8 	sub	r2, r3, #200	; 0xc8
    2168:	e59f3010 	ldr	r3, [pc, #16]	; 2180 <DRAMC_set_autorefresh_cycle+0x2c>
    216c:	e1a02402 	lsl	r2, r2, #8
    2170:	e3822302 	orr	r2, r2, #134217728	; 0x8000000
    2174:	e3822083 	orr	r2, r2, #131	; 0x83
    2178:	e5832010 	str	r2, [r3, #16]
    217c:	e12fff1e 	bx	lr
    2180:	f1c01000 			; <UNDEFINED> instruction: 0xf1c01000

00002184 <DRAMC_get_dram_size>:
    2184:	e59f3068 	ldr	r3, [pc, #104]	; 21f4 <DRAMC_get_dram_size+0x70>
    2188:	e5933004 	ldr	r3, [r3, #4]
    218c:	e7e201d3 	ubfx	r0, r3, #3, #3
    2190:	e3500000 	cmp	r0, #0
    2194:	03a00020 	moveq	r0, #32
    2198:	0a00000b 	beq	21cc <DRAMC_get_dram_size+0x48>
    219c:	e3500001 	cmp	r0, #1
    21a0:	03a00040 	moveq	r0, #64	; 0x40
    21a4:	0a000008 	beq	21cc <DRAMC_get_dram_size+0x48>
    21a8:	e3500002 	cmp	r0, #2
    21ac:	03a00080 	moveq	r0, #128	; 0x80
    21b0:	0a000005 	beq	21cc <DRAMC_get_dram_size+0x48>
    21b4:	e3500003 	cmp	r0, #3
    21b8:	03a00c01 	moveq	r0, #256	; 0x100
    21bc:	0a000002 	beq	21cc <DRAMC_get_dram_size+0x48>
    21c0:	e3500004 	cmp	r0, #4
    21c4:	13a00b01 	movne	r0, #1024	; 0x400
    21c8:	03a00c02 	moveq	r0, #512	; 0x200
    21cc:	e7e120d3 	ubfx	r2, r3, #1, #2
    21d0:	e3520001 	cmp	r2, #1
    21d4:	e7e22353 	ubfx	r2, r3, #6, #3
    21d8:	01a00080 	lsleq	r0, r0, #1
    21dc:	e3520003 	cmp	r2, #3
    21e0:	e7e13553 	ubfx	r3, r3, #10, #2
    21e4:	01a00080 	lsleq	r0, r0, #1
    21e8:	e3530001 	cmp	r3, #1
    21ec:	01a00080 	lsleq	r0, r0, #1
    21f0:	e12fff1e 	bx	lr
    21f4:	f1c01000 			; <UNDEFINED> instruction: 0xf1c01000

000021f8 <DRAMC_init>:
    21f8:	e92d4070 	push	{r4, r5, r6, lr}
    21fc:	e2504000 	subs	r4, r0, #0
    2200:	03e00000 	mvneq	r0, #0
    2204:	08bd8070 	popeq	{r4, r5, r6, pc}
    2208:	e5940004 	ldr	r0, [r4, #4]
    220c:	e3a05000 	mov	r5, #0
    2210:	ebffff95 	bl	206c <mctl_setup_dram_clock>
    2214:	e59f31a4 	ldr	r3, [pc, #420]	; 23c0 <DRAMC_init+0x1c8>
    2218:	e583523c 	str	r5, [r3, #572]	; 0x23c
    221c:	ebffff09 	bl	1e48 <mctl_ddr3_reset>
    2220:	ebffff14 	bl	1e78 <mctl_set_drive>
    2224:	e1a00005 	mov	r0, r5
    2228:	ebffffc1 	bl	2134 <DRAMC_clock_output_en>
    222c:	ebffff19 	bl	1e98 <mctl_itm_disable>
    2230:	ebffff24 	bl	1ec8 <mctl_enable_dll0>
    2234:	e5943008 	ldr	r3, [r4, #8]
    2238:	e5942014 	ldr	r2, [r4, #20]
    223c:	e2431003 	sub	r1, r3, #3
    2240:	e2713000 	rsbs	r3, r1, #0
    2244:	e1a021a2 	lsr	r2, r2, #3
    2248:	e0a33001 	adc	r3, r3, r1
    224c:	e1833082 	orr	r3, r3, r2, lsl #1
    2250:	e5942010 	ldr	r2, [r4, #16]
    2254:	e3520c01 	cmp	r2, #256	; 0x100
    2258:	0a00000d 	beq	2294 <DRAMC_init+0x9c>
    225c:	e3520c02 	cmp	r2, #512	; 0x200
    2260:	03833008 	orreq	r3, r3, #8
    2264:	0a00000a 	beq	2294 <DRAMC_init+0x9c>
    2268:	e3520b01 	cmp	r2, #1024	; 0x400
    226c:	03833010 	orreq	r3, r3, #16
    2270:	0a000007 	beq	2294 <DRAMC_init+0x9c>
    2274:	e3520b02 	cmp	r2, #2048	; 0x800
    2278:	03833018 	orreq	r3, r3, #24
    227c:	0a000004 	beq	2294 <DRAMC_init+0x9c>
    2280:	e3520a01 	cmp	r2, #4096	; 0x1000
    2284:	03833020 	orreq	r3, r3, #32
    2288:	0a000001 	beq	2294 <DRAMC_init+0x9c>
    228c:	e3520a02 	cmp	r2, #8192	; 0x2000
    2290:	03833028 	orreq	r3, r3, #40	; 0x28
    2294:	e594100c 	ldr	r1, [r4, #12]
    2298:	e3a00001 	mov	r0, #1
    229c:	e5942018 	ldr	r2, [r4, #24]
    22a0:	e2411001 	sub	r1, r1, #1
    22a4:	e59f6114 	ldr	r6, [pc, #276]	; 23c0 <DRAMC_init+0x1c8>
    22a8:	e1a021a2 	lsr	r2, r2, #3
    22ac:	e1a01501 	lsl	r1, r1, #10
    22b0:	e2422001 	sub	r2, r2, #1
    22b4:	e3811a03 	orr	r1, r1, #12288	; 0x3000
    22b8:	e1812302 	orr	r2, r1, r2, lsl #6
    22bc:	e1823003 	orr	r3, r2, r3
    22c0:	e5863004 	str	r3, [r6, #4]
    22c4:	e5943020 	ldr	r3, [r4, #32]
    22c8:	e20350ff 	and	r5, r3, #255	; 0xff
    22cc:	e7f32453 	ubfx	r2, r3, #8, #20
    22d0:	e203320f 	and	r3, r3, #-268435456	; 0xf0000000
    22d4:	e1825a05 	orr	r5, r2, r5, lsl #20
    22d8:	e1855003 	orr	r5, r5, r3
    22dc:	e58650a8 	str	r5, [r6, #168]	; 0xa8
    22e0:	ebffff93 	bl	2134 <DRAMC_clock_output_en>
    22e4:	e3a00010 	mov	r0, #16
    22e8:	ebfffbbd 	bl	11e4 <mem_delay>
    22ec:	e1a03006 	mov	r3, r6
    22f0:	e5932000 	ldr	r2, [r3]
    22f4:	e59f60c4 	ldr	r6, [pc, #196]	; 23c0 <DRAMC_init+0x1c8>
    22f8:	e3520000 	cmp	r2, #0
    22fc:	bafffffb 	blt	22f0 <DRAMC_init+0xf8>
    2300:	ebffff05 	bl	1f1c <mctl_enable_dllx>
    2304:	e5940004 	ldr	r0, [r4, #4]
    2308:	ebffff91 	bl	2154 <DRAMC_set_autorefresh_cycle>
    230c:	e594302c 	ldr	r3, [r4, #44]	; 0x2c
    2310:	e5863014 	str	r3, [r6, #20]
    2314:	e5943030 	ldr	r3, [r4, #48]	; 0x30
    2318:	e5863018 	str	r3, [r6, #24]
    231c:	e5943034 	ldr	r3, [r4, #52]	; 0x34
    2320:	e586301c 	str	r3, [r6, #28]
    2324:	e5943008 	ldr	r3, [r4, #8]
    2328:	e3530003 	cmp	r3, #3
    232c:	0594501c 	ldreq	r5, [r4, #28]
    2330:	02455004 	subeq	r5, r5, #4
    2334:	01a05205 	lsleq	r5, r5, #4
    2338:	03855c1a 	orreq	r5, r5, #6656	; 0x1a00
    233c:	0a000004 	beq	2354 <DRAMC_init+0x15c>
    2340:	e3530002 	cmp	r3, #2
    2344:	0594501c 	ldreq	r5, [r4, #28]
    2348:	01a05205 	lsleq	r5, r5, #4
    234c:	03855c0a 	orreq	r5, r5, #2560	; 0xa00
    2350:	03855002 	orreq	r5, r5, #2
    2354:	e59f3064 	ldr	r3, [pc, #100]	; 23c0 <DRAMC_init+0x1c8>
    2358:	e58351f0 	str	r5, [r3, #496]	; 0x1f0
    235c:	e5942044 	ldr	r2, [r4, #68]	; 0x44
    2360:	e58321f4 	str	r2, [r3, #500]	; 0x1f4
    2364:	e5942048 	ldr	r2, [r4, #72]	; 0x48
    2368:	e58321f8 	str	r2, [r3, #504]	; 0x1f8
    236c:	e594204c 	ldr	r2, [r4, #76]	; 0x4c
    2370:	e58321fc 	str	r2, [r3, #508]	; 0x1fc
    2374:	e5932000 	ldr	r2, [r3]
    2378:	e3822901 	orr	r2, r2, #16384	; 0x4000
    237c:	e3c22802 	bic	r2, r2, #131072	; 0x20000
    2380:	e5832000 	str	r2, [r3]
    2384:	e5932000 	ldr	r2, [r3]
    2388:	e3822102 	orr	r2, r2, #-2147483648	; 0x80000000
    238c:	e5832000 	str	r2, [r3]
    2390:	e5932000 	ldr	r2, [r3]
    2394:	e3520000 	cmp	r2, #0
    2398:	bafffffc 	blt	2390 <DRAMC_init+0x198>
    239c:	ebfffec3 	bl	1eb0 <mctl_itm_enable>
    23a0:	ebffff56 	bl	2100 <DRAMC_scan_readpipe>
    23a4:	e3500000 	cmp	r0, #0
    23a8:	ba000002 	blt	23b8 <DRAMC_init+0x1c0>
    23ac:	ebffff21 	bl	2038 <mctl_configure_hostport>
    23b0:	e8bd4070 	pop	{r4, r5, r6, lr}
    23b4:	eaffff72 	b	2184 <DRAMC_get_dram_size>
    23b8:	e3a00000 	mov	r0, #0
    23bc:	e8bd8070 	pop	{r4, r5, r6, pc}
    23c0:	f1c01000 			; <UNDEFINED> instruction: 0xf1c01000

000023c4 <dram_init>:
    23c4:	e3a00000 	mov	r0, #0
    23c8:	e12fff1e 	bx	lr

000023cc <get_boot0_dram_para>:
    23cc:	e59f1004 	ldr	r1, [pc, #4]	; 23d8 <get_boot0_dram_para+0xc>
    23d0:	e3a02050 	mov	r2, #80	; 0x50
    23d4:	eafff778 	b	1bc <mem_memcpy>
    23d8:	00003590 	muleq	r0, r0, r5

000023dc <init_DRAM>:
    23dc:	e92d4030 	push	{r4, r5, lr}
    23e0:	e24dd054 	sub	sp, sp, #84	; 0x54
    23e4:	e1a0000d 	mov	r0, sp
    23e8:	ebfffff7 	bl	23cc <get_boot0_dram_para>
    23ec:	e59d0004 	ldr	r0, [sp, #4]
    23f0:	e3500e7d 	cmp	r0, #2000	; 0x7d0
    23f4:	9a000003 	bls	2408 <init_DRAM+0x2c>
    23f8:	e3a01000 	mov	r1, #0
    23fc:	e59f2048 	ldr	r2, [pc, #72]	; 244c <init_DRAM+0x70>
    2400:	ebfffe6a 	bl	1db0 <mem_uldiv>
    2404:	e58d0004 	str	r0, [sp, #4]
    2408:	e3030010 	movw	r0, #12304	; 0x3010
    240c:	e3a04000 	mov	r4, #0
    2410:	eb00003f 	bl	2514 <save_mem_status>
    2414:	e1a05004 	mov	r5, r4
    2418:	ea000003 	b	242c <init_DRAM+0x50>
    241c:	e1a0000d 	mov	r0, sp
    2420:	e2855001 	add	r5, r5, #1
    2424:	ebffff73 	bl	21f8 <DRAMC_init>
    2428:	e1a04000 	mov	r4, r0
    242c:	e3550003 	cmp	r5, #3
    2430:	93540000 	cmpls	r4, #0
    2434:	0afffff8 	beq	241c <init_DRAM+0x40>
    2438:	e3030011 	movw	r0, #12305	; 0x3011
    243c:	eb000034 	bl	2514 <save_mem_status>
    2440:	e1a00004 	mov	r0, r4
    2444:	e28dd054 	add	sp, sp, #84	; 0x54
    2448:	e8bd8030 	pop	{r4, r5, pc}
    244c:	000f4240 	andeq	r4, pc, r0, asr #4

00002450 <dram_exit>:
    2450:	e3a00000 	mov	r0, #0
    2454:	e12fff1e 	bx	lr

00002458 <dram_get_size>:
    2458:	eaffff49 	b	2184 <DRAMC_get_dram_size>

0000245c <dram_set_clock>:
    245c:	eaffff02 	b	206c <mctl_setup_dram_clock>

00002460 <dram_set_drive>:
    2460:	eafffe84 	b	1e78 <mctl_set_drive>

00002464 <dram_set_autorefresh_cycle>:
    2464:	eaffff3a 	b	2154 <DRAMC_set_autorefresh_cycle>

00002468 <dram_scan_readpipe>:
    2468:	eaffff24 	b	2100 <DRAMC_scan_readpipe>

0000246c <raw_lib_udiv>:
    246c:	e2512000 	subs	r2, r1, #0
    2470:	e1a03000 	mov	r3, r0
    2474:	13a01000 	movne	r1, #0
    2478:	1a000002 	bne	2488 <raw_lib_udiv+0x1c>
    247c:	ea00000c 	b	24b4 <raw_lib_udiv+0x48>
    2480:	e1a02082 	lsl	r2, r2, #1
    2484:	e2811001 	add	r1, r1, #1
    2488:	e3520000 	cmp	r2, #0
    248c:	aafffffb 	bge	2480 <raw_lib_udiv+0x14>
    2490:	e3a00000 	mov	r0, #0
    2494:	e1530002 	cmp	r3, r2
    2498:	e1a00080 	lsl	r0, r0, #1
    249c:	20623003 	rsbcs	r3, r2, r3
    24a0:	23800001 	orrcs	r0, r0, #1
    24a4:	e2511001 	subs	r1, r1, #1
    24a8:	412fff1e 	bxmi	lr
    24ac:	e1a020a2 	lsr	r2, r2, #1
    24b0:	eafffff7 	b	2494 <raw_lib_udiv+0x28>
    24b4:	e1a00002 	mov	r0, r2
    24b8:	e12fff1e 	bx	lr

000024bc <busy_waiting>:
    24bc:	e24dd008 	sub	sp, sp, #8
    24c0:	e3a03001 	mov	r3, #1
    24c4:	e58d3004 	str	r3, [sp, #4]
    24c8:	e59d3004 	ldr	r3, [sp, #4]
    24cc:	e3530001 	cmp	r3, #1
    24d0:	0afffffc 	beq	24c8 <busy_waiting+0xc>
    24d4:	e28dd008 	add	sp, sp, #8
    24d8:	e12fff1e 	bx	lr

000024dc <fake_busy_waiting>:
    24dc:	e24dd008 	sub	sp, sp, #8
    24e0:	e3a03002 	mov	r3, #2
    24e4:	e58d3004 	str	r3, [sp, #4]
    24e8:	e59d3004 	ldr	r3, [sp, #4]
    24ec:	e3530001 	cmp	r3, #1
    24f0:	0afffffc 	beq	24e8 <fake_busy_waiting+0xc>
    24f4:	e28dd008 	add	sp, sp, #8
    24f8:	e12fff1e 	bx	lr

000024fc <save_mem_flag>:
    24fc:	e59f300c 	ldr	r3, [pc, #12]	; 2510 <save_mem_flag+0x14>
    2500:	e593223c 	ldr	r2, [r3, #572]	; 0x23c
    2504:	e3822001 	orr	r2, r2, #1
    2508:	e583223c 	str	r2, [r3, #572]	; 0x23c
    250c:	e12fff1e 	bx	lr
    2510:	f1c01000 			; <UNDEFINED> instruction: 0xf1c01000

00002514 <save_mem_status>:
    2514:	e24dd008 	sub	sp, sp, #8
    2518:	e58d0004 	str	r0, [sp, #4]
    251c:	e28dd008 	add	sp, sp, #8
    2520:	e12fff1e 	bx	lr

00002524 <get_mem_status>:
    2524:	e59f3004 	ldr	r3, [pc, #4]	; 2530 <get_mem_status+0xc>
    2528:	e5930004 	ldr	r0, [r3, #4]
    252c:	e12fff1e 	bx	lr
    2530:	c0200000 	eorgt	r0, r0, r0

00002534 <save_mem_status_nommu>:
    2534:	e24dd008 	sub	sp, sp, #8
    2538:	e58d0004 	str	r0, [sp, #4]
    253c:	e28dd008 	add	sp, sp, #8
    2540:	e12fff1e 	bx	lr

00002544 <save_sun5i_mem_status>:
    2544:	e24dd008 	sub	sp, sp, #8
    2548:	e59f3014 	ldr	r3, [pc, #20]	; 2564 <save_sun5i_mem_status+0x20>
    254c:	e58d0004 	str	r0, [sp, #4]
    2550:	e5930ffc 	ldr	r0, [r3, #4092]	; 0xffc
    2554:	e59d2004 	ldr	r2, [sp, #4]
    2558:	e5832ffc 	str	r2, [r3, #4092]	; 0xffc
    255c:	e28dd008 	add	sp, sp, #8
    2560:	e12fff1e 	bx	lr
    2564:	c010f000 	andsgt	pc, r0, r0

00002568 <save_sun5i_mem_status_nommu>:
    2568:	e24dd008 	sub	sp, sp, #8
    256c:	e59f3014 	ldr	r3, [pc, #20]	; 2588 <save_sun5i_mem_status_nommu+0x20>
    2570:	e58d0004 	str	r0, [sp, #4]
    2574:	e5930ffc 	ldr	r0, [r3, #4092]	; 0xffc
    2578:	e59d2004 	ldr	r2, [sp, #4]
    257c:	e5832ffc 	str	r2, [r3, #4092]	; 0xffc
    2580:	e28dd008 	add	sp, sp, #8
    2584:	e12fff1e 	bx	lr
    2588:	4010f000 	andsmi	pc, r0, r0

0000258c <get_cyclecount>:
    258c:	ee190f1d 	mrc	15, 0, r0, cr9, cr13, {0}
    2590:	e12fff1e 	bx	lr

00002594 <backup_perfcounter>:
    2594:	ee192f1c 	mrc	15, 0, r2, cr9, cr12, {0}
    2598:	e59f300c 	ldr	r3, [pc, #12]	; 25ac <backup_perfcounter+0x18>
    259c:	e5832000 	str	r2, [r3]
    25a0:	ee192f3c 	mrc	15, 0, r2, cr9, cr12, {1}
    25a4:	e5832004 	str	r2, [r3, #4]
    25a8:	e12fff1e 	bx	lr
    25ac:	00003854 	andeq	r3, r0, r4, asr r8

000025b0 <init_perfcounters>:
    25b0:	e3500000 	cmp	r0, #0
    25b4:	13a00007 	movne	r0, #7
    25b8:	03a00001 	moveq	r0, #1
    25bc:	e3510000 	cmp	r1, #0
    25c0:	13800008 	orrne	r0, r0, #8
    25c4:	e3800010 	orr	r0, r0, #16
    25c8:	ee090f1c 	mcr	15, 0, r0, cr9, cr12, {0}
    25cc:	e3a0313e 	mov	r3, #-2147483633	; 0x8000000f
    25d0:	ee093f3c 	mcr	15, 0, r3, cr9, cr12, {1}
    25d4:	ee093f7c 	mcr	15, 0, r3, cr9, cr12, {3}
    25d8:	e12fff1e 	bx	lr

000025dc <restore_perfcounter>:
    25dc:	e59f3014 	ldr	r3, [pc, #20]	; 25f8 <restore_perfcounter+0x1c>
    25e0:	e5933000 	ldr	r3, [r3]
    25e4:	ee093f1c 	mcr	15, 0, r3, cr9, cr12, {0}
    25e8:	e59f3008 	ldr	r3, [pc, #8]	; 25f8 <restore_perfcounter+0x1c>
    25ec:	e5933004 	ldr	r3, [r3, #4]
    25f0:	ee093f3c 	mcr	15, 0, r3, cr9, cr12, {1}
    25f4:	e12fff1e 	bx	lr
    25f8:	00003854 	andeq	r3, r0, r4, asr r8

000025fc <reset_counter>:
    25fc:	e3a03000 	mov	r3, #0
    2600:	ee193f1c 	mrc	15, 0, r3, cr9, cr12, {0}
    2604:	e2833004 	add	r3, r3, #4
    2608:	ee093f1c 	mcr	15, 0, r3, cr9, cr12, {0}
    260c:	e12fff1e 	bx	lr

00002610 <change_runtime_env>:
    2610:	e92d4073 	push	{r0, r1, r4, r5, r6, lr}
    2614:	e3a03000 	mov	r3, #0
    2618:	e58d3004 	str	r3, [sp, #4]
    261c:	e3500000 	cmp	r0, #0
    2620:	e59f30c4 	ldr	r3, [pc, #196]	; 26ec <change_runtime_env+0xdc>
    2624:	e59f50c4 	ldr	r5, [pc, #196]	; 26f0 <change_runtime_env+0xe0>
    2628:	11a05003 	movne	r5, r3
    262c:	ebffffd6 	bl	258c <get_cyclecount>
    2630:	e59f40bc 	ldr	r4, [pc, #188]	; 26f4 <change_runtime_env+0xe4>
    2634:	e1a06000 	mov	r6, r0
    2638:	ebffffd3 	bl	258c <get_cyclecount>
    263c:	e0660000 	rsb	r0, r6, r0
    2640:	e5840008 	str	r0, [r4, #8]
    2644:	e5953054 	ldr	r3, [r5, #84]	; 0x54
    2648:	e58d3004 	str	r3, [sp, #4]
    264c:	e59d3004 	ldr	r3, [sp, #4]
    2650:	e1a03823 	lsr	r3, r3, #16
    2654:	e58d3004 	str	r3, [sp, #4]
    2658:	e59d3004 	ldr	r3, [sp, #4]
    265c:	e2033003 	and	r3, r3, #3
    2660:	e58d3004 	str	r3, [sp, #4]
    2664:	e59d3004 	ldr	r3, [sp, #4]
    2668:	e3530000 	cmp	r3, #0
    266c:	02833020 	addeq	r3, r3, #32
    2670:	0a000003 	beq	2684 <change_runtime_env+0x74>
    2674:	e59d3004 	ldr	r3, [sp, #4]
    2678:	e3530001 	cmp	r3, #1
    267c:	1a000002 	bne	268c <change_runtime_env+0x7c>
    2680:	e3053dc0 	movw	r3, #24000	; 0x5dc0
    2684:	e584300c 	str	r3, [r4, #12]
    2688:	ea000016 	b	26e8 <change_runtime_env+0xd8>
    268c:	e59d3004 	ldr	r3, [sp, #4]
    2690:	e3530002 	cmp	r3, #2
    2694:	1a000013 	bne	26e8 <change_runtime_env+0xd8>
    2698:	e5953000 	ldr	r3, [r5]
    269c:	e3a02001 	mov	r2, #1
    26a0:	e305cdc0 	movw	ip, #24000	; 0x5dc0
    26a4:	e58d3004 	str	r3, [sp, #4]
    26a8:	e59d3004 	ldr	r3, [sp, #4]
    26ac:	e7e13853 	ubfx	r3, r3, #16, #2
    26b0:	e1a03312 	lsl	r3, r2, r3
    26b4:	e59d2004 	ldr	r2, [sp, #4]
    26b8:	e59d0004 	ldr	r0, [sp, #4]
    26bc:	e7e42452 	ubfx	r2, r2, #8, #5
    26c0:	e59d1004 	ldr	r1, [sp, #4]
    26c4:	e7e10250 	ubfx	r0, r0, #4, #2
    26c8:	e002029c 	mul	r2, ip, r2
    26cc:	e2011003 	and	r1, r1, #3
    26d0:	e2800001 	add	r0, r0, #1
    26d4:	e2811001 	add	r1, r1, #1
    26d8:	e0010391 	mul	r1, r1, r3
    26dc:	e0000290 	mul	r0, r0, r2
    26e0:	ebffff61 	bl	246c <raw_lib_udiv>
    26e4:	e584000c 	str	r0, [r4, #12]
    26e8:	e8bd807c 	pop	{r2, r3, r4, r5, r6, pc}
    26ec:	f1c20000 			; <UNDEFINED> instruction: 0xf1c20000
    26f0:	01c20000 	biceq	r0, r2, r0
    26f4:	00003854 	andeq	r3, r0, r4, asr r8

000026f8 <delay_us>:
    26f8:	e92d4070 	push	{r4, r5, r6, lr}
    26fc:	e1a05000 	mov	r5, r0
    2700:	e59f4040 	ldr	r4, [pc, #64]	; 2748 <delay_us+0x50>
    2704:	e594000c 	ldr	r0, [r4, #12]
    2708:	e3500ffa 	cmp	r0, #1000	; 0x3e8
    270c:	98bd8070 	popls	{r4, r5, r6, pc}
    2710:	e3a01ffa 	mov	r1, #1000	; 0x3e8
    2714:	ebffff54 	bl	246c <raw_lib_udiv>
    2718:	e1a06000 	mov	r6, r0
    271c:	ebffff9a 	bl	258c <get_cyclecount>
    2720:	e5943008 	ldr	r3, [r4, #8]
    2724:	e2866001 	add	r6, r6, #1
    2728:	e0633000 	rsb	r3, r3, r0
    272c:	e0253695 	mla	r5, r5, r6, r3
    2730:	ea000000 	b	2738 <delay_us+0x40>
    2734:	ebffff94 	bl	258c <get_cyclecount>
    2738:	e0650000 	rsb	r0, r5, r0
    273c:	e3500000 	cmp	r0, #0
    2740:	bafffffb 	blt	2734 <delay_us+0x3c>
    2744:	e8bd8070 	pop	{r4, r5, r6, pc}
    2748:	00003854 	andeq	r3, r0, r4, asr r8

0000274c <delay_ms>:
    274c:	e3a03ffa 	mov	r3, #1000	; 0x3e8
    2750:	e0000093 	mul	r0, r3, r0
    2754:	eaffffe7 	b	26f8 <delay_us>

00002758 <io_init>:
    2758:	e59f2008 	ldr	r2, [pc, #8]	; 2768 <io_init+0x10>
    275c:	e59f3008 	ldr	r3, [pc, #8]	; 276c <io_init+0x14>
    2760:	e5832890 	str	r2, [r3, #2192]	; 0x890
    2764:	e12fff1e 	bx	lr
    2768:	00111111 	andseq	r1, r1, r1, lsl r1
    276c:	f1c20000 			; <UNDEFINED> instruction: 0xf1c20000

00002770 <io_init_high>:
    2770:	e59f300c 	ldr	r3, [pc, #12]	; 2784 <io_init_high+0x14>
    2774:	e59328a0 	ldr	r2, [r3, #2208]	; 0x8a0
    2778:	e382203f 	orr	r2, r2, #63	; 0x3f
    277c:	e58328a0 	str	r2, [r3, #2208]	; 0x8a0
    2780:	e12fff1e 	bx	lr
    2784:	f1c20000 			; <UNDEFINED> instruction: 0xf1c20000

00002788 <io_init_low>:
    2788:	e59f300c 	ldr	r3, [pc, #12]	; 279c <io_init_low+0x14>
    278c:	e59328a0 	ldr	r2, [r3, #2208]	; 0x8a0
    2790:	e3c2203f 	bic	r2, r2, #63	; 0x3f
    2794:	e58328a0 	str	r2, [r3, #2208]	; 0x8a0
    2798:	e12fff1e 	bx	lr
    279c:	f1c20000 			; <UNDEFINED> instruction: 0xf1c20000

000027a0 <io_high>:
    27a0:	e92d4070 	push	{r4, r5, r6, lr}
    27a4:	e3a05001 	mov	r5, #1
    27a8:	e59f4020 	ldr	r4, [pc, #32]	; 27d0 <io_high+0x30>
    27ac:	e1a05015 	lsl	r5, r5, r0
    27b0:	e3020710 	movw	r0, #10000	; 0x2710
    27b4:	e59468a0 	ldr	r6, [r4, #2208]	; 0x8a0
    27b8:	e1c66005 	bic	r6, r6, r5
    27bc:	e58468a0 	str	r6, [r4, #2208]	; 0x8a0
    27c0:	ebffffcc 	bl	26f8 <delay_us>
    27c4:	e1865005 	orr	r5, r6, r5
    27c8:	e58458a0 	str	r5, [r4, #2208]	; 0x8a0
    27cc:	e8bd8070 	pop	{r4, r5, r6, pc}
    27d0:	f1c20000 			; <UNDEFINED> instruction: 0xf1c20000
	...

000027e0 <invalidate_dcache>:
    27e0:	f57ff05f 	dmb	sy
    27e4:	ee300f30 	mrc	15, 1, r0, cr0, cr0, {1}
    27e8:	e2103407 	ands	r3, r0, #117440512	; 0x7000000
    27ec:	e1a03ba3 	lsr	r3, r3, #23
    27f0:	0a00001a 	beq	2860 <inv_finished>
    27f4:	e3a0a000 	mov	sl, #0

000027f8 <inv_loop1>:
    27f8:	e08a20aa 	add	r2, sl, sl, lsr #1
    27fc:	e1a01230 	lsr	r1, r0, r2
    2800:	e2011007 	and	r1, r1, #7
    2804:	e3510002 	cmp	r1, #2
    2808:	ba000011 	blt	2854 <inv_skip>
    280c:	ee40af10 	mcr	15, 2, sl, cr0, cr0, {0}
    2810:	f57ff06f 	isb	sy
    2814:	ee301f10 	mrc	15, 1, r1, cr0, cr0, {0}
    2818:	e2012007 	and	r2, r1, #7
    281c:	e2822004 	add	r2, r2, #4
    2820:	e59f4100 	ldr	r4, [pc, #256]	; 2928 <clear_reg_context+0x38>
    2824:	e01441a1 	ands	r4, r4, r1, lsr #3
    2828:	e16f5f14 	clz	r5, r4
    282c:	e59f70f8 	ldr	r7, [pc, #248]	; 292c <clear_reg_context+0x3c>
    2830:	e01776a1 	ands	r7, r7, r1, lsr #13

00002834 <inv_loop2>:
    2834:	e1a09004 	mov	r9, r4

00002838 <inv_loop3>:
    2838:	e18ab519 	orr	fp, sl, r9, lsl r5
    283c:	e18bb217 	orr	fp, fp, r7, lsl r2
    2840:	ee07bf56 	mcr	15, 0, fp, cr7, cr6, {2}
    2844:	e2599001 	subs	r9, r9, #1
    2848:	aafffffa 	bge	2838 <inv_loop3>
    284c:	e2577001 	subs	r7, r7, #1
    2850:	aafffff7 	bge	2834 <inv_loop2>

00002854 <inv_skip>:
    2854:	e28aa002 	add	sl, sl, #2
    2858:	e153000a 	cmp	r3, sl
    285c:	caffffe5 	bgt	27f8 <inv_loop1>

00002860 <inv_finished>:
    2860:	e3a0a000 	mov	sl, #0
    2864:	ee40af10 	mcr	15, 2, sl, cr0, cr0, {0}
    2868:	f57ff04f 	dsb	sy
    286c:	f57ff06f 	isb	sy
    2870:	e1a0f00e 	mov	pc, lr
    2874:	e320f000 	nop	{0}
    2878:	e320f000 	nop	{0}
    287c:	e320f000 	nop	{0}

00002880 <jump_to_resume>:
    2880:	e1a0c000 	mov	ip, r0
    2884:	e1a08001 	mov	r8, r1
    2888:	ebffffd4 	bl	27e0 <invalidate_dcache>
    288c:	e1a01008 	mov	r1, r8
    2890:	e1a0e00c 	mov	lr, ip
    2894:	e8913fff 	ldm	r1, {r0, r1, r2, r3, r4, r5, r6, r7, r8, r9, sl, fp, ip, sp}
    2898:	e1a0f00e 	mov	pc, lr
    289c:	e320f000 	nop	{0}

000028a0 <jump_to_resume0>:
    28a0:	e1a0e000 	mov	lr, r0
    28a4:	e1a0f00e 	mov	pc, lr
    28a8:	e320f000 	nop	{0}
    28ac:	e320f000 	nop	{0}

000028b0 <jump_to_resume0_nommu>:
    28b0:	ee111f10 	mrc	15, 0, r1, cr1, cr0, {0}
    28b4:	e3c11a01 	bic	r1, r1, #4096	; 0x1000
    28b8:	e3c11007 	bic	r1, r1, #7
    28bc:	ee011f10 	mcr	15, 0, r1, cr1, cr0, {0}
    28c0:	ee103f10 	mrc	15, 0, r3, cr0, cr0, {0}
    28c4:	e1a03003 	mov	r3, r3
    28c8:	e1a03003 	mov	r3, r3
    28cc:	e1a0e000 	mov	lr, r0
    28d0:	f57ff06f 	isb	sy
    28d4:	e1a0f00e 	mov	pc, lr
    28d8:	e320f000 	nop	{0}
    28dc:	e320f000 	nop	{0}

000028e0 <save_runtime_context>:
    28e0:	e8803fff 	stm	r0, {r0, r1, r2, r3, r4, r5, r6, r7, r8, r9, sl, fp, ip, sp}
    28e4:	e1a0f00e 	mov	pc, lr
    28e8:	e320f000 	nop	{0}
    28ec:	e320f000 	nop	{0}

000028f0 <clear_reg_context>:
    28f0:	e3a00000 	mov	r0, #0
    28f4:	e3a01000 	mov	r1, #0
    28f8:	e3a02000 	mov	r2, #0
    28fc:	e3a03000 	mov	r3, #0
    2900:	e3a04000 	mov	r4, #0
    2904:	e3a05000 	mov	r5, #0
    2908:	e3a06000 	mov	r6, #0
    290c:	e3a07000 	mov	r7, #0
    2910:	e3a08000 	mov	r8, #0
    2914:	e3a09000 	mov	r9, #0
    2918:	e3a0a000 	mov	sl, #0
    291c:	e3a0b000 	mov	fp, #0
    2920:	e3a0c000 	mov	ip, #0
    2924:	e1a0f00e 	mov	pc, lr
    2928:	000003ff 	strdeq	r0, [r0], -pc	; <UNPREDICTABLE>
    292c:	00007fff 	strdeq	r7, [r0], -pc	; <UNPREDICTABLE>
	...

00002940 <save_mmu_state>:
    2940:	ee503f10 	mrc	15, 2, r3, cr0, cr0, {0}
    2944:	e5803000 	str	r3, [r0]
    2948:	ee113f50 	mrc	15, 0, r3, cr1, cr0, {2}
    294c:	e5803008 	str	r3, [r0, #8]
    2950:	ee133f10 	mrc	15, 0, r3, cr3, cr0, {0}
    2954:	e5803018 	str	r3, [r0, #24]
    2958:	ee123f10 	mrc	15, 0, r3, cr2, cr0, {0}
    295c:	e580300c 	str	r3, [r0, #12]
    2960:	ee123f30 	mrc	15, 0, r3, cr2, cr0, {1}
    2964:	e5803010 	str	r3, [r0, #16]
    2968:	ee123f50 	mrc	15, 0, r3, cr2, cr0, {2}
    296c:	e5803014 	str	r3, [r0, #20]
    2970:	ee113f10 	mrc	15, 0, r3, cr1, cr0, {0}
    2974:	e5803004 	str	r3, [r0, #4]
    2978:	e12fff1e 	bx	lr

0000297c <restore_mmu_state>:
    297c:	e5903000 	ldr	r3, [r0]
    2980:	ee403f10 	mcr	15, 2, r3, cr0, cr0, {0}
    2984:	e5903008 	ldr	r3, [r0, #8]
    2988:	ee013f50 	mcr	15, 0, r3, cr1, cr0, {2}
    298c:	e5903018 	ldr	r3, [r0, #24]
    2990:	ee033f10 	mcr	15, 0, r3, cr3, cr0, {0}
    2994:	e5903010 	ldr	r3, [r0, #16]
    2998:	ee023f10 	mcr	15, 0, r3, cr2, cr0, {0}
    299c:	ee023f30 	mcr	15, 0, r3, cr2, cr0, {1}
    29a0:	e5903014 	ldr	r3, [r0, #20]
    29a4:	ee023f50 	mcr	15, 0, r3, cr2, cr0, {2}
    29a8:	ea000004 	b	29c0 <__turn_mmu_on>
    29ac:	e320f000 	nop	{0}
    29b0:	e320f000 	nop	{0}
    29b4:	e320f000 	nop	{0}
    29b8:	e320f000 	nop	{0}
    29bc:	e320f000 	nop	{0}

000029c0 <__turn_mmu_on>:
    29c0:	e1a00000 	nop			; (mov r0, r0)
    29c4:	e5903004 	ldr	r3, [r0, #4]
    29c8:	ee013f10 	mcr	15, 0, r3, cr1, cr0, {0}
    29cc:	ee103f10 	mrc	15, 0, r3, cr0, cr0, {0}
    29d0:	e1a03003 	mov	r3, r3
    29d4:	e1a03003 	mov	r3, r3
    29d8:	f57ff06f 	isb	sy
    29dc:	e12fff1e 	bx	lr

000029e0 <set_ttbr0>:
    29e0:	ee123f30 	mrc	15, 0, r3, cr2, cr0, {1}
    29e4:	ee023f10 	mcr	15, 0, r3, cr2, cr0, {0}
    29e8:	f57ff06f 	isb	sy
    29ec:	e12fff1e 	bx	lr
    29f0:	e320f000 	nop	{0}
    29f4:	e320f000 	nop	{0}
    29f8:	e320f000 	nop	{0}
    29fc:	e320f000 	nop	{0}

00002a00 <__save_processor_state>:
    2a00:	ee503f10 	mrc	15, 2, r3, cr0, cr0, {0}
    2a04:	e5c03000 	strb	r3, [r0]
    2a08:	e7e72453 	ubfx	r2, r3, #8, #8
    2a0c:	e5c02001 	strb	r2, [r0, #1]
    2a10:	e7e72853 	ubfx	r2, r3, #16, #8
    2a14:	e1a03c23 	lsr	r3, r3, #24
    2a18:	e5c02002 	strb	r2, [r0, #2]
    2a1c:	e5c03003 	strb	r3, [r0, #3]
    2a20:	ee113f10 	mrc	15, 0, r3, cr1, cr0, {0}
    2a24:	e5c03004 	strb	r3, [r0, #4]
    2a28:	e7e72453 	ubfx	r2, r3, #8, #8
    2a2c:	e5c02005 	strb	r2, [r0, #5]
    2a30:	e7e72853 	ubfx	r2, r3, #16, #8
    2a34:	e1a03c23 	lsr	r3, r3, #24
    2a38:	e5c02006 	strb	r2, [r0, #6]
    2a3c:	e5c03007 	strb	r3, [r0, #7]
    2a40:	ee113f50 	mrc	15, 0, r3, cr1, cr0, {2}
    2a44:	e5c0300c 	strb	r3, [r0, #12]
    2a48:	e7e72453 	ubfx	r2, r3, #8, #8
    2a4c:	e5c0200d 	strb	r2, [r0, #13]
    2a50:	e7e72853 	ubfx	r2, r3, #16, #8
    2a54:	e1a03c23 	lsr	r3, r3, #24
    2a58:	e5c0200e 	strb	r2, [r0, #14]
    2a5c:	e5c0300f 	strb	r3, [r0, #15]
    2a60:	ee123f10 	mrc	15, 0, r3, cr2, cr0, {0}
    2a64:	e5c0301c 	strb	r3, [r0, #28]
    2a68:	e7e72453 	ubfx	r2, r3, #8, #8
    2a6c:	e5c0201d 	strb	r2, [r0, #29]
    2a70:	e7e72853 	ubfx	r2, r3, #16, #8
    2a74:	e1a03c23 	lsr	r3, r3, #24
    2a78:	e5c0201e 	strb	r2, [r0, #30]
    2a7c:	e5c0301f 	strb	r3, [r0, #31]
    2a80:	ee123f30 	mrc	15, 0, r3, cr2, cr0, {1}
    2a84:	e5c03020 	strb	r3, [r0, #32]
    2a88:	e7e72453 	ubfx	r2, r3, #8, #8
    2a8c:	e5c02021 	strb	r2, [r0, #33]	; 0x21
    2a90:	e7e72853 	ubfx	r2, r3, #16, #8
    2a94:	e1a03c23 	lsr	r3, r3, #24
    2a98:	e5c02022 	strb	r2, [r0, #34]	; 0x22
    2a9c:	e5c03023 	strb	r3, [r0, #35]	; 0x23
    2aa0:	ee123f50 	mrc	15, 0, r3, cr2, cr0, {2}
    2aa4:	e5c03024 	strb	r3, [r0, #36]	; 0x24
    2aa8:	e7e72453 	ubfx	r2, r3, #8, #8
    2aac:	e5c02025 	strb	r2, [r0, #37]	; 0x25
    2ab0:	e7e72853 	ubfx	r2, r3, #16, #8
    2ab4:	e1a03c23 	lsr	r3, r3, #24
    2ab8:	e5c02026 	strb	r2, [r0, #38]	; 0x26
    2abc:	e5c03027 	strb	r3, [r0, #39]	; 0x27
    2ac0:	ee133f10 	mrc	15, 0, r3, cr3, cr0, {0}
    2ac4:	e5c03028 	strb	r3, [r0, #40]	; 0x28
    2ac8:	e7e72453 	ubfx	r2, r3, #8, #8
    2acc:	e5c02029 	strb	r2, [r0, #41]	; 0x29
    2ad0:	e7e72853 	ubfx	r2, r3, #16, #8
    2ad4:	e1a03c23 	lsr	r3, r3, #24
    2ad8:	e5c0202a 	strb	r2, [r0, #42]	; 0x2a
    2adc:	e5c0302b 	strb	r3, [r0, #43]	; 0x2b
    2ae0:	ee153f10 	mrc	15, 0, r3, cr5, cr0, {0}
    2ae4:	e5c0302c 	strb	r3, [r0, #44]	; 0x2c
    2ae8:	e7e72453 	ubfx	r2, r3, #8, #8
    2aec:	e5c0202d 	strb	r2, [r0, #45]	; 0x2d
    2af0:	e7e72853 	ubfx	r2, r3, #16, #8
    2af4:	e1a03c23 	lsr	r3, r3, #24
    2af8:	e5c0202e 	strb	r2, [r0, #46]	; 0x2e
    2afc:	e5c0302f 	strb	r3, [r0, #47]	; 0x2f
    2b00:	ee153f30 	mrc	15, 0, r3, cr5, cr0, {1}
    2b04:	e5c03030 	strb	r3, [r0, #48]	; 0x30
    2b08:	e7e72453 	ubfx	r2, r3, #8, #8
    2b0c:	e5c02031 	strb	r2, [r0, #49]	; 0x31
    2b10:	e7e72853 	ubfx	r2, r3, #16, #8
    2b14:	e1a03c23 	lsr	r3, r3, #24
    2b18:	e5c02032 	strb	r2, [r0, #50]	; 0x32
    2b1c:	e5c03033 	strb	r3, [r0, #51]	; 0x33
    2b20:	ee153f11 	mrc	15, 0, r3, cr5, cr1, {0}
    2b24:	e5c03034 	strb	r3, [r0, #52]	; 0x34
    2b28:	e7e72453 	ubfx	r2, r3, #8, #8
    2b2c:	e5c02035 	strb	r2, [r0, #53]	; 0x35
    2b30:	e7e72853 	ubfx	r2, r3, #16, #8
    2b34:	e1a03c23 	lsr	r3, r3, #24
    2b38:	e5c02036 	strb	r2, [r0, #54]	; 0x36
    2b3c:	e5c03037 	strb	r3, [r0, #55]	; 0x37
    2b40:	ee153f31 	mrc	15, 0, r3, cr5, cr1, {1}
    2b44:	e5c03038 	strb	r3, [r0, #56]	; 0x38
    2b48:	e7e72453 	ubfx	r2, r3, #8, #8
    2b4c:	e5c02039 	strb	r2, [r0, #57]	; 0x39
    2b50:	e7e72853 	ubfx	r2, r3, #16, #8
    2b54:	e1a03c23 	lsr	r3, r3, #24
    2b58:	e5c0203a 	strb	r2, [r0, #58]	; 0x3a
    2b5c:	e5c0303b 	strb	r3, [r0, #59]	; 0x3b
    2b60:	ee163f10 	mrc	15, 0, r3, cr6, cr0, {0}
    2b64:	e5c0303c 	strb	r3, [r0, #60]	; 0x3c
    2b68:	e7e72453 	ubfx	r2, r3, #8, #8
    2b6c:	e5c0203d 	strb	r2, [r0, #61]	; 0x3d
    2b70:	e7e72853 	ubfx	r2, r3, #16, #8
    2b74:	e1a03c23 	lsr	r3, r3, #24
    2b78:	e5c0203e 	strb	r2, [r0, #62]	; 0x3e
    2b7c:	e5c0303f 	strb	r3, [r0, #63]	; 0x3f
    2b80:	ee163f50 	mrc	15, 0, r3, cr6, cr0, {2}
    2b84:	e5c03040 	strb	r3, [r0, #64]	; 0x40
    2b88:	e7e72453 	ubfx	r2, r3, #8, #8
    2b8c:	e5c02041 	strb	r2, [r0, #65]	; 0x41
    2b90:	e7e72853 	ubfx	r2, r3, #16, #8
    2b94:	e1a03c23 	lsr	r3, r3, #24
    2b98:	e5c02042 	strb	r2, [r0, #66]	; 0x42
    2b9c:	e5c03043 	strb	r3, [r0, #67]	; 0x43
    2ba0:	ee173f14 	mrc	15, 0, r3, cr7, cr4, {0}
    2ba4:	e5c03044 	strb	r3, [r0, #68]	; 0x44
    2ba8:	e7e72453 	ubfx	r2, r3, #8, #8
    2bac:	e5c02045 	strb	r2, [r0, #69]	; 0x45
    2bb0:	e7e72853 	ubfx	r2, r3, #16, #8
    2bb4:	e1a03c23 	lsr	r3, r3, #24
    2bb8:	e5c02046 	strb	r2, [r0, #70]	; 0x46
    2bbc:	e5c03047 	strb	r3, [r0, #71]	; 0x47
    2bc0:	ee193f1c 	mrc	15, 0, r3, cr9, cr12, {0}
    2bc4:	e5c03048 	strb	r3, [r0, #72]	; 0x48
    2bc8:	e7e72453 	ubfx	r2, r3, #8, #8
    2bcc:	e5c02049 	strb	r2, [r0, #73]	; 0x49
    2bd0:	e7e72853 	ubfx	r2, r3, #16, #8
    2bd4:	e1a03c23 	lsr	r3, r3, #24
    2bd8:	e5c0204a 	strb	r2, [r0, #74]	; 0x4a
    2bdc:	e5c0304b 	strb	r3, [r0, #75]	; 0x4b
    2be0:	ee193f3c 	mrc	15, 0, r3, cr9, cr12, {1}
    2be4:	e5c0304c 	strb	r3, [r0, #76]	; 0x4c
    2be8:	e7e72453 	ubfx	r2, r3, #8, #8
    2bec:	e5c0204d 	strb	r2, [r0, #77]	; 0x4d
    2bf0:	e7e72853 	ubfx	r2, r3, #16, #8
    2bf4:	e1a03c23 	lsr	r3, r3, #24
    2bf8:	e5c0204e 	strb	r2, [r0, #78]	; 0x4e
    2bfc:	e5c0304f 	strb	r3, [r0, #79]	; 0x4f
    2c00:	ee193f5c 	mrc	15, 0, r3, cr9, cr12, {2}
    2c04:	e5c03050 	strb	r3, [r0, #80]	; 0x50
    2c08:	e7e72453 	ubfx	r2, r3, #8, #8
    2c0c:	e5c02051 	strb	r2, [r0, #81]	; 0x51
    2c10:	e7e72853 	ubfx	r2, r3, #16, #8
    2c14:	e1a03c23 	lsr	r3, r3, #24
    2c18:	e5c02052 	strb	r2, [r0, #82]	; 0x52
    2c1c:	e5c03053 	strb	r3, [r0, #83]	; 0x53
    2c20:	ee193f7c 	mrc	15, 0, r3, cr9, cr12, {3}
    2c24:	e5c03054 	strb	r3, [r0, #84]	; 0x54
    2c28:	e7e72453 	ubfx	r2, r3, #8, #8
    2c2c:	e5c02055 	strb	r2, [r0, #85]	; 0x55
    2c30:	e7e72853 	ubfx	r2, r3, #16, #8
    2c34:	e1a03c23 	lsr	r3, r3, #24
    2c38:	e5c02056 	strb	r2, [r0, #86]	; 0x56
    2c3c:	e5c03057 	strb	r3, [r0, #87]	; 0x57
    2c40:	ee193f9c 	mrc	15, 0, r3, cr9, cr12, {4}
    2c44:	e5c03058 	strb	r3, [r0, #88]	; 0x58
    2c48:	e7e72453 	ubfx	r2, r3, #8, #8
    2c4c:	e5c02059 	strb	r2, [r0, #89]	; 0x59
    2c50:	e7e72853 	ubfx	r2, r3, #16, #8
    2c54:	e1a03c23 	lsr	r3, r3, #24
    2c58:	e5c0205a 	strb	r2, [r0, #90]	; 0x5a
    2c5c:	e5c0305b 	strb	r3, [r0, #91]	; 0x5b
    2c60:	ee193fbc 	mrc	15, 0, r3, cr9, cr12, {5}
    2c64:	e5c0305c 	strb	r3, [r0, #92]	; 0x5c
    2c68:	e7e72453 	ubfx	r2, r3, #8, #8
    2c6c:	e5c0205d 	strb	r2, [r0, #93]	; 0x5d
    2c70:	e7e72853 	ubfx	r2, r3, #16, #8
    2c74:	e1a03c23 	lsr	r3, r3, #24
    2c78:	e5c0205e 	strb	r2, [r0, #94]	; 0x5e
    2c7c:	e5c0305f 	strb	r3, [r0, #95]	; 0x5f
    2c80:	ee193f1d 	mrc	15, 0, r3, cr9, cr13, {0}
    2c84:	e5c03060 	strb	r3, [r0, #96]	; 0x60
    2c88:	e7e72453 	ubfx	r2, r3, #8, #8
    2c8c:	e5c02061 	strb	r2, [r0, #97]	; 0x61
    2c90:	e7e72853 	ubfx	r2, r3, #16, #8
    2c94:	e1a03c23 	lsr	r3, r3, #24
    2c98:	e5c02062 	strb	r2, [r0, #98]	; 0x62
    2c9c:	e5c03063 	strb	r3, [r0, #99]	; 0x63
    2ca0:	ee193f3d 	mrc	15, 0, r3, cr9, cr13, {1}
    2ca4:	e5c03064 	strb	r3, [r0, #100]	; 0x64
    2ca8:	e7e72453 	ubfx	r2, r3, #8, #8
    2cac:	e5c02065 	strb	r2, [r0, #101]	; 0x65
    2cb0:	e7e72853 	ubfx	r2, r3, #16, #8
    2cb4:	e1a03c23 	lsr	r3, r3, #24
    2cb8:	e5c02066 	strb	r2, [r0, #102]	; 0x66
    2cbc:	e5c03067 	strb	r3, [r0, #103]	; 0x67
    2cc0:	ee193f5d 	mrc	15, 0, r3, cr9, cr13, {2}
    2cc4:	e5c03068 	strb	r3, [r0, #104]	; 0x68
    2cc8:	e7e72453 	ubfx	r2, r3, #8, #8
    2ccc:	e5c02069 	strb	r2, [r0, #105]	; 0x69
    2cd0:	e7e72853 	ubfx	r2, r3, #16, #8
    2cd4:	e1a03c23 	lsr	r3, r3, #24
    2cd8:	e5c0206a 	strb	r2, [r0, #106]	; 0x6a
    2cdc:	e5c0306b 	strb	r3, [r0, #107]	; 0x6b
    2ce0:	ee193f1e 	mrc	15, 0, r3, cr9, cr14, {0}
    2ce4:	e5c0306c 	strb	r3, [r0, #108]	; 0x6c
    2ce8:	e7e72453 	ubfx	r2, r3, #8, #8
    2cec:	e5c0206d 	strb	r2, [r0, #109]	; 0x6d
    2cf0:	e7e72853 	ubfx	r2, r3, #16, #8
    2cf4:	e1a03c23 	lsr	r3, r3, #24
    2cf8:	e5c0206e 	strb	r2, [r0, #110]	; 0x6e
    2cfc:	e5c0306f 	strb	r3, [r0, #111]	; 0x6f
    2d00:	ee193f3e 	mrc	15, 0, r3, cr9, cr14, {1}
    2d04:	e5c03070 	strb	r3, [r0, #112]	; 0x70
    2d08:	e7e72453 	ubfx	r2, r3, #8, #8
    2d0c:	e5c02071 	strb	r2, [r0, #113]	; 0x71
    2d10:	e7e72853 	ubfx	r2, r3, #16, #8
    2d14:	e1a03c23 	lsr	r3, r3, #24
    2d18:	e5c02072 	strb	r2, [r0, #114]	; 0x72
    2d1c:	e5c03073 	strb	r3, [r0, #115]	; 0x73
    2d20:	ee193f5e 	mrc	15, 0, r3, cr9, cr14, {2}
    2d24:	e5c03074 	strb	r3, [r0, #116]	; 0x74
    2d28:	e7e72453 	ubfx	r2, r3, #8, #8
    2d2c:	e5c02075 	strb	r2, [r0, #117]	; 0x75
    2d30:	e7e72853 	ubfx	r2, r3, #16, #8
    2d34:	e1a03c23 	lsr	r3, r3, #24
    2d38:	e5c02076 	strb	r2, [r0, #118]	; 0x76
    2d3c:	e5c03077 	strb	r3, [r0, #119]	; 0x77
    2d40:	ee393f10 	mrc	15, 1, r3, cr9, cr0, {0}
    2d44:	e5c03078 	strb	r3, [r0, #120]	; 0x78
    2d48:	e7e72453 	ubfx	r2, r3, #8, #8
    2d4c:	e5c02079 	strb	r2, [r0, #121]	; 0x79
    2d50:	e7e72853 	ubfx	r2, r3, #16, #8
    2d54:	e1a03c23 	lsr	r3, r3, #24
    2d58:	e5c0207a 	strb	r2, [r0, #122]	; 0x7a
    2d5c:	e5c0307b 	strb	r3, [r0, #123]	; 0x7b
    2d60:	ee393f50 	mrc	15, 1, r3, cr9, cr0, {2}
    2d64:	e5c0307c 	strb	r3, [r0, #124]	; 0x7c
    2d68:	e7e72453 	ubfx	r2, r3, #8, #8
    2d6c:	e5c0207d 	strb	r2, [r0, #125]	; 0x7d
    2d70:	e7e72853 	ubfx	r2, r3, #16, #8
    2d74:	e1a03c23 	lsr	r3, r3, #24
    2d78:	e5c0207e 	strb	r2, [r0, #126]	; 0x7e
    2d7c:	e5c0307f 	strb	r3, [r0, #127]	; 0x7f
    2d80:	ee1a3f10 	mrc	15, 0, r3, cr10, cr0, {0}
    2d84:	e5c03080 	strb	r3, [r0, #128]	; 0x80
    2d88:	e7e72453 	ubfx	r2, r3, #8, #8
    2d8c:	e5c02081 	strb	r2, [r0, #129]	; 0x81
    2d90:	e7e72853 	ubfx	r2, r3, #16, #8
    2d94:	e1a03c23 	lsr	r3, r3, #24
    2d98:	e5c02082 	strb	r2, [r0, #130]	; 0x82
    2d9c:	e5c03083 	strb	r3, [r0, #131]	; 0x83
    2da0:	ee1a3f30 	mrc	15, 0, r3, cr10, cr0, {1}
    2da4:	e5c03084 	strb	r3, [r0, #132]	; 0x84
    2da8:	e7e72453 	ubfx	r2, r3, #8, #8
    2dac:	e5c02085 	strb	r2, [r0, #133]	; 0x85
    2db0:	e7e72853 	ubfx	r2, r3, #16, #8
    2db4:	e1a03c23 	lsr	r3, r3, #24
    2db8:	e5c02086 	strb	r2, [r0, #134]	; 0x86
    2dbc:	e5c03087 	strb	r3, [r0, #135]	; 0x87
    2dc0:	ee1a3f12 	mrc	15, 0, r3, cr10, cr2, {0}
    2dc4:	e5c03088 	strb	r3, [r0, #136]	; 0x88
    2dc8:	e7e72453 	ubfx	r2, r3, #8, #8
    2dcc:	e5c02089 	strb	r2, [r0, #137]	; 0x89
    2dd0:	e7e72853 	ubfx	r2, r3, #16, #8
    2dd4:	e1a03c23 	lsr	r3, r3, #24
    2dd8:	e5c0208a 	strb	r2, [r0, #138]	; 0x8a
    2ddc:	e5c0308b 	strb	r3, [r0, #139]	; 0x8b
    2de0:	ee1a3f32 	mrc	15, 0, r3, cr10, cr2, {1}
    2de4:	e5c0308c 	strb	r3, [r0, #140]	; 0x8c
    2de8:	e7e72453 	ubfx	r2, r3, #8, #8
    2dec:	e5c0208d 	strb	r2, [r0, #141]	; 0x8d
    2df0:	e7e72853 	ubfx	r2, r3, #16, #8
    2df4:	e1a03c23 	lsr	r3, r3, #24
    2df8:	e5c0208e 	strb	r2, [r0, #142]	; 0x8e
    2dfc:	e5c0308f 	strb	r3, [r0, #143]	; 0x8f
    2e00:	ee1b3f11 	mrc	15, 0, r3, cr11, cr1, {0}
    2e04:	e5c03090 	strb	r3, [r0, #144]	; 0x90
    2e08:	e7e72453 	ubfx	r2, r3, #8, #8
    2e0c:	e5c02091 	strb	r2, [r0, #145]	; 0x91
    2e10:	e7e72853 	ubfx	r2, r3, #16, #8
    2e14:	e1a03c23 	lsr	r3, r3, #24
    2e18:	e5c02092 	strb	r2, [r0, #146]	; 0x92
    2e1c:	e5c03093 	strb	r3, [r0, #147]	; 0x93
    2e20:	ee1b3f12 	mrc	15, 0, r3, cr11, cr2, {0}
    2e24:	e5c03094 	strb	r3, [r0, #148]	; 0x94
    2e28:	e7e72453 	ubfx	r2, r3, #8, #8
    2e2c:	e5c02095 	strb	r2, [r0, #149]	; 0x95
    2e30:	e7e72853 	ubfx	r2, r3, #16, #8
    2e34:	e1a03c23 	lsr	r3, r3, #24
    2e38:	e5c02096 	strb	r2, [r0, #150]	; 0x96
    2e3c:	e5c03097 	strb	r3, [r0, #151]	; 0x97
    2e40:	ee1b3f14 	mrc	15, 0, r3, cr11, cr4, {0}
    2e44:	e5c03098 	strb	r3, [r0, #152]	; 0x98
    2e48:	e7e72453 	ubfx	r2, r3, #8, #8
    2e4c:	e5c02099 	strb	r2, [r0, #153]	; 0x99
    2e50:	e7e72853 	ubfx	r2, r3, #16, #8
    2e54:	e1a03c23 	lsr	r3, r3, #24
    2e58:	e5c0209a 	strb	r2, [r0, #154]	; 0x9a
    2e5c:	e5c0309b 	strb	r3, [r0, #155]	; 0x9b
    2e60:	ee1b3f15 	mrc	15, 0, r3, cr11, cr5, {0}
    2e64:	e5c0309c 	strb	r3, [r0, #156]	; 0x9c
    2e68:	e7e72453 	ubfx	r2, r3, #8, #8
    2e6c:	e5c0209d 	strb	r2, [r0, #157]	; 0x9d
    2e70:	e7e72853 	ubfx	r2, r3, #16, #8
    2e74:	e1a03c23 	lsr	r3, r3, #24
    2e78:	e5c0209e 	strb	r2, [r0, #158]	; 0x9e
    2e7c:	e5c0309f 	strb	r3, [r0, #159]	; 0x9f
    2e80:	ee1b3f17 	mrc	15, 0, r3, cr11, cr7, {0}
    2e84:	e5c030a0 	strb	r3, [r0, #160]	; 0xa0
    2e88:	e7e72453 	ubfx	r2, r3, #8, #8
    2e8c:	e5c020a1 	strb	r2, [r0, #161]	; 0xa1
    2e90:	e7e72853 	ubfx	r2, r3, #16, #8
    2e94:	e1a03c23 	lsr	r3, r3, #24
    2e98:	e5c020a2 	strb	r2, [r0, #162]	; 0xa2
    2e9c:	e5c030a3 	strb	r3, [r0, #163]	; 0xa3
    2ea0:	ee1b3f1f 	mrc	15, 0, r3, cr11, cr15, {0}
    2ea4:	e5c030a4 	strb	r3, [r0, #164]	; 0xa4
    2ea8:	e7e72453 	ubfx	r2, r3, #8, #8
    2eac:	e5c020a5 	strb	r2, [r0, #165]	; 0xa5
    2eb0:	e7e72853 	ubfx	r2, r3, #16, #8
    2eb4:	e1a03c23 	lsr	r3, r3, #24
    2eb8:	e5c020a6 	strb	r2, [r0, #166]	; 0xa6
    2ebc:	e5c030a7 	strb	r3, [r0, #167]	; 0xa7
    2ec0:	ee1c3f10 	mrc	15, 0, r3, cr12, cr0, {0}
    2ec4:	e5c030a8 	strb	r3, [r0, #168]	; 0xa8
    2ec8:	e7e72453 	ubfx	r2, r3, #8, #8
    2ecc:	e5c020a9 	strb	r2, [r0, #169]	; 0xa9
    2ed0:	e7e72853 	ubfx	r2, r3, #16, #8
    2ed4:	e1a03c23 	lsr	r3, r3, #24
    2ed8:	e5c020aa 	strb	r2, [r0, #170]	; 0xaa
    2edc:	e5c030ab 	strb	r3, [r0, #171]	; 0xab
    2ee0:	ee1c3f30 	mrc	15, 0, r3, cr12, cr0, {1}
    2ee4:	e5c030ac 	strb	r3, [r0, #172]	; 0xac
    2ee8:	e7e72453 	ubfx	r2, r3, #8, #8
    2eec:	e5c020ad 	strb	r2, [r0, #173]	; 0xad
    2ef0:	e7e72853 	ubfx	r2, r3, #16, #8
    2ef4:	e1a03c23 	lsr	r3, r3, #24
    2ef8:	e5c020ae 	strb	r2, [r0, #174]	; 0xae
    2efc:	e5c030af 	strb	r3, [r0, #175]	; 0xaf
    2f00:	ee1d3f10 	mrc	15, 0, r3, cr13, cr0, {0}
    2f04:	e5c030b0 	strb	r3, [r0, #176]	; 0xb0
    2f08:	e7e72453 	ubfx	r2, r3, #8, #8
    2f0c:	e5c020b1 	strb	r2, [r0, #177]	; 0xb1
    2f10:	e7e72853 	ubfx	r2, r3, #16, #8
    2f14:	e1a03c23 	lsr	r3, r3, #24
    2f18:	e5c020b2 	strb	r2, [r0, #178]	; 0xb2
    2f1c:	e5c030b3 	strb	r3, [r0, #179]	; 0xb3
    2f20:	ee1d3f30 	mrc	15, 0, r3, cr13, cr0, {1}
    2f24:	e5c030b4 	strb	r3, [r0, #180]	; 0xb4
    2f28:	e7e72453 	ubfx	r2, r3, #8, #8
    2f2c:	e5c020b5 	strb	r2, [r0, #181]	; 0xb5
    2f30:	e7e72853 	ubfx	r2, r3, #16, #8
    2f34:	e1a03c23 	lsr	r3, r3, #24
    2f38:	e5c020b6 	strb	r2, [r0, #182]	; 0xb6
    2f3c:	e5c030b7 	strb	r3, [r0, #183]	; 0xb7
    2f40:	ee1d3f50 	mrc	15, 0, r3, cr13, cr0, {2}
    2f44:	e5c030b8 	strb	r3, [r0, #184]	; 0xb8
    2f48:	e7e72453 	ubfx	r2, r3, #8, #8
    2f4c:	e5c020b9 	strb	r2, [r0, #185]	; 0xb9
    2f50:	e7e72853 	ubfx	r2, r3, #16, #8
    2f54:	e1a03c23 	lsr	r3, r3, #24
    2f58:	e5c020ba 	strb	r2, [r0, #186]	; 0xba
    2f5c:	e5c030bb 	strb	r3, [r0, #187]	; 0xbb
    2f60:	ee1d3f70 	mrc	15, 0, r3, cr13, cr0, {3}
    2f64:	e7e72453 	ubfx	r2, r3, #8, #8
    2f68:	e5c030bc 	strb	r3, [r0, #188]	; 0xbc
    2f6c:	e5c020bd 	strb	r2, [r0, #189]	; 0xbd
    2f70:	e7e72853 	ubfx	r2, r3, #16, #8
    2f74:	e1a03c23 	lsr	r3, r3, #24
    2f78:	e5c020be 	strb	r2, [r0, #190]	; 0xbe
    2f7c:	e5c030bf 	strb	r3, [r0, #191]	; 0xbf
    2f80:	ee1d3f90 	mrc	15, 0, r3, cr13, cr0, {4}
    2f84:	e7e72453 	ubfx	r2, r3, #8, #8
    2f88:	e5c030c0 	strb	r3, [r0, #192]	; 0xc0
    2f8c:	e5c020c1 	strb	r2, [r0, #193]	; 0xc1
    2f90:	e7e72853 	ubfx	r2, r3, #16, #8
    2f94:	e1a03c23 	lsr	r3, r3, #24
    2f98:	e5c020c2 	strb	r2, [r0, #194]	; 0xc2
    2f9c:	e5c030c3 	strb	r3, [r0, #195]	; 0xc3
    2fa0:	e12fff1e 	bx	lr

00002fa4 <__restore_processor_state>:
    2fa4:	e5d02001 	ldrb	r2, [r0, #1]
    2fa8:	e5d03000 	ldrb	r3, [r0]
    2fac:	e1833402 	orr	r3, r3, r2, lsl #8
    2fb0:	e5d02002 	ldrb	r2, [r0, #2]
    2fb4:	e1833802 	orr	r3, r3, r2, lsl #16
    2fb8:	e5d02003 	ldrb	r2, [r0, #3]
    2fbc:	e1833c02 	orr	r3, r3, r2, lsl #24
    2fc0:	ee403f10 	mcr	15, 2, r3, cr0, cr0, {0}
    2fc4:	e5d0200d 	ldrb	r2, [r0, #13]
    2fc8:	e5d0300c 	ldrb	r3, [r0, #12]
    2fcc:	e1833402 	orr	r3, r3, r2, lsl #8
    2fd0:	e5d0200e 	ldrb	r2, [r0, #14]
    2fd4:	e1833802 	orr	r3, r3, r2, lsl #16
    2fd8:	e5d0200f 	ldrb	r2, [r0, #15]
    2fdc:	e1833c02 	orr	r3, r3, r2, lsl #24
    2fe0:	ee013f50 	mcr	15, 0, r3, cr1, cr0, {2}
    2fe4:	e5d0201d 	ldrb	r2, [r0, #29]
    2fe8:	e5d0301c 	ldrb	r3, [r0, #28]
    2fec:	e1833402 	orr	r3, r3, r2, lsl #8
    2ff0:	e5d0201e 	ldrb	r2, [r0, #30]
    2ff4:	e1833802 	orr	r3, r3, r2, lsl #16
    2ff8:	e5d0201f 	ldrb	r2, [r0, #31]
    2ffc:	e1833c02 	orr	r3, r3, r2, lsl #24
    3000:	ee023f10 	mcr	15, 0, r3, cr2, cr0, {0}
    3004:	f57ff04f 	dsb	sy
    3008:	f57ff06f 	isb	sy
    300c:	e5d02021 	ldrb	r2, [r0, #33]	; 0x21
    3010:	e5d03020 	ldrb	r3, [r0, #32]
    3014:	e1833402 	orr	r3, r3, r2, lsl #8
    3018:	e5d02022 	ldrb	r2, [r0, #34]	; 0x22
    301c:	e1833802 	orr	r3, r3, r2, lsl #16
    3020:	e5d02023 	ldrb	r2, [r0, #35]	; 0x23
    3024:	e1833c02 	orr	r3, r3, r2, lsl #24
    3028:	ee023f30 	mcr	15, 0, r3, cr2, cr0, {1}
    302c:	f57ff04f 	dsb	sy
    3030:	f57ff06f 	isb	sy
    3034:	e5d02025 	ldrb	r2, [r0, #37]	; 0x25
    3038:	e5d03024 	ldrb	r3, [r0, #36]	; 0x24
    303c:	e1833402 	orr	r3, r3, r2, lsl #8
    3040:	e5d02026 	ldrb	r2, [r0, #38]	; 0x26
    3044:	e1833802 	orr	r3, r3, r2, lsl #16
    3048:	e5d02027 	ldrb	r2, [r0, #39]	; 0x27
    304c:	e1833c02 	orr	r3, r3, r2, lsl #24
    3050:	ee023f50 	mcr	15, 0, r3, cr2, cr0, {2}
    3054:	f57ff04f 	dsb	sy
    3058:	f57ff06f 	isb	sy
    305c:	e5d02029 	ldrb	r2, [r0, #41]	; 0x29
    3060:	e5d03028 	ldrb	r3, [r0, #40]	; 0x28
    3064:	e1833402 	orr	r3, r3, r2, lsl #8
    3068:	e5d0202a 	ldrb	r2, [r0, #42]	; 0x2a
    306c:	e1833802 	orr	r3, r3, r2, lsl #16
    3070:	e5d0202b 	ldrb	r2, [r0, #43]	; 0x2b
    3074:	e1833c02 	orr	r3, r3, r2, lsl #24
    3078:	ee033f10 	mcr	15, 0, r3, cr3, cr0, {0}
    307c:	e5d02045 	ldrb	r2, [r0, #69]	; 0x45
    3080:	e5d03044 	ldrb	r3, [r0, #68]	; 0x44
    3084:	e1833402 	orr	r3, r3, r2, lsl #8
    3088:	e5d02046 	ldrb	r2, [r0, #70]	; 0x46
    308c:	e1833802 	orr	r3, r3, r2, lsl #16
    3090:	e5d02047 	ldrb	r2, [r0, #71]	; 0x47
    3094:	e1833c02 	orr	r3, r3, r2, lsl #24
    3098:	ee073f14 	mcr	15, 0, r3, cr7, cr4, {0}
    309c:	e5d0206d 	ldrb	r2, [r0, #109]	; 0x6d
    30a0:	e5d0306c 	ldrb	r3, [r0, #108]	; 0x6c
    30a4:	e1833402 	orr	r3, r3, r2, lsl #8
    30a8:	e5d0206e 	ldrb	r2, [r0, #110]	; 0x6e
    30ac:	e1833802 	orr	r3, r3, r2, lsl #16
    30b0:	e5d0206f 	ldrb	r2, [r0, #111]	; 0x6f
    30b4:	e1833c02 	orr	r3, r3, r2, lsl #24
    30b8:	ee093f1e 	mcr	15, 0, r3, cr9, cr14, {0}
    30bc:	e5d02071 	ldrb	r2, [r0, #113]	; 0x71
    30c0:	e5d03070 	ldrb	r3, [r0, #112]	; 0x70
    30c4:	e1833402 	orr	r3, r3, r2, lsl #8
    30c8:	e5d02072 	ldrb	r2, [r0, #114]	; 0x72
    30cc:	e1833802 	orr	r3, r3, r2, lsl #16
    30d0:	e5d02073 	ldrb	r2, [r0, #115]	; 0x73
    30d4:	e1833c02 	orr	r3, r3, r2, lsl #24
    30d8:	ee093f3e 	mcr	15, 0, r3, cr9, cr14, {1}
    30dc:	e5d02075 	ldrb	r2, [r0, #117]	; 0x75
    30e0:	e5d03074 	ldrb	r3, [r0, #116]	; 0x74
    30e4:	e1833402 	orr	r3, r3, r2, lsl #8
    30e8:	e5d02076 	ldrb	r2, [r0, #118]	; 0x76
    30ec:	e1833802 	orr	r3, r3, r2, lsl #16
    30f0:	e5d02077 	ldrb	r2, [r0, #119]	; 0x77
    30f4:	e1833c02 	orr	r3, r3, r2, lsl #24
    30f8:	ee093f5e 	mcr	15, 0, r3, cr9, cr14, {2}
    30fc:	e5d02079 	ldrb	r2, [r0, #121]	; 0x79
    3100:	e5d03078 	ldrb	r3, [r0, #120]	; 0x78
    3104:	e1833402 	orr	r3, r3, r2, lsl #8
    3108:	e5d0207a 	ldrb	r2, [r0, #122]	; 0x7a
    310c:	e1833802 	orr	r3, r3, r2, lsl #16
    3110:	e5d0207b 	ldrb	r2, [r0, #123]	; 0x7b
    3114:	e1833c02 	orr	r3, r3, r2, lsl #24
    3118:	ee293f10 	mcr	15, 1, r3, cr9, cr0, {0}
    311c:	e5d0207d 	ldrb	r2, [r0, #125]	; 0x7d
    3120:	e5d0307c 	ldrb	r3, [r0, #124]	; 0x7c
    3124:	e1833402 	orr	r3, r3, r2, lsl #8
    3128:	e5d0207e 	ldrb	r2, [r0, #126]	; 0x7e
    312c:	e1833802 	orr	r3, r3, r2, lsl #16
    3130:	e5d0207f 	ldrb	r2, [r0, #127]	; 0x7f
    3134:	e1833c02 	orr	r3, r3, r2, lsl #24
    3138:	ee293f50 	mcr	15, 1, r3, cr9, cr0, {2}
    313c:	e5d02089 	ldrb	r2, [r0, #137]	; 0x89
    3140:	e5d03088 	ldrb	r3, [r0, #136]	; 0x88
    3144:	e1833402 	orr	r3, r3, r2, lsl #8
    3148:	e5d0208a 	ldrb	r2, [r0, #138]	; 0x8a
    314c:	e1833802 	orr	r3, r3, r2, lsl #16
    3150:	e5d0208b 	ldrb	r2, [r0, #139]	; 0x8b
    3154:	e1833c02 	orr	r3, r3, r2, lsl #24
    3158:	ee0a3f12 	mcr	15, 0, r3, cr10, cr2, {0}
    315c:	e5d0208d 	ldrb	r2, [r0, #141]	; 0x8d
    3160:	e5d0308c 	ldrb	r3, [r0, #140]	; 0x8c
    3164:	e1833402 	orr	r3, r3, r2, lsl #8
    3168:	e5d0208e 	ldrb	r2, [r0, #142]	; 0x8e
    316c:	e1833802 	orr	r3, r3, r2, lsl #16
    3170:	e5d0208f 	ldrb	r2, [r0, #143]	; 0x8f
    3174:	e1833c02 	orr	r3, r3, r2, lsl #24
    3178:	ee0a3f32 	mcr	15, 0, r3, cr10, cr2, {1}
    317c:	e5d02091 	ldrb	r2, [r0, #145]	; 0x91
    3180:	e5d03090 	ldrb	r3, [r0, #144]	; 0x90
    3184:	e1833402 	orr	r3, r3, r2, lsl #8
    3188:	e5d02092 	ldrb	r2, [r0, #146]	; 0x92
    318c:	e1833802 	orr	r3, r3, r2, lsl #16
    3190:	e5d02093 	ldrb	r2, [r0, #147]	; 0x93
    3194:	e1833c02 	orr	r3, r3, r2, lsl #24
    3198:	ee0b3f11 	mcr	15, 0, r3, cr11, cr1, {0}
    319c:	e5d02095 	ldrb	r2, [r0, #149]	; 0x95
    31a0:	e5d03094 	ldrb	r3, [r0, #148]	; 0x94
    31a4:	e1833402 	orr	r3, r3, r2, lsl #8
    31a8:	e5d02096 	ldrb	r2, [r0, #150]	; 0x96
    31ac:	e1833802 	orr	r3, r3, r2, lsl #16
    31b0:	e5d02097 	ldrb	r2, [r0, #151]	; 0x97
    31b4:	e1833c02 	orr	r3, r3, r2, lsl #24
    31b8:	ee0b3f12 	mcr	15, 0, r3, cr11, cr2, {0}
    31bc:	e5d02099 	ldrb	r2, [r0, #153]	; 0x99
    31c0:	e5d03098 	ldrb	r3, [r0, #152]	; 0x98
    31c4:	e1833402 	orr	r3, r3, r2, lsl #8
    31c8:	e5d0209a 	ldrb	r2, [r0, #154]	; 0x9a
    31cc:	e1833802 	orr	r3, r3, r2, lsl #16
    31d0:	e5d0209b 	ldrb	r2, [r0, #155]	; 0x9b
    31d4:	e1833c02 	orr	r3, r3, r2, lsl #24
    31d8:	ee0b3f14 	mcr	15, 0, r3, cr11, cr4, {0}
    31dc:	e5d0209d 	ldrb	r2, [r0, #157]	; 0x9d
    31e0:	e5d0309c 	ldrb	r3, [r0, #156]	; 0x9c
    31e4:	e1833402 	orr	r3, r3, r2, lsl #8
    31e8:	e5d0209e 	ldrb	r2, [r0, #158]	; 0x9e
    31ec:	e1833802 	orr	r3, r3, r2, lsl #16
    31f0:	e5d0209f 	ldrb	r2, [r0, #159]	; 0x9f
    31f4:	e1833c02 	orr	r3, r3, r2, lsl #24
    31f8:	ee0b3f15 	mcr	15, 0, r3, cr11, cr5, {0}
    31fc:	e5d020a1 	ldrb	r2, [r0, #161]	; 0xa1
    3200:	e5d030a0 	ldrb	r3, [r0, #160]	; 0xa0
    3204:	e1833402 	orr	r3, r3, r2, lsl #8
    3208:	e5d020a2 	ldrb	r2, [r0, #162]	; 0xa2
    320c:	e1833802 	orr	r3, r3, r2, lsl #16
    3210:	e5d020a3 	ldrb	r2, [r0, #163]	; 0xa3
    3214:	e1833c02 	orr	r3, r3, r2, lsl #24
    3218:	ee0b3f17 	mcr	15, 0, r3, cr11, cr7, {0}
    321c:	e5d020a5 	ldrb	r2, [r0, #165]	; 0xa5
    3220:	e5d030a4 	ldrb	r3, [r0, #164]	; 0xa4
    3224:	e1833402 	orr	r3, r3, r2, lsl #8
    3228:	e5d020a6 	ldrb	r2, [r0, #166]	; 0xa6
    322c:	e1833802 	orr	r3, r3, r2, lsl #16
    3230:	e5d020a7 	ldrb	r2, [r0, #167]	; 0xa7
    3234:	e1833c02 	orr	r3, r3, r2, lsl #24
    3238:	ee0b3f1f 	mcr	15, 0, r3, cr11, cr15, {0}
    323c:	e5d020a9 	ldrb	r2, [r0, #169]	; 0xa9
    3240:	e5d030a8 	ldrb	r3, [r0, #168]	; 0xa8
    3244:	e1833402 	orr	r3, r3, r2, lsl #8
    3248:	e5d020aa 	ldrb	r2, [r0, #170]	; 0xaa
    324c:	e1833802 	orr	r3, r3, r2, lsl #16
    3250:	e5d020ab 	ldrb	r2, [r0, #171]	; 0xab
    3254:	e1833c02 	orr	r3, r3, r2, lsl #24
    3258:	ee0c3f10 	mcr	15, 0, r3, cr12, cr0, {0}
    325c:	e5d020ad 	ldrb	r2, [r0, #173]	; 0xad
    3260:	e5d030ac 	ldrb	r3, [r0, #172]	; 0xac
    3264:	e1833402 	orr	r3, r3, r2, lsl #8
    3268:	e5d020ae 	ldrb	r2, [r0, #174]	; 0xae
    326c:	e1833802 	orr	r3, r3, r2, lsl #16
    3270:	e5d020af 	ldrb	r2, [r0, #175]	; 0xaf
    3274:	e1833c02 	orr	r3, r3, r2, lsl #24
    3278:	ee0c3f30 	mcr	15, 0, r3, cr12, cr0, {1}
    327c:	e5d020b1 	ldrb	r2, [r0, #177]	; 0xb1
    3280:	e5d030b0 	ldrb	r3, [r0, #176]	; 0xb0
    3284:	e1833402 	orr	r3, r3, r2, lsl #8
    3288:	e5d020b2 	ldrb	r2, [r0, #178]	; 0xb2
    328c:	e1833802 	orr	r3, r3, r2, lsl #16
    3290:	e5d020b3 	ldrb	r2, [r0, #179]	; 0xb3
    3294:	e1833c02 	orr	r3, r3, r2, lsl #24
    3298:	ee0d3f10 	mcr	15, 0, r3, cr13, cr0, {0}
    329c:	e5d020b5 	ldrb	r2, [r0, #181]	; 0xb5
    32a0:	e5d030b4 	ldrb	r3, [r0, #180]	; 0xb4
    32a4:	e1833402 	orr	r3, r3, r2, lsl #8
    32a8:	e5d020b6 	ldrb	r2, [r0, #182]	; 0xb6
    32ac:	e1833802 	orr	r3, r3, r2, lsl #16
    32b0:	e5d020b7 	ldrb	r2, [r0, #183]	; 0xb7
    32b4:	e1833c02 	orr	r3, r3, r2, lsl #24
    32b8:	ee0d3f30 	mcr	15, 0, r3, cr13, cr0, {1}
    32bc:	e5d020b9 	ldrb	r2, [r0, #185]	; 0xb9
    32c0:	e5d030b8 	ldrb	r3, [r0, #184]	; 0xb8
    32c4:	e1833402 	orr	r3, r3, r2, lsl #8
    32c8:	e5d020ba 	ldrb	r2, [r0, #186]	; 0xba
    32cc:	e1833802 	orr	r3, r3, r2, lsl #16
    32d0:	e5d020bb 	ldrb	r2, [r0, #187]	; 0xbb
    32d4:	e1833c02 	orr	r3, r3, r2, lsl #24
    32d8:	ee0d3f50 	mcr	15, 0, r3, cr13, cr0, {2}
    32dc:	e5d020bd 	ldrb	r2, [r0, #189]	; 0xbd
    32e0:	e5d030bc 	ldrb	r3, [r0, #188]	; 0xbc
    32e4:	e1833402 	orr	r3, r3, r2, lsl #8
    32e8:	e5d020be 	ldrb	r2, [r0, #190]	; 0xbe
    32ec:	e1833802 	orr	r3, r3, r2, lsl #16
    32f0:	e5d020bf 	ldrb	r2, [r0, #191]	; 0xbf
    32f4:	e1833c02 	orr	r3, r3, r2, lsl #24
    32f8:	ee0d3f70 	mcr	15, 0, r3, cr13, cr0, {3}
    32fc:	e5d020c1 	ldrb	r2, [r0, #193]	; 0xc1
    3300:	e5d030c0 	ldrb	r3, [r0, #192]	; 0xc0
    3304:	e1833402 	orr	r3, r3, r2, lsl #8
    3308:	e5d020c2 	ldrb	r2, [r0, #194]	; 0xc2
    330c:	e1833802 	orr	r3, r3, r2, lsl #16
    3310:	e5d020c3 	ldrb	r2, [r0, #195]	; 0xc3
    3314:	e1833c02 	orr	r3, r3, r2, lsl #24
    3318:	ee0d3f90 	mcr	15, 0, r3, cr13, cr0, {4}
    331c:	f57ff04f 	dsb	sy
    3320:	f57ff06f 	isb	sy
    3324:	e12fff1e 	bx	lr

00003328 <mem_restore_processor_state>:
    3328:	e12fff1e 	bx	lr

0000332c <disable_cache_invalidate>:
    332c:	e59f300c 	ldr	r3, [pc, #12]	; 3340 <disable_cache_invalidate+0x14>
    3330:	e5932d3c 	ldr	r2, [r3, #3388]	; 0xd3c
    3334:	e3822003 	orr	r2, r2, #3
    3338:	e5832d3c 	str	r2, [r3, #3388]	; 0xd3c
    333c:	e12fff1e 	bx	lr
    3340:	f1c20000 			; <UNDEFINED> instruction: 0xf1c20000

00003344 <set_copro_default>:
    3344:	e3a03002 	mov	r3, #2
    3348:	ee403f10 	mcr	15, 2, r3, cr0, cr0, {0}
    334c:	e59f30b8 	ldr	r3, [pc, #184]	; 340c <set_copro_default+0xc8>
    3350:	ee013f10 	mcr	15, 0, r3, cr1, cr0, {0}
    3354:	e3a03002 	mov	r3, #2
    3358:	ee013f30 	mcr	15, 0, r3, cr1, cr0, {1}
    335c:	e3a03000 	mov	r3, #0
    3360:	ee013f50 	mcr	15, 0, r3, cr1, cr0, {2}
    3364:	ee013f11 	mcr	15, 0, r3, cr1, cr1, {0}
    3368:	ee013f31 	mcr	15, 0, r3, cr1, cr1, {1}
    336c:	ee013f51 	mcr	15, 0, r3, cr1, cr1, {2}
    3370:	ee023f10 	mcr	15, 0, r3, cr2, cr0, {0}
    3374:	ee023f30 	mcr	15, 0, r3, cr2, cr0, {1}
    3378:	ee023f50 	mcr	15, 0, r3, cr2, cr0, {2}
    337c:	ee033f10 	mcr	15, 0, r3, cr3, cr0, {0}
    3380:	ee053f10 	mcr	15, 0, r3, cr5, cr0, {0}
    3384:	ee053f30 	mcr	15, 0, r3, cr5, cr0, {1}
    3388:	ee053f11 	mcr	15, 0, r3, cr5, cr1, {0}
    338c:	ee053f31 	mcr	15, 0, r3, cr5, cr1, {1}
    3390:	ee063f10 	mcr	15, 0, r3, cr6, cr0, {0}
    3394:	ee063f50 	mcr	15, 0, r3, cr6, cr0, {2}
    3398:	ee073f14 	mcr	15, 0, r3, cr7, cr4, {0}
    339c:	ee093f1e 	mcr	15, 0, r3, cr9, cr14, {0}
    33a0:	ee093f3e 	mcr	15, 0, r3, cr9, cr14, {1}
    33a4:	ee093f5e 	mcr	15, 0, r3, cr9, cr14, {2}
    33a8:	ee293f10 	mcr	15, 1, r3, cr9, cr0, {0}
    33ac:	e2833042 	add	r3, r3, #66	; 0x42
    33b0:	ee293f50 	mcr	15, 1, r3, cr9, cr0, {2}
    33b4:	e3a03000 	mov	r3, #0
    33b8:	ee0a3f10 	mcr	15, 0, r3, cr10, cr0, {0}
    33bc:	ee0a3f30 	mcr	15, 0, r3, cr10, cr0, {1}
    33c0:	e59f3048 	ldr	r3, [pc, #72]	; 3410 <set_copro_default+0xcc>
    33c4:	ee0a3f12 	mcr	15, 0, r3, cr10, cr2, {0}
    33c8:	e59f3044 	ldr	r3, [pc, #68]	; 3414 <set_copro_default+0xd0>
    33cc:	ee0a3f32 	mcr	15, 0, r3, cr10, cr2, {1}
    33d0:	e3a03000 	mov	r3, #0
    33d4:	ee0b3f11 	mcr	15, 0, r3, cr11, cr1, {0}
    33d8:	ee0b3f12 	mcr	15, 0, r3, cr11, cr2, {0}
    33dc:	ee0b3f14 	mcr	15, 0, r3, cr11, cr4, {0}
    33e0:	ee0b3f15 	mcr	15, 0, r3, cr11, cr5, {0}
    33e4:	ee0b3f17 	mcr	15, 0, r3, cr11, cr7, {0}
    33e8:	ee0b3f1f 	mcr	15, 0, r3, cr11, cr15, {0}
    33ec:	ee0c3f10 	mcr	15, 0, r3, cr12, cr0, {0}
    33f0:	ee0c3f30 	mcr	15, 0, r3, cr12, cr0, {1}
    33f4:	ee0d3f10 	mcr	15, 0, r3, cr13, cr0, {0}
    33f8:	ee0d3f30 	mcr	15, 0, r3, cr13, cr0, {1}
    33fc:	ee0d3f50 	mcr	15, 0, r3, cr13, cr0, {2}
    3400:	ee0d3f70 	mcr	15, 0, r3, cr13, cr0, {3}
    3404:	ee0d3f90 	mcr	15, 0, r3, cr13, cr0, {4}
    3408:	e12fff1e 	bx	lr
    340c:	00c52078 	sbceq	r2, r5, r8, ror r0
    3410:	00098aa4 	andeq	r8, r9, r4, lsr #21
    3414:	44e048e0 	strbtmi	r4, [r0], #2272	; 0x8e0

Disassembly of section .rodata:

00003418 <TWI_REG_BASE>:
    3418:	f1c2ac00 			; <UNDEFINED> instruction: 0xf1c2ac00
    341c:	f1c2b000 			; <UNDEFINED> instruction: 0xf1c2b000
    3420:	f1c2b400 			; <UNDEFINED> instruction: 0xf1c2b400

00003424 <axp20_ldo4_data>:
    3424:	000004e2 	andeq	r0, r0, r2, ror #9
    3428:	00000514 	andeq	r0, r0, r4, lsl r5
    342c:	00000578 	andeq	r0, r0, r8, ror r5
    3430:	000005dc 	ldrdeq	r0, [r0], -ip
    3434:	00000640 	andeq	r0, r0, r0, asr #12
    3438:	000006a4 	andeq	r0, r0, r4, lsr #13
    343c:	00000708 	andeq	r0, r0, r8, lsl #14
    3440:	0000076c 	andeq	r0, r0, ip, ror #14
    3444:	000007d0 	ldrdeq	r0, [r0], -r0	; <UNPREDICTABLE>
    3448:	000009c4 	andeq	r0, r0, r4, asr #19
    344c:	00000a8c 	andeq	r0, r0, ip, lsl #21
    3450:	00000af0 	strdeq	r0, [r0], -r0	; <UNPREDICTABLE>
    3454:	00000bb8 			; <UNDEFINED> instruction: 0x00000bb8
    3458:	00000c1c 	andeq	r0, r0, ip, lsl ip
    345c:	00000c80 	andeq	r0, r0, r0, lsl #25
    3460:	00000ce4 	andeq	r0, r0, r4, ror #25

Disassembly of section .data:

00003464 <retry>:
    3464:	00000005 	andeq	r0, r0, r5

00003468 <axp20_info>:
    3468:	00000003 	andeq	r0, r0, r3
    346c:	00000514 	andeq	r0, r0, r4, lsl r5
    3470:	00000514 	andeq	r0, r0, r4, lsl r5
	...
    3484:	00000004 	andeq	r0, r0, r4
    3488:	00000708 	andeq	r0, r0, r8, lsl #14
    348c:	00000ce4 	andeq	r0, r0, r4, ror #25
    3490:	00000064 	andeq	r0, r0, r4, rrx
    3494:	00000028 	andeq	r0, r0, r8, lsr #32
    3498:	00000004 	andeq	r0, r0, r4
    349c:	00000004 	andeq	r0, r0, r4
    34a0:	00000005 	andeq	r0, r0, r5
    34a4:	000002bc 			; <UNDEFINED> instruction: 0x000002bc
    34a8:	00000dac 	andeq	r0, r0, ip, lsr #27
    34ac:	00000019 	andeq	r0, r0, r9, lsl r0
    34b0:	00000029 	andeq	r0, r0, r9, lsr #32
    34b4:	00000000 	andeq	r0, r0, r0
    34b8:	00000007 	andeq	r0, r0, r7
    34bc:	00000006 	andeq	r0, r0, r6
    34c0:	000004e2 	andeq	r0, r0, r2, ror #9
    34c4:	00000ce4 	andeq	r0, r0, r4, ror #25
    34c8:	00000064 	andeq	r0, r0, r4, rrx
    34cc:	00000028 	andeq	r0, r0, r8, lsr #32
    34d0:	00000000 	andeq	r0, r0, r0
    34d4:	00000004 	andeq	r0, r0, r4
    34d8:	00000001 	andeq	r0, r0, r1
    34dc:	000002bc 			; <UNDEFINED> instruction: 0x000002bc
    34e0:	000008e3 	andeq	r0, r0, r3, ror #17
    34e4:	00000019 	andeq	r0, r0, r9, lsl r0
    34e8:	00000023 	andeq	r0, r0, r3, lsr #32
    34ec:	00000000 	andeq	r0, r0, r0
    34f0:	00000006 	andeq	r0, r0, r6
    34f4:	00000002 	andeq	r0, r0, r2
    34f8:	000002bc 			; <UNDEFINED> instruction: 0x000002bc
    34fc:	00000dac 	andeq	r0, r0, ip, lsr #27
    3500:	00000019 	andeq	r0, r0, r9, lsl r0
    3504:	00000027 	andeq	r0, r0, r7, lsr #32
    3508:	00000000 	andeq	r0, r0, r0
    350c:	00000007 	andeq	r0, r0, r7

00003510 <hpcr_value>:
	...
    3550:	00001031 	andeq	r1, r0, r1, lsr r0
    3554:	00001031 	andeq	r1, r0, r1, lsr r0
    3558:	00000735 	andeq	r0, r0, r5, lsr r7
    355c:	00001035 	andeq	r1, r0, r5, lsr r0
    3560:	00001035 	andeq	r1, r0, r5, lsr r0
    3564:	00000731 	andeq	r0, r0, r1, lsr r7
    3568:	00001031 	andeq	r1, r0, r1, lsr r0
    356c:	00000000 	andeq	r0, r0, r0
    3570:	00000301 	andeq	r0, r0, r1, lsl #6
    3574:	00000301 	andeq	r0, r0, r1, lsl #6
    3578:	00000301 	andeq	r0, r0, r1, lsl #6
    357c:	00000301 	andeq	r0, r0, r1, lsl #6
    3580:	00000301 	andeq	r0, r0, r1, lsl #6
    3584:	00000301 	andeq	r0, r0, r1, lsl #6
    3588:	00000301 	andeq	r0, r0, r1, lsl #6
    358c:	00000000 	andeq	r0, r0, r0

00003590 <tmp>:
    3590:	40000000 	andmi	r0, r0, r0
    3594:	00000168 	andeq	r0, r0, r8, ror #2
    3598:	00000003 	andeq	r0, r0, r3
    359c:	00000002 	andeq	r0, r0, r2
    35a0:	00000800 	andeq	r0, r0, r0, lsl #16
    35a4:	00000010 	andeq	r0, r0, r0, lsl r0
    35a8:	00000020 	andeq	r0, r0, r0, lsr #32
    35ac:	00000006 	andeq	r0, r0, r6
    35b0:	0000007b 	andeq	r0, r0, fp, ror r0
    35b4:	00000000 	andeq	r0, r0, r0
    35b8:	00000200 	andeq	r0, r0, r0, lsl #4
    35bc:	30926692 	umullscc	r6, r2, r2, r6
    35c0:	00001090 	muleq	r0, r0, r0
    35c4:	0001a0c8 	andeq	sl, r1, r8, asr #1
	...

Disassembly of section .bss:

000035e0 <sp_backup.2109>:
    35e0:	00000000 	andeq	r0, r0, r0

000035e4 <mem_para_info>:
	...

00003814 <IntcReg>:
    3814:	00000000 	andeq	r0, r0, r0

00003818 <IrqEnReg>:
	...

00003824 <IrqMaskReg>:
	...

00003830 <IrqSelReg>:
	...

0000383c <TmrReg>:
    383c:	00000000 	andeq	r0, r0, r0

00003840 <CmuReg>:
    3840:	00000000 	andeq	r0, r0, r0

00003844 <CmuReg>:
    3844:	00000000 	andeq	r0, r0, r0

00003848 <twi_reg>:
    3848:	00000000 	andeq	r0, r0, r0

0000384c <TwiClkRegBak>:
    384c:	00000000 	andeq	r0, r0, r0

00003850 <TwiCtlRegBak>:
    3850:	00000000 	andeq	r0, r0, r0

00003854 <backup_perf_counter_ctrl_reg>:
    3854:	00000000 	andeq	r0, r0, r0

00003858 <backup_perf_counter_enable_reg>:
    3858:	00000000 	andeq	r0, r0, r0

0000385c <overhead>:
    385c:	00000000 	andeq	r0, r0, r0

00003860 <cpu_freq>:
    3860:	00000000 	andeq	r0, r0, r0

00003864 <cpu_ms_loopcnt>:
    3864:	00000000 	andeq	r0, r0, r0

Disassembly of section .debug_abbrev:

00000000 <.debug_abbrev>:
       0:	25011101 	strcs	r1, [r1, #-257]	; 0xfffffeff
       4:	030b130e 	movweq	r1, #45838	; 0xb30e
       8:	110e1b0e 	tstne	lr, lr, lsl #22
       c:	10011201 	andne	r1, r1, r1, lsl #4
      10:	02000006 	andeq	r0, r0, #6
      14:	0b0b0024 	bleq	2c00ac <__bss_end+0x2bc844>
      18:	0e030b3e 	vmoveq.16	d3[0], r0
      1c:	16030000 	strne	r0, [r3], -r0
      20:	3a0e0300 	bcc	380c28 <__bss_end+0x37d3c0>
      24:	490b3b0b 	stmdbmi	fp, {r0, r1, r3, r8, r9, fp, ip, sp}
      28:	04000013 	streq	r0, [r0], #-19	; 0xffffffed
      2c:	0b0b0024 	bleq	2c00c4 <__bss_end+0x2bc85c>
      30:	08030b3e 	stmdaeq	r3, {r1, r2, r3, r4, r5, r8, r9, fp}
      34:	13050000 	movwne	r0, #20480	; 0x5000
      38:	0b0e0301 	bleq	380c44 <__bss_end+0x37d3dc>
      3c:	3b0b3a0b 	blcc	2ce870 <__bss_end+0x2cb008>
      40:	0013010b 	andseq	r0, r3, fp, lsl #2
      44:	000d0600 	andeq	r0, sp, r0, lsl #12
      48:	0b3a0e03 	bleq	e8385c <__bss_end+0xe7fff4>
      4c:	13490b3b 	movtne	r0, #39739	; 0x9b3b
      50:	00000a38 	andeq	r0, r0, r8, lsr sl
      54:	03000d07 	movweq	r0, #3335	; 0xd07
      58:	3b0b3a08 	blcc	2ce880 <__bss_end+0x2cb018>
      5c:	3813490b 	ldmdacc	r3, {r0, r1, r3, r8, fp, lr}
      60:	0800000a 	stmdaeq	r0, {r1, r3}
      64:	0e03000d 	cdpeq	0, 0, cr0, cr3, cr13, {0}
      68:	0b3b0b3a 	bleq	ec2d58 <__bss_end+0xebf4f0>
      6c:	0b0b1349 	bleq	2c4d98 <__bss_end+0x2c1530>
      70:	0b0c0b0d 	bleq	302cac <__bss_end+0x2ff444>
      74:	00000a38 	andeq	r0, r0, r8, lsr sl
      78:	03011309 	movweq	r1, #4873	; 0x1309
      7c:	3a050b0e 	bcc	142cbc <__bss_end+0x13f454>
      80:	010b3b0b 	tsteq	fp, fp, lsl #22
      84:	0a000013 	beq	d8 <__suspend_start+0xd8>
      88:	0b0b000f 	bleq	2c00cc <__bss_end+0x2bc864>
      8c:	00001349 	andeq	r1, r0, r9, asr #6
      90:	0b000f0b 	bleq	3cc4 <__bss_end+0x45c>
      94:	0c00000b 	stceq	0, cr0, [r0], {11}
      98:	13490101 	movtne	r0, #37121	; 0x9101
      9c:	00001301 	andeq	r1, r0, r1, lsl #6
      a0:	4900210d 	stmdbmi	r0, {r0, r2, r3, r8, sp}
      a4:	000b2f13 	andeq	r2, fp, r3, lsl pc
      a8:	012e0e00 	teqeq	lr, r0, lsl #28
      ac:	0b3a0e03 	bleq	e838c0 <__bss_end+0xe80058>
      b0:	0c270b3b 	stceq	11, cr0, [r7], #-236	; 0xffffff14
      b4:	0b201349 	bleq	804de0 <__bss_end+0x801578>
      b8:	00001301 	andeq	r1, r0, r1, lsl #6
      bc:	3f012e0f 	svccc	0x00012e0f
      c0:	3a0e030c 	bcc	380cf8 <__bss_end+0x37d490>
      c4:	49053b0b 	stmdbmi	r5, {r0, r1, r3, r8, r9, fp, ip, sp}
      c8:	010c3c13 	tsteq	ip, r3, lsl ip
      cc:	10000013 	andne	r0, r0, r3, lsl r0
      d0:	00000018 	andeq	r0, r0, r8, lsl r0
      d4:	03000a11 	movweq	r0, #2577	; 0xa11
      d8:	3b0b3a0e 	blcc	2ce918 <__bss_end+0x2cb0b0>
      dc:	12000005 	andne	r0, r0, #5
      e0:	0c3f012e 	ldfeqs	f0, [pc], #-184	; 30 <__suspend_start+0x30>
      e4:	0b3a0e03 	bleq	e838f8 <__bss_end+0xe80090>
      e8:	0c270b3b 	stceq	11, cr0, [r7], #-236	; 0xffffff14
      ec:	01111349 	tsteq	r1, r9, asr #6
      f0:	06400112 			; <UNDEFINED> instruction: 0x06400112
      f4:	00001301 	andeq	r1, r0, r1, lsl #6
      f8:	03003413 	movweq	r3, #1043	; 0x413
      fc:	3b0b3a0e 	blcc	2ce93c <__bss_end+0x2cb0d4>
     100:	0213490b 	andseq	r4, r3, #180224	; 0x2c000
     104:	14000006 	strne	r0, [r0], #-6
     108:	0e030034 	mcreq	0, 0, r0, cr3, cr4, {1}
     10c:	0b3b0b3a 	bleq	ec2dfc <__bss_end+0xebf594>
     110:	0a021349 	beq	84e3c <__bss_end+0x815d4>
     114:	34150000 	ldrcc	r0, [r5], #-0
     118:	3a0e0300 	bcc	380d20 <__bss_end+0x37d4b8>
     11c:	490b3b0b 	stmdbmi	fp, {r0, r1, r3, r8, r9, fp, ip, sp}
     120:	000b1c13 	andeq	r1, fp, r3, lsl ip
     124:	012e1600 	teqeq	lr, r0, lsl #12
     128:	0e030c3f 	mcreq	12, 0, r0, cr3, cr15, {1}
     12c:	0b3b0b3a 	bleq	ec2e1c <__bss_end+0xebf5b4>
     130:	0c3c1349 	ldceq	3, cr1, [ip], #-292	; 0xfffffedc
     134:	00001301 	andeq	r1, r0, r1, lsl #6
     138:	03000a17 	movweq	r0, #2583	; 0xa17
     13c:	3b0b3a0e 	blcc	2ce97c <__bss_end+0x2cb114>
     140:	1800000b 	stmdane	r0, {r0, r1, r3}
     144:	0e03000a 	cdpeq	0, 0, cr0, cr3, cr10, {0}
     148:	0b3b0b3a 	bleq	ec2e38 <__bss_end+0xebf5d0>
     14c:	00000111 	andeq	r0, r0, r1, lsl r1
     150:	31011d19 	tstcc	r1, r9, lsl sp
     154:	12011113 	andne	r1, r1, #-1073741820	; 0xc0000004
     158:	590b5801 	stmdbpl	fp, {r0, fp, ip, lr}
     15c:	1a00000b 	bne	190 <__suspend_start+0x190>
     160:	0111010b 	tsteq	r1, fp, lsl #2
     164:	00000112 	andeq	r0, r0, r2, lsl r1
     168:	31000a1b 	tstcc	r0, fp, lsl sl
     16c:	00011113 	andeq	r1, r1, r3, lsl r1
     170:	00341c00 	eorseq	r1, r4, r0, lsl #24
     174:	0b3a0e03 	bleq	e83988 <__bss_end+0xe80120>
     178:	13490b3b 	movtne	r0, #39739	; 0x9b3b
     17c:	0c3c0c3f 	ldceq	12, cr0, [ip], #-252	; 0xffffff04
     180:	01000000 	tsteq	r0, r0
     184:	0e250111 	mcreq	1, 1, r0, cr5, cr1, {0}
     188:	0e030b13 	vmoveq.32	d3[0], r0
     18c:	01110e1b 	tsteq	r1, fp, lsl lr
     190:	06100112 			; <UNDEFINED> instruction: 0x06100112
     194:	24020000 	strcs	r0, [r2], #-0
     198:	3e0b0b00 	vmlacc.f64	d0, d11, d0
     19c:	000e030b 	andeq	r0, lr, fp, lsl #6
     1a0:	00240300 	eoreq	r0, r4, r0, lsl #6
     1a4:	0b3e0b0b 	bleq	f82dd8 <__bss_end+0xf7f570>
     1a8:	00000803 	andeq	r0, r0, r3, lsl #16
     1ac:	0b000f04 	bleq	3dc4 <__bss_end+0x55c>
     1b0:	0500000b 	streq	r0, [r0, #-11]
     1b4:	0c3f012e 	ldfeqs	f0, [pc], #-184	; 104 <__suspend_start+0x104>
     1b8:	0b3a0e03 	bleq	e839cc <__bss_end+0xe80164>
     1bc:	0c270b3b 	stceq	11, cr0, [r7], #-236	; 0xffffff14
     1c0:	01120111 	tsteq	r2, r1, lsl r1
     1c4:	13010a40 	movwne	r0, #6720	; 0x1a40
     1c8:	05060000 	streq	r0, [r6, #-0]
     1cc:	3a0e0300 	bcc	380dd4 <__bss_end+0x37d56c>
     1d0:	490b3b0b 	stmdbmi	fp, {r0, r1, r3, r8, r9, fp, ip, sp}
     1d4:	00060213 	andeq	r0, r6, r3, lsl r2
     1d8:	00050700 	andeq	r0, r5, r0, lsl #14
     1dc:	0b3a0803 	bleq	e821f0 <__bss_end+0xe7e988>
     1e0:	13490b3b 	movtne	r0, #39739	; 0x9b3b
     1e4:	00000602 	andeq	r0, r0, r2, lsl #12
     1e8:	03003408 	movweq	r3, #1032	; 0x408
     1ec:	3b0b3a0e 	blcc	2cea2c <__bss_end+0x2cb1c4>
     1f0:	0213490b 	andseq	r4, r3, #180224	; 0x2c000
     1f4:	09000006 	stmdbeq	r0, {r1, r2}
     1f8:	0b0b000f 	bleq	2c023c <__bss_end+0x2bc9d4>
     1fc:	00001349 	andeq	r1, r0, r9, asr #6
     200:	00110100 	andseq	r0, r1, r0, lsl #2
     204:	01110610 	tsteq	r1, r0, lsl r6
     208:	08030112 	stmdaeq	r3, {r1, r4, r8}
     20c:	0825081b 	stmdaeq	r5!, {r0, r1, r3, r4, fp}
     210:	00000513 	andeq	r0, r0, r3, lsl r5
     214:	01110100 	tsteq	r1, r0, lsl #2
     218:	0b130e25 	bleq	4c3ab4 <__bss_end+0x4c024c>
     21c:	0e1b0e03 	cdpeq	14, 1, cr0, cr11, cr3, {0}
     220:	01120111 	tsteq	r2, r1, lsl r1
     224:	00000610 	andeq	r0, r0, r0, lsl r6
     228:	0b002402 	bleq	9238 <__bss_end+0x59d0>
     22c:	030b3e0b 	movweq	r3, #48651	; 0xbe0b
     230:	0300000e 	movweq	r0, #14
     234:	0e030016 	mcreq	0, 0, r0, cr3, cr6, {0}
     238:	0b3b0b3a 	bleq	ec2f28 <__bss_end+0xebf6c0>
     23c:	00001349 	andeq	r1, r0, r9, asr #6
     240:	0b002404 	bleq	9258 <__bss_end+0x59f0>
     244:	030b3e0b 	movweq	r3, #48651	; 0xbe0b
     248:	05000008 	streq	r0, [r0, #-8]
     24c:	13490035 	movtne	r0, #36917	; 0x9035
     250:	01060000 	tsteq	r6, r0
     254:	01134901 	tsteq	r3, r1, lsl #18
     258:	07000013 	smladeq	r0, r3, r0, r0
     25c:	13490021 	movtne	r0, #36897	; 0x9021
     260:	00000b2f 	andeq	r0, r0, pc, lsr #22
     264:	03010408 	movweq	r0, #5128	; 0x1408
     268:	3a0b0b0e 	bcc	2c2ea8 <__bss_end+0x2bf640>
     26c:	010b3b0b 	tsteq	fp, fp, lsl #22
     270:	09000013 	stmdbeq	r0, {r0, r1, r4}
     274:	0e030028 	cdpeq	0, 0, cr0, cr3, cr8, {1}
     278:	00000d1c 	andeq	r0, r0, ip, lsl sp
     27c:	0301130a 	movweq	r1, #4874	; 0x130a
     280:	3a0b0b0e 	bcc	2c2ec0 <__bss_end+0x2bf658>
     284:	010b3b0b 	tsteq	fp, fp, lsl #22
     288:	0b000013 	bleq	2dc <flush_icache+0x4>
     28c:	0e03000d 	cdpeq	0, 0, cr0, cr3, cr13, {0}
     290:	0b3b0b3a 	bleq	ec2f80 <__bss_end+0xebf718>
     294:	0a381349 	beq	e04fc0 <__bss_end+0xe01758>
     298:	2e0c0000 	cdpcs	0, 0, cr0, cr12, cr0, {0}
     29c:	030c3f00 	movweq	r3, #52992	; 0xcf00
     2a0:	3b0b3a0e 	blcc	2ceae0 <__bss_end+0x2cb278>
     2a4:	490c270b 	stmdbmi	ip, {r0, r1, r3, r8, r9, sl, sp}
     2a8:	12011113 	andne	r1, r1, #-1073741820	; 0xc0000004
     2ac:	000a4001 	andeq	r4, sl, r1
     2b0:	012e0d00 	teqeq	lr, r0, lsl #26
     2b4:	0e030c3f 	mcreq	12, 0, r0, cr3, cr15, {1}
     2b8:	0b3b0b3a 	bleq	ec2fa8 <__bss_end+0xebf740>
     2bc:	13490c27 	movtne	r0, #39975	; 0x9c27
     2c0:	01120111 	tsteq	r2, r1, lsl r1
     2c4:	13010640 	movwne	r0, #5696	; 0x1640
     2c8:	050e0000 	streq	r0, [lr, #-0]
     2cc:	3a080300 	bcc	200ed4 <__bss_end+0x1fd66c>
     2d0:	490b3b0b 	stmdbmi	fp, {r0, r1, r3, r8, r9, fp, ip, sp}
     2d4:	00060213 	andeq	r0, r6, r3, lsl r2
     2d8:	00340f00 	eorseq	r0, r4, r0, lsl #30
     2dc:	0b3a0e03 	bleq	e83af0 <__bss_end+0xe80288>
     2e0:	13490b3b 	movtne	r0, #39739	; 0x9b3b
     2e4:	00000602 	andeq	r0, r0, r2, lsl #12
     2e8:	3f012e10 	svccc	0x00012e10
     2ec:	3a0e030c 	bcc	380f24 <__bss_end+0x37d6bc>
     2f0:	270b3b0b 	strcs	r3, [fp, -fp, lsl #22]
     2f4:	1113490c 	tstne	r3, ip, lsl #18
     2f8:	40011201 	andmi	r1, r1, r1, lsl #4
     2fc:	0013010a 	andseq	r0, r3, sl, lsl #2
     300:	00341100 	eorseq	r1, r4, r0, lsl #2
     304:	0b3a0e03 	bleq	e83b18 <__bss_end+0xe802b0>
     308:	13490b3b 	movtne	r0, #39739	; 0x9b3b
     30c:	00000a02 	andeq	r0, r0, r2, lsl #20
     310:	0b000f12 	bleq	3f60 <__bss_end+0x6f8>
     314:	0013490b 	andseq	r4, r3, fp, lsl #18
     318:	11010000 	tstne	r1, r0
     31c:	130e2501 	movwne	r2, #58625	; 0xe501
     320:	1b0e030b 	blne	380f54 <__bss_end+0x37d6ec>
     324:	1201110e 	andne	r1, r1, #-2147483645	; 0x80000003
     328:	00061001 	andeq	r1, r6, r1
     32c:	00240200 	eoreq	r0, r4, r0, lsl #4
     330:	0b3e0b0b 	bleq	f82f64 <__bss_end+0xf7f6fc>
     334:	00000e03 	andeq	r0, r0, r3, lsl #28
     338:	0b002403 	bleq	934c <__bss_end+0x5ae4>
     33c:	030b3e0b 	movweq	r3, #48651	; 0xbe0b
     340:	04000008 	streq	r0, [r0], #-8
     344:	0e030016 	mcreq	0, 0, r0, cr3, cr6, {0}
     348:	0b3b0b3a 	bleq	ec3038 <__bss_end+0xebf7d0>
     34c:	00001349 	andeq	r1, r0, r9, asr #6
     350:	49003505 	stmdbmi	r0, {r0, r2, r8, sl, ip, sp}
     354:	06000013 			; <UNDEFINED> instruction: 0x06000013
     358:	13490101 	movtne	r0, #37121	; 0x9101
     35c:	00001301 	andeq	r1, r0, r1, lsl #6
     360:	49002107 	stmdbmi	r0, {r0, r1, r2, r8, sp}
     364:	000b2f13 	andeq	r2, fp, r3, lsl pc
     368:	01130800 	tsteq	r3, r0, lsl #16
     36c:	050b0e03 	streq	r0, [fp, #-3587]	; 0xfffff1fd
     370:	0b3b0b3a 	bleq	ec3060 <__bss_end+0xebf7f8>
     374:	00001301 	andeq	r1, r0, r1, lsl #6
     378:	03000d09 	movweq	r0, #3337	; 0xd09
     37c:	3b0b3a0e 	blcc	2cebbc <__bss_end+0x2cb354>
     380:	3813490b 	ldmdacc	r3, {r0, r1, r3, r8, fp, lr}
     384:	0a00000a 	beq	3b4 <enable_cache>
     388:	0c3f002e 	ldceq	0, cr0, [pc], #-184	; 2d8 <flush_icache>
     38c:	0b3a0e03 	bleq	e83ba0 <__bss_end+0xe80338>
     390:	0c270b3b 	stceq	11, cr0, [r7], #-236	; 0xffffff14
     394:	01120111 	tsteq	r2, r1, lsl r1
     398:	00000a40 	andeq	r0, r0, r0, asr #20
     39c:	0300340b 	movweq	r3, #1035	; 0x40b
     3a0:	3b0b3a0e 	blcc	2cebe0 <__bss_end+0x2cb378>
     3a4:	0213490b 	andseq	r4, r3, #180224	; 0x2c000
     3a8:	0c00000a 	stceq	0, cr0, [r0], {10}
     3ac:	0b0b000f 	bleq	2c03f0 <__bss_end+0x2bcb88>
     3b0:	00001349 	andeq	r1, r0, r9, asr #6
     3b4:	0300340d 	movweq	r3, #1037	; 0x40d
     3b8:	3b0b3a0e 	blcc	2cebf8 <__bss_end+0x2cb390>
     3bc:	0013490b 	andseq	r4, r3, fp, lsl #18
     3c0:	11010000 	tstne	r1, r0
     3c4:	130e2501 	movwne	r2, #58625	; 0xe501
     3c8:	1b0e030b 	blne	380ffc <__bss_end+0x37d794>
     3cc:	1201110e 	andne	r1, r1, #-2147483645	; 0x80000003
     3d0:	00061001 	andeq	r1, r6, r1
     3d4:	00240200 	eoreq	r0, r4, r0, lsl #4
     3d8:	0b3e0b0b 	bleq	f8300c <__bss_end+0xf7f7a4>
     3dc:	00000e03 	andeq	r0, r0, r3, lsl #28
     3e0:	03001603 	movweq	r1, #1539	; 0x603
     3e4:	3b0b3a0e 	blcc	2cec24 <__bss_end+0x2cb3bc>
     3e8:	0013490b 	andseq	r4, r3, fp, lsl #18
     3ec:	00240400 	eoreq	r0, r4, r0, lsl #8
     3f0:	0b3e0b0b 	bleq	f83024 <__bss_end+0xf7f7bc>
     3f4:	00000803 	andeq	r0, r0, r3, lsl #16
     3f8:	03011305 	movweq	r1, #4869	; 0x1305
     3fc:	3a0b0b0e 	bcc	2c303c <__bss_end+0x2bf7d4>
     400:	010b3b0b 	tsteq	fp, fp, lsl #22
     404:	06000013 			; <UNDEFINED> instruction: 0x06000013
     408:	0e03000d 	cdpeq	0, 0, cr0, cr3, cr13, {0}
     40c:	0b3b0b3a 	bleq	ec30fc <__bss_end+0xebf894>
     410:	0b0b1349 	bleq	2c513c <__bss_end+0x2c18d4>
     414:	0b0c0b0d 	bleq	303050 <__bss_end+0x2ff7e8>
     418:	00000a38 	andeq	r0, r0, r8, lsr sl
     41c:	03000d07 	movweq	r0, #3335	; 0xd07
     420:	3b0b3a0e 	blcc	2cec60 <__bss_end+0x2cb3f8>
     424:	3813490b 	ldmdacc	r3, {r0, r1, r3, r8, fp, lr}
     428:	0800000a 	stmdaeq	r0, {r1, r3}
     42c:	0803000d 	stmdaeq	r3, {r0, r2, r3}
     430:	0b3b0b3a 	bleq	ec3120 <__bss_end+0xebf8b8>
     434:	0a381349 	beq	e05160 <__bss_end+0xe018f8>
     438:	0d090000 	stceq	0, cr0, [r9, #-0]
     43c:	3a0e0300 	bcc	381044 <__bss_end+0x37d7dc>
     440:	49053b0b 	stmdbmi	r5, {r0, r1, r3, r8, r9, fp, ip, sp}
     444:	0d0b0b13 	vstreq	d0, [fp, #-76]	; 0xffffffb4
     448:	380b0c0b 	stmdacc	fp, {r0, r1, r3, sl, fp}
     44c:	0a00000a 	beq	47c <mem_preload_tlb+0x8c>
     450:	0e030016 	mcreq	0, 0, r0, cr3, cr6, {0}
     454:	053b0b3a 	ldreq	r0, [fp, #-2874]!	; 0xfffff4c6
     458:	00001349 	andeq	r1, r0, r9, asr #6
     45c:	0301130b 	movweq	r1, #4875	; 0x130b
     460:	3a0b0b0e 	bcc	2c30a0 <__bss_end+0x2bf838>
     464:	01053b0b 	tsteq	r5, fp, lsl #22
     468:	0c000013 	stceq	0, cr0, [r0], {19}
     46c:	0e030113 	mcreq	1, 0, r0, cr3, cr3, {0}
     470:	0b3a050b 	bleq	e818a4 <__bss_end+0xe7e03c>
     474:	1301053b 	movwne	r0, #5435	; 0x153b
     478:	0d0d0000 	stceq	0, cr0, [sp, #-0]
     47c:	3a0e0300 	bcc	381084 <__bss_end+0x37d81c>
     480:	49053b0b 	stmdbmi	r5, {r0, r1, r3, r8, r9, fp, ip, sp}
     484:	000a3813 	andeq	r3, sl, r3, lsl r8
     488:	00350e00 	eorseq	r0, r5, r0, lsl #28
     48c:	00001349 	andeq	r1, r0, r9, asr #6
     490:	4901010f 	stmdbmi	r1, {r0, r1, r2, r3, r8}
     494:	00130113 	andseq	r0, r3, r3, lsl r1
     498:	00211000 	eoreq	r1, r1, r0
     49c:	0b2f1349 	bleq	bc51c8 <__bss_end+0xbc1960>
     4a0:	2e110000 	cdpcs	0, 1, cr0, cr1, cr0, {0}
     4a4:	030c3f00 	movweq	r3, #52992	; 0xcf00
     4a8:	3b0b3a0e 	blcc	2cece8 <__bss_end+0x2cb480>
     4ac:	490c270b 	stmdbmi	ip, {r0, r1, r3, r8, r9, sl, sp}
     4b0:	12011113 	andne	r1, r1, #-1073741820	; 0xc0000004
     4b4:	000a4001 	andeq	r4, sl, r1
     4b8:	012e1200 	teqeq	lr, r0, lsl #4
     4bc:	0e030c3f 	mcreq	12, 0, r0, cr3, cr15, {1}
     4c0:	0b3b0b3a 	bleq	ec31b0 <__bss_end+0xebf948>
     4c4:	13490c27 	movtne	r0, #39975	; 0x9c27
     4c8:	01120111 	tsteq	r2, r1, lsl r1
     4cc:	13010a40 	movwne	r0, #6720	; 0x1a40
     4d0:	05130000 	ldreq	r0, [r3, #-0]
     4d4:	3a0e0300 	bcc	3810dc <__bss_end+0x37d874>
     4d8:	490b3b0b 	stmdbmi	fp, {r0, r1, r3, r8, r9, fp, ip, sp}
     4dc:	00060213 	andeq	r0, r6, r3, lsl r2
     4e0:	000f1400 	andeq	r1, pc, r0, lsl #8
     4e4:	13490b0b 	movtne	r0, #39691	; 0x9b0b
     4e8:	2e150000 	cdpcs	0, 1, cr0, cr5, cr0, {0}
     4ec:	030c3f01 	movweq	r3, #52993	; 0xcf01
     4f0:	3b0b3a0e 	blcc	2ced30 <__bss_end+0x2cb4c8>
     4f4:	110c270b 	tstne	ip, fp, lsl #14
     4f8:	40011201 	andmi	r1, r1, r1, lsl #4
     4fc:	0013010a 	andseq	r0, r3, sl, lsl #2
     500:	00051600 	andeq	r1, r5, r0, lsl #12
     504:	0b3a0e03 	bleq	e83d18 <__bss_end+0xe804b0>
     508:	13490b3b 	movtne	r0, #39739	; 0x9b3b
     50c:	00000a02 	andeq	r0, r0, r2, lsl #20
     510:	03003417 	movweq	r3, #1047	; 0x417
     514:	3b0b3a0e 	blcc	2ced54 <__bss_end+0x2cb4ec>
     518:	0213490b 	andseq	r4, r3, #180224	; 0x2c000
     51c:	1800000a 	stmdane	r0, {r1, r3}
     520:	0e030034 	mcreq	0, 0, r0, cr3, cr4, {1}
     524:	0b3b0b3a 	bleq	ec3214 <__bss_end+0xebf9ac>
     528:	0c3f1349 	ldceq	3, cr1, [pc], #-292	; 40c <mem_preload_tlb+0x1c>
     52c:	00000a02 	andeq	r0, r0, r2, lsl #20
     530:	01110100 	tsteq	r1, r0, lsl #2
     534:	0b130e25 	bleq	4c3dd0 <__bss_end+0x4c0568>
     538:	0e1b0e03 	cdpeq	14, 1, cr0, cr11, cr3, {0}
     53c:	01120111 	tsteq	r2, r1, lsl r1
     540:	00000610 	andeq	r0, r0, r0, lsl r6
     544:	0b002402 	bleq	9554 <__bss_end+0x5cec>
     548:	030b3e0b 	movweq	r3, #48651	; 0xbe0b
     54c:	0300000e 	movweq	r0, #14
     550:	0e030016 	mcreq	0, 0, r0, cr3, cr6, {0}
     554:	0b3b0b3a 	bleq	ec3244 <__bss_end+0xebf9dc>
     558:	00001349 	andeq	r1, r0, r9, asr #6
     55c:	0b002404 	bleq	9574 <__bss_end+0x5d0c>
     560:	030b3e0b 	movweq	r3, #48651	; 0xbe0b
     564:	05000008 	streq	r0, [r0, #-8]
     568:	0e030113 	mcreq	1, 0, r0, cr3, cr3, {0}
     56c:	0b3a0b0b 	bleq	e831a0 <__bss_end+0xe7f938>
     570:	13010b3b 	movwne	r0, #6971	; 0x1b3b
     574:	0d060000 	stceq	0, cr0, [r6, #-0]
     578:	3a0e0300 	bcc	381180 <__bss_end+0x37d918>
     57c:	490b3b0b 	stmdbmi	fp, {r0, r1, r3, r8, r9, fp, ip, sp}
     580:	0d0b0b13 	vstreq	d0, [fp, #-76]	; 0xffffffb4
     584:	380b0c0b 	stmdacc	fp, {r0, r1, r3, sl, fp}
     588:	0700000a 	streq	r0, [r0, -sl]
     58c:	0e03000d 	cdpeq	0, 0, cr0, cr3, cr13, {0}
     590:	053b0b3a 	ldreq	r0, [fp, #-2874]!	; 0xfffff4c6
     594:	0b0b1349 	bleq	2c52c0 <__bss_end+0x2c1a58>
     598:	0b0c0b0d 	bleq	3031d4 <__bss_end+0x2ff96c>
     59c:	00000a38 	andeq	r0, r0, r8, lsr sl
     5a0:	03001608 	movweq	r1, #1544	; 0x608
     5a4:	3b0b3a0e 	blcc	2cede4 <__bss_end+0x2cb57c>
     5a8:	00134905 	andseq	r4, r3, r5, lsl #18
     5ac:	01130900 	tsteq	r3, r0, lsl #18
     5b0:	0b0b0e03 	bleq	2c3dc4 <__bss_end+0x2c055c>
     5b4:	053b0b3a 	ldreq	r0, [fp, #-2874]!	; 0xfffff4c6
     5b8:	00001301 	andeq	r1, r0, r1, lsl #6
     5bc:	0301130a 	movweq	r1, #4874	; 0x130a
     5c0:	3a050b0e 	bcc	143200 <__bss_end+0x13f998>
     5c4:	01053b0b 	tsteq	r5, fp, lsl #22
     5c8:	0b000013 	bleq	61c <enable_mmu+0x8>
     5cc:	0e03000d 	cdpeq	0, 0, cr0, cr3, cr13, {0}
     5d0:	053b0b3a 	ldreq	r0, [fp, #-2874]!	; 0xfffff4c6
     5d4:	0a381349 	beq	e05300 <__bss_end+0xe01a98>
     5d8:	350c0000 	strcc	r0, [ip, #-0]
     5dc:	00134900 	andseq	r4, r3, r0, lsl #18
     5e0:	01010d00 	tsteq	r1, r0, lsl #26
     5e4:	13011349 	movwne	r1, #4937	; 0x1349
     5e8:	210e0000 	tstcs	lr, r0
     5ec:	2f134900 	svccs	0x00134900
     5f0:	0f00000b 	svceq	0x0000000b
     5f4:	0e03000d 	cdpeq	0, 0, cr0, cr3, cr13, {0}
     5f8:	0b3b0b3a 	bleq	ec32e8 <__bss_end+0xebfa80>
     5fc:	0a381349 	beq	e05328 <__bss_end+0xe01ac0>
     600:	04100000 	ldreq	r0, [r0], #-0
     604:	0b0e0301 	bleq	381210 <__bss_end+0x37d9a8>
     608:	3b0b3a0b 	blcc	2cee3c <__bss_end+0x2cb5d4>
     60c:	0013010b 	andseq	r0, r3, fp, lsl #2
     610:	00281100 	eoreq	r1, r8, r0, lsl #2
     614:	0d1c0e03 	ldceq	14, cr0, [ip, #-12]
     618:	2e120000 	cdpcs	0, 1, cr0, cr2, cr0, {0}
     61c:	3a0e0300 	bcc	381224 <__bss_end+0x37d9bc>
     620:	270b3b0b 	strcs	r3, [fp, -fp, lsl #22]
     624:	1113490c 	tstne	r3, ip, lsl #18
     628:	40011201 	andmi	r1, r1, r1, lsl #4
     62c:	1300000a 	movwne	r0, #10
     630:	0e03012e 	adfeqsp	f0, f3, #0.5
     634:	0b3b0b3a 	bleq	ec3324 <__bss_end+0xebfabc>
     638:	13490c27 	movtne	r0, #39975	; 0x9c27
     63c:	01120111 	tsteq	r2, r1, lsl r1
     640:	13010a40 	movwne	r0, #6720	; 0x1a40
     644:	34140000 	ldrcc	r0, [r4], #-0
     648:	3a0e0300 	bcc	381250 <__bss_end+0x37d9e8>
     64c:	490b3b0b 	stmdbmi	fp, {r0, r1, r3, r8, r9, fp, ip, sp}
     650:	15000013 	strne	r0, [r0, #-19]	; 0xffffffed
     654:	0e030034 	mcreq	0, 0, r0, cr3, cr4, {1}
     658:	0b3b0b3a 	bleq	ec3348 <__bss_end+0xebfae0>
     65c:	06021349 	streq	r1, [r2], -r9, asr #6
     660:	2e160000 	cdpcs	0, 1, cr0, cr6, cr0, {0}
     664:	030c3f01 	movweq	r3, #52993	; 0xcf01
     668:	3b0b3a0e 	blcc	2ceea8 <__bss_end+0x2cb640>
     66c:	490c270b 	stmdbmi	ip, {r0, r1, r3, r8, r9, sl, sp}
     670:	12011113 	andne	r1, r1, #-1073741820	; 0xc0000004
     674:	010a4001 	tsteq	sl, r1
     678:	17000013 	smladne	r0, r3, r0, r0
     67c:	0e030005 	cdpeq	0, 0, cr0, cr3, cr5, {0}
     680:	0b3b0b3a 	bleq	ec3370 <__bss_end+0xebfb08>
     684:	06021349 	streq	r1, [r2], -r9, asr #6
     688:	2e180000 	cdpcs	0, 1, cr0, cr8, cr0, {0}
     68c:	030c3f00 	movweq	r3, #52992	; 0xcf00
     690:	3b0b3a0e 	blcc	2ceed0 <__bss_end+0x2cb668>
     694:	490c270b 	stmdbmi	ip, {r0, r1, r3, r8, r9, sl, sp}
     698:	12011113 	andne	r1, r1, #-1073741820	; 0xc0000004
     69c:	00064001 	andeq	r4, r6, r1
     6a0:	002e1900 	eoreq	r1, lr, r0, lsl #18
     6a4:	0e030c3f 	mcreq	12, 0, r0, cr3, cr15, {1}
     6a8:	0b3b0b3a 	bleq	ec3398 <__bss_end+0xebfb30>
     6ac:	01110c27 	tsteq	r1, r7, lsr #24
     6b0:	0a400112 	beq	1000b00 <__bss_end+0xffd298>
     6b4:	2e1a0000 	cdpcs	0, 1, cr0, cr10, cr0, {0}
     6b8:	030c3f01 	movweq	r3, #52993	; 0xcf01
     6bc:	3b0b3a0e 	blcc	2ceefc <__bss_end+0x2cb694>
     6c0:	490c270b 	stmdbmi	ip, {r0, r1, r3, r8, r9, sl, sp}
     6c4:	12011113 	andne	r1, r1, #-1073741820	; 0xc0000004
     6c8:	01064001 	tsteq	r6, r1
     6cc:	1b000013 	blne	720 <mem_int_init+0x40>
     6d0:	08030005 	stmdaeq	r3, {r0, r2}
     6d4:	0b3b0b3a 	bleq	ec33c4 <__bss_end+0xebfb5c>
     6d8:	06021349 	streq	r1, [r2], -r9, asr #6
     6dc:	341c0000 	ldrcc	r0, [ip], #-0
     6e0:	3a080300 	bcc	2012e8 <__bss_end+0x1fda80>
     6e4:	490b3b0b 	stmdbmi	fp, {r0, r1, r3, r8, r9, fp, ip, sp}
     6e8:	00060213 	andeq	r0, r6, r3, lsl r2
     6ec:	000a1d00 	andeq	r1, sl, r0, lsl #26
     6f0:	0b3a0e03 	bleq	e83f04 <__bss_end+0xe8069c>
     6f4:	0111053b 	tsteq	r1, fp, lsr r5
     6f8:	0f1e0000 	svceq	0x001e0000
     6fc:	490b0b00 	stmdbmi	fp, {r8, r9, fp}
     700:	1f000013 	svcne	0x00000013
     704:	0c3f012e 	ldfeqs	f0, [pc], #-184	; 654 <__turn_mmu_on+0x14>
     708:	0b3a0e03 	bleq	e83f1c <__bss_end+0xe806b4>
     70c:	0c27053b 	cfstr32eq	mvfx0, [r7], #-236	; 0xffffff14
     710:	01111349 	tsteq	r1, r9, asr #6
     714:	06400112 			; <UNDEFINED> instruction: 0x06400112
     718:	00001301 	andeq	r1, r0, r1, lsl #6
     71c:	03000520 	movweq	r0, #1312	; 0x520
     720:	3b0b3a08 	blcc	2cef48 <__bss_end+0x2cb6e0>
     724:	02134905 	andseq	r4, r3, #81920	; 0x14000
     728:	21000006 	tstcs	r0, r6
     72c:	0e030005 	cdpeq	0, 0, cr0, cr3, cr5, {0}
     730:	053b0b3a 	ldreq	r0, [fp, #-2874]!	; 0xfffff4c6
     734:	06021349 	streq	r1, [r2], -r9, asr #6
     738:	34220000 	strtcc	r0, [r2], #-0
     73c:	3a0e0300 	bcc	381344 <__bss_end+0x37dadc>
     740:	49053b0b 	stmdbmi	r5, {r0, r1, r3, r8, r9, fp, ip, sp}
     744:	00060213 	andeq	r0, r6, r3, lsl r2
     748:	00342300 	eorseq	r2, r4, r0, lsl #6
     74c:	0b3a0803 	bleq	e82760 <__bss_end+0xe7eef8>
     750:	1349053b 	movtne	r0, #38203	; 0x953b
     754:	00000602 	andeq	r0, r0, r2, lsl #12
     758:	03003424 	movweq	r3, #1060	; 0x424
     75c:	3b0b3a0e 	blcc	2cef9c <__bss_end+0x2cb734>
     760:	0213490b 	andseq	r4, r3, #180224	; 0x2c000
     764:	2500000a 	strcs	r0, [r0, #-10]
     768:	13490026 	movtne	r0, #36902	; 0x9026
     76c:	01000000 	tsteq	r0, r0
     770:	06100011 			; <UNDEFINED> instruction: 0x06100011
     774:	01120111 	tsteq	r2, r1, lsl r1
     778:	081b0803 	ldmdaeq	fp, {r0, r1, fp}
     77c:	05130825 	ldreq	r0, [r3, #-2085]	; 0xfffff7db
     780:	01000000 	tsteq	r0, r0
     784:	0e250111 	mcreq	1, 1, r0, cr5, cr1, {0}
     788:	0e030b13 	vmoveq.32	d3[0], r0
     78c:	01110e1b 	tsteq	r1, fp, lsl lr
     790:	06100112 			; <UNDEFINED> instruction: 0x06100112
     794:	24020000 	strcs	r0, [r2], #-0
     798:	3e0b0b00 	vmlacc.f64	d0, d11, d0
     79c:	000e030b 	andeq	r0, lr, fp, lsl #6
     7a0:	00160300 	andseq	r0, r6, r0, lsl #6
     7a4:	0b3a0e03 	bleq	e83fb8 <__bss_end+0xe80750>
     7a8:	13490b3b 	movtne	r0, #39739	; 0x9b3b
     7ac:	24040000 	strcs	r0, [r4], #-0
     7b0:	3e0b0b00 	vmlacc.f64	d0, d11, d0
     7b4:	0008030b 	andeq	r0, r8, fp, lsl #6
     7b8:	01040500 	tsteq	r4, r0, lsl #10
     7bc:	0b0b0e03 	bleq	2c3fd0 <__bss_end+0x2c0768>
     7c0:	0b3b0b3a 	bleq	ec34b0 <__bss_end+0xebfc48>
     7c4:	00001301 	andeq	r1, r0, r1, lsl #6
     7c8:	03002806 	movweq	r2, #2054	; 0x806
     7cc:	000d1c0e 	andeq	r1, sp, lr, lsl #24
     7d0:	01130700 	tsteq	r3, r0, lsl #14
     7d4:	0b0b0e03 	bleq	2c3fe8 <__bss_end+0x2c0780>
     7d8:	0b3b0b3a 	bleq	ec34c8 <__bss_end+0xebfc60>
     7dc:	00001301 	andeq	r1, r0, r1, lsl #6
     7e0:	03000d08 	movweq	r0, #3336	; 0xd08
     7e4:	3b0b3a08 	blcc	2cf00c <__bss_end+0x2cb7a4>
     7e8:	3813490b 	ldmdacc	r3, {r0, r1, r3, r8, fp, lr}
     7ec:	0900000a 	stmdbeq	r0, {r1, r3}
     7f0:	0e03000d 	cdpeq	0, 0, cr0, cr3, cr13, {0}
     7f4:	0b3b0b3a 	bleq	ec34e4 <__bss_end+0xebfc7c>
     7f8:	0a381349 	beq	e05524 <__bss_end+0xe01cbc>
     7fc:	2e0a0000 	cdpcs	0, 0, cr0, cr10, cr0, {0}
     800:	3a0e0301 	bcc	38140c <__bss_end+0x37dba4>
     804:	270b3b0b 	strcs	r3, [fp, -fp, lsl #22]
     808:	1113490c 	tstne	r3, ip, lsl #18
     80c:	40011201 	andmi	r1, r1, r1, lsl #4
     810:	0013010a 	andseq	r0, r3, sl, lsl #2
     814:	00050b00 	andeq	r0, r5, r0, lsl #22
     818:	0b3a0e03 	bleq	e8402c <__bss_end+0xe807c4>
     81c:	13490b3b 	movtne	r0, #39739	; 0x9b3b
     820:	00000602 	andeq	r0, r0, r2, lsl #12
     824:	0300340c 	movweq	r3, #1036	; 0x40c
     828:	3b0b3a0e 	blcc	2cf068 <__bss_end+0x2cb800>
     82c:	0213490b 	andseq	r4, r3, #180224	; 0x2c000
     830:	0d000006 	stceq	0, cr0, [r0, #-24]	; 0xffffffe8
     834:	08030005 	stmdaeq	r3, {r0, r2}
     838:	0b3b0b3a 	bleq	ec3528 <__bss_end+0xebfcc0>
     83c:	06021349 	streq	r1, [r2], -r9, asr #6
     840:	340e0000 	strcc	r0, [lr], #-0
     844:	3a080300 	bcc	20144c <__bss_end+0x1fdbe4>
     848:	490b3b0b 	stmdbmi	fp, {r0, r1, r3, r8, r9, fp, ip, sp}
     84c:	00060213 	andeq	r0, r6, r3, lsl r2
     850:	000f0f00 	andeq	r0, pc, r0, lsl #30
     854:	13490b0b 	movtne	r0, #39691	; 0x9b0b
     858:	2e100000 	cdpcs	0, 1, cr0, cr0, cr0, {0}
     85c:	3a0e0301 	bcc	381468 <__bss_end+0x37dc00>
     860:	270b3b0b 	strcs	r3, [fp, -fp, lsl #22]
     864:	2013490c 	andscs	r4, r3, ip, lsl #18
     868:	0013010b 	andseq	r0, r3, fp, lsl #2
     86c:	00051100 	andeq	r1, r5, r0, lsl #2
     870:	0b3a0e03 	bleq	e84084 <__bss_end+0xe8081c>
     874:	13490b3b 	movtne	r0, #39739	; 0x9b3b
     878:	2e120000 	cdpcs	0, 1, cr0, cr2, cr0, {0}
     87c:	030c3f01 	movweq	r3, #52993	; 0xcf01
     880:	3b0b3a0e 	blcc	2cf0c0 <__bss_end+0x2cb858>
     884:	490c270b 	stmdbmi	ip, {r0, r1, r3, r8, r9, sl, sp}
     888:	12011113 	andne	r1, r1, #-1073741820	; 0xc0000004
     88c:	01064001 	tsteq	r6, r1
     890:	13000013 	movwne	r0, #19
     894:	0e030034 	mcreq	0, 0, r0, cr3, cr4, {1}
     898:	0b3b0b3a 	bleq	ec3588 <__bss_end+0xebfd20>
     89c:	00001349 	andeq	r1, r0, r9, asr #6
     8a0:	03003414 	movweq	r3, #1044	; 0x414
     8a4:	3b0b3a08 	blcc	2cf0cc <__bss_end+0x2cb864>
     8a8:	1c13490b 	ldcne	9, cr4, [r3], {11}
     8ac:	1500000b 	strne	r0, [r0, #-11]
     8b0:	1331011d 	teqne	r1, #1073741831	; 0x40000007
     8b4:	01120111 	tsteq	r2, r1, lsl r1
     8b8:	0b590b58 	bleq	1643620 <__bss_end+0x163fdb8>
     8bc:	05160000 	ldreq	r0, [r6, #-0]
     8c0:	02133100 	andseq	r3, r3, #0, 2
     8c4:	17000006 	strne	r0, [r0, -r6]
     8c8:	0c3f012e 	ldfeqs	f0, [pc], #-184	; 818 <mem_query_int>
     8cc:	0b3a0e03 	bleq	e840e0 <__bss_end+0xe80878>
     8d0:	0c27053b 	cfstr32eq	mvfx0, [r7], #-236	; 0xffffff14
     8d4:	01111349 	tsteq	r1, r9, asr #6
     8d8:	06400112 			; <UNDEFINED> instruction: 0x06400112
     8dc:	00001301 	andeq	r1, r0, r1, lsl #6
     8e0:	03000518 	movweq	r0, #1304	; 0x518
     8e4:	3b0b3a0e 	blcc	2cf124 <__bss_end+0x2cb8bc>
     8e8:	02134905 	andseq	r4, r3, #81920	; 0x14000
     8ec:	19000006 	stmdbne	r0, {r1, r2}
     8f0:	0e030034 	mcreq	0, 0, r0, cr3, cr4, {1}
     8f4:	053b0b3a 	ldreq	r0, [fp, #-2874]!	; 0xfffff4c6
     8f8:	06021349 	streq	r1, [r2], -r9, asr #6
     8fc:	011a0000 	tsteq	sl, r0
     900:	01134901 	tsteq	r3, r1, lsl #18
     904:	1b000013 	blne	958 <mem_clk_pllenable+0x58>
     908:	13490021 	movtne	r0, #36897	; 0x9021
     90c:	00000b2f 	andeq	r0, r0, pc, lsr #22
     910:	0300341c 	movweq	r3, #1052	; 0x41c
     914:	3b0b3a0e 	blcc	2cf154 <__bss_end+0x2cb8ec>
     918:	0213490b 	andseq	r4, r3, #180224	; 0x2c000
     91c:	1d00000a 	stcne	0, cr0, [r0, #-40]	; 0xffffffd8
     920:	13490026 	movtne	r0, #36902	; 0x9026
     924:	01000000 	tsteq	r0, r0
     928:	0e250111 	mcreq	1, 1, r0, cr5, cr1, {0}
     92c:	0e030b13 	vmoveq.32	d3[0], r0
     930:	01110e1b 	tsteq	r1, fp, lsl lr
     934:	06100112 			; <UNDEFINED> instruction: 0x06100112
     938:	24020000 	strcs	r0, [r2], #-0
     93c:	3e0b0b00 	vmlacc.f64	d0, d11, d0
     940:	000e030b 	andeq	r0, lr, fp, lsl #6
     944:	00160300 	andseq	r0, r6, r0, lsl #6
     948:	0b3a0e03 	bleq	e8415c <__bss_end+0xe808f4>
     94c:	13490b3b 	movtne	r0, #39739	; 0x9b3b
     950:	24040000 	strcs	r0, [r4], #-0
     954:	3e0b0b00 	vmlacc.f64	d0, d11, d0
     958:	0008030b 	andeq	r0, r8, fp, lsl #6
     95c:	01040500 	tsteq	r4, r0, lsl #10
     960:	0b0b0e03 	bleq	2c4174 <__bss_end+0x2c090c>
     964:	0b3b0b3a 	bleq	ec3654 <__bss_end+0xebfdec>
     968:	00001301 	andeq	r1, r0, r1, lsl #6
     96c:	03002806 	movweq	r2, #2054	; 0x806
     970:	000d1c0e 	andeq	r1, sp, lr, lsl #24
     974:	012e0700 	teqeq	lr, r0, lsl #14
     978:	0e030c3f 	mcreq	12, 0, r0, cr3, cr15, {1}
     97c:	0b3b0b3a 	bleq	ec366c <__bss_end+0xebfe04>
     980:	01110c27 	tsteq	r1, r7, lsr #24
     984:	0a400112 	beq	1000dd4 <__bss_end+0xffd56c>
     988:	00001301 	andeq	r1, r0, r1, lsl #6
     98c:	03003408 	movweq	r3, #1032	; 0x408
     990:	3b0b3a08 	blcc	2cf1b8 <__bss_end+0x2cb950>
     994:	0013490b 	andseq	r4, r3, fp, lsl #18
     998:	00340900 	eorseq	r0, r4, r0, lsl #18
     99c:	0b3a0e03 	bleq	e841b0 <__bss_end+0xe80948>
     9a0:	13490b3b 	movtne	r0, #39739	; 0x9b3b
     9a4:	00000602 	andeq	r0, r0, r2, lsl #12
     9a8:	3f002e0a 	svccc	0x00002e0a
     9ac:	3a0e030c 	bcc	3815e4 <__bss_end+0x37dd7c>
     9b0:	270b3b0b 	strcs	r3, [fp, -fp, lsl #22]
     9b4:	1201110c 	andne	r1, r1, #12, 2
     9b8:	000a4001 	andeq	r4, sl, r1
     9bc:	00050b00 	andeq	r0, r5, r0, lsl #22
     9c0:	0b3a0e03 	bleq	e841d4 <__bss_end+0xe8096c>
     9c4:	13490b3b 	movtne	r0, #39739	; 0x9b3b
     9c8:	00000a02 	andeq	r0, r0, r2, lsl #20
     9cc:	0300050c 	movweq	r0, #1292	; 0x50c
     9d0:	3b0b3a08 	blcc	2cf1f8 <__bss_end+0x2cb990>
     9d4:	0213490b 	andseq	r4, r3, #180224	; 0x2c000
     9d8:	0d00000a 	stceq	0, cr0, [r0, #-40]	; 0xffffffd8
     9dc:	0c3f012e 	ldfeqs	f0, [pc], #-184	; 92c <mem_clk_pllenable+0x2c>
     9e0:	0b3a0e03 	bleq	e841f4 <__bss_end+0xe8098c>
     9e4:	0c270b3b 	stceq	11, cr0, [r7], #-236	; 0xffffff14
     9e8:	01120111 	tsteq	r2, r1, lsl r1
     9ec:	13010640 	movwne	r0, #5696	; 0x1640
     9f0:	340e0000 	strcc	r0, [lr], #-0
     9f4:	3a080300 	bcc	2015fc <__bss_end+0x1fdd94>
     9f8:	490b3b0b 	stmdbmi	fp, {r0, r1, r3, r8, r9, fp, ip, sp}
     9fc:	00060213 	andeq	r0, r6, r3, lsl r2
     a00:	012e0f00 	teqeq	lr, r0, lsl #30
     a04:	0e030c3f 	mcreq	12, 0, r0, cr3, cr15, {1}
     a08:	0b3b0b3a 	bleq	ec36f8 <__bss_end+0xebfe90>
     a0c:	13490c27 	movtne	r0, #39975	; 0x9c27
     a10:	01120111 	tsteq	r2, r1, lsl r1
     a14:	13010a40 	movwne	r0, #6720	; 0x1a40
     a18:	05100000 	ldreq	r0, [r0, #-0]
     a1c:	3a0e0300 	bcc	381624 <__bss_end+0x37ddbc>
     a20:	490b3b0b 	stmdbmi	fp, {r0, r1, r3, r8, r9, fp, ip, sp}
     a24:	00060213 	andeq	r0, r6, r3, lsl r2
     a28:	00341100 	eorseq	r1, r4, r0, lsl #2
     a2c:	0b3a0e03 	bleq	e84240 <__bss_end+0xe809d8>
     a30:	13490b3b 	movtne	r0, #39739	; 0x9b3b
     a34:	00000a02 	andeq	r0, r0, r2, lsl #20
     a38:	3f012e12 	svccc	0x00012e12
     a3c:	3a0e030c 	bcc	381674 <__bss_end+0x37de0c>
     a40:	270b3b0b 	strcs	r3, [fp, -fp, lsl #22]
     a44:	1113490c 	tstne	r3, ip, lsl #18
     a48:	40011201 	andmi	r1, r1, r1, lsl #4
     a4c:	00130106 	andseq	r0, r3, r6, lsl #2
     a50:	012e1300 	teqeq	lr, r0, lsl #6
     a54:	0e030c3f 	mcreq	12, 0, r0, cr3, cr15, {1}
     a58:	053b0b3a 	ldreq	r0, [fp, #-2874]!	; 0xfffff4c6
     a5c:	13490c27 	movtne	r0, #39975	; 0x9c27
     a60:	01120111 	tsteq	r2, r1, lsl r1
     a64:	13010640 	movwne	r0, #5696	; 0x1640
     a68:	34140000 	ldrcc	r0, [r4], #-0
     a6c:	3a080300 	bcc	201674 <__bss_end+0x1fde0c>
     a70:	49053b0b 	stmdbmi	r5, {r0, r1, r3, r8, r9, fp, ip, sp}
     a74:	15000013 	strne	r0, [r0, #-19]	; 0xffffffed
     a78:	0e030034 	mcreq	0, 0, r0, cr3, cr4, {1}
     a7c:	053b0b3a 	ldreq	r0, [fp, #-2874]!	; 0xfffff4c6
     a80:	06021349 	streq	r1, [r2], -r9, asr #6
     a84:	34160000 	ldrcc	r0, [r6], #-0
     a88:	3a0e0300 	bcc	381690 <__bss_end+0x37de28>
     a8c:	49053b0b 	stmdbmi	r5, {r0, r1, r3, r8, r9, fp, ip, sp}
     a90:	000a0213 	andeq	r0, sl, r3, lsl r2
     a94:	010b1700 	tsteq	fp, r0, lsl #14
     a98:	01120111 	tsteq	r2, r1, lsl r1
     a9c:	2e180000 	cdpcs	0, 1, cr0, cr8, cr0, {0}
     aa0:	030c3f01 	movweq	r3, #52993	; 0xcf01
     aa4:	3b0b3a0e 	blcc	2cf2e4 <__bss_end+0x2cba7c>
     aa8:	3c134905 	ldccc	9, cr4, [r3], {5}
     aac:	0013010c 	andseq	r0, r3, ip, lsl #2
     ab0:	00181900 	andseq	r1, r8, r0, lsl #18
     ab4:	2e1a0000 	cdpcs	0, 1, cr0, cr10, cr0, {0}
     ab8:	030c3f01 	movweq	r3, #52993	; 0xcf01
     abc:	3b0b3a0e 	blcc	2cf2fc <__bss_end+0x2cba94>
     ac0:	3c134905 	ldccc	9, cr4, [r3], {5}
     ac4:	1b00000c 	blne	afc <_mem_twi_soft_reset>
     ac8:	0e03012e 	adfeqsp	f0, f3, #0.5
     acc:	053b0b3a 	ldreq	r0, [fp, #-2874]!	; 0xfffff4c6
     ad0:	13490c27 	movtne	r0, #39975	; 0x9c27
     ad4:	13010b20 	movwne	r0, #6944	; 0x1b20
     ad8:	341c0000 	ldrcc	r0, [ip], #-0
     adc:	3a0e0300 	bcc	3816e4 <__bss_end+0x37de7c>
     ae0:	49053b0b 	stmdbmi	r5, {r0, r1, r3, r8, r9, fp, ip, sp}
     ae4:	1d000013 	stcne	0, cr0, [r0, #-76]	; 0xffffffb4
     ae8:	1331011d 	teqne	r1, #1073741831	; 0x40000007
     aec:	01120111 	tsteq	r2, r1, lsl r1
     af0:	05590b58 	ldrbeq	r0, [r9, #-2904]	; 0xfffff4a8
     af4:	341e0000 	ldrcc	r0, [lr], #-0
     af8:	02133100 	andseq	r3, r3, #0, 2
     afc:	1f000006 	svcne	0x00000006
     b00:	13310034 	teqne	r1, #52	; 0x34
     b04:	00000b1c 	andeq	r0, r0, ip, lsl fp
     b08:	3f002e20 	svccc	0x00002e20
     b0c:	3a0e030c 	bcc	381744 <__bss_end+0x37dedc>
     b10:	27053b0b 	strcs	r3, [r5, -fp, lsl #22]
     b14:	1113490c 	tstne	r3, ip, lsl #18
     b18:	40011201 	andmi	r1, r1, r1, lsl #4
     b1c:	2100000a 	tstcs	r0, sl
     b20:	0c3f002e 	ldceq	0, cr0, [pc], #-184	; a70 <mem_clk_set_pll_factor+0x4c>
     b24:	0b3a0e03 	bleq	e84338 <__bss_end+0xe80ad0>
     b28:	0c27053b 	cfstr32eq	mvfx0, [r7], #-236	; 0xffffff14
     b2c:	01120111 	tsteq	r2, r1, lsl r1
     b30:	00000a40 	andeq	r0, r0, r0, asr #20
     b34:	3f012e22 	svccc	0x00012e22
     b38:	3a0e030c 	bcc	381770 <__bss_end+0x37df08>
     b3c:	27053b0b 	strcs	r3, [r5, -fp, lsl #22]
     b40:	1201110c 	andne	r1, r1, #12, 2
     b44:	010a4001 	tsteq	sl, r1
     b48:	23000013 	movwcs	r0, #19
     b4c:	0e030005 	cdpeq	0, 0, cr0, cr3, cr5, {0}
     b50:	053b0b3a 	ldreq	r0, [fp, #-2874]!	; 0xfffff4c6
     b54:	0a021349 	beq	85880 <__bss_end+0x82018>
     b58:	05240000 	streq	r0, [r4, #-0]!
     b5c:	3a080300 	bcc	201764 <__bss_end+0x1fdefc>
     b60:	49053b0b 	stmdbmi	r5, {r0, r1, r3, r8, r9, fp, ip, sp}
     b64:	000a0213 	andeq	r0, sl, r3, lsl r2
     b68:	012e2500 	teqeq	lr, r0, lsl #10
     b6c:	0e030c3f 	mcreq	12, 0, r0, cr3, cr15, {1}
     b70:	053b0b3a 	ldreq	r0, [fp, #-2874]!	; 0xfffff4c6
     b74:	13490c27 	movtne	r0, #39975	; 0x9c27
     b78:	01120111 	tsteq	r2, r1, lsl r1
     b7c:	13010a40 	movwne	r0, #6720	; 0x1a40
     b80:	2e260000 	cdpcs	0, 2, cr0, cr6, cr0, {0}
     b84:	030c3f01 	movweq	r3, #52993	; 0xcf01
     b88:	3b0b3a0e 	blcc	2cf3c8 <__bss_end+0x2cbb60>
     b8c:	110c2705 	tstne	ip, r5, lsl #14
     b90:	40011201 	andmi	r1, r1, r1, lsl #4
     b94:	0000000a 	andeq	r0, r0, sl
     b98:	25011101 	strcs	r1, [r1, #-257]	; 0xfffffeff
     b9c:	030b130e 	movweq	r1, #45838	; 0xb30e
     ba0:	110e1b0e 	tstne	lr, lr, lsl #22
     ba4:	10011201 	andne	r1, r1, r1, lsl #4
     ba8:	02000006 	andeq	r0, r0, #6
     bac:	0b0b0024 	bleq	2c0c44 <__bss_end+0x2bd3dc>
     bb0:	0e030b3e 	vmoveq.16	d3[0], r0
     bb4:	16030000 	strne	r0, [r3], -r0
     bb8:	3a0e0300 	bcc	3817c0 <__bss_end+0x37df58>
     bbc:	490b3b0b 	stmdbmi	fp, {r0, r1, r3, r8, r9, fp, ip, sp}
     bc0:	04000013 	streq	r0, [r0], #-19	; 0xffffffed
     bc4:	0b0b0024 	bleq	2c0c5c <__bss_end+0x2bd3f4>
     bc8:	08030b3e 	stmdaeq	r3, {r1, r2, r3, r4, r5, r8, r9, fp}
     bcc:	13050000 	movwne	r0, #20480	; 0x5000
     bd0:	0b0e0301 	bleq	3817dc <__bss_end+0x37df74>
     bd4:	3b0b3a0b 	blcc	2cf408 <__bss_end+0x2cbba0>
     bd8:	0013010b 	andseq	r0, r3, fp, lsl #2
     bdc:	000d0600 	andeq	r0, sp, r0, lsl #12
     be0:	0b3a0e03 	bleq	e843f4 <__bss_end+0xe80b8c>
     be4:	13490b3b 	movtne	r0, #39739	; 0x9b3b
     be8:	00000a38 	andeq	r0, r0, r8, lsr sl
     bec:	3f002e07 	svccc	0x00002e07
     bf0:	3a0e030c 	bcc	381828 <__bss_end+0x37dfc0>
     bf4:	27053b0b 	strcs	r3, [r5, -fp, lsl #22]
     bf8:	2013490c 	andscs	r4, r3, ip, lsl #18
     bfc:	0800000b 	stmdaeq	r0, {r0, r1, r3}
     c00:	0e03012e 	adfeqsp	f0, f3, #0.5
     c04:	0b3b0b3a 	bleq	ec38f4 <__bss_end+0xec008c>
     c08:	13490c27 	movtne	r0, #39975	; 0x9c27
     c0c:	01120111 	tsteq	r2, r1, lsl r1
     c10:	13010640 	movwne	r0, #5696	; 0x1640
     c14:	05090000 	streq	r0, [r9, #-0]
     c18:	3a0e0300 	bcc	381820 <__bss_end+0x37dfb8>
     c1c:	490b3b0b 	stmdbmi	fp, {r0, r1, r3, r8, r9, fp, ip, sp}
     c20:	00060213 	andeq	r0, r6, r3, lsl r2
     c24:	00340a00 	eorseq	r0, r4, r0, lsl #20
     c28:	0b3a0e03 	bleq	e8443c <__bss_end+0xe80bd4>
     c2c:	13490b3b 	movtne	r0, #39739	; 0x9b3b
     c30:	00000602 	andeq	r0, r0, r2, lsl #12
     c34:	3f012e0b 	svccc	0x00012e0b
     c38:	3a0e030c 	bcc	381870 <__bss_end+0x37e008>
     c3c:	270b3b0b 	strcs	r3, [fp, -fp, lsl #22]
     c40:	1201110c 	andne	r1, r1, #12, 2
     c44:	01064001 	tsteq	r6, r1
     c48:	0c000013 	stceq	0, cr0, [r0], {19}
     c4c:	0c3f012e 	ldfeqs	f0, [pc], #-184	; b9c <_mem_twi_soft_reset_nommu+0x4c>
     c50:	0b3a0e03 	bleq	e84464 <__bss_end+0xe80bfc>
     c54:	0c270b3b 	stceq	11, cr0, [r7], #-236	; 0xffffff14
     c58:	01120111 	tsteq	r2, r1, lsl r1
     c5c:	13010a40 	movwne	r0, #6720	; 0x1a40
     c60:	340d0000 	strcc	r0, [sp], #-0
     c64:	3a080300 	bcc	20186c <__bss_end+0x1fe004>
     c68:	490b3b0b 	stmdbmi	fp, {r0, r1, r3, r8, r9, fp, ip, sp}
     c6c:	000b1c13 	andeq	r1, fp, r3, lsl ip
     c70:	00340e00 	eorseq	r0, r4, r0, lsl #28
     c74:	0b3a0803 	bleq	e82c88 <__bss_end+0xe7f420>
     c78:	13490b3b 	movtne	r0, #39739	; 0x9b3b
     c7c:	00000602 	andeq	r0, r0, r2, lsl #12
     c80:	0300340f 	movweq	r3, #1039	; 0x40f
     c84:	3b0b3a0e 	blcc	2cf4c4 <__bss_end+0x2cbc5c>
     c88:	0213490b 	andseq	r4, r3, #180224	; 0x2c000
     c8c:	1000000a 	andne	r0, r0, sl
     c90:	0c3f012e 	ldfeqs	f0, [pc], #-184	; be0 <_mem_twi_stop+0x3c>
     c94:	0b3a0e03 	bleq	e844a8 <__bss_end+0xe80c40>
     c98:	0c27053b 	cfstr32eq	mvfx0, [r7], #-236	; 0xffffff14
     c9c:	01120111 	tsteq	r2, r1, lsl r1
     ca0:	13010a40 	movwne	r0, #6720	; 0x1a40
     ca4:	34110000 	ldrcc	r0, [r1], #-0
     ca8:	3a080300 	bcc	2018b0 <__bss_end+0x1fe048>
     cac:	49053b0b 	stmdbmi	r5, {r0, r1, r3, r8, r9, fp, ip, sp}
     cb0:	00060213 	andeq	r0, r6, r3, lsl r2
     cb4:	012e1200 	teqeq	lr, r0, lsl #4
     cb8:	0e030c3f 	mcreq	12, 0, r0, cr3, cr15, {1}
     cbc:	053b0b3a 	ldreq	r0, [fp, #-2874]!	; 0xfffff4c6
     cc0:	01110c27 	tsteq	r1, r7, lsr #24
     cc4:	06400112 			; <UNDEFINED> instruction: 0x06400112
     cc8:	00001301 	andeq	r1, r0, r1, lsl #6
     ccc:	03000513 	movweq	r0, #1299	; 0x513
     cd0:	3b0b3a08 	blcc	2cf4f8 <__bss_end+0x2cbc90>
     cd4:	02134905 	andseq	r4, r3, #81920	; 0x14000
     cd8:	14000006 	strne	r0, [r0], #-6
     cdc:	0e030034 	mcreq	0, 0, r0, cr3, cr4, {1}
     ce0:	053b0b3a 	ldreq	r0, [fp, #-2874]!	; 0xfffff4c6
     ce4:	06021349 	streq	r1, [r2], -r9, asr #6
     ce8:	2e150000 	cdpcs	0, 1, cr0, cr5, cr0, {0}
     cec:	11133100 	tstne	r3, r0, lsl #2
     cf0:	40011201 	andmi	r1, r1, r1, lsl #4
     cf4:	1600000a 	strne	r0, [r0], -sl
     cf8:	0c3f012e 	ldfeqs	f0, [pc], #-184	; c48 <mem_twi_init>
     cfc:	0b3a0e03 	bleq	e84510 <__bss_end+0xe80ca8>
     d00:	0c27053b 	cfstr32eq	mvfx0, [r7], #-236	; 0xffffff14
     d04:	01111349 	tsteq	r1, r9, asr #6
     d08:	0a400112 	beq	1001158 <__bss_end+0xffd8f0>
     d0c:	00001301 	andeq	r1, r0, r1, lsl #6
     d10:	03000517 	movweq	r0, #1303	; 0x517
     d14:	3b0b3a08 	blcc	2cf53c <__bss_end+0x2cbcd4>
     d18:	02134905 	andseq	r4, r3, #81920	; 0x14000
     d1c:	1800000a 	stmdane	r0, {r1, r3}
     d20:	0c3f012e 	ldfeqs	f0, [pc], #-184	; c70 <mem_twi_init+0x28>
     d24:	0b3a0e03 	bleq	e84538 <__bss_end+0xe80cd0>
     d28:	0c27053b 	cfstr32eq	mvfx0, [r7], #-236	; 0xffffff14
     d2c:	01111349 	tsteq	r1, r9, asr #6
     d30:	06400112 			; <UNDEFINED> instruction: 0x06400112
     d34:	00001301 	andeq	r1, r0, r1, lsl #6
     d38:	03000519 	movweq	r0, #1305	; 0x519
     d3c:	3b0b3a0e 	blcc	2cf57c <__bss_end+0x2cbd14>
     d40:	02134905 	andseq	r4, r3, #81920	; 0x14000
     d44:	1a000006 	bne	d64 <twi_byte_rw+0x2c>
     d48:	08030034 	stmdaeq	r3, {r2, r4, r5}
     d4c:	053b0b3a 	ldreq	r0, [fp, #-2874]!	; 0xfffff4c6
     d50:	00001349 	andeq	r1, r0, r9, asr #6
     d54:	0b000f1b 	bleq	49c8 <__bss_end+0x1160>
     d58:	0013490b 	andseq	r4, r3, fp, lsl #18
     d5c:	002e1c00 	eoreq	r1, lr, r0, lsl #24
     d60:	0e030c3f 	mcreq	12, 0, r0, cr3, cr15, {1}
     d64:	053b0b3a 	ldreq	r0, [fp, #-2874]!	; 0xfffff4c6
     d68:	13490c27 	movtne	r0, #39975	; 0x9c27
     d6c:	01120111 	tsteq	r2, r1, lsl r1
     d70:	00000a40 	andeq	r0, r0, r0, asr #20
     d74:	0300341d 	movweq	r3, #1053	; 0x41d
     d78:	3b0b3a0e 	blcc	2cf5b8 <__bss_end+0x2cbd50>
     d7c:	02134905 	andseq	r4, r3, #81920	; 0x14000
     d80:	1e00000a 	cdpne	0, 0, cr0, cr0, cr10, {0}
     d84:	0c3f002e 	ldceq	0, cr0, [pc], #-184	; cd4 <mem_twi_exit+0x3c>
     d88:	0b3a0e03 	bleq	e8459c <__bss_end+0xe80d34>
     d8c:	0c27053b 	cfstr32eq	mvfx0, [r7], #-236	; 0xffffff14
     d90:	01120111 	tsteq	r2, r1, lsl r1
     d94:	00000a40 	andeq	r0, r0, r0, asr #20
     d98:	0300341f 	movweq	r3, #1055	; 0x41f
     d9c:	3b0b3a08 	blcc	2cf5c4 <__bss_end+0x2cbd5c>
     da0:	0213490b 	andseq	r4, r3, #180224	; 0x2c000
     da4:	2000000a 	andcs	r0, r0, sl
     da8:	13490101 	movtne	r0, #37121	; 0x9101
     dac:	00001301 	andeq	r1, r0, r1, lsl #6
     db0:	49002121 	stmdbmi	r0, {r0, r5, r8, sp}
     db4:	000b2f13 	andeq	r2, fp, r3, lsl pc
     db8:	00342200 	eorseq	r2, r4, r0, lsl #4
     dbc:	0b3a0e03 	bleq	e845d0 <__bss_end+0xe80d68>
     dc0:	1349053b 	movtne	r0, #38203	; 0x953b
     dc4:	0c3c0c3f 	ldceq	12, cr0, [ip], #-252	; 0xffffff04
     dc8:	34230000 	strtcc	r0, [r3], #-0
     dcc:	3a0e0300 	bcc	3819d4 <__bss_end+0x37e16c>
     dd0:	49053b0b 	stmdbmi	r5, {r0, r1, r3, r8, r9, fp, ip, sp}
     dd4:	020c3f13 	andeq	r3, ip, #19, 30	; 0x4c
     dd8:	0000000a 	andeq	r0, r0, sl
     ddc:	25011101 	strcs	r1, [r1, #-257]	; 0xfffffeff
     de0:	030b130e 	movweq	r1, #45838	; 0xb30e
     de4:	110e1b0e 	tstne	lr, lr, lsl #22
     de8:	10011201 	andne	r1, r1, r1, lsl #4
     dec:	02000006 	andeq	r0, r0, #6
     df0:	0b0b0024 	bleq	2c0e88 <__bss_end+0x2bd620>
     df4:	0e030b3e 	vmoveq.16	d3[0], r0
     df8:	16030000 	strne	r0, [r3], -r0
     dfc:	3a0e0300 	bcc	381a04 <__bss_end+0x37e19c>
     e00:	490b3b0b 	stmdbmi	fp, {r0, r1, r3, r8, r9, fp, ip, sp}
     e04:	04000013 	streq	r0, [r0], #-19	; 0xffffffed
     e08:	0b0b0024 	bleq	2c0ea0 <__bss_end+0x2bd638>
     e0c:	08030b3e 	stmdaeq	r3, {r1, r2, r3, r4, r5, r8, r9, fp}
     e10:	2e050000 	cdpcs	0, 0, cr0, cr5, cr0, {0}
     e14:	3a0e0301 	bcc	381a20 <__bss_end+0x37e1b8>
     e18:	270b3b0b 	strcs	r3, [fp, -fp, lsl #22]
     e1c:	1113490c 	tstne	r3, ip, lsl #18
     e20:	40011201 	andmi	r1, r1, r1, lsl #4
     e24:	0013010a 	andseq	r0, r3, sl, lsl #2
     e28:	00050600 	andeq	r0, r5, r0, lsl #12
     e2c:	0b3a0e03 	bleq	e84640 <__bss_end+0xe80dd8>
     e30:	13490b3b 	movtne	r0, #39739	; 0x9b3b
     e34:	00000602 	andeq	r0, r0, r2, lsl #12
     e38:	03003407 	movweq	r3, #1031	; 0x407
     e3c:	3b0b3a0e 	blcc	2cf67c <__bss_end+0x2cbe14>
     e40:	0213490b 	andseq	r4, r3, #180224	; 0x2c000
     e44:	08000006 	stmdaeq	r0, {r1, r2}
     e48:	0c3f012e 	ldfeqs	f0, [pc], #-184	; d98 <twi_byte_rw+0x60>
     e4c:	0b3a0e03 	bleq	e84660 <__bss_end+0xe80df8>
     e50:	0c270b3b 	stceq	11, cr0, [r7], #-236	; 0xffffff14
     e54:	01120111 	tsteq	r2, r1, lsl r1
     e58:	13010640 	movwne	r0, #5696	; 0x1640
     e5c:	34090000 	strcc	r0, [r9], #-0
     e60:	3a0e0300 	bcc	381a68 <__bss_end+0x37e200>
     e64:	490b3b0b 	stmdbmi	fp, {r0, r1, r3, r8, r9, fp, ip, sp}
     e68:	000a0213 	andeq	r0, sl, r3, lsl r2
     e6c:	00350a00 	eorseq	r0, r5, r0, lsl #20
     e70:	00001349 	andeq	r1, r0, r9, asr #6
     e74:	3f012e0b 	svccc	0x00012e0b
     e78:	3a0e030c 	bcc	381ab0 <__bss_end+0x37e248>
     e7c:	270b3b0b 	strcs	r3, [fp, -fp, lsl #22]
     e80:	1201110c 	andne	r1, r1, #12, 2
     e84:	010a4001 	tsteq	sl, r1
     e88:	0c000013 	stceq	0, cr0, [r0], {19}
     e8c:	08030005 	stmdaeq	r3, {r0, r2}
     e90:	0b3b0b3a 	bleq	ec3b80 <__bss_end+0xec0318>
     e94:	0a021349 	beq	85bc0 <__bss_end+0x82358>
     e98:	2e0d0000 	cdpcs	0, 0, cr0, cr13, cr0, {0}
     e9c:	030c3f00 	movweq	r3, #52992	; 0xcf00
     ea0:	3b0b3a0e 	blcc	2cf6e0 <__bss_end+0x2cbe78>
     ea4:	490c270b 	stmdbmi	ip, {r0, r1, r3, r8, r9, sl, sp}
     ea8:	12011113 	andne	r1, r1, #-1073741820	; 0xc0000004
     eac:	000a4001 	andeq	r4, sl, r1
     eb0:	012e0e00 	teqeq	lr, r0, lsl #28
     eb4:	0e030c3f 	mcreq	12, 0, r0, cr3, cr15, {1}
     eb8:	0b3b0b3a 	bleq	ec3ba8 <__bss_end+0xec0340>
     ebc:	13490c27 	movtne	r0, #39975	; 0x9c27
     ec0:	01120111 	tsteq	r2, r1, lsl r1
     ec4:	13010640 	movwne	r0, #5696	; 0x1640
     ec8:	050f0000 	streq	r0, [pc, #-0]	; ed0 <twi_byte_rw+0x198>
     ecc:	3a080300 	bcc	201ad4 <__bss_end+0x1fe26c>
     ed0:	490b3b0b 	stmdbmi	fp, {r0, r1, r3, r8, r9, fp, ip, sp}
     ed4:	00060213 	andeq	r0, r6, r3, lsl r2
     ed8:	00341000 	eorseq	r1, r4, r0
     edc:	0b3a0803 	bleq	e82ef0 <__bss_end+0xe7f688>
     ee0:	13490b3b 	movtne	r0, #39739	; 0x9b3b
     ee4:	00000a02 	andeq	r0, r0, r2, lsl #20
     ee8:	3f012e11 	svccc	0x00012e11
     eec:	3a0e030c 	bcc	381b24 <__bss_end+0x37e2bc>
     ef0:	270b3b0b 	strcs	r3, [fp, -fp, lsl #22]
     ef4:	1113490c 	tstne	r3, ip, lsl #18
     ef8:	40011201 	andmi	r1, r1, r1, lsl #4
     efc:	0013010a 	andseq	r0, r3, sl, lsl #2
     f00:	002e1200 	eoreq	r1, lr, r0, lsl #4
     f04:	0e030c3f 	mcreq	12, 0, r0, cr3, cr15, {1}
     f08:	0b3b0b3a 	bleq	ec3bf8 <__bss_end+0xec0390>
     f0c:	01110c27 	tsteq	r1, r7, lsr #24
     f10:	0a400112 	beq	1001360 <__bss_end+0xffdaf8>
     f14:	05130000 	ldreq	r0, [r3, #-0]
     f18:	3a0e0300 	bcc	381b20 <__bss_end+0x37e2b8>
     f1c:	490b3b0b 	stmdbmi	fp, {r0, r1, r3, r8, r9, fp, ip, sp}
     f20:	000a0213 	andeq	r0, sl, r3, lsl r2
     f24:	00341400 	eorseq	r1, r4, r0, lsl #8
     f28:	0b3a0803 	bleq	e82f3c <__bss_end+0xe7f6d4>
     f2c:	13490b3b 	movtne	r0, #39739	; 0x9b3b
     f30:	00000602 	andeq	r0, r0, r2, lsl #12
     f34:	3f012e15 	svccc	0x00012e15
     f38:	3a0e030c 	bcc	381b70 <__bss_end+0x37e308>
     f3c:	27053b0b 	strcs	r3, [r5, -fp, lsl #22]
     f40:	1201110c 	andne	r1, r1, #12, 2
     f44:	010a4001 	tsteq	sl, r1
     f48:	16000013 			; <UNDEFINED> instruction: 0x16000013
     f4c:	08030005 	stmdaeq	r3, {r0, r2}
     f50:	053b0b3a 	ldreq	r0, [fp, #-2874]!	; 0xfffff4c6
     f54:	06021349 	streq	r1, [r2], -r9, asr #6
     f58:	2e170000 	cdpcs	0, 1, cr0, cr7, cr0, {0}
     f5c:	030c3f00 	movweq	r3, #52992	; 0xcf00
     f60:	3b0b3a0e 	blcc	2cf7a0 <__bss_end+0x2cbf38>
     f64:	110c2705 	tstne	ip, r5, lsl #14
     f68:	40011201 	andmi	r1, r1, r1, lsl #4
     f6c:	1800000a 	stmdane	r0, {r1, r3}
     f70:	0e030034 	mcreq	0, 0, r0, cr3, cr4, {1}
     f74:	053b0b3a 	ldreq	r0, [fp, #-2874]!	; 0xfffff4c6
     f78:	06021349 	streq	r1, [r2], -r9, asr #6
     f7c:	2e190000 	cdpcs	0, 1, cr0, cr9, cr0, {0}
     f80:	030c3f01 	movweq	r3, #52993	; 0xcf01
     f84:	3b0b3a0e 	blcc	2cf7c4 <__bss_end+0x2cbf5c>
     f88:	110c2705 	tstne	ip, r5, lsl #14
     f8c:	40011201 	andmi	r1, r1, r1, lsl #4
     f90:	00130106 	andseq	r0, r3, r6, lsl #2
     f94:	11010000 	tstne	r1, r0
     f98:	11061000 	tstne	r6, r0
     f9c:	03011201 	movweq	r1, #4609	; 0x1201
     fa0:	25081b08 	strcs	r1, [r8, #-2824]	; 0xfffff4f8
     fa4:	00051308 	andeq	r1, r5, r8, lsl #6
     fa8:	11010000 	tstne	r1, r0
     fac:	130e2501 	movwne	r2, #58625	; 0xe501
     fb0:	1b0e030b 	blne	381be4 <__bss_end+0x37e37c>
     fb4:	1201110e 	andne	r1, r1, #-2147483645	; 0x80000003
     fb8:	00061001 	andeq	r1, r6, r1
     fbc:	00240200 	eoreq	r0, r4, r0, lsl #4
     fc0:	0b3e0b0b 	bleq	f83bf4 <__bss_end+0xf8038c>
     fc4:	00000e03 	andeq	r0, r0, r3, lsl #28
     fc8:	0b002403 	bleq	9fdc <__bss_end+0x6774>
     fcc:	030b3e0b 	movweq	r3, #48651	; 0xbe0b
     fd0:	04000008 	streq	r0, [r0], #-8
     fd4:	0e030016 	mcreq	0, 0, r0, cr3, cr6, {0}
     fd8:	0b3b0b3a 	bleq	ec3cc8 <__bss_end+0xec0460>
     fdc:	00001349 	andeq	r1, r0, r9, asr #6
     fe0:	03011305 	movweq	r1, #4869	; 0x1305
     fe4:	3a0b0b0e 	bcc	2c3c24 <__bss_end+0x2c03bc>
     fe8:	010b3b0b 	tsteq	fp, fp, lsl #22
     fec:	06000013 			; <UNDEFINED> instruction: 0x06000013
     ff0:	0e03000d 	cdpeq	0, 0, cr0, cr3, cr13, {0}
     ff4:	0b3b0b3a 	bleq	ec3ce4 <__bss_end+0xec047c>
     ff8:	0a381349 	beq	e05d24 <__bss_end+0xe024bc>
     ffc:	0d070000 	stceq	0, cr0, [r7, #-0]
    1000:	3a080300 	bcc	201c08 <__bss_end+0x1fe3a0>
    1004:	490b3b0b 	stmdbmi	fp, {r0, r1, r3, r8, r9, fp, ip, sp}
    1008:	000a3813 	andeq	r3, sl, r3, lsl r8
    100c:	012e0800 	teqeq	lr, r0, lsl #16
    1010:	0e030c3f 	mcreq	12, 0, r0, cr3, cr15, {1}
    1014:	0b3b0b3a 	bleq	ec3d04 <__bss_end+0xec049c>
    1018:	01110c27 	tsteq	r1, r7, lsr #24
    101c:	0a400112 	beq	100146c <__bss_end+0xffdc04>
    1020:	00001301 	andeq	r1, r0, r1, lsl #6
    1024:	03000509 	movweq	r0, #1289	; 0x509
    1028:	3b0b3a0e 	blcc	2cf868 <__bss_end+0x2cc000>
    102c:	0213490b 	andseq	r4, r3, #180224	; 0x2c000
    1030:	0a00000a 	beq	1060 <twi_byte_rw_nommu+0xe0>
    1034:	0b0b000f 	bleq	2c1078 <__bss_end+0x2bd810>
    1038:	00001349 	andeq	r1, r0, r9, asr #6
    103c:	3f012e0b 	svccc	0x00012e0b
    1040:	3a0e030c 	bcc	381c78 <__bss_end+0x37e410>
    1044:	270b3b0b 	strcs	r3, [fp, -fp, lsl #22]
    1048:	1201110c 	andne	r1, r1, #12, 2
    104c:	000a4001 	andeq	r4, sl, r1
    1050:	00340c00 	eorseq	r0, r4, r0, lsl #24
    1054:	0b3a0803 	bleq	e83068 <__bss_end+0xe7f800>
    1058:	13490b3b 	movtne	r0, #39739	; 0x9b3b
    105c:	00000602 	andeq	r0, r0, r2, lsl #12
    1060:	01110100 	tsteq	r1, r0, lsl #2
    1064:	0b130e25 	bleq	4c4900 <__bss_end+0x4c1098>
    1068:	0e1b0e03 	cdpeq	14, 1, cr0, cr11, cr3, {0}
    106c:	01120111 	tsteq	r2, r1, lsl r1
    1070:	00000610 	andeq	r0, r0, r0, lsl r6
    1074:	0b002402 	bleq	a084 <__bss_end+0x681c>
    1078:	030b3e0b 	movweq	r3, #48651	; 0xbe0b
    107c:	0300000e 	movweq	r0, #14
    1080:	0b0b0024 	bleq	2c1118 <__bss_end+0x2bd8b0>
    1084:	08030b3e 	stmdaeq	r3, {r1, r2, r3, r4, r5, r8, r9, fp}
    1088:	16040000 	strne	r0, [r4], -r0
    108c:	3a0e0300 	bcc	381c94 <__bss_end+0x37e42c>
    1090:	490b3b0b 	stmdbmi	fp, {r0, r1, r3, r8, r9, fp, ip, sp}
    1094:	05000013 	streq	r0, [r0, #-19]	; 0xffffffed
    1098:	0e030113 	mcreq	1, 0, r0, cr3, cr3, {0}
    109c:	0b3a0b0b 	bleq	e83cd0 <__bss_end+0xe80468>
    10a0:	13010b3b 	movwne	r0, #6971	; 0x1b3b
    10a4:	0d060000 	stceq	0, cr0, [r6, #-0]
    10a8:	3a0e0300 	bcc	381cb0 <__bss_end+0x37e448>
    10ac:	490b3b0b 	stmdbmi	fp, {r0, r1, r3, r8, r9, fp, ip, sp}
    10b0:	000a3813 	andeq	r3, sl, r3, lsl r8
    10b4:	000d0700 	andeq	r0, sp, r0, lsl #14
    10b8:	0b3a0803 	bleq	e830cc <__bss_end+0xe7f864>
    10bc:	13490b3b 	movtne	r0, #39739	; 0x9b3b
    10c0:	00000a38 	andeq	r0, r0, r8, lsr sl
    10c4:	3f012e08 	svccc	0x00012e08
    10c8:	3a0e030c 	bcc	381d00 <__bss_end+0x37e498>
    10cc:	270b3b0b 	strcs	r3, [fp, -fp, lsl #22]
    10d0:	1201110c 	andne	r1, r1, #12, 2
    10d4:	010a4001 	tsteq	sl, r1
    10d8:	09000013 	stmdbeq	r0, {r0, r1, r4}
    10dc:	0e030005 	cdpeq	0, 0, cr0, cr3, cr5, {0}
    10e0:	0b3b0b3a 	bleq	ec3dd0 <__bss_end+0xec0568>
    10e4:	0a021349 	beq	85e10 <__bss_end+0x825a8>
    10e8:	0f0a0000 	svceq	0x000a0000
    10ec:	490b0b00 	stmdbmi	fp, {r8, r9, fp}
    10f0:	0b000013 	bleq	1144 <twi_byte_rw_nommu+0x1c4>
    10f4:	0c3f012e 	ldfeqs	f0, [pc], #-184	; 1044 <twi_byte_rw_nommu+0xc4>
    10f8:	0b3a0e03 	bleq	e8490c <__bss_end+0xe810a4>
    10fc:	0c27053b 	cfstr32eq	mvfx0, [r7], #-236	; 0xffffff14
    1100:	01120111 	tsteq	r2, r1, lsl r1
    1104:	13010a40 	movwne	r0, #6720	; 0x1a40
    1108:	050c0000 	streq	r0, [ip, #-0]
    110c:	3a0e0300 	bcc	381d14 <__bss_end+0x37e4ac>
    1110:	49053b0b 	stmdbmi	r5, {r0, r1, r3, r8, r9, fp, ip, sp}
    1114:	000a0213 	andeq	r0, sl, r3, lsl r2
    1118:	00340d00 	eorseq	r0, r4, r0, lsl #26
    111c:	0b3a0803 	bleq	e83130 <__bss_end+0xe7f8c8>
    1120:	1349053b 	movtne	r0, #38203	; 0x953b
    1124:	00000602 	andeq	r0, r0, r2, lsl #12
    1128:	0300340e 	movweq	r3, #1038	; 0x40e
    112c:	3b0b3a0e 	blcc	2cf96c <__bss_end+0x2cc104>
    1130:	00134905 	andseq	r4, r3, r5, lsl #18
    1134:	00340f00 	eorseq	r0, r4, r0, lsl #30
    1138:	0b3a0e03 	bleq	e8494c <__bss_end+0xe810e4>
    113c:	13490b3b 	movtne	r0, #39739	; 0x9b3b
    1140:	26100000 	ldrcs	r0, [r0], -r0
    1144:	00134900 	andseq	r4, r3, r0, lsl #18
	...

Disassembly of section .debug_info:

00000000 <.debug_info>:
       0:	000006c4 	andeq	r0, r0, r4, asr #13
       4:	00000002 	andeq	r0, r0, r2
       8:	01040000 	tsteq	r4, r0
       c:	00000331 	andeq	r0, r0, r1, lsr r3
      10:	0002e301 	andeq	lr, r2, r1, lsl #6
      14:	0002af00 	andeq	sl, r2, r0, lsl #30
      18:	00000000 	andeq	r0, r0, r0
      1c:	0001bc00 	andeq	fp, r1, r0, lsl #24
      20:	00000000 	andeq	r0, r0, r0
      24:	06010200 	streq	r0, [r1], -r0, lsl #4
      28:	000001a5 	andeq	r0, r0, r5, lsr #3
      2c:	00031703 	andeq	r1, r3, r3, lsl #14
      30:	370f0200 	strcc	r0, [pc, -r0, lsl #4]
      34:	02000000 	andeq	r0, r0, #0
      38:	01a30801 			; <UNDEFINED> instruction: 0x01a30801
      3c:	02020000 	andeq	r0, r2, #0
      40:	00007005 	andeq	r7, r0, r5
      44:	07020200 	streq	r0, [r2, -r0, lsl #4]
      48:	0000027e 	andeq	r0, r0, lr, ror r2
      4c:	00020d03 	andeq	r0, r2, r3, lsl #26
      50:	57120200 	ldrpl	r0, [r2, -r0, lsl #4]
      54:	04000000 	streq	r0, [r0], #-0
      58:	6e690504 	cdpvs	5, 6, cr0, cr9, cr4, {0}
      5c:	0a030074 	beq	c0234 <__bss_end+0xbc9cc>
      60:	02000001 	andeq	r0, r0, #1
      64:	00006913 	andeq	r6, r0, r3, lsl r9
      68:	07040200 	streq	r0, [r4, -r0, lsl #4]
      6c:	00000244 	andeq	r0, r0, r4, asr #4
      70:	36050802 	strcc	r0, [r5], -r2, lsl #16
      74:	02000001 	andeq	r0, r0, #1
      78:	023a0708 	eorseq	r0, sl, #8, 14	; 0x200000
      7c:	95050000 	strls	r0, [r5, #-0]
      80:	c4000001 	strgt	r0, [r0], #-1
      84:	03491b03 	movteq	r1, #39683	; 0x9b03
      88:	32060000 	andcc	r0, r6, #0
      8c:	03000000 	movweq	r0, #0
      90:	00005e20 	andeq	r5, r0, r0, lsr #28
      94:	00230200 	eoreq	r0, r3, r0, lsl #4
      98:	00726307 	rsbseq	r6, r2, r7, lsl #6
      9c:	005e2303 	subseq	r2, lr, r3, lsl #6
      a0:	23020000 	movwcs	r0, #8192	; 0x2000
      a4:	63610704 	cmnvs	r1, #4, 14	; 0x100000
      a8:	24030072 	strcs	r0, [r3], #-114	; 0xffffff8e
      ac:	0000005e 	andeq	r0, r0, lr, asr r0
      b0:	06082302 	streq	r2, [r8], -r2, lsl #6
      b4:	000003d2 	ldrdeq	r0, [r0], -r2
      b8:	005e2503 	subseq	r2, lr, r3, lsl #10
      bc:	23020000 	movwcs	r0, #8192	; 0x2000
      c0:	0037060c 	eorseq	r0, r7, ip, lsl #12
      c4:	26030000 	strcs	r0, [r3], -r0
      c8:	0000005e 	andeq	r0, r0, lr, asr r0
      cc:	06102302 	ldreq	r2, [r0], -r2, lsl #6
      d0:	000000c0 	andeq	r0, r0, r0, asr #1
      d4:	005e2703 	subseq	r2, lr, r3, lsl #14
      d8:	23020000 	movwcs	r0, #8192	; 0x2000
      dc:	02000614 	andeq	r0, r0, #20, 12	; 0x1400000
      e0:	28030000 	stmdacs	r3, {}	; <UNPREDICTABLE>
      e4:	0000005e 	andeq	r0, r0, lr, asr r0
      e8:	06182302 	ldreq	r2, [r8], -r2, lsl #6
      ec:	0000015a 	andeq	r0, r0, sl, asr r1
      f0:	005e3203 	subseq	r3, lr, r3, lsl #4
      f4:	23020000 	movwcs	r0, #8192	; 0x2000
      f8:	034a061c 	movteq	r0, #42524	; 0xa61c
      fc:	33030000 	movwcc	r0, #12288	; 0x3000
     100:	0000005e 	andeq	r0, r0, lr, asr r0
     104:	06202302 	strteq	r2, [r0], -r2, lsl #6
     108:	00000372 	andeq	r0, r0, r2, ror r3
     10c:	005e3403 	subseq	r3, lr, r3, lsl #8
     110:	23020000 	movwcs	r0, #8192	; 0x2000
     114:	00ed0624 	rsceq	r0, sp, r4, lsr #12
     118:	36030000 	strcc	r0, [r3], -r0
     11c:	0000005e 	andeq	r0, r0, lr, asr r0
     120:	06282302 	strteq	r2, [r8], -r2, lsl #6
     124:	00000060 	andeq	r0, r0, r0, rrx
     128:	005e3803 	subseq	r3, lr, r3, lsl #16
     12c:	23020000 	movwcs	r0, #8192	; 0x2000
     130:	0367062c 	cmneq	r7, #44, 12	; 0x2c00000
     134:	39030000 	stmdbcc	r3, {}	; <UNPREDICTABLE>
     138:	0000005e 	andeq	r0, r0, lr, asr r0
     13c:	06302302 	ldrteq	r2, [r0], -r2, lsl #6
     140:	0000018e 	andeq	r0, r0, lr, lsl #3
     144:	005e3a03 	subseq	r3, lr, r3, lsl #20
     148:	23020000 	movwcs	r0, #8192	; 0x2000
     14c:	03810634 	orreq	r0, r1, #52, 12	; 0x3400000
     150:	3b030000 	blcc	c0158 <__bss_end+0xbc8f0>
     154:	0000005e 	andeq	r0, r0, lr, asr r0
     158:	06382302 	ldrteq	r2, [r8], -r2, lsl #6
     15c:	00000128 	andeq	r0, r0, r8, lsr #2
     160:	005e3d03 	subseq	r3, lr, r3, lsl #26
     164:	23020000 	movwcs	r0, #8192	; 0x2000
     168:	0024063c 	eoreq	r0, r4, ip, lsr r6
     16c:	3e030000 	cdpcc	0, 0, cr0, cr3, cr0, {0}
     170:	0000005e 	andeq	r0, r0, lr, asr r0
     174:	07402302 	strbeq	r2, [r0, -r2, lsl #6]
     178:	00726170 	rsbseq	r6, r2, r0, ror r1
     17c:	005e4003 	subseq	r4, lr, r3
     180:	23020000 	movwcs	r0, #8192	; 0x2000
     184:	03210644 	teqeq	r1, #68, 12	; 0x4400000
     188:	42030000 	andmi	r0, r3, #0
     18c:	0000005e 	andeq	r0, r0, lr, asr r0
     190:	06482302 	strbeq	r2, [r8], -r2, lsl #6
     194:	0000032c 	andeq	r0, r0, ip, lsr #6
     198:	005e4303 	subseq	r4, lr, r3, lsl #6
     19c:	23020000 	movwcs	r0, #8192	; 0x2000
     1a0:	0235064c 	eorseq	r0, r5, #76, 12	; 0x4c00000
     1a4:	44030000 	strmi	r0, [r3], #-0
     1a8:	0000005e 	andeq	r0, r0, lr, asr r0
     1ac:	06502302 	ldrbeq	r2, [r0], -r2, lsl #6
     1b0:	0000031c 	andeq	r0, r0, ip, lsl r3
     1b4:	005e4503 	subseq	r4, lr, r3, lsl #10
     1b8:	23020000 	movwcs	r0, #8192	; 0x2000
     1bc:	69730754 	ldmdbvs	r3!, {r2, r4, r6, r8, r9, sl}^
     1c0:	47030072 	smlsdxmi	r3, r2, r0, r0
     1c4:	0000005e 	andeq	r0, r0, lr, asr r0
     1c8:	06582302 	ldrbeq	r2, [r8], -r2, lsl #6
     1cc:	00000161 	andeq	r0, r0, r1, ror #2
     1d0:	005e4903 	subseq	r4, lr, r3, lsl #18
     1d4:	23020000 	movwcs	r0, #8192	; 0x2000
     1d8:	6363075c 	cmnvs	r3, #92, 14	; 0x1700000
     1dc:	4a030072 	bmi	c03ac <__bss_end+0xbcb44>
     1e0:	0000005e 	andeq	r0, r0, lr, asr r0
     1e4:	07602302 	strbeq	r2, [r0, -r2, lsl #6]!
     1e8:	00727365 	rsbseq	r7, r2, r5, ror #6
     1ec:	005e4b03 	subseq	r4, lr, r3, lsl #22
     1f0:	23020000 	movwcs	r0, #8192	; 0x2000
     1f4:	03780664 	cmneq	r8, #100, 12	; 0x6400000
     1f8:	4c030000 	stcmi	0, cr0, [r3], {-0}
     1fc:	0000005e 	andeq	r0, r0, lr, asr r0
     200:	07682302 	strbeq	r2, [r8, -r2, lsl #6]!
     204:	00726575 	rsbseq	r6, r2, r5, ror r5
     208:	005e4d03 	subseq	r4, lr, r3, lsl #26
     20c:	23020000 	movwcs	r0, #8192	; 0x2000
     210:	0144066c 	mrseq	r0, SPSR
     214:	4e030000 	cdpmi	0, 0, cr0, cr3, cr0, {0}
     218:	0000005e 	andeq	r0, r0, lr, asr r0
     21c:	06702302 	ldrbteq	r2, [r0], -r2, lsl #6
     220:	00000251 	andeq	r0, r0, r1, asr r2
     224:	005e4f03 	subseq	r4, lr, r3, lsl #30
     228:	23020000 	movwcs	r0, #8192	; 0x2000
     22c:	03cc0674 	biceq	r0, ip, #116, 12	; 0x7400000
     230:	51030000 	tstpl	r3, r0
     234:	0000005e 	andeq	r0, r0, lr, asr r0
     238:	06782302 	ldrbteq	r2, [r8], -r2, lsl #6
     23c:	000000e1 	andeq	r0, r0, r1, ror #1
     240:	005e5203 	subseq	r5, lr, r3, lsl #4
     244:	23020000 	movwcs	r0, #8192	; 0x2000
     248:	02fd067c 	rscseq	r0, sp, #124, 12	; 0x7c00000
     24c:	56030000 	strpl	r0, [r3], -r0
     250:	0000005e 	andeq	r0, r0, lr, asr r0
     254:	01802303 	orreq	r2, r0, r3, lsl #6
     258:	0001cf06 	andeq	ip, r1, r6, lsl #30
     25c:	5e580300 	cdppl	3, 5, cr0, cr8, cr0, {0}
     260:	03000000 	movweq	r0, #0
     264:	06018423 	streq	r8, [r1], -r3, lsr #8
     268:	000001b1 			; <UNDEFINED> instruction: 0x000001b1
     26c:	005e5a03 	subseq	r5, lr, r3, lsl #20
     270:	23030000 	movwcs	r0, #12288	; 0x3000
     274:	6d060188 	stfvss	f0, [r6, #-544]	; 0xfffffde0
     278:	03000003 	movweq	r0, #3
     27c:	00005e5b 	andeq	r5, r0, fp, asr lr
     280:	8c230300 	stchi	3, cr0, [r3], #-0
     284:	01780601 	cmneq	r8, r1, lsl #12
     288:	5e030000 	cdppl	0, 0, cr0, cr3, cr0, {0}
     28c:	0000005e 	andeq	r0, r0, lr, asr r0
     290:	01902303 	orrseq	r2, r0, r3, lsl #6
     294:	0003be06 	andeq	fp, r3, r6, lsl #28
     298:	5e5f0300 	cdppl	3, 5, cr0, cr15, cr0, {0}
     29c:	03000000 	movweq	r0, #0
     2a0:	06019423 	streq	r9, [r1], -r3, lsr #8
     2a4:	00000213 	andeq	r0, r0, r3, lsl r2
     2a8:	005e6003 	subseq	r6, lr, r3
     2ac:	23030000 	movwcs	r0, #12288	; 0x3000
     2b0:	d9060198 	stmdble	r6, {r3, r4, r7, r8}
     2b4:	03000000 	movweq	r0, #0
     2b8:	00005e61 	andeq	r5, r0, r1, ror #28
     2bc:	9c230300 	stcls	3, cr0, [r3], #-0
     2c0:	035f0601 	cmpeq	pc, #1048576	; 0x100000
     2c4:	62030000 	andvs	r0, r3, #0
     2c8:	0000005e 	andeq	r0, r0, lr, asr r0
     2cc:	01a02303 	lsleq	r2, r3, #6
     2d0:	00029106 	andeq	r9, r2, r6, lsl #2
     2d4:	5e630300 	cdppl	3, 6, cr0, cr3, cr0, {0}
     2d8:	03000000 	movweq	r0, #0
     2dc:	0601a423 	streq	sl, [r1], -r3, lsr #8
     2e0:	00000256 	andeq	r0, r0, r6, asr r2
     2e4:	005e6703 	subseq	r6, lr, r3, lsl #14
     2e8:	23030000 	movwcs	r0, #12288	; 0x3000
     2ec:	8a0601a8 	bhi	180994 <__bss_end+0x17d12c>
     2f0:	03000000 	movweq	r0, #0
     2f4:	00005e68 	andeq	r5, r0, r8, ror #28
     2f8:	ac230300 	stcge	3, cr0, [r3], #-0
     2fc:	03120601 	tsteq	r2, #1048576	; 0x100000
     300:	70030000 	andvc	r0, r3, r0
     304:	0000005e 	andeq	r0, r0, lr, asr r0
     308:	01b02303 	lslseq	r2, r3, #6
     30c:	64696307 	strbtvs	r6, [r9], #-775	; 0xfffffcf9
     310:	5e710300 	cdppl	3, 7, cr0, cr1, cr0, {0}
     314:	03000000 	movweq	r0, #0
     318:	0601b423 	streq	fp, [r1], -r3, lsr #8
     31c:	0000017f 	andeq	r0, r0, pc, ror r1
     320:	005e7203 	subseq	r7, lr, r3, lsl #4
     324:	23030000 	movwcs	r0, #12288	; 0x3000
     328:	a70601b8 			; <UNDEFINED> instruction: 0xa70601b8
     32c:	03000002 	movweq	r0, #2
     330:	00005e73 	andeq	r5, r0, r3, ror lr
     334:	bc230300 	stclt	3, cr0, [r3], #-0
     338:	03c50601 	biceq	r0, r5, #1048576	; 0x100000
     33c:	74030000 	strvc	r0, [r3], #-0
     340:	0000005e 	andeq	r0, r0, lr, asr r0
     344:	01c02303 	biceq	r2, r0, r3, lsl #6
     348:	00940500 	addseq	r0, r4, r0, lsl #10
     34c:	04040000 	streq	r0, [r4], #-0
     350:	0003ab11 	andeq	sl, r3, r1, lsl fp
     354:	002a0800 	eoreq	r0, sl, r0, lsl #16
     358:	12040000 	andne	r0, r4, #0
     35c:	0000005e 	andeq	r0, r0, lr, asr r0
     360:	021c0404 	andseq	r0, ip, #4, 8	; 0x4000000
     364:	cb080023 	blgt	2003f8 <__bss_end+0x1fcb90>
     368:	04000000 	streq	r0, [r0], #-0
     36c:	00005e13 	andeq	r5, r0, r3, lsl lr
     370:	18040400 	stmdane	r4, {sl}
     374:	08002302 	stmdaeq	r0, {r1, r8, r9, sp}
     378:	00000149 	andeq	r0, r0, r9, asr #2
     37c:	005e1404 	subseq	r1, lr, r4, lsl #8
     380:	04040000 	streq	r0, [r4], #-0
     384:	00230214 	eoreq	r0, r3, r4, lsl r2
     388:	00012e08 	andeq	r2, r1, r8, lsl #28
     38c:	5e150400 	cfmulspl	mvf0, mvf5, mvf0
     390:	04000000 	streq	r0, [r0], #-0
     394:	23021004 	movwcs	r1, #8196	; 0x2004
     398:	01510800 	cmpeq	r1, r0, lsl #16
     39c:	16040000 	strne	r0, [r4], -r0
     3a0:	0000005e 	andeq	r0, r0, lr, asr r0
     3a4:	02001004 	andeq	r1, r0, #4
     3a8:	05000023 	streq	r0, [r0, #-35]	; 0xffffffdd
     3ac:	00000305 	andeq	r0, r0, r5, lsl #6
     3b0:	fe180408 	cdp2	4, 1, cr0, cr8, cr8, {0}
     3b4:	06000003 	streq	r0, [r0], -r3
     3b8:	00000014 	andeq	r0, r0, r4, lsl r0
     3bc:	002c1904 	eoreq	r1, ip, r4, lsl #18
     3c0:	23020000 	movwcs	r0, #8192	; 0x2000
     3c4:	03d70600 	bicseq	r0, r7, #0, 12
     3c8:	1a040000 	bne	1003d0 <__bss_end+0xfcb68>
     3cc:	0000002c 	andeq	r0, r0, ip, lsr #32
     3d0:	06012302 	streq	r2, [r1], -r2, lsl #6
     3d4:	0000000c 	andeq	r0, r0, ip
     3d8:	002c1b04 	eoreq	r1, ip, r4, lsl #22
     3dc:	23020000 	movwcs	r0, #8192	; 0x2000
     3e0:	001c0602 	andseq	r0, ip, r2, lsl #12
     3e4:	1c040000 	stcne	0, cr0, [r4], {-0}
     3e8:	0000002c 	andeq	r0, r0, ip, lsr #32
     3ec:	07032302 	streq	r2, [r3, -r2, lsl #6]
     3f0:	006c6c50 	rsbeq	r6, ip, r0, asr ip
     3f4:	005e1d04 	subseq	r1, lr, r4, lsl #26
     3f8:	23020000 	movwcs	r0, #8192	; 0x2000
     3fc:	80050004 	andhi	r0, r5, r4
     400:	24000000 	strcs	r0, [r0], #-0
     404:	04882004 	streq	r2, [r8], #4
     408:	32060000 	andcc	r0, r6, #0
     40c:	04000000 	streq	r0, [r0], #-0
     410:	00005e22 	andeq	r5, r0, r2, lsr #28
     414:	00230200 	eoreq	r0, r3, r0, lsl #4
     418:	00726307 	rsbseq	r6, r2, r7, lsl #6
     41c:	005e2404 	subseq	r2, lr, r4, lsl #8
     420:	23020000 	movwcs	r0, #8192	; 0x2000
     424:	03d20604 	bicseq	r0, r2, #4, 12	; 0x400000
     428:	25040000 	strcs	r0, [r4, #-0]
     42c:	0000005e 	andeq	r0, r0, lr, asr r0
     430:	06082302 	streq	r2, [r8], -r2, lsl #6
     434:	0000015a 	andeq	r0, r0, sl, asr r1
     438:	005e2704 	subseq	r2, lr, r4, lsl #14
     43c:	23020000 	movwcs	r0, #8192	; 0x2000
     440:	034a060c 	movteq	r0, #42508	; 0xa60c
     444:	28040000 	stmdacs	r4, {}	; <UNPREDICTABLE>
     448:	0000005e 	andeq	r0, r0, lr, asr r0
     44c:	06102302 	ldreq	r2, [r0], -r2, lsl #6
     450:	00000372 	andeq	r0, r0, r2, ror r3
     454:	005e2904 	subseq	r2, lr, r4, lsl #18
     458:	23020000 	movwcs	r0, #8192	; 0x2000
     45c:	00ed0614 	rsceq	r0, sp, r4, lsl r6
     460:	2c040000 	stccs	0, cr0, [r4], {-0}
     464:	0000005e 	andeq	r0, r0, lr, asr r0
     468:	06182302 	ldreq	r2, [r8], -r2, lsl #6
     46c:	000001b1 			; <UNDEFINED> instruction: 0x000001b1
     470:	005e2f04 	subseq	r2, lr, r4, lsl #30
     474:	23020000 	movwcs	r0, #8192	; 0x2000
     478:	036d061c 	cmneq	sp, #28, 12	; 0x1c00000
     47c:	30040000 	andcc	r0, r4, r0
     480:	0000005e 	andeq	r0, r0, lr, asr r0
     484:	00202302 	eoreq	r2, r0, r2, lsl #6
     488:	00000009 	andeq	r0, r0, r9
     48c:	04023000 	streq	r3, [r2], #-0
     490:	00054f36 	andeq	r4, r5, r6, lsr pc
     494:	03af0600 			; <UNDEFINED> instruction: 0x03af0600
     498:	37040000 	strcc	r0, [r4, -r0]
     49c:	0000054f 	andeq	r0, r0, pc, asr #10
     4a0:	06002302 	streq	r2, [r0], -r2, lsl #6
     4a4:	00001fdb 	ldrdeq	r1, [r0], -fp
     4a8:	005e3804 	subseq	r3, lr, r4, lsl #16
     4ac:	23020000 	movwcs	r0, #8192	; 0x2000
     4b0:	02190604 	andseq	r0, r9, #4, 12	; 0x400000
     4b4:	3a040000 	bcc	1004bc <__bss_end+0xfcc54>
     4b8:	0000004c 	andeq	r0, r0, ip, asr #32
     4bc:	06082302 	streq	r2, [r8], -r2, lsl #6
     4c0:	00000227 	andeq	r0, r0, r7, lsr #4
     4c4:	004c3b04 	subeq	r3, ip, r4, lsl #22
     4c8:	23020000 	movwcs	r0, #8192	; 0x2000
     4cc:	033d060c 	teqeq	sp, #12, 12	; 0xc00000
     4d0:	3c040000 	stccc	0, cr0, [r4], {-0}
     4d4:	0000005e 	andeq	r0, r0, lr, asr r0
     4d8:	06102302 	ldreq	r2, [r0], -r2, lsl #6
     4dc:	00000274 	andeq	r0, r0, r4, ror r2
     4e0:	005e3d04 	subseq	r3, lr, r4, lsl #26
     4e4:	23020000 	movwcs	r0, #8192	; 0x2000
     4e8:	01e30614 	mvneq	r0, r4, lsl r6
     4ec:	3e040000 	cdpcc	0, 0, cr0, cr4, cr0, {0}
     4f0:	0000005e 	andeq	r0, r0, lr, asr r0
     4f4:	06182302 	ldreq	r2, [r8], -r2, lsl #6
     4f8:	0000003e 	andeq	r0, r0, lr, lsr r0
     4fc:	03493f04 	movteq	r3, #40708	; 0x9f04
     500:	23020000 	movwcs	r0, #8192	; 0x2000
     504:	0c5e061c 	mrrceq	6, 1, r0, lr, cr12
     508:	40040000 	andmi	r0, r4, r0
     50c:	000003ab 	andeq	r0, r0, fp, lsr #7
     510:	06202302 	strteq	r2, [r0], -r2, lsl #6
     514:	00000046 	andeq	r0, r0, r6, asr #32
     518:	05574104 	ldrbeq	r4, [r7, #-260]	; 0xfffffefc
     51c:	23020000 	movwcs	r0, #8192	; 0x2000
     520:	01b60628 			; <UNDEFINED> instruction: 0x01b60628
     524:	42040000 	andmi	r0, r4, #0
     528:	00000567 	andeq	r0, r0, r7, ror #10
     52c:	02882303 	addeq	r2, r8, #201326592	; 0xc000000
     530:	00007a06 	andeq	r7, r0, r6, lsl #20
     534:	fe430400 	cdp2	4, 4, cr0, cr3, cr0, {0}
     538:	03000003 	movweq	r0, #3
     53c:	0602c823 	streq	ip, [r2], -r3, lsr #16
     540:	00000166 	andeq	r0, r0, r6, ror #2
     544:	007e4404 	rsbseq	r4, lr, r4, lsl #8
     548:	23030000 	movwcs	r0, #12288	; 0x3000
     54c:	0a0002ec 	beq	1104 <twi_byte_rw_nommu+0x184>
     550:	00055504 	andeq	r5, r5, r4, lsl #10
     554:	0c040b00 	stceq	11, cr0, [r4], {-0}
     558:	0000005e 	andeq	r0, r0, lr, asr r0
     55c:	00000567 	andeq	r0, r0, r7, ror #10
     560:	0000690d 	andeq	r6, r0, sp, lsl #18
     564:	0c003700 	stceq	7, cr3, [r0], {-0}
     568:	0000005e 	andeq	r0, r0, lr, asr r0
     56c:	00000577 	andeq	r0, r0, r7, ror r5
     570:	0000690d 	andeq	r6, r0, sp, lsl #18
     574:	0e000f00 	cdpeq	15, 0, cr0, cr0, cr0, {0}
     578:	000001ed 	andeq	r0, r0, sp, ror #3
     57c:	4c01fb01 	stcmi	11, cr15, [r1], {1}
     580:	01000000 	tsteq	r0, r0
     584:	000005a5 	andeq	r0, r0, r5, lsr #11
     588:	0388010f 	orreq	r0, r8, #-1073741821	; 0xc0000003
     58c:	01010000 	tsteq	r1, r0
     590:	00005701 	andeq	r5, r0, r1, lsl #14
     594:	059c0100 	ldreq	r0, [ip, #256]	; 0x100
     598:	00100000 	andseq	r0, r0, r0
     59c:	0000f211 	andeq	pc, r0, r1, lsl r2	; <UNPREDICTABLE>
     5a0:	01240100 	teqeq	r4, r0, lsl #2
     5a4:	9e011200 	cdpls	2, 0, cr1, cr1, cr0, {0}
     5a8:	01000000 	tsteq	r0, r0
     5ac:	00570185 	subseq	r0, r7, r5, lsl #3
     5b0:	00000000 	andeq	r0, r0, r0
     5b4:	01bc0000 			; <UNDEFINED> instruction: 0x01bc0000
     5b8:	00000000 	andeq	r0, r0, r0
     5bc:	06640000 	strbteq	r0, [r4], -r0
     5c0:	87130000 	ldrhi	r0, [r3, -r0]
     5c4:	01000001 	tsteq	r0, r1
     5c8:	00066487 	andeq	r6, r6, r7, lsl #9
     5cc:	00002000 	andeq	r2, r0, r0
     5d0:	025e1400 	subseq	r1, lr, #0, 8
     5d4:	88010000 	stmdahi	r1, {}	; <UNPREDICTABLE>
     5d8:	0000005e 	andeq	r0, r0, lr, asr r0
     5dc:	35e00305 	strbcc	r0, [r0, #773]!	; 0x305
     5e0:	69150000 	ldmdbvs	r5, {}	; <UNPREDICTABLE>
     5e4:	0100001c 	tsteq	r0, ip, lsl r0
     5e8:	00004c89 	andeq	r4, r0, r9, lsl #25
     5ec:	01160000 	tsteq	r6, r0
     5f0:	00000299 	muleq	r0, r9, r2
     5f4:	00579301 	subseq	r9, r7, r1, lsl #6
     5f8:	01010000 	tsteq	r1, r0
     5fc:	10000006 	andne	r0, r0, r6
     600:	00ad1700 	adceq	r1, sp, r0, lsl #14
     604:	ed010000 	stc	0, cr0, [r1, #-0]
     608:	01100116 	tsteq	r0, r6, lsl r1
     60c:	d0010000 	andle	r0, r1, r0
     610:	00000057 	andeq	r0, r0, r7, asr r0
     614:	00061b01 	andeq	r1, r6, r1, lsl #22
     618:	17001000 	strne	r1, [r0, -r0]
     61c:	0000039e 	muleq	r0, lr, r3
     620:	6818ec01 	ldmdavs	r8, {r0, sl, fp, sp, lr, pc}
     624:	01000002 	tsteq	r0, r2
     628:	000158ea 	andeq	r5, r1, sl, ror #17
     62c:	a3011600 	movwge	r1, #5632	; 0x1600
     630:	01000000 	tsteq	r0, r0
     634:	000057eb 	andeq	r5, r0, fp, ror #15
     638:	06400100 	strbeq	r0, [r0], -r0, lsl #2
     63c:	00100000 	andseq	r0, r0, r0
     640:	00057719 	andeq	r7, r5, r9, lsl r7
     644:	0000f800 	andeq	pc, r0, r0, lsl #16
     648:	00015800 	andeq	r5, r1, r0, lsl #16
     64c:	1adf0100 	bne	ff7c0a54 <__bss_end+0xff7bd1ec>
     650:	000000f8 	strdeq	r0, [r0], -r8
     654:	00000158 	andeq	r0, r0, r8, asr r1
     658:	00059c1b 	andeq	r9, r5, fp, lsl ip
     65c:	00015400 	andeq	r5, r1, r0, lsl #8
     660:	00000000 	andeq	r0, r0, r0
     664:	066a040a 	strbteq	r0, [sl], -sl, lsl #8
     668:	01020000 	tsteq	r2, r0
     66c:	0001ac08 	andeq	sl, r1, r8, lsl #24
     670:	01d71c00 	bicseq	r1, r7, r0, lsl #24
     674:	0e010000 	cdpeq	0, 0, cr0, cr1, cr0, {0}
     678:	00000664 	andeq	r0, r0, r4, ror #12
     67c:	661c0101 	ldrvs	r0, [ip], -r1, lsl #2
     680:	01000000 	tsteq	r0, r0
     684:	0006640f 	andeq	r6, r6, pc, lsl #8
     688:	14010100 	strne	r0, [r1], #-256	; 0xffffff00
     68c:	000000d3 	ldrdeq	r0, [r0], -r3
     690:	00571001 	subseq	r1, r7, r1
     694:	03050000 	movweq	r0, #20480	; 0x5000
     698:	00003464 	andeq	r3, r0, r4, ror #8
     69c:	00035114 	andeq	r5, r3, r4, lsl r1
     6a0:	88110100 	ldmdahi	r1, {r8}
     6a4:	05000004 	streq	r0, [r0, #-4]
     6a8:	0035e403 	eorseq	lr, r5, r3, lsl #8
     6ac:	01d71c00 	bicseq	r1, r7, r0, lsl #24
     6b0:	0e010000 	cdpeq	0, 0, cr0, cr1, cr0, {0}
     6b4:	00000664 	andeq	r0, r0, r4, ror #12
     6b8:	661c0101 	ldrvs	r0, [ip], -r1, lsl #2
     6bc:	01000000 	tsteq	r0, r0
     6c0:	0006640f 	andeq	r6, r6, pc, lsl #8
     6c4:	00010100 	andeq	r0, r1, r0, lsl #2
     6c8:	000000cb 	andeq	r0, r0, fp, asr #1
     6cc:	01830002 	orreq	r0, r3, r2
     6d0:	01040000 	tsteq	r4, r0
     6d4:	00000331 	andeq	r0, r0, r1, lsr r3
     6d8:	0003ec01 	andeq	lr, r3, r1, lsl #24
     6dc:	0002af00 	andeq	sl, r2, r0, lsl #30
     6e0:	0001bc00 	andeq	fp, r1, r0, lsl #24
     6e4:	0001d800 	andeq	sp, r1, r0, lsl #16
     6e8:	0000e300 	andeq	lr, r0, r0, lsl #6
     6ec:	06010200 	streq	r0, [r1], -r0, lsl #4
     6f0:	000001a5 	andeq	r0, r0, r5, lsr #3
     6f4:	a3080102 	movwge	r0, #33026	; 0x8102
     6f8:	02000001 	andeq	r0, r0, #1
     6fc:	00700502 	rsbseq	r0, r0, r2, lsl #10
     700:	02020000 	andeq	r0, r2, #0
     704:	00027e07 	andeq	r7, r2, r7, lsl #28
     708:	05040300 	streq	r0, [r4, #-768]	; 0xfffffd00
     70c:	00746e69 	rsbseq	r6, r4, r9, ror #28
     710:	44070402 	strmi	r0, [r7], #-1026	; 0xfffffbfe
     714:	02000002 	andeq	r0, r0, #2
     718:	01360508 	teqeq	r6, r8, lsl #10
     71c:	08020000 	stmdaeq	r2, {}	; <UNPREDICTABLE>
     720:	00023a07 	andeq	r3, r2, r7, lsl #20
     724:	05040400 	streq	r0, [r4, #-1024]	; 0xfffffc00
     728:	00040501 	andeq	r0, r4, r1, lsl #10
     72c:	01230100 	teqeq	r3, r0, lsl #2
     730:	000001bc 			; <UNDEFINED> instruction: 0x000001bc
     734:	000001d8 	ldrdeq	r0, [r0], -r8
     738:	c1007d02 	tstgt	r0, r2, lsl #26
     73c:	06000000 	streq	r0, [r0], -r0
     740:	000003df 	ldrdeq	r0, [r0], -pc	; <UNPREDICTABLE>
     744:	005d2301 	subseq	r2, sp, r1, lsl #6
     748:	003e0000 	eorseq	r0, lr, r0
     74c:	73070000 	movwvc	r0, #28672	; 0x7000
     750:	01006372 	tsteq	r0, r2, ror r3
     754:	00005d23 	andeq	r5, r0, r3, lsr #26
     758:	00005100 	andeq	r5, r0, r0, lsl #2
     75c:	006e0700 	rsbeq	r0, lr, r0, lsl #14
     760:	00412301 	subeq	r2, r1, r1, lsl #6
     764:	00640000 	rsbeq	r0, r4, r0
     768:	fd080000 	stc2	0, cr0, [r8, #-0]
     76c:	01000003 	tsteq	r0, r3
     770:	0000c125 	andeq	ip, r0, r5, lsr #2
     774:	00008f00 	andeq	r8, r0, r0, lsl #30
     778:	03e40800 	mvneq	r0, #0, 16
     77c:	26010000 	strcs	r0, [r1], -r0
     780:	000000c1 	andeq	r0, r0, r1, asr #1
     784:	000000a2 	andeq	r0, r0, r2, lsr #1
     788:	c7040900 	strgt	r0, [r4, -r0, lsl #18]
     78c:	02000000 	andeq	r0, r0, #0
     790:	01ac0801 			; <UNDEFINED> instruction: 0x01ac0801
     794:	69000000 	stmdbvs	r0, {}	; <UNPREDICTABLE>
     798:	02000000 	andeq	r0, r0, #0
     79c:	00020100 	andeq	r0, r2, r0, lsl #2
     7a0:	3b010400 	blcc	417a8 <__bss_end+0x3df40>
     7a4:	e0000001 	and	r0, r0, r1
     7a8:	c4000001 	strgt	r0, [r0], #-1
     7ac:	2e000006 	cdpcs	0, 0, cr0, cr0, cr6, {0}
     7b0:	7075732f 	rsbsvc	r7, r5, pc, lsr #6
     7b4:	732f7265 	teqvc	pc, #1342177286	; 0x50000006
     7b8:	6b636174 	blvs	18d8d90 <__bss_end+0x18d5528>
     7bc:	2f00532e 	svccs	0x0000532e
     7c0:	656d6f68 	strbvs	r6, [sp, #-3944]!	; 0xfffff098
     7c4:	646e612f 	strbtvs	r6, [lr], #-303	; 0xfffffed1
     7c8:	64696f72 	strbtvs	r6, [r9], #-3954	; 0xfffff08e
     7cc:	72656b2f 	rsbvc	r6, r5, #48128	; 0xbc00
     7d0:	2f6c656e 	svccs	0x006c656e
     7d4:	68637261 	stmdavs	r3!, {r0, r5, r6, r9, ip, sp, lr}^
     7d8:	6d72612f 	ldfvse	f6, [r2, #-188]!	; 0xffffff44
     7dc:	63616d2f 	cmnvs	r1, #3008	; 0xbc0
     7e0:	75732d68 	ldrbvc	r2, [r3, #-3432]!	; 0xfffff298
     7e4:	2f69356e 	svccs	0x0069356e
     7e8:	732f6d70 	teqvc	pc, #112, 26	; 0x1c00
     7ec:	646e6174 	strbtvs	r6, [lr], #-372	; 0xfffffe8c
     7f0:	47007962 	strmi	r7, [r0, -r2, ror #18]
     7f4:	4120554e 	teqmi	r0, lr, asr #10
     7f8:	2e322053 	mrccs	0, 1, r2, cr2, cr3, {2}
     7fc:	352e3032 	strcc	r3, [lr, #-50]!	; 0xffffffce
     800:	80010031 	andhi	r0, r1, r1, lsr r0
     804:	00000356 	andeq	r0, r0, r6, asr r3
     808:	02150002 	andseq	r0, r5, #2
     80c:	01040000 	tsteq	r4, r0
     810:	00000331 	andeq	r0, r0, r1, lsr r3
     814:	0005b501 	andeq	fp, r5, r1, lsl #10
     818:	0002af00 	andeq	sl, r2, r0, lsl #30
     81c:	0006e000 	andeq	lr, r6, r0
     820:	00084800 	andeq	r4, r8, r0, lsl #16
     824:	00028b00 	andeq	r8, r2, r0, lsl #22
     828:	06010200 	streq	r0, [r1], -r0, lsl #4
     82c:	000001a5 	andeq	r0, r0, r5, lsr #3
     830:	a3080102 	movwge	r0, #33026	; 0x8102
     834:	02000001 	andeq	r0, r0, #1
     838:	00700502 	rsbseq	r0, r0, r2, lsl #10
     83c:	02020000 	andeq	r0, r2, #0
     840:	00027e07 	andeq	r7, r2, r7, lsl #28
     844:	020d0300 	andeq	r0, sp, #0, 6
     848:	12020000 	andne	r0, r2, #0
     84c:	0000004c 	andeq	r0, r0, ip, asr #32
     850:	69050404 	stmdbvs	r5, {r2, sl}
     854:	0300746e 	movweq	r7, #1134	; 0x46e
     858:	0000010a 	andeq	r0, r0, sl, lsl #2
     85c:	005e1302 	subseq	r1, lr, r2, lsl #6
     860:	04020000 	streq	r0, [r2], #-0
     864:	00024407 	andeq	r4, r2, r7, lsl #8
     868:	05080200 	streq	r0, [r8, #-512]	; 0xfffffe00
     86c:	00000136 	andeq	r0, r0, r6, lsr r1
     870:	3a070802 	bcc	1c2880 <__bss_end+0x1bf018>
     874:	05000002 	streq	r0, [r0, #-2]
     878:	00000053 	andeq	r0, r0, r3, asr r0
     87c:	00005306 	andeq	r5, r0, r6, lsl #6
     880:	00008800 	andeq	r8, r0, r0, lsl #16
     884:	005e0700 	subseq	r0, lr, r0, lsl #14
     888:	00040000 	andeq	r0, r4, r0
     88c:	00042508 	andeq	r2, r4, r8, lsl #10
     890:	19030400 	stmdbne	r3, {sl}
     894:	000000eb 	andeq	r0, r0, fp, ror #1
     898:	00054e09 	andeq	r4, r5, r9, lsl #28
     89c:	a7090000 	strge	r0, [r9, -r0]
     8a0:	05000004 	streq	r0, [r0, #-4]
     8a4:	0004b609 	andeq	fp, r4, r9, lsl #12
     8a8:	68090600 	stmdavs	r9, {r9, sl}
     8ac:	15000004 	strne	r0, [r0, #-4]
     8b0:	0004d209 	andeq	sp, r4, r9, lsl #4
     8b4:	e4091600 	str	r1, [r9], #-1536	; 0xfffffa00
     8b8:	17000004 	strne	r0, [r0, -r4]
     8bc:	00047a09 	andeq	r7, r4, r9, lsl #20
     8c0:	93091800 	movwls	r1, #38912	; 0x9800
     8c4:	1d000004 	stcne	0, cr0, [r0, #-16]
     8c8:	00058409 	andeq	r8, r5, r9, lsl #8
     8cc:	f6091f00 			; <UNDEFINED> instruction: 0xf6091f00
     8d0:	26000004 	strcs	r0, [r0], -r4
     8d4:	00050609 	andeq	r0, r5, r9, lsl #12
     8d8:	16092700 	strne	r2, [r9], -r0, lsl #14
     8dc:	28000005 	stmdacs	r0, {r0, r2}
     8e0:	00052609 	andeq	r2, r5, r9, lsl #12
     8e4:	0900c000 	stmdbeq	r0, {lr, pc}
     8e8:	00000536 	andeq	r0, r0, r6, lsr r5
     8ec:	0a0000c1 	beq	bf8 <_mem_twi_stop+0x54>
     8f0:	00000568 	andeq	r0, r0, r8, ror #10
     8f4:	032d0394 	teqeq	sp, #148, 6	; 0x50000002
     8f8:	0b000002 	bleq	908 <mem_clk_pllenable+0x8>
     8fc:	0000057d 	andeq	r0, r0, sp, ror r5
     900:	00732f03 	rsbseq	r2, r3, r3, lsl #30
     904:	23020000 	movwcs	r0, #8192	; 0x2000
     908:	05950b00 	ldreq	r0, [r5, #2816]	; 0xb00
     90c:	30030000 	andcc	r0, r3, r0
     910:	00000073 	andeq	r0, r0, r3, ror r0
     914:	0b042302 	bleq	109524 <__bss_end+0x105cbc>
     918:	000005f4 	strdeq	r0, [r0], -r4
     91c:	00733103 	rsbseq	r3, r3, r3, lsl #2
     920:	23020000 	movwcs	r0, #8192	; 0x2000
     924:	05600b08 	strbeq	r0, [r0, #-2824]!	; 0xfffff4f8
     928:	32030000 	andcc	r0, r3, #0
     92c:	00000073 	andeq	r0, r0, r3, ror r0
     930:	0b0c2302 	bleq	309540 <__bss_end+0x305cd8>
     934:	0000044e 	andeq	r0, r0, lr, asr #8
     938:	02133403 	andseq	r3, r3, #50331648	; 0x3000000
     93c:	23020000 	movwcs	r0, #8192	; 0x2000
     940:	05fe0b10 	ldrbeq	r0, [lr, #2832]!	; 0xb10
     944:	35030000 	strcc	r0, [r3, #-0]
     948:	00000073 	andeq	r0, r0, r3, ror r0
     94c:	0b1c2302 	bleq	70955c <__bss_end+0x705cf4>
     950:	00000410 	andeq	r0, r0, r0, lsl r4
     954:	02183703 	andseq	r3, r8, #786432	; 0xc0000
     958:	23020000 	movwcs	r0, #8192	; 0x2000
     95c:	06080b20 	streq	r0, [r8], -r0, lsr #22
     960:	38030000 	stmdacc	r3, {}	; <UNPREDICTABLE>
     964:	00000073 	andeq	r0, r0, r3, ror r0
     968:	0b2c2302 	bleq	b09578 <__bss_end+0xb05d10>
     96c:	00000546 	andeq	r0, r0, r6, asr #10
     970:	021d3a03 	andseq	r3, sp, #12288	; 0x3000
     974:	23020000 	movwcs	r0, #8192	; 0x2000
     978:	06120b30 			; <UNDEFINED> instruction: 0x06120b30
     97c:	3b030000 	blcc	c0984 <__bss_end+0xbd11c>
     980:	00000073 	andeq	r0, r0, r3, ror r0
     984:	0b3c2302 	bleq	f09594 <__bss_end+0xf05d2c>
     988:	00000667 	andeq	r0, r0, r7, ror #12
     98c:	02223d03 	eoreq	r3, r2, #3, 26	; 0xc0
     990:	23020000 	movwcs	r0, #8192	; 0x2000
     994:	061c0b40 	ldreq	r0, [ip], -r0, asr #22
     998:	3e030000 	cdpcc	0, 0, cr0, cr3, cr0, {0}
     99c:	00000073 	andeq	r0, r0, r3, ror r0
     9a0:	0b4c2302 	bleq	13095b0 <__bss_end+0x1305d48>
     9a4:	000005ad 	andeq	r0, r0, sp, lsr #11
     9a8:	02274003 	eoreq	r4, r7, #3
     9ac:	23020000 	movwcs	r0, #8192	; 0x2000
     9b0:	06260b50 			; <UNDEFINED> instruction: 0x06260b50
     9b4:	41030000 	tstmi	r3, r0
     9b8:	00000073 	andeq	r0, r0, r3, ror r0
     9bc:	0b5c2302 	bleq	17095cc <__bss_end+0x1705d64>
     9c0:	0000048b 	andeq	r0, r0, fp, lsl #9
     9c4:	022c4303 	eoreq	r4, ip, #201326592	; 0xc000000
     9c8:	23020000 	movwcs	r0, #8192	; 0x2000
     9cc:	06300b60 	ldrteq	r0, [r0], -r0, ror #22
     9d0:	44030000 	strmi	r0, [r3], #-0
     9d4:	00000073 	andeq	r0, r0, r3, ror r0
     9d8:	0b6c2302 	bleq	1b095e8 <__bss_end+0x1b05d80>
     9dc:	00000456 	andeq	r0, r0, r6, asr r4
     9e0:	02314603 	eorseq	r4, r1, #3145728	; 0x300000
     9e4:	23020000 	movwcs	r0, #8192	; 0x2000
     9e8:	063a0b70 			; <UNDEFINED> instruction: 0x063a0b70
     9ec:	47030000 	strmi	r0, [r3, -r0]
     9f0:	00000073 	andeq	r0, r0, r3, ror r0
     9f4:	0b7c2302 	bleq	1f09604 <__bss_end+0x1f05d9c>
     9f8:	00000438 	andeq	r0, r0, r8, lsr r4
     9fc:	02364903 	eorseq	r4, r6, #49152	; 0xc000
     a00:	23030000 	movwcs	r0, #12288	; 0x3000
     a04:	06000180 	streq	r0, [r0], -r0, lsl #3
     a08:	00000053 	andeq	r0, r0, r3, asr r0
     a0c:	00000213 	andeq	r0, r0, r3, lsl r2
     a10:	00005e07 	andeq	r5, r0, r7, lsl #28
     a14:	05000200 	streq	r0, [r0, #-512]	; 0xfffffe00
     a18:	00000203 	andeq	r0, r0, r3, lsl #4
     a1c:	00020305 	andeq	r0, r2, r5, lsl #6
     a20:	02030500 	andeq	r0, r3, #0, 10
     a24:	03050000 	movweq	r0, #20480	; 0x5000
     a28:	05000002 	streq	r0, [r0, #-2]
     a2c:	00000203 	andeq	r0, r0, r3, lsl #4
     a30:	00020305 	andeq	r0, r2, r5, lsl #6
     a34:	02030500 	andeq	r0, r3, #0, 10
     a38:	78050000 	stmdavc	r5, {}	; <UNPREDICTABLE>
     a3c:	0c000000 	stceq	0, cr0, [r0], {-0}
     a40:	0004c501 	andeq	ip, r4, r1, lsl #10
     a44:	01250100 	teqeq	r5, r0, lsl #2
     a48:	00000041 	andeq	r0, r0, r1, asr #32
     a4c:	000006e0 	andeq	r0, r0, r0, ror #13
     a50:	00000774 	andeq	r0, r0, r4, ror r7
     a54:	0c007d02 	stceq	13, cr7, [r0], {2}
     a58:	00041801 	andeq	r1, r4, r1, lsl #16
     a5c:	01510100 	cmpeq	r1, r0, lsl #2
     a60:	00000041 	andeq	r0, r0, r1, asr #32
     a64:	00000774 	andeq	r0, r0, r4, ror r7
     a68:	000007d0 	ldrdeq	r0, [r0], -r0	; <UNPREDICTABLE>
     a6c:	0d007d02 	stceq	13, cr7, [r0, #-8]
     a70:	00059e01 	andeq	r9, r5, r1, lsl #28
     a74:	016d0100 	cmneq	sp, r0, lsl #2
     a78:	00000041 	andeq	r0, r0, r1, asr #32
     a7c:	000007d0 	ldrdeq	r0, [r0], -r0	; <UNPREDICTABLE>
     a80:	00000818 	andeq	r0, r0, r8, lsl r8
     a84:	000000c0 	andeq	r0, r0, r0, asr #1
     a88:	000002b6 			; <UNDEFINED> instruction: 0x000002b6
     a8c:	6372730e 	cmnvs	r2, #939524096	; 0x38000000
     a90:	886d0100 	stmdahi	sp!, {r8}^
     a94:	e0000000 	and	r0, r0, r0
     a98:	0f000000 	svceq	0x00000000
     a9c:	000005c9 	andeq	r0, r0, r9, asr #11
     aa0:	00536f01 	subseq	r6, r3, r1, lsl #30
     aa4:	00f30000 	rscseq	r0, r3, r0
     aa8:	ed0f0000 	stc	0, cr0, [pc, #-0]	; ab0 <mem_clk_get_pll_factor+0x30>
     aac:	01000005 	tsteq	r0, r5
     ab0:	00005370 	andeq	r5, r0, r0, ror r3
     ab4:	00012000 	andeq	r2, r1, r0
     ab8:	01100000 	tsteq	r0, r0
     abc:	00000440 	andeq	r0, r0, r0, asr #8
     ac0:	41018501 	tstmi	r1, r1, lsl #10
     ac4:	18000000 	stmdane	r0, {}	; <UNPREDICTABLE>
     ac8:	48000008 	stmdami	r0, {r3}
     acc:	02000008 	andeq	r0, r0, #8
     ad0:	030f007d 	movweq	r0, #61565	; 0xf07d
     ad4:	730e0000 	movwvc	r0, #57344	; 0xe000
     ad8:	01006372 	tsteq	r0, r2, ror r3
     adc:	00008885 	andeq	r8, r0, r5, lsl #17
     ae0:	00014200 	andeq	r4, r1, r0, lsl #4
     ae4:	05760f00 	ldrbeq	r0, [r6, #-3840]!	; 0xfffff100
     ae8:	87010000 	strhi	r0, [r1, -r0]
     aec:	00000041 	andeq	r0, r0, r1, asr #32
     af0:	00000155 	andeq	r0, r0, r5, asr r1
     af4:	0005c90f 	andeq	ip, r5, pc, lsl #18
     af8:	53880100 	orrpl	r0, r8, #0, 2
     afc:	69000000 	stmdbvs	r0, {}	; <UNPREDICTABLE>
     b00:	0f000001 	svceq	0x00000001
     b04:	000005ed 	andeq	r0, r0, sp, ror #11
     b08:	00538901 	subseq	r8, r3, r1, lsl #18
     b0c:	01890000 	orreq	r0, r9, r0
     b10:	11000000 	tstne	r0, r0
     b14:	0000045f 	andeq	r0, r0, pc, asr r4
     b18:	02031401 	andeq	r1, r3, #16777216	; 0x1000000
     b1c:	03050000 	movweq	r0, #20480	; 0x5000
     b20:	00003818 	andeq	r3, r0, r8, lsl r8
     b24:	0005d011 	andeq	sp, r5, r1, lsl r0
     b28:	03140100 	tsteq	r4, #0, 2
     b2c:	05000002 	streq	r0, [r0, #-2]
     b30:	00382403 	eorseq	r2, r8, r3, lsl #8
     b34:	05e31100 	strbeq	r1, [r3, #256]!	; 0x100
     b38:	14010000 	strne	r0, [r1], #-0
     b3c:	00000203 	andeq	r0, r0, r3, lsl #4
     b40:	38300305 	ldmdacc	r0!, {r0, r2, r8, r9}
     b44:	db110000 	blle	440b4c <__bss_end+0x43d2e4>
     b48:	01000005 	tsteq	r0, r5
     b4c:	00035315 	andeq	r5, r3, r5, lsl r3
     b50:	14030500 	strne	r0, [r3], #-1280	; 0xfffffb00
     b54:	12000038 	andne	r0, r0, #56	; 0x38
     b58:	0000eb04 	andeq	lr, r0, r4, lsl #22
     b5c:	04050000 	streq	r0, [r5], #-0
     b60:	00020000 	andeq	r0, r2, r0
     b64:	0000031a 	andeq	r0, r0, sl, lsl r3
     b68:	03310104 	teqeq	r1, #4, 2
     b6c:	b8010000 	stmdalt	r1, {}	; <UNPREDICTABLE>
     b70:	af000007 	svcge	0x00000007
     b74:	48000002 	stmdami	r0, {r1}
     b78:	88000008 	stmdahi	r0, {r3}
     b7c:	42000008 	andmi	r0, r0, #8
     b80:	02000003 	andeq	r0, r0, #3
     b84:	01a50601 			; <UNDEFINED> instruction: 0x01a50601
     b88:	01020000 	tsteq	r2, r0
     b8c:	0001a308 	andeq	sl, r1, r8, lsl #6
     b90:	05020200 	streq	r0, [r2, #-512]	; 0xfffffe00
     b94:	00000070 	andeq	r0, r0, r0, ror r0
     b98:	7e070202 	cdpvc	2, 0, cr0, cr7, cr2, {0}
     b9c:	03000002 	movweq	r0, #2
     ba0:	6e690504 	cdpvs	5, 6, cr0, cr9, cr4, {0}
     ba4:	0a040074 	beq	100d7c <__bss_end+0xfd514>
     ba8:	03000001 	movweq	r0, #1
     bac:	00005313 	andeq	r5, r0, r3, lsl r3
     bb0:	07040200 	streq	r0, [r4, -r0, lsl #4]
     bb4:	00000244 	andeq	r0, r0, r4, asr #4
     bb8:	36050802 	strcc	r0, [r5], -r2, lsl #16
     bbc:	02000001 	andeq	r0, r0, #1
     bc0:	023a0708 	eorseq	r0, sl, #8, 14	; 0x200000
     bc4:	48050000 	stmdami	r5, {}	; <UNPREDICTABLE>
     bc8:	06000000 	streq	r0, [r0], -r0
     bcc:	00000048 	andeq	r0, r0, r8, asr #32
     bd0:	0000007d 	andeq	r0, r0, sp, ror r0
     bd4:	00005307 	andeq	r5, r0, r7, lsl #6
     bd8:	08000300 	stmdaeq	r0, {r8, r9}
     bdc:	000006cb 	andeq	r0, r0, fp, asr #13
     be0:	19020130 	stmdbne	r2, {r4, r5, r8}
     be4:	00000323 	andeq	r0, r0, r3, lsr #6
     be8:	0007a609 	andeq	sl, r7, r9, lsl #12
     bec:	681c0200 	ldmdavs	ip, {r9}
     bf0:	02000000 	andeq	r0, r0, #0
     bf4:	88090023 	stmdahi	r9, {r0, r1, r5}
     bf8:	02000007 	andeq	r0, r0, #7
     bfc:	0000681d 	andeq	r6, r0, sp, lsl r8
     c00:	04230200 	strteq	r0, [r3], #-512	; 0xfffffe00
     c04:	0005f409 	andeq	pc, r5, r9, lsl #8
     c08:	331e0200 	tstcc	lr, #0, 4
     c0c:	02000003 	andeq	r0, r0, #3
     c10:	f1090823 			; <UNDEFINED> instruction: 0xf1090823
     c14:	02000007 	andeq	r0, r0, #7
     c18:	00006820 	andeq	r6, r0, r0, lsr #16
     c1c:	10230200 	eorne	r0, r3, r0, lsl #4
     c20:	00068309 	andeq	r8, r6, r9, lsl #6
     c24:	68210200 	stmdavs	r1!, {r9}
     c28:	02000000 	andeq	r0, r0, #0
     c2c:	9d091423 	cfstrsls	mvf1, [r9, #-140]	; 0xffffff74
     c30:	02000006 	andeq	r0, r0, #6
     c34:	00006822 	andeq	r6, r0, r2, lsr #16
     c38:	18230200 	stmdane	r3!, {r9}
     c3c:	0005fe09 	andeq	pc, r5, r9, lsl #28
     c40:	68230200 	stmdavs	r3!, {r9}
     c44:	02000000 	andeq	r0, r0, #0
     c48:	95091c23 	strls	r1, [r9, #-3107]	; 0xfffff3dd
     c4c:	02000006 	andeq	r0, r0, #6
     c50:	00006825 	andeq	r6, r0, r5, lsr #16
     c54:	20230200 	eorcs	r0, r3, r0, lsl #4
     c58:	00076e09 	andeq	r6, r7, r9, lsl #28
     c5c:	68260200 	stmdavs	r6!, {r9}
     c60:	02000000 	andeq	r0, r0, #0
     c64:	98092423 	stmdals	r9, {r0, r1, r5, sl, sp}
     c68:	02000007 	andeq	r0, r0, #7
     c6c:	00006827 	andeq	r6, r0, r7, lsr #16
     c70:	28230200 	stmdacs	r3!, {r9}
     c74:	00060809 	andeq	r0, r6, r9, lsl #16
     c78:	68280200 	stmdavs	r8!, {r9}
     c7c:	02000000 	andeq	r0, r0, #0
     c80:	1f092c23 	svcne	0x00092c23
     c84:	02000007 	andeq	r0, r0, #7
     c88:	0000682a 	andeq	r6, r0, sl, lsr #16
     c8c:	30230200 	eorcc	r0, r3, r0, lsl #4
     c90:	0006b009 	andeq	fp, r6, r9
     c94:	682b0200 	stmdavs	fp!, {r9}
     c98:	02000000 	andeq	r0, r0, #0
     c9c:	dd093423 	cfstrsle	mvf3, [r9, #-140]	; 0xffffff74
     ca0:	02000006 	andeq	r0, r0, #6
     ca4:	0000682c 	andeq	r6, r0, ip, lsr #16
     ca8:	38230200 	stmdacc	r3!, {r9}
     cac:	00061209 	andeq	r1, r6, r9, lsl #4
     cb0:	682d0200 	stmdavs	sp!, {r9}
     cb4:	02000000 	andeq	r0, r0, #0
     cb8:	80093c23 	andhi	r3, r9, r3, lsr #24
     cbc:	02000007 	andeq	r0, r0, #7
     cc0:	0000682f 	andeq	r6, r0, pc, lsr #16
     cc4:	40230200 	eormi	r0, r3, r0, lsl #4
     cc8:	0007ad09 	andeq	sl, r7, r9, lsl #26
     ccc:	68300200 	ldmdavs	r0!, {r9}
     cd0:	02000000 	andeq	r0, r0, #0
     cd4:	1c094423 	cfstrsne	mvf4, [r9], {35}	; 0x23
     cd8:	02000006 	andeq	r0, r0, #6
     cdc:	00033831 	andeq	r3, r3, r1, lsr r8
     ce0:	48230200 	stmdami	r3!, {r9}
     ce4:	0007f909 	andeq	pc, r7, r9, lsl #18
     ce8:	68330200 	ldmdavs	r3!, {r9}
     cec:	02000000 	andeq	r0, r0, #0
     cf0:	e8095023 	stmda	r9, {r0, r1, r5, ip, lr}
     cf4:	02000006 	andeq	r0, r0, #6
     cf8:	00006834 	andeq	r6, r0, r4, lsr r8
     cfc:	54230200 	strtpl	r0, [r3], #-512	; 0xfffffe00
     d00:	0006f309 	andeq	pc, r6, r9, lsl #6
     d04:	68350200 	ldmdavs	r5!, {r9}
     d08:	02000000 	andeq	r0, r0, #0
     d0c:	26095823 	strcs	r5, [r9], -r3, lsr #16
     d10:	02000006 	andeq	r0, r0, #6
     d14:	00006836 	andeq	r6, r0, r6, lsr r8
     d18:	5c230200 	sfmpl	f0, 4, [r3], #-0
     d1c:	0006a809 	andeq	sl, r6, r9, lsl #16
     d20:	68380200 	ldmdavs	r8!, {r9}
     d24:	02000000 	andeq	r0, r0, #0
     d28:	d4096023 	strle	r6, [r9], #-35	; 0xffffffdd
     d2c:	02000007 	andeq	r0, r0, #7
     d30:	00006839 	andeq	r6, r0, r9, lsr r8
     d34:	64230200 	strtvs	r0, [r3], #-512	; 0xfffffe00
     d38:	0007df09 	andeq	sp, r7, r9, lsl #30
     d3c:	683a0200 	ldmdavs	sl!, {r9}
     d40:	02000000 	andeq	r0, r0, #0
     d44:	30096823 	andcc	r6, r9, r3, lsr #16
     d48:	02000006 	andeq	r0, r0, #6
     d4c:	00034d3b 	andeq	r4, r3, fp, lsr sp
     d50:	6c230200 	sfmvs	f0, 4, [r3], #-0
     d54:	0006fe09 	andeq	pc, r6, r9, lsl #28
     d58:	683d0200 	ldmdavs	sp!, {r9}
     d5c:	03000000 	movweq	r0, #0
     d60:	09018023 	stmdbeq	r1, {r0, r1, r5, pc}
     d64:	000007cc 	andeq	r0, r0, ip, asr #15
     d68:	00683e02 	rsbeq	r3, r8, r2, lsl #28
     d6c:	23030000 	movwcs	r0, #12288	; 0x3000
     d70:	5a090184 	bpl	241388 <__bss_end+0x23db20>
     d74:	02000006 	andeq	r0, r0, #6
     d78:	0000683f 	andeq	r6, r0, pc, lsr r8
     d7c:	88230300 	stmdahi	r3!, {r8, r9}
     d80:	07790901 	ldrbeq	r0, [r9, -r1, lsl #18]!
     d84:	40020000 	andmi	r0, r2, r0
     d88:	00000068 	andeq	r0, r0, r8, rrx
     d8c:	018c2303 	orreq	r2, ip, r3, lsl #6
     d90:	00067509 	andeq	r7, r6, r9, lsl #10
     d94:	68420200 	stmdavs	r2, {r9}^
     d98:	03000000 	movweq	r0, #0
     d9c:	09019023 	stmdbeq	r1, {r0, r1, r5, ip, pc}
     da0:	00000734 	andeq	r0, r0, r4, lsr r7
     da4:	00684302 	rsbeq	r4, r8, r2, lsl #6
     da8:	23030000 	movwcs	r0, #12288	; 0x3000
     dac:	3a090194 	bcc	241404 <__bss_end+0x23db9c>
     db0:	02000006 	andeq	r0, r0, #6
     db4:	00035244 	andeq	r5, r3, r4, asr #4
     db8:	98230300 	stmdals	r3!, {r8, r9}
     dbc:	07650901 	strbeq	r0, [r5, -r1, lsl #18]!
     dc0:	46020000 	strmi	r0, [r2], -r0
     dc4:	00000068 	andeq	r0, r0, r8, rrx
     dc8:	01a02303 	lsleq	r2, r3, #6
     dcc:	00073c09 	andeq	r3, r7, r9, lsl #24
     dd0:	68470200 	stmdavs	r7, {r9}^
     dd4:	03000000 	movweq	r0, #0
     dd8:	0901a423 	stmdbeq	r1, {r0, r1, r5, sl, sp, pc}
     ddc:	00000717 	andeq	r0, r0, r7, lsl r7
     de0:	00684802 	rsbeq	r4, r8, r2, lsl #16
     de4:	23030000 	movwcs	r0, #12288	; 0x3000
     de8:	0d0901a8 	stfeqs	f0, [r9, #-672]	; 0xfffffd60
     dec:	02000007 	andeq	r0, r0, #7
     df0:	00036749 	andeq	r6, r3, r9, asr #14
     df4:	ac230300 	stcge	3, cr0, [r3], #-0
     df8:	075d0901 	ldrbeq	r0, [sp, -r1, lsl #18]
     dfc:	4b020000 	blmi	80e04 <__bss_end+0x7d59c>
     e00:	00000068 	andeq	r0, r0, r8, rrx
     e04:	02802303 	addeq	r2, r0, #201326592	; 0xc000000
     e08:	00067c09 	andeq	r7, r6, r9, lsl #24
     e0c:	684c0200 	stmdavs	ip, {r9}^
     e10:	03000000 	movweq	r0, #0
     e14:	09028423 	stmdbeq	r2, {r0, r1, r5, sl, pc}
     e18:	0000068e 	andeq	r0, r0, lr, lsl #13
     e1c:	00684d02 	rsbeq	r4, r8, r2, lsl #26
     e20:	23030000 	movwcs	r0, #12288	; 0x3000
     e24:	6d090288 	sfmvs	f0, 4, [r9, #-544]	; 0xfffffde0
     e28:	02000006 	andeq	r0, r0, #6
     e2c:	0000684e 	andeq	r6, r0, lr, asr #16
     e30:	8c230300 	stchi	3, cr0, [r3], #-0
     e34:	06440902 	strbeq	r0, [r4], -r2, lsl #18
     e38:	50020000 	andpl	r0, r2, r0
     e3c:	00000068 	andeq	r0, r0, r8, rrx
     e40:	02902303 	addseq	r2, r0, #201326592	; 0xc000000
     e44:	00070509 	andeq	r0, r7, r9, lsl #10
     e48:	68510200 	ldmdavs	r1, {r9}^
     e4c:	03000000 	movweq	r0, #0
     e50:	09029423 	stmdbeq	r2, {r0, r1, r5, sl, ip, pc}
     e54:	00000662 	andeq	r0, r0, r2, ror #12
     e58:	00685202 	rsbeq	r5, r8, r2, lsl #4
     e5c:	23030000 	movwcs	r0, #12288	; 0x3000
     e60:	4e090298 	mcrmi	2, 0, r0, cr9, cr8, {4}
     e64:	02000006 	andeq	r0, r0, #6
     e68:	00006853 	andeq	r6, r0, r3, asr r8
     e6c:	9c230300 	stcls	3, cr0, [r3], #-0
     e70:	078f0902 	streq	r0, [pc, r2, lsl #18]
     e74:	55020000 	strpl	r0, [r2, #-0]
     e78:	0000036c 	andeq	r0, r0, ip, ror #6
     e7c:	02a02303 	adceq	r2, r0, #201326592	; 0xc000000
     e80:	00480600 	subeq	r0, r8, r0, lsl #12
     e84:	03330000 	teqeq	r3, #0
     e88:	53070000 	movwpl	r0, #28672	; 0x7000
     e8c:	01000000 	tsteq	r0, r0
     e90:	03230500 	teqeq	r3, #0, 10
     e94:	23050000 	movwcs	r0, #20480	; 0x5000
     e98:	06000003 	streq	r0, [r0], -r3
     e9c:	00000048 	andeq	r0, r0, r8, asr #32
     ea0:	0000034d 	andeq	r0, r0, sp, asr #6
     ea4:	00005307 	andeq	r5, r0, r7, lsl #6
     ea8:	05000400 	streq	r0, [r0, #-1024]	; 0xfffffc00
     eac:	0000033d 	andeq	r0, r0, sp, lsr r3
     eb0:	00032305 	andeq	r2, r3, r5, lsl #6
     eb4:	00480600 	subeq	r0, r8, r0, lsl #12
     eb8:	03670000 	cmneq	r7, #0
     ebc:	53070000 	movwpl	r0, #28672	; 0x7000
     ec0:	14000000 	strne	r0, [r0], #-0
     ec4:	03570500 	cmpeq	r7, #0, 10
     ec8:	6d050000 	stcvs	0, cr0, [r5, #-0]
     ecc:	04000000 	streq	r0, [r0], #-0
     ed0:	000006bb 			; <UNDEFINED> instruction: 0x000006bb
     ed4:	007d5702 	rsbseq	r5, sp, r2, lsl #14
     ed8:	010a0000 	tsteq	sl, r0
     edc:	00000727 	andeq	r0, r0, r7, lsr #14
     ee0:	48012201 	stmdami	r1, {r0, r9, sp}
     ee4:	60000008 	andvs	r0, r0, r8
     ee8:	02000008 	andeq	r0, r0, #8
     eec:	010a007d 	tsteq	sl, sp, ror r0
     ef0:	00000744 	andeq	r0, r0, r4, asr #14
     ef4:	60013801 	andvs	r3, r1, r1, lsl #16
     ef8:	88000008 	stmdahi	r0, {r3}
     efc:	02000008 	andeq	r0, r0, #8
     f00:	ea0b007d 	b	2c10fc <__bss_end+0x2bd894>
     f04:	01000007 	tsteq	r0, r7
     f08:	0003b516 	andeq	fp, r3, r6, lsl r5
     f0c:	3c030500 	cfstr32cc	mvfx0, [r3], {-0}
     f10:	0c000038 	stceq	0, cr0, [r0], {56}	; 0x38
     f14:	00037104 	andeq	r7, r3, r4, lsl #2
     f18:	07a30d00 	streq	r0, [r3, r0, lsl #26]!
     f1c:	14010000 	strne	r0, [r1], #-0
     f20:	00000048 	andeq	r0, r0, r8, asr #32
     f24:	0007f10d 	andeq	pc, r7, sp, lsl #2
     f28:	48140100 	ldmdami	r4, {r8}
     f2c:	0d000000 	stceq	0, cr0, [r0, #-0]
     f30:	00000683 	andeq	r0, r0, r3, lsl #13
     f34:	00481401 	subeq	r1, r8, r1, lsl #8
     f38:	9d0d0000 	stcls	0, cr0, [sp, #-0]
     f3c:	01000006 	tsteq	r0, r6
     f40:	00004814 	andeq	r4, r0, r4, lsl r8
     f44:	06950d00 	ldreq	r0, [r5], r0, lsl #26
     f48:	14010000 	strne	r0, [r1], #-0
     f4c:	00000048 	andeq	r0, r0, r8, asr #32
     f50:	00076e0d 	andeq	r6, r7, sp, lsl #28
     f54:	48140100 	ldmdami	r4, {r8}
     f58:	0d000000 	stceq	0, cr0, [r0, #-0]
     f5c:	00000798 	muleq	r0, r8, r7
     f60:	00481401 	subeq	r1, r8, r1, lsl #8
     f64:	81000000 	tsthi	r0, r0
     f68:	02000020 	andeq	r0, r0, #32
     f6c:	0003c200 	andeq	ip, r3, r0, lsl #4
     f70:	31010400 	tstcc	r1, r0, lsl #8
     f74:	01000003 	tsteq	r0, r3
     f78:	00000f69 	andeq	r0, r0, r9, ror #30
     f7c:	000002af 	andeq	r0, r0, pc, lsr #5
     f80:	00000888 	andeq	r0, r0, r8, lsl #17
     f84:	00000afc 	strdeq	r0, [r0], -ip
     f88:	000003b8 			; <UNDEFINED> instruction: 0x000003b8
     f8c:	a5060102 	strge	r0, [r6, #-258]	; 0xfffffefe
     f90:	03000001 	movweq	r0, #1
     f94:	00000317 	andeq	r0, r0, r7, lsl r3
     f98:	00370f02 	eorseq	r0, r7, r2, lsl #30
     f9c:	01020000 	tsteq	r2, r0
     fa0:	0001a308 	andeq	sl, r1, r8, lsl #6
     fa4:	05020200 	streq	r0, [r2, #-512]	; 0xfffffe00
     fa8:	00000070 	andeq	r0, r0, r0, ror r0
     fac:	7e070202 	cdpvc	2, 0, cr0, cr7, cr2, {0}
     fb0:	03000002 	movweq	r0, #2
     fb4:	0000020d 	andeq	r0, r0, sp, lsl #4
     fb8:	00571202 	subseq	r1, r7, r2, lsl #4
     fbc:	04040000 	streq	r0, [r4], #-0
     fc0:	746e6905 	strbtvc	r6, [lr], #-2309	; 0xfffff6fb
     fc4:	010a0300 	tsteq	sl, r0, lsl #6
     fc8:	13020000 	movwne	r0, #8192	; 0x2000
     fcc:	00000069 	andeq	r0, r0, r9, rrx
     fd0:	44070402 	strmi	r0, [r7], #-1026	; 0xfffffbfe
     fd4:	02000002 	andeq	r0, r0, #2
     fd8:	01360508 	teqeq	r6, r8, lsl #10
     fdc:	08020000 	stmdaeq	r2, {}	; <UNPREDICTABLE>
     fe0:	00023a07 	andeq	r3, r2, r7, lsl #20
     fe4:	00940500 	addseq	r0, r4, r0, lsl #10
     fe8:	03040000 	movweq	r0, #16384	; 0x4000
     fec:	0000e011 	andeq	lr, r0, r1, lsl r0
     ff0:	002a0600 	eoreq	r0, sl, r0, lsl #12
     ff4:	12030000 	andne	r0, r3, #0
     ff8:	0000005e 	andeq	r0, r0, lr, asr r0
     ffc:	021c0404 	andseq	r0, ip, #4, 8	; 0x4000000
    1000:	cb060023 	blgt	181094 <__bss_end+0x17d82c>
    1004:	03000000 	movweq	r0, #0
    1008:	00005e13 	andeq	r5, r0, r3, lsl lr
    100c:	18040400 	stmdane	r4, {sl}
    1010:	06002302 	streq	r2, [r0], -r2, lsl #6
    1014:	00000149 	andeq	r0, r0, r9, asr #2
    1018:	005e1403 	subseq	r1, lr, r3, lsl #8
    101c:	04040000 	streq	r0, [r4], #-0
    1020:	00230214 	eoreq	r0, r3, r4, lsl r2
    1024:	00012e06 	andeq	r2, r1, r6, lsl #28
    1028:	5e150300 	cdppl	3, 1, cr0, cr5, cr0, {0}
    102c:	04000000 	streq	r0, [r0], #-0
    1030:	23021004 	movwcs	r1, #8196	; 0x2004
    1034:	01510600 	cmpeq	r1, r0, lsl #12
    1038:	16030000 	strne	r0, [r3], -r0
    103c:	0000005e 	andeq	r0, r0, lr, asr r0
    1040:	02001004 	andeq	r1, r0, #4
    1044:	05000023 	streq	r0, [r0, #-35]	; 0xffffffdd
    1048:	00000305 	andeq	r0, r0, r5, lsl #6
    104c:	33180308 	tstcc	r8, #8, 6	; 0x20000000
    1050:	07000001 	streq	r0, [r0, -r1]
    1054:	00000014 	andeq	r0, r0, r4, lsl r0
    1058:	002c1903 	eoreq	r1, ip, r3, lsl #18
    105c:	23020000 	movwcs	r0, #8192	; 0x2000
    1060:	03d70700 	bicseq	r0, r7, #0, 14
    1064:	1a030000 	bne	c106c <__bss_end+0xbd804>
    1068:	0000002c 	andeq	r0, r0, ip, lsr #32
    106c:	07012302 	streq	r2, [r1, -r2, lsl #6]
    1070:	0000000c 	andeq	r0, r0, ip
    1074:	002c1b03 	eoreq	r1, ip, r3, lsl #22
    1078:	23020000 	movwcs	r0, #8192	; 0x2000
    107c:	001c0702 	andseq	r0, ip, r2, lsl #14
    1080:	1c030000 	stcne	0, cr0, [r3], {-0}
    1084:	0000002c 	andeq	r0, r0, ip, lsr #32
    1088:	08032302 	stmdaeq	r3, {r1, r8, r9, sp}
    108c:	006c6c50 	rsbeq	r6, ip, r0, asr ip
    1090:	005e1d03 	subseq	r1, lr, r3, lsl #26
    1094:	23020000 	movwcs	r0, #8192	; 0x2000
    1098:	c8050004 	stmdagt	r5, {r2}
    109c:	0400000f 	streq	r0, [r0], #-15
    10a0:	022e1604 	eoreq	r1, lr, #4, 12	; 0x400000
    10a4:	0c060000 	stceq	0, cr0, [r6], {-0}
    10a8:	04000000 	streq	r0, [r0], #-0
    10ac:	00005e18 	andeq	r5, r0, r8, lsl lr
    10b0:	1e020400 	cfcpysne	mvf0, mvf2
    10b4:	06002302 	streq	r2, [r0], -r2, lsl #6
    10b8:	000014a7 	andeq	r1, r0, r7, lsr #9
    10bc:	005e1904 	subseq	r1, lr, r4, lsl #18
    10c0:	01040000 	tsteq	r4, r0
    10c4:	0023021d 	eoreq	r0, r3, sp, lsl r2
    10c8:	0011e206 	andseq	lr, r1, r6, lsl #4
    10cc:	5e1a0400 	cfmulspl	mvf0, mvf10, mvf0
    10d0:	04000000 	streq	r0, [r0], #-0
    10d4:	23021c01 	movwcs	r1, #11265	; 0x2c01
    10d8:	03d70600 	bicseq	r0, r7, #0, 12
    10dc:	1b040000 	blne	1010e4 <__bss_end+0xfd87c>
    10e0:	0000005e 	andeq	r0, r0, lr, asr r0
    10e4:	021a0204 	andseq	r0, sl, #4, 4	; 0x40000000
    10e8:	f4060023 	vst4.8	{d0-d3}, [r6 :128], r3
    10ec:	04000005 	streq	r0, [r0], #-5
    10f0:	00005e1c 	andeq	r5, r0, ip, lsl lr
    10f4:	18020400 	stmdane	r2, {sl}
    10f8:	06002302 	streq	r2, [r0], -r2, lsl #6
    10fc:	00000014 	andeq	r0, r0, r4, lsl r0
    1100:	005e1d04 	subseq	r1, lr, r4, lsl #26
    1104:	05040000 	streq	r0, [r4, #-0]
    1108:	00230213 	eoreq	r0, r3, r3, lsl r2
    110c:	00151406 	andseq	r1, r5, r6, lsl #8
    1110:	5e1e0400 	cfmulspl	mvf0, mvf14, mvf0
    1114:	04000000 	streq	r0, [r0], #-0
    1118:	23021003 	movwcs	r1, #8195	; 0x2003
    111c:	0c130600 	ldceq	6, cr0, [r3], {-0}
    1120:	1f040000 	svcne	0x00040000
    1124:	0000005e 	andeq	r0, r0, lr, asr r0
    1128:	020e0204 	andeq	r0, lr, #4, 4	; 0x40000000
    112c:	fe060023 	cdp2	0, 0, cr0, cr6, cr3, {1}
    1130:	04000005 	streq	r0, [r0], #-5
    1134:	00005e20 	andeq	r5, r0, r0, lsr #28
    1138:	0c020400 	cfstrseq	mvf0, [r2], {-0}
    113c:	06002302 	streq	r2, [r0], -r2, lsl #6
    1140:	00001377 	andeq	r1, r0, r7, ror r3
    1144:	005e2104 	subseq	r2, lr, r4, lsl #2
    1148:	05040000 	streq	r0, [r4, #-0]
    114c:	00230207 	eoreq	r0, r3, r7, lsl #4
    1150:	00060806 	andeq	r0, r6, r6, lsl #16
    1154:	5e220400 	cdppl	4, 2, cr0, cr2, cr0, {0}
    1158:	04000000 	streq	r0, [r0], #-0
    115c:	23020601 	movwcs	r0, #9729	; 0x2601
    1160:	12320600 	eorsne	r0, r2, #0, 12
    1164:	23040000 	movwcs	r0, #16384	; 0x4000
    1168:	0000005e 	andeq	r0, r0, lr, asr r0
    116c:	02020404 	andeq	r0, r2, #4, 8	; 0x4000000
    1170:	35060023 	strcc	r0, [r6, #-35]	; 0xffffffdd
    1174:	0400000f 	streq	r0, [r0], #-15
    1178:	00005e24 	andeq	r5, r0, r4, lsr #28
    117c:	01010400 	tsteq	r1, r0, lsl #8
    1180:	06002302 	streq	r2, [r0], -r2, lsl #6
    1184:	00001310 	andeq	r1, r0, r0, lsl r3
    1188:	005e2504 	subseq	r2, lr, r4, lsl #10
    118c:	01040000 	tsteq	r4, r0
    1190:	00230200 	eoreq	r0, r3, r0, lsl #4
    1194:	0d900300 	ldceq	3, cr0, [r0]
    1198:	27040000 	strcs	r0, [r4, -r0]
    119c:	00000133 	andeq	r0, r0, r3, lsr r1
    11a0:	00145405 	andseq	r5, r4, r5, lsl #8
    11a4:	29040400 	stmdbcs	r4, {sl}
    11a8:	000002ac 	andeq	r0, r0, ip, lsr #5
    11ac:	0005f406 	andeq	pc, r5, r6, lsl #8
    11b0:	5e2b0400 	cdppl	4, 2, cr0, cr11, cr0, {0}
    11b4:	04000000 	streq	r0, [r0], #-0
    11b8:	23021010 	movwcs	r1, #8208	; 0x2010
    11bc:	13640600 	cmnne	r4, #0, 12
    11c0:	2c040000 	stccs	0, cr0, [r4], {-0}
    11c4:	0000005e 	andeq	r0, r0, lr, asr r0
    11c8:	02090704 	andeq	r0, r9, #4, 14	; 0x100000
    11cc:	bd060023 	stclt	0, cr0, [r6, #-140]	; 0xffffff74
    11d0:	04000008 	streq	r0, [r0], #-8
    11d4:	00005e2d 	andeq	r5, r0, sp, lsr #28
    11d8:	06030400 	streq	r0, [r3], -r0, lsl #8
    11dc:	06002302 	streq	r2, [r0], -r2, lsl #6
    11e0:	0000157b 	andeq	r1, r0, fp, ror r5
    11e4:	005e2e04 	subseq	r2, lr, r4, lsl #28
    11e8:	01040000 	tsteq	r4, r0
    11ec:	00230205 	eoreq	r0, r3, r5, lsl #4
    11f0:	0009dc06 	andeq	sp, r9, r6, lsl #24
    11f4:	5e2f0400 	cdppl	4, 2, cr0, cr15, cr0, {0}
    11f8:	04000000 	streq	r0, [r0], #-0
    11fc:	23020401 	movwcs	r0, #9217	; 0x2401
    1200:	0d550600 	ldcleq	6, cr0, [r5, #-0]
    1204:	30040000 	andcc	r0, r4, r0
    1208:	0000005e 	andeq	r0, r0, lr, asr r0
    120c:	02000404 	andeq	r0, r0, #4, 8	; 0x4000000
    1210:	03000023 	movweq	r0, #35	; 0x23
    1214:	00000a79 	andeq	r0, r0, r9, ror sl
    1218:	02393104 	eorseq	r3, r9, #4, 2
    121c:	7f050000 	svcvc	0x00050000
    1220:	0400000f 	streq	r0, [r0], #-15
    1224:	035d3404 	cmpeq	sp, #4, 8	; 0x4000000
    1228:	45060000 	strmi	r0, [r6, #-0]
    122c:	04000015 	streq	r0, [r0], #-21	; 0xffffffeb
    1230:	00005e36 	andeq	r5, r0, r6, lsr lr
    1234:	1b050400 	blne	14223c <__bss_end+0x13e9d4>
    1238:	06002302 	streq	r2, [r0], -r2, lsl #6
    123c:	000005f4 	strdeq	r0, [r0], -r4
    1240:	005e3704 	subseq	r3, lr, r4, lsl #14
    1244:	03040000 	movweq	r0, #16384	; 0x4000
    1248:	00230218 	eoreq	r0, r3, r8, lsl r2
    124c:	00001406 	andeq	r1, r0, r6, lsl #8
    1250:	5e380400 	cfabsspl	mvf0, mvf8
    1254:	04000000 	streq	r0, [r0], #-0
    1258:	23021107 	movwcs	r1, #8455	; 0x2107
    125c:	05fe0600 	ldrbeq	r0, [lr, #1536]!	; 0x600
    1260:	39040000 	stmdbcc	r4, {}	; <UNPREDICTABLE>
    1264:	0000005e 	andeq	r0, r0, lr, asr r0
    1268:	02100104 	andseq	r0, r0, #4, 2
    126c:	77060023 	strvc	r0, [r6, -r3, lsr #32]
    1270:	04000013 	streq	r0, [r0], #-19	; 0xffffffed
    1274:	00005e3a 	andeq	r5, r0, sl, lsr lr
    1278:	0b050400 	bleq	142280 <__bss_end+0x13ea18>
    127c:	06002302 	streq	r2, [r0], -r2, lsl #6
    1280:	0000153d 	andeq	r1, r0, sp, lsr r5
    1284:	005e3b04 	subseq	r3, lr, r4, lsl #22
    1288:	05040000 	streq	r0, [r4, #-0]
    128c:	00230206 	eoreq	r0, r3, r6, lsl #4
    1290:	00092806 	andeq	r2, r9, r6, lsl #16
    1294:	5e3c0400 	cfabsspl	mvf0, mvf12
    1298:	04000000 	streq	r0, [r0], #-0
    129c:	23020204 	movwcs	r0, #8708	; 0x2204
    12a0:	06080600 	streq	r0, [r8], -r0, lsl #12
    12a4:	3d040000 	stccc	0, cr0, [r4, #-0]
    12a8:	0000005e 	andeq	r0, r0, lr, asr r0
    12ac:	02010104 	andeq	r0, r1, #4, 2
    12b0:	10060023 	andne	r0, r6, r3, lsr #32
    12b4:	04000013 	streq	r0, [r0], #-19	; 0xffffffed
    12b8:	00005e3e 	andeq	r5, r0, lr, lsr lr
    12bc:	00010400 	andeq	r0, r1, r0, lsl #8
    12c0:	00002302 	andeq	r2, r0, r2, lsl #6
    12c4:	000bd703 	andeq	sp, fp, r3, lsl #14
    12c8:	b73f0400 	ldrlt	r0, [pc, -r0, lsl #8]!
    12cc:	05000002 	streq	r0, [r0, #-2]
    12d0:	000008a2 	andeq	r0, r0, r2, lsr #17
    12d4:	db420404 	blle	10822ec <__bss_end+0x107ea84>
    12d8:	06000003 	streq	r0, [r0], -r3
    12dc:	00000e6d 	andeq	r0, r0, sp, ror #28
    12e0:	005e4404 	subseq	r4, lr, r4, lsl #8
    12e4:	11040000 	tstne	r4, r0
    12e8:	0023020f 	eoreq	r0, r3, pc, lsl #4
    12ec:	00158f06 	andseq	r8, r5, r6, lsl #30
    12f0:	5e450400 	cdppl	4, 4, cr0, cr5, cr0, {0}
    12f4:	04000000 	streq	r0, [r0], #-0
    12f8:	23020d02 	movwcs	r0, #11522	; 0x2d02
    12fc:	05f40600 	ldrbeq	r0, [r4, #1536]!	; 0x600
    1300:	46040000 	strmi	r0, [r4], -r0
    1304:	0000005e 	andeq	r0, r0, lr, asr r0
    1308:	020c0104 	andeq	r0, ip, #4, 2
    130c:	0a060023 	beq	1813a0 <__bss_end+0x17db38>
    1310:	04000008 	streq	r0, [r0], #-8
    1314:	00005e47 	andeq	r5, r0, r7, asr #28
    1318:	03090400 	movweq	r0, #37888	; 0x9400
    131c:	06002302 	streq	r2, [r0], -r2, lsl #6
    1320:	00000c0a 	andeq	r0, r0, sl, lsl #24
    1324:	005e4804 	subseq	r4, lr, r4, lsl #16
    1328:	02040000 	andeq	r0, r4, #0
    132c:	00230201 	eoreq	r0, r3, r1, lsl #4
    1330:	0014a706 	andseq	sl, r4, r6, lsl #14
    1334:	5e490400 	cdppl	4, 4, cr0, cr9, cr0, {0}
    1338:	04000000 	streq	r0, [r0], #-0
    133c:	23020001 	movwcs	r0, #8193	; 0x2001
    1340:	c5030000 	strgt	r0, [r3, #-0]
    1344:	04000011 	streq	r0, [r0], #-17	; 0xffffffef
    1348:	0003684b 	andeq	r6, r3, fp, asr #16
    134c:	11f30500 	mvnsne	r0, r0, lsl #10
    1350:	04040000 	streq	r0, [r4], #-0
    1354:	0004ae4e 	andeq	sl, r4, lr, asr #28
    1358:	000c0600 	andeq	r0, ip, r0, lsl #12
    135c:	50040000 	andpl	r0, r4, r0
    1360:	0000005e 	andeq	r0, r0, lr, asr r0
    1364:	02190704 	andseq	r0, r9, #4, 14	; 0x100000
    1368:	f4060023 	vst4.8	{d0-d3}, [r6 :128], r3
    136c:	04000005 	streq	r0, [r0], #-5
    1370:	00005e51 	andeq	r5, r0, r1, asr lr
    1374:	18010400 	stmdane	r1, {sl}
    1378:	06002302 	streq	r2, [r0], -r2, lsl #6
    137c:	00001377 	andeq	r1, r0, r7, ror r3
    1380:	005e5204 	subseq	r5, lr, r4, lsl #4
    1384:	05040000 	streq	r0, [r4, #-0]
    1388:	00230213 	eoreq	r0, r3, r3, lsl r2
    138c:	0005fe06 	andeq	pc, r5, r6, lsl #28
    1390:	5e530400 	cdppl	4, 5, cr0, cr3, cr0, {0}
    1394:	04000000 	streq	r0, [r0], #-0
    1398:	23021201 	movwcs	r1, #8705	; 0x2201
    139c:	0efd0600 	cdpeq	6, 15, cr0, cr13, cr0, {0}
    13a0:	54040000 	strpl	r0, [r4], #-0
    13a4:	0000005e 	andeq	r0, r0, lr, asr r0
    13a8:	02110104 	andseq	r0, r1, #4, 2
    13ac:	ef060023 	svc	0x00060023
    13b0:	04000010 	streq	r0, [r0], #-16
    13b4:	00005e55 	andeq	r5, r0, r5, asr lr
    13b8:	10010400 	andne	r0, r1, r0, lsl #8
    13bc:	06002302 	streq	r2, [r0], -r2, lsl #6
    13c0:	00001232 	andeq	r1, r0, r2, lsr r2
    13c4:	005e5604 	subseq	r5, lr, r4, lsl #12
    13c8:	05040000 	streq	r0, [r4, #-0]
    13cc:	0023020b 	eoreq	r0, r3, fp, lsl #4
    13d0:	00060806 	andeq	r0, r6, r6, lsl #16
    13d4:	5e570400 	cdppl	4, 5, cr0, cr7, cr0, {0}
    13d8:	04000000 	streq	r0, [r0], #-0
    13dc:	23020803 	movwcs	r0, #10243	; 0x2803
    13e0:	0d550600 	ldcleq	6, cr0, [r5, #-0]
    13e4:	58040000 	stmdapl	r4, {}	; <UNPREDICTABLE>
    13e8:	0000005e 	andeq	r0, r0, lr, asr r0
    13ec:	02050304 	andeq	r0, r5, #4, 6	; 0x10000000
    13f0:	12060023 	andne	r0, r6, #35	; 0x23
    13f4:	04000006 	streq	r0, [r0], #-6
    13f8:	00005e59 	andeq	r5, r0, r9, asr lr
    13fc:	01040400 	tsteq	r4, r0, lsl #8
    1400:	06002302 	streq	r2, [r0], -r2, lsl #6
    1404:	00001310 	andeq	r1, r0, r0, lsl r3
    1408:	005e5a04 	subseq	r5, lr, r4, lsl #20
    140c:	01040000 	tsteq	r4, r0
    1410:	00230200 	eoreq	r0, r3, r0, lsl #4
    1414:	10140300 	andsne	r0, r4, r0, lsl #6
    1418:	5b040000 	blpl	101420 <__bss_end+0xfdbb8>
    141c:	000003e6 	andeq	r0, r0, r6, ror #7
    1420:	000a9605 	andeq	r9, sl, r5, lsl #12
    1424:	5e040400 	cfcpyspl	mvf0, mvf4
    1428:	000005b4 			; <UNDEFINED> instruction: 0x000005b4
    142c:	00000c06 	andeq	r0, r0, r6, lsl #24
    1430:	5e600400 	cdppl	4, 6, cr0, cr0, cr0, {0}
    1434:	04000000 	streq	r0, [r0], #-0
    1438:	23021e02 	movwcs	r1, #11778	; 0x2e02
    143c:	05f40600 	ldrbeq	r0, [r4, #1536]!	; 0x600
    1440:	61040000 	tstvs	r4, r0
    1444:	0000005e 	andeq	r0, r0, lr, asr r0
    1448:	021c0204 	andseq	r0, ip, #4, 4	; 0x40000000
    144c:	d7060023 	strle	r0, [r6, -r3, lsr #32]
    1450:	04000003 	streq	r0, [r0], #-3
    1454:	00005e62 	andeq	r5, r0, r2, ror #28
    1458:	1a020400 	bne	82460 <__bss_end+0x7ebf8>
    145c:	06002302 	streq	r2, [r0], -r2, lsl #6
    1460:	000005fe 	strdeq	r0, [r0], -lr
    1464:	005e6304 	subseq	r6, lr, r4, lsl #6
    1468:	02040000 	andeq	r0, r4, #0
    146c:	00230218 	eoreq	r0, r3, r8, lsl r2
    1470:	00001406 	andeq	r1, r0, r6, lsl #8
    1474:	5e640400 	cdppl	4, 6, cr0, cr4, cr0, {0}
    1478:	04000000 	streq	r0, [r0], #-0
    147c:	23021305 	movwcs	r1, #8965	; 0x2305
    1480:	06080600 	streq	r0, [r8], -r0, lsl #12
    1484:	65040000 	strvs	r0, [r4, #-0]
    1488:	0000005e 	andeq	r0, r0, lr, asr r0
    148c:	02120104 	andseq	r0, r2, #4, 2
    1490:	7d060023 	stcvc	0, cr0, [r6, #-140]	; 0xffffff74
    1494:	0400000d 	streq	r0, [r0], #-13
    1498:	00005e66 	andeq	r5, r0, r6, ror #28
    149c:	10020400 	andne	r0, r2, r0, lsl #8
    14a0:	06002302 	streq	r2, [r0], -r2, lsl #6
    14a4:	0000001c 	andeq	r0, r0, ip, lsl r0
    14a8:	005e6704 	subseq	r6, lr, r4, lsl #14
    14ac:	02040000 	andeq	r0, r4, #0
    14b0:	0023020e 	eoreq	r0, r3, lr, lsl #4
    14b4:	00061206 	andeq	r1, r6, r6, lsl #4
    14b8:	5e680400 	cdppl	4, 6, cr0, cr8, cr0, {0}
    14bc:	04000000 	streq	r0, [r0], #-0
    14c0:	23020d01 	movwcs	r0, #11521	; 0x2d01
    14c4:	157b0600 	ldrbne	r0, [fp, #-1536]!	; 0xfffffa00
    14c8:	69040000 	stmdbvs	r4, {}	; <UNPREDICTABLE>
    14cc:	0000005e 	andeq	r0, r0, lr, asr r0
    14d0:	020c0104 	andeq	r0, ip, #4, 2
    14d4:	77060023 	strvc	r0, [r6, -r3, lsr #32]
    14d8:	04000013 	streq	r0, [r0], #-19	; 0xffffffed
    14dc:	00005e6a 	andeq	r5, r0, sl, ror #28
    14e0:	07050400 	streq	r0, [r5, -r0, lsl #8]
    14e4:	06002302 	streq	r2, [r0], -r2, lsl #6
    14e8:	00001232 	andeq	r1, r0, r2, lsr r2
    14ec:	005e6b04 	subseq	r6, lr, r4, lsl #22
    14f0:	05040000 	streq	r0, [r4, #-0]
    14f4:	00230202 	eoreq	r0, r3, r2, lsl #4
    14f8:	000ee806 	andeq	lr, lr, r6, lsl #16
    14fc:	5e6c0400 	cdppl	4, 6, cr0, cr12, cr0, {0}
    1500:	04000000 	streq	r0, [r0], #-0
    1504:	23020101 	movwcs	r0, #8449	; 0x2101
    1508:	13100600 	tstne	r0, #0, 12
    150c:	6d040000 	stcvs	0, cr0, [r4, #-0]
    1510:	0000005e 	andeq	r0, r0, lr, asr r0
    1514:	02000104 	andeq	r0, r0, #4, 2
    1518:	03000023 	movweq	r0, #35	; 0x23
    151c:	000015ba 			; <UNDEFINED> instruction: 0x000015ba
    1520:	04b96e04 	ldrteq	r6, [r9], #3588	; 0xe04
    1524:	59050000 	stmdbpl	r5, {}	; <UNPREDICTABLE>
    1528:	0400000a 	streq	r0, [r0], #-10
    152c:	06cb7104 	strbeq	r7, [fp], r4, lsl #2
    1530:	0c060000 	stceq	0, cr0, [r6], {-0}
    1534:	04000000 	streq	r0, [r0], #-0
    1538:	00005e73 	andeq	r5, r0, r3, ror lr
    153c:	1e020400 	cfcpysne	mvf0, mvf2
    1540:	06002302 	streq	r2, [r0], -r2, lsl #6
    1544:	0000142a 	andeq	r1, r0, sl, lsr #8
    1548:	005e7404 	subseq	r7, lr, r4, lsl #8
    154c:	02040000 	andeq	r0, r4, #0
    1550:	0023021c 	eoreq	r0, r3, ip, lsl r2
    1554:	0003d706 	andeq	sp, r3, r6, lsl #14
    1558:	5e750400 	cdppl	4, 7, cr0, cr5, cr0, {0}
    155c:	04000000 	streq	r0, [r0], #-0
    1560:	23021a02 	movwcs	r1, #10754	; 0x2a02
    1564:	05f40600 	ldrbeq	r0, [r4, #1536]!	; 0x600
    1568:	76040000 	strvc	r0, [r4], -r0
    156c:	0000005e 	andeq	r0, r0, lr, asr r0
    1570:	02190104 	andseq	r0, r9, #4, 2
    1574:	23060023 	movwcs	r0, #24611	; 0x6023
    1578:	04000014 	streq	r0, [r0], #-20	; 0xffffffec
    157c:	00005e77 	andeq	r5, r0, r7, ror lr
    1580:	18010400 	stmdane	r1, {sl}
    1584:	06002302 	streq	r2, [r0], -r2, lsl #6
    1588:	00000014 	andeq	r0, r0, r4, lsl r0
    158c:	005e7804 	subseq	r7, lr, r4, lsl #16
    1590:	05040000 	streq	r0, [r4, #-0]
    1594:	00230213 	eoreq	r0, r3, r3, lsl r2
    1598:	00157b06 	andseq	r7, r5, r6, lsl #22
    159c:	5e790400 	cdppl	4, 7, cr0, cr9, cr0, {0}
    15a0:	04000000 	streq	r0, [r0], #-0
    15a4:	23021003 	movwcs	r1, #8195	; 0x2003
    15a8:	001c0600 	andseq	r0, ip, r0, lsl #12
    15ac:	7a040000 	bvc	1015b4 <__bss_end+0xfdd4c>
    15b0:	0000005e 	andeq	r0, r0, lr, asr r0
    15b4:	020e0204 	andeq	r0, lr, #4, 4	; 0x40000000
    15b8:	dc060023 	stcle	0, cr0, [r6], {35}	; 0x23
    15bc:	04000009 	streq	r0, [r0], #-9
    15c0:	00005e7b 	andeq	r5, r0, fp, ror lr
    15c4:	0d010400 	cfstrseq	mvf0, [r1, #-0]
    15c8:	06002302 	streq	r2, [r0], -r2, lsl #6
    15cc:	0000094d 	andeq	r0, r0, sp, asr #18
    15d0:	005e7c04 	subseq	r7, lr, r4, lsl #24
    15d4:	01040000 	tsteq	r4, r0
    15d8:	0023020c 	eoreq	r0, r3, ip, lsl #4
    15dc:	00137706 	andseq	r7, r3, r6, lsl #14
    15e0:	5e7d0400 	cdppl	4, 7, cr0, cr13, cr0, {0}
    15e4:	04000000 	streq	r0, [r0], #-0
    15e8:	23020705 	movwcs	r0, #9989	; 0x2705
    15ec:	12320600 	eorsne	r0, r2, #0, 12
    15f0:	7e040000 	cdpvc	0, 0, cr0, cr4, cr0, {0}
    15f4:	0000005e 	andeq	r0, r0, lr, asr r0
    15f8:	02030404 	andeq	r0, r3, #4, 8	; 0x4000000
    15fc:	ea060023 	b	181690 <__bss_end+0x17de28>
    1600:	04000011 	streq	r0, [r0], #-17	; 0xffffffef
    1604:	00005e7f 	andeq	r5, r0, pc, ror lr
    1608:	02010400 	andeq	r0, r1, #0, 8
    160c:	06002302 	streq	r2, [r0], -r2, lsl #6
    1610:	00000ee8 	andeq	r0, r0, r8, ror #29
    1614:	005e8004 	subseq	r8, lr, r4
    1618:	01040000 	tsteq	r4, r0
    161c:	00230201 	eoreq	r0, r3, r1, lsl #4
    1620:	00131006 	andseq	r1, r3, r6
    1624:	5e810400 	cdppl	4, 8, cr0, cr1, cr0, {0}
    1628:	04000000 	streq	r0, [r0], #-0
    162c:	23020001 	movwcs	r0, #8193	; 0x2001
    1630:	bd030000 	stclt	0, cr0, [r3, #-0]
    1634:	0400000b 	streq	r0, [r0], #-11
    1638:	0005bf82 	andeq	fp, r5, r2, lsl #31
    163c:	15600500 	strbne	r0, [r0, #-1280]!	; 0xfffffb00
    1640:	04040000 	streq	r0, [r4], #-0
    1644:	00075a85 	andeq	r5, r7, r5, lsl #21
    1648:	05f40600 	ldrbeq	r0, [r4, #1536]!	; 0x600
    164c:	87040000 	strhi	r0, [r4, -r0]
    1650:	0000005e 	andeq	r0, r0, lr, asr r0
    1654:	02101004 	andseq	r1, r0, #4
    1658:	64060023 	strvs	r0, [r6], #-35	; 0xffffffdd
    165c:	04000013 	streq	r0, [r0], #-19	; 0xffffffed
    1660:	00005e88 	andeq	r5, r0, r8, lsl #29
    1664:	09070400 	stmdbeq	r7, {sl}
    1668:	06002302 	streq	r2, [r0], -r2, lsl #6
    166c:	00000f35 	andeq	r0, r0, r5, lsr pc
    1670:	005e8904 	subseq	r8, lr, r4, lsl #18
    1674:	01040000 	tsteq	r4, r0
    1678:	00230208 	eoreq	r0, r3, r8, lsl #4
    167c:	00151406 	andseq	r1, r5, r6, lsl #8
    1680:	5e8a0400 	cdppl	4, 8, cr0, cr10, cr0, {0}
    1684:	04000000 	streq	r0, [r0], #-0
    1688:	23020503 	movwcs	r0, #9475	; 0x2503
    168c:	05fe0600 	ldrbeq	r0, [lr, #1536]!	; 0x600
    1690:	8b040000 	blhi	101698 <__bss_end+0xfde30>
    1694:	0000005e 	andeq	r0, r0, lr, asr r0
    1698:	02040104 	andeq	r0, r4, #4, 2
    169c:	d4060023 	strle	r0, [r6], #-35	; 0xffffffdd
    16a0:	04000013 	streq	r0, [r0], #-19	; 0xffffffed
    16a4:	00005e8c 	andeq	r5, r0, ip, lsl #29
    16a8:	03010400 	movweq	r0, #5120	; 0x1400
    16ac:	06002302 	streq	r2, [r0], -r2, lsl #6
    16b0:	00000d55 	andeq	r0, r0, r5, asr sp
    16b4:	005e8d04 	subseq	r8, lr, r4, lsl #26
    16b8:	03040000 	movweq	r0, #16384	; 0x4000
    16bc:	00230200 	eoreq	r0, r3, r0, lsl #4
    16c0:	0fab0300 	svceq	0x00ab0300
    16c4:	8e040000 	cdphi	0, 0, cr0, cr4, cr0, {0}
    16c8:	000006d6 	ldrdeq	r0, [r0], -r6
    16cc:	000b1c05 	andeq	r1, fp, r5, lsl #24
    16d0:	90040400 	andls	r0, r4, r0, lsl #8
    16d4:	0000083e 	andeq	r0, r0, lr, lsr r8
    16d8:	00000c06 	andeq	r0, r0, r6, lsl #24
    16dc:	5e920400 	cdppl	4, 9, cr0, cr2, cr0, {0}
    16e0:	04000000 	streq	r0, [r0], #-0
    16e4:	23021e02 	movwcs	r1, #11778	; 0x2e02
    16e8:	05f40600 	ldrbeq	r0, [r4, #1536]!	; 0x600
    16ec:	93040000 	movwls	r0, #16384	; 0x4000
    16f0:	0000005e 	andeq	r0, r0, lr, asr r0
    16f4:	021c0204 	andseq	r0, ip, #4, 4	; 0x40000000
    16f8:	d7060023 	strle	r0, [r6, -r3, lsr #32]
    16fc:	04000003 	streq	r0, [r0], #-3
    1700:	00005e94 	muleq	r0, r4, lr
    1704:	1a020400 	bne	8270c <__bss_end+0x7eea4>
    1708:	06002302 	streq	r2, [r0], -r2, lsl #6
    170c:	00000d55 	andeq	r0, r0, r5, asr sp
    1710:	005e9504 	subseq	r9, lr, r4, lsl #10
    1714:	02040000 	andeq	r0, r4, #0
    1718:	00230218 	eoreq	r0, r3, r8, lsl r2
    171c:	00001406 	andeq	r1, r0, r6, lsl #8
    1720:	5e960400 	cdppl	4, 9, cr0, cr6, cr0, {0}
    1724:	04000000 	streq	r0, [r0], #-0
    1728:	23021305 	movwcs	r1, #8965	; 0x2305
    172c:	05fe0600 	ldrbeq	r0, [lr, #1536]!	; 0x600
    1730:	97040000 	strls	r0, [r4, -r0]
    1734:	0000005e 	andeq	r0, r0, lr, asr r0
    1738:	02110204 	andseq	r0, r1, #4, 4	; 0x40000000
    173c:	dc060023 	stcle	0, cr0, [r6], {35}	; 0x23
    1740:	04000009 	streq	r0, [r0], #-9
    1744:	00005e98 	muleq	r0, r8, lr
    1748:	10010400 	andne	r0, r1, r0, lsl #8
    174c:	06002302 	streq	r2, [r0], -r2, lsl #6
    1750:	00000608 	andeq	r0, r0, r8, lsl #12
    1754:	005e9904 	subseq	r9, lr, r4, lsl #18
    1758:	04040000 	streq	r0, [r4], #-0
    175c:	0023020c 	eoreq	r0, r3, ip, lsl #4
    1760:	00137706 	andseq	r7, r3, r6, lsl #14
    1764:	5e9a0400 	cdppl	4, 9, cr0, cr10, cr0, {0}
    1768:	04000000 	streq	r0, [r0], #-0
    176c:	23020705 	movwcs	r0, #9989	; 0x2705
    1770:	12320600 	eorsne	r0, r2, #0, 12
    1774:	9b040000 	blls	10177c <__bss_end+0xfdf14>
    1778:	0000005e 	andeq	r0, r0, lr, asr r0
    177c:	02020504 	andeq	r0, r2, #4, 10	; 0x1000000
    1780:	e8060023 	stmda	r6, {r0, r1, r5}
    1784:	0400000e 	streq	r0, [r0], #-14
    1788:	00005e9c 	muleq	r0, ip, lr
    178c:	01010400 	tsteq	r1, r0, lsl #8
    1790:	06002302 	streq	r2, [r0], -r2, lsl #6
    1794:	00001310 	andeq	r1, r0, r0, lsl r3
    1798:	005e9d04 	subseq	r9, lr, r4, lsl #26
    179c:	01040000 	tsteq	r4, r0
    17a0:	00230200 	eoreq	r0, r3, r0, lsl #4
    17a4:	09c10300 	stmibeq	r1, {r8, r9}^
    17a8:	9e040000 	cdpls	0, 0, cr0, cr4, cr0, {0}
    17ac:	00000765 	andeq	r0, r0, r5, ror #14
    17b0:	0010f705 	andseq	pc, r0, r5, lsl #14
    17b4:	a1040400 	tstge	r4, r0, lsl #8
    17b8:	00000911 	andeq	r0, r0, r1, lsl r9
    17bc:	00000c06 	andeq	r0, r0, r6, lsl #24
    17c0:	5ea30400 	cdppl	4, 10, cr0, cr3, cr0, {0}
    17c4:	04000000 	streq	r0, [r0], #-0
    17c8:	23021907 	movwcs	r1, #10503	; 0x2907
    17cc:	05f40600 	ldrbeq	r0, [r4, #1536]!	; 0x600
    17d0:	a4040000 	strge	r0, [r4], #-0
    17d4:	0000005e 	andeq	r0, r0, lr, asr r0
    17d8:	02180104 	andseq	r0, r8, #4, 2
    17dc:	77060023 	strvc	r0, [r6, -r3, lsr #32]
    17e0:	04000013 	streq	r0, [r0], #-19	; 0xffffffed
    17e4:	00005ea5 	andeq	r5, r0, r5, lsr #29
    17e8:	13050400 	movwne	r0, #21504	; 0x5400
    17ec:	06002302 	streq	r2, [r0], -r2, lsl #6
    17f0:	000005fe 	strdeq	r0, [r0], -lr
    17f4:	005ea604 	subseq	sl, lr, r4, lsl #12
    17f8:	01040000 	tsteq	r4, r0
    17fc:	00230212 	eoreq	r0, r3, r2, lsl r2
    1800:	000efd06 	andeq	pc, lr, r6, lsl #26
    1804:	5ea70400 	cdppl	4, 10, cr0, cr7, cr0, {0}
    1808:	04000000 	streq	r0, [r0], #-0
    180c:	23021101 	movwcs	r1, #8449	; 0x2101
    1810:	10ef0600 	rscne	r0, pc, r0, lsl #12
    1814:	a8040000 	stmdage	r4, {}	; <UNPREDICTABLE>
    1818:	0000005e 	andeq	r0, r0, lr, asr r0
    181c:	02100104 	andseq	r0, r0, #4, 2
    1820:	32060023 	andcc	r0, r6, #35	; 0x23
    1824:	04000012 	streq	r0, [r0], #-18	; 0xffffffee
    1828:	00005ea9 	andeq	r5, r0, r9, lsr #29
    182c:	0b050400 	bleq	142834 <__bss_end+0x13efcc>
    1830:	06002302 	streq	r2, [r0], -r2, lsl #6
    1834:	00000608 	andeq	r0, r0, r8, lsl #12
    1838:	005eaa04 	subseq	sl, lr, r4, lsl #20
    183c:	03040000 	movweq	r0, #16384	; 0x4000
    1840:	00230208 	eoreq	r0, r3, r8, lsl #4
    1844:	000d5506 	andeq	r5, sp, r6, lsl #10
    1848:	5eab0400 	cdppl	4, 10, cr0, cr11, cr0, {0}
    184c:	04000000 	streq	r0, [r0], #-0
    1850:	23020503 	movwcs	r0, #9475	; 0x2503
    1854:	06120600 	ldreq	r0, [r2], -r0, lsl #12
    1858:	ac040000 	stcge	0, cr0, [r4], {-0}
    185c:	0000005e 	andeq	r0, r0, lr, asr r0
    1860:	02010404 	andeq	r0, r1, #4, 8	; 0x4000000
    1864:	10060023 	andne	r0, r6, r3, lsr #32
    1868:	04000013 	streq	r0, [r0], #-19	; 0xffffffed
    186c:	00005ead 	andeq	r5, r0, sp, lsr #29
    1870:	00010400 	andeq	r0, r1, r0, lsl #8
    1874:	00002302 	andeq	r2, r0, r2, lsl #6
    1878:	0010b603 	andseq	fp, r0, r3, lsl #12
    187c:	49ae0400 	stmibmi	lr!, {sl}
    1880:	05000008 	streq	r0, [r0, #-8]
    1884:	000012a9 	andeq	r1, r0, r9, lsr #5
    1888:	8fb10404 	svchi	0x00b10404
    188c:	06000009 	streq	r0, [r0], -r9
    1890:	00000e6d 	andeq	r0, r0, sp, ror #28
    1894:	005eb304 	subseq	fp, lr, r4, lsl #6
    1898:	11040000 	tstne	r4, r0
    189c:	0023020f 	eoreq	r0, r3, pc, lsl #4
    18a0:	00158f06 	andseq	r8, r5, r6, lsl #30
    18a4:	5eb40400 	cdppl	4, 11, cr0, cr4, cr0, {0}
    18a8:	04000000 	streq	r0, [r0], #-0
    18ac:	23020d02 	movwcs	r0, #11522	; 0x2d02
    18b0:	05f40600 	ldrbeq	r0, [r4, #1536]!	; 0x600
    18b4:	b5040000 	strlt	r0, [r4, #-0]
    18b8:	0000005e 	andeq	r0, r0, lr, asr r0
    18bc:	020c0104 	andeq	r0, ip, #4, 2
    18c0:	0a060023 	beq	181954 <__bss_end+0x17e0ec>
    18c4:	04000008 	streq	r0, [r0], #-8
    18c8:	00005eb6 			; <UNDEFINED> instruction: 0x00005eb6
    18cc:	03090400 	movweq	r0, #37888	; 0x9400
    18d0:	06002302 	streq	r2, [r0], -r2, lsl #6
    18d4:	00000c0a 	andeq	r0, r0, sl, lsl #24
    18d8:	005eb704 	subseq	fp, lr, r4, lsl #14
    18dc:	02040000 	andeq	r0, r4, #0
    18e0:	00230201 	eoreq	r0, r3, r1, lsl #4
    18e4:	0014a706 	andseq	sl, r4, r6, lsl #14
    18e8:	5eb80400 	cdppl	4, 11, cr0, cr8, cr0, {0}
    18ec:	04000000 	streq	r0, [r0], #-0
    18f0:	23020001 	movwcs	r0, #8193	; 0x2001
    18f4:	8a030000 	bhi	c18fc <__bss_end+0xbe094>
    18f8:	04000009 	streq	r0, [r0], #-9
    18fc:	00091cb9 			; <UNDEFINED> instruction: 0x00091cb9
    1900:	120d0500 	andne	r0, sp, #0, 10
    1904:	04040000 	streq	r0, [r4], #-0
    1908:	000a0dbc 			; <UNDEFINED> instruction: 0x000a0dbc
    190c:	0e6d0600 	cdpeq	6, 6, cr0, cr13, cr0, {0}
    1910:	be040000 	cdplt	0, 0, cr0, cr4, cr0, {0}
    1914:	0000005e 	andeq	r0, r0, lr, asr r0
    1918:	020f1104 	andeq	r1, pc, #4, 2
    191c:	8f060023 	svchi	0x00060023
    1920:	04000015 	streq	r0, [r0], #-21	; 0xffffffeb
    1924:	00005ebf 			; <UNDEFINED> instruction: 0x00005ebf
    1928:	0d020400 	cfstrseq	mvf0, [r2, #-0]
    192c:	06002302 	streq	r2, [r0], -r2, lsl #6
    1930:	000005f4 	strdeq	r0, [r0], -r4
    1934:	005ec004 	subseq	ip, lr, r4
    1938:	01040000 	tsteq	r4, r0
    193c:	0023020c 	eoreq	r0, r3, ip, lsl #4
    1940:	00080a06 	andeq	r0, r8, r6, lsl #20
    1944:	5ec10400 	cdppl	4, 12, cr0, cr1, cr0, {0}
    1948:	04000000 	streq	r0, [r0], #-0
    194c:	23020309 	movwcs	r0, #8969	; 0x2309
    1950:	0c0a0600 	stceq	6, cr0, [sl], {-0}
    1954:	c2040000 	andgt	r0, r4, #0
    1958:	0000005e 	andeq	r0, r0, lr, asr r0
    195c:	02010204 	andeq	r0, r1, #4, 4	; 0x40000000
    1960:	a7060023 	strge	r0, [r6, -r3, lsr #32]
    1964:	04000014 	streq	r0, [r0], #-20	; 0xffffffec
    1968:	00005ec3 	andeq	r5, r0, r3, asr #29
    196c:	00010400 	andeq	r0, r1, r0, lsl #8
    1970:	00002302 	andeq	r2, r0, r2, lsl #6
    1974:	0013df03 	andseq	sp, r3, r3, lsl #30
    1978:	9ac40400 	bls	ff102980 <__bss_end+0xff0ff118>
    197c:	05000009 	streq	r0, [r0, #-9]
    1980:	00001150 	andeq	r1, r0, r0, asr r1
    1984:	cfc70404 	svcgt	0x00c70404
    1988:	0600000a 	streq	r0, [r0], -sl
    198c:	000012f0 	strdeq	r1, [r0], -r0
    1990:	005ec904 	subseq	ip, lr, r4, lsl #18
    1994:	01040000 	tsteq	r4, r0
    1998:	0023021f 	eoreq	r0, r3, pc, lsl r2
    199c:	00108d06 	andseq	r8, r0, r6, lsl #26
    19a0:	5eca0400 	cdppl	4, 12, cr0, cr10, cr0, {0}
    19a4:	04000000 	streq	r0, [r0], #-0
    19a8:	23021e01 	movwcs	r1, #11777	; 0x2e01
    19ac:	05f40600 	ldrbeq	r0, [r4, #1536]!	; 0x600
    19b0:	cb040000 	blgt	1019b8 <__bss_end+0xfe150>
    19b4:	0000005e 	andeq	r0, r0, lr, asr r0
    19b8:	021c0204 	andseq	r0, ip, #4, 4	; 0x40000000
    19bc:	db060023 	blle	181a50 <__bss_end+0x17e1e8>
    19c0:	0400000c 	streq	r0, [r0], #-12
    19c4:	00005ecc 	andeq	r5, r0, ip, asr #29
    19c8:	1b010400 	blne	429d0 <__bss_end+0x3f168>
    19cc:	06002302 	streq	r2, [r0], -r2, lsl #6
    19d0:	000005fe 	strdeq	r0, [r0], -lr
    19d4:	005ecd04 	subseq	ip, lr, r4, lsl #26
    19d8:	0a040000 	beq	1019e0 <__bss_end+0xfe178>
    19dc:	00230211 	eoreq	r0, r3, r1, lsl r2
    19e0:	000f2306 	andeq	r2, pc, r6, lsl #6
    19e4:	5ece0400 	cdppl	4, 12, cr0, cr14, cr0, {0}
    19e8:	04000000 	streq	r0, [r0], #-0
    19ec:	23021001 	movwcs	r1, #8193	; 0x2001
    19f0:	09bb0600 	ldmibeq	fp!, {r9, sl}
    19f4:	cf040000 	svcgt	0x00040000
    19f8:	0000005e 	andeq	r0, r0, lr, asr r0
    19fc:	020f0104 	andeq	r0, pc, #4, 2
    1a00:	57060023 	strpl	r0, [r6, -r3, lsr #32]
    1a04:	04000009 	streq	r0, [r0], #-9
    1a08:	00005ed0 	ldrdeq	r5, [r0], -r0
    1a0c:	0e010400 	cfcpyseq	mvf0, mvf1
    1a10:	06002302 	streq	r2, [r0], -r2, lsl #6
    1a14:	00000ae3 	andeq	r0, r0, r3, ror #21
    1a18:	005ed104 	subseq	sp, lr, r4, lsl #2
    1a1c:	03040000 	movweq	r0, #16384	; 0x4000
    1a20:	0023020b 	eoreq	r0, r3, fp, lsl #4
    1a24:	00118206 	andseq	r8, r1, r6, lsl #4
    1a28:	5ed20400 	cdppl	4, 13, cr0, cr2, cr0, {0}
    1a2c:	04000000 	streq	r0, [r0], #-0
    1a30:	2302000b 	movwcs	r0, #8203	; 0x200b
    1a34:	6c030000 	stcvs	0, cr0, [r3], {-0}
    1a38:	0400000b 	streq	r0, [r0], #-11
    1a3c:	000a18d5 	ldrdeq	r1, [sl], -r5
    1a40:	13300500 	teqne	r0, #0, 10
    1a44:	04040000 	streq	r0, [r4], #-0
    1a48:	000b6fd8 	ldrdeq	r6, [fp], -r8
    1a4c:	154d0600 	strbne	r0, [sp, #-1536]	; 0xfffffa00
    1a50:	da040000 	ble	101a58 <__bss_end+0xfe1f0>
    1a54:	0000005e 	andeq	r0, r0, lr, asr r0
    1a58:	021e0204 	andseq	r0, lr, #4, 4	; 0x40000000
    1a5c:	f4060023 	vst4.8	{d0-d3}, [r6 :128], r3
    1a60:	04000005 	streq	r0, [r0], #-5
    1a64:	00005edb 	ldrdeq	r5, [r0], -fp
    1a68:	1c020400 	cfstrsne	mvf0, [r2], {-0}
    1a6c:	06002302 	streq	r2, [r0], -r2, lsl #6
    1a70:	00000c83 	andeq	r0, r0, r3, lsl #25
    1a74:	005edc04 	subseq	sp, lr, r4, lsl #24
    1a78:	02040000 	andeq	r0, r4, #0
    1a7c:	0023021a 	eoreq	r0, r3, sl, lsl r2
    1a80:	0015de06 	andseq	sp, r5, r6, lsl #28
    1a84:	5edd0400 	cdppl	4, 13, cr0, cr13, cr0, {0}
    1a88:	04000000 	streq	r0, [r0], #-0
    1a8c:	23021802 	movwcs	r1, #10242	; 0x2802
    1a90:	15d30600 	ldrbne	r0, [r3, #1536]	; 0x600
    1a94:	de040000 	cdple	0, 0, cr0, cr4, cr0, {0}
    1a98:	0000005e 	andeq	r0, r0, lr, asr r0
    1a9c:	02160204 	andseq	r0, r6, #4, 4	; 0x40000000
    1aa0:	fe060023 	cdp2	0, 0, cr0, cr6, cr3, {1}
    1aa4:	04000005 	streq	r0, [r0], #-5
    1aa8:	00005edf 	ldrdeq	r5, [r0], -pc	; <UNPREDICTABLE>
    1aac:	10060400 	andne	r0, r6, r0, lsl #8
    1ab0:	06002302 	streq	r2, [r0], -r2, lsl #6
    1ab4:	00001583 	andeq	r1, r0, r3, lsl #11
    1ab8:	005ee004 	subseq	lr, lr, r4
    1abc:	02040000 	andeq	r0, r4, #0
    1ac0:	0023020e 	eoreq	r0, r3, lr, lsl #4
    1ac4:	00060806 	andeq	r0, r6, r6, lsl #16
    1ac8:	5ee10400 	cdppl	4, 14, cr0, cr1, cr0, {0}
    1acc:	04000000 	streq	r0, [r0], #-0
    1ad0:	2302000e 	movwcs	r0, #8206	; 0x200e
    1ad4:	af030000 	svcge	0x00030000
    1ad8:	04000014 	streq	r0, [r0], #-20	; 0xffffffec
    1adc:	000adae2 	andeq	sp, sl, r2, ror #21
    1ae0:	12790500 	rsbsne	r0, r9, #0, 10
    1ae4:	04040000 	streq	r0, [r4], #-0
    1ae8:	000bede4 	andeq	lr, fp, r4, ror #27
    1aec:	15d70600 	ldrbne	r0, [r7, #1536]	; 0x600
    1af0:	e6040000 	str	r0, [r4], -r0
    1af4:	0000005e 	andeq	r0, r0, lr, asr r0
    1af8:	021b0504 	andseq	r0, fp, #4, 10	; 0x1000000
    1afc:	f4060023 	vst4.8	{d0-d3}, [r6 :128], r3
    1b00:	04000005 	streq	r0, [r0], #-5
    1b04:	00005ee7 	andeq	r5, r0, r7, ror #29
    1b08:	100b0400 	andne	r0, fp, r0, lsl #8
    1b0c:	06002302 	streq	r2, [r0], -r2, lsl #6
    1b10:	00000946 	andeq	r0, r0, r6, asr #18
    1b14:	005ee804 	subseq	lr, lr, r4, lsl #16
    1b18:	02040000 	andeq	r0, r4, #0
    1b1c:	0023020e 	eoreq	r0, r3, lr, lsl #4
    1b20:	0005fe06 	andeq	pc, r5, r6, lsl #28
    1b24:	5ee90400 	cdppl	4, 14, cr0, cr9, cr0, {0}
    1b28:	04000000 	streq	r0, [r0], #-0
    1b2c:	23020806 	movwcs	r0, #10246	; 0x2806
    1b30:	15880600 	strne	r0, [r8, #1536]	; 0x600
    1b34:	ea040000 	b	101b3c <__bss_end+0xfe2d4>
    1b38:	0000005e 	andeq	r0, r0, lr, asr r0
    1b3c:	02060204 	andeq	r0, r6, #4, 4	; 0x40000000
    1b40:	08060023 	stmdaeq	r6, {r0, r1, r5}
    1b44:	04000006 	streq	r0, [r0], #-6
    1b48:	00005eeb 	andeq	r5, r0, fp, ror #29
    1b4c:	00060400 	andeq	r0, r6, r0, lsl #8
    1b50:	00002302 	andeq	r2, r0, r2, lsl #6
    1b54:	000aad03 	andeq	sl, sl, r3, lsl #26
    1b58:	7aec0400 	bvc	ffb02b60 <__bss_end+0xffaff2f8>
    1b5c:	0500000b 	streq	r0, [r0, #-11]
    1b60:	00000f3e 	andeq	r0, r0, lr, lsr pc
    1b64:	27ef0404 	strbcs	r0, [pc, r4, lsl #8]!
    1b68:	0600000c 	streq	r0, [r0], -ip
    1b6c:	00001030 	andeq	r1, r0, r0, lsr r0
    1b70:	005ef104 	subseq	pc, lr, r4, lsl #2
    1b74:	01040000 	tsteq	r4, r0
    1b78:	0023021f 	eoreq	r0, r3, pc, lsl r2
    1b7c:	0005f406 	andeq	pc, r5, r6, lsl #8
    1b80:	5ef20400 	cdppl	4, 15, cr0, cr2, cr0, {0}
    1b84:	04000000 	streq	r0, [r0], #-0
    1b88:	2302001f 	movwcs	r0, #8223	; 0x201f
    1b8c:	06030000 	streq	r0, [r3], -r0
    1b90:	04000014 	streq	r0, [r0], #-20	; 0xffffffec
    1b94:	000bf8f3 	strdeq	pc, [fp], -r3
    1b98:	08640500 	stmdaeq	r4!, {r8, sl}^
    1b9c:	04040000 	streq	r0, [r4], #-0
    1ba0:	000e0bf6 	strdeq	r0, [lr], -r6
    1ba4:	0bb40600 	bleq	fed033ac <__bss_end+0xfecffb44>
    1ba8:	f8040000 			; <UNDEFINED> instruction: 0xf8040000
    1bac:	0000005e 	andeq	r0, r0, lr, asr r0
    1bb0:	021f0104 	andseq	r0, pc, #4, 2
    1bb4:	5a060023 	bpl	181c48 <__bss_end+0x17e3e0>
    1bb8:	04000013 	streq	r0, [r0], #-19	; 0xffffffed
    1bbc:	00005ef9 	strdeq	r5, [r0], -r9
    1bc0:	1e010400 	cfcpysne	mvf0, mvf1
    1bc4:	06002302 	streq	r2, [r0], -r2, lsl #6
    1bc8:	00001112 	andeq	r1, r0, r2, lsl r1
    1bcc:	005efa04 	subseq	pc, lr, r4, lsl #20
    1bd0:	01040000 	tsteq	r4, r0
    1bd4:	0023021d 	eoreq	r0, r3, sp, lsl r2
    1bd8:	0005f406 	andeq	pc, r5, r6, lsl #8
    1bdc:	5efb0400 	cdppl	4, 15, cr0, cr11, cr0, {0}
    1be0:	04000000 	streq	r0, [r0], #-0
    1be4:	23021b02 	movwcs	r1, #11010	; 0x2b02
    1be8:	13880600 	orrne	r0, r8, #0, 12
    1bec:	fc040000 	stc2	0, cr0, [r4], {-0}
    1bf0:	0000005e 	andeq	r0, r0, lr, asr r0
    1bf4:	021a0104 	andseq	r0, sl, #4, 2
    1bf8:	08060023 	stmdaeq	r6, {r0, r1, r5}
    1bfc:	04000013 	streq	r0, [r0], #-19	; 0xffffffed
    1c00:	00005efd 	strdeq	r5, [r0], -sp
    1c04:	19010400 	stmdbne	r1, {sl}
    1c08:	06002302 	streq	r2, [r0], -r2, lsl #6
    1c0c:	00000c69 	andeq	r0, r0, r9, ror #24
    1c10:	005efe04 	subseq	pc, lr, r4, lsl #28
    1c14:	01040000 	tsteq	r4, r0
    1c18:	00230218 	eoreq	r0, r3, r8, lsl r2
    1c1c:	000c8d06 	andeq	r8, ip, r6, lsl #26
    1c20:	5eff0400 	cdppl	4, 15, cr0, cr15, cr0, {0}
    1c24:	04000000 	streq	r0, [r0], #-0
    1c28:	23021701 	movwcs	r1, #9985	; 0x2701
    1c2c:	15f10900 	ldrbne	r0, [r1, #2304]!	; 0x900
    1c30:	00040000 	andeq	r0, r4, r0
    1c34:	00005e01 	andeq	r5, r0, r1, lsl #28
    1c38:	16010400 	strne	r0, [r1], -r0, lsl #8
    1c3c:	09002302 	stmdbeq	r0, {r1, r8, r9, sp}
    1c40:	000010ab 	andeq	r1, r0, fp, lsr #1
    1c44:	5e010104 	adfpls	f0, f1, f4
    1c48:	04000000 	streq	r0, [r0], #-0
    1c4c:	23021501 	movwcs	r1, #9473	; 0x2501
    1c50:	05fe0900 	ldrbeq	r0, [lr, #2304]!	; 0x900
    1c54:	02040000 	andeq	r0, r4, #0
    1c58:	00005e01 	andeq	r5, r0, r1, lsl #28
    1c5c:	14010400 	strne	r0, [r1], #-1024	; 0xfffffc00
    1c60:	09002302 	stmdbeq	r0, {r1, r8, r9, sp}
    1c64:	00000b06 	andeq	r0, r0, r6, lsl #22
    1c68:	5e010304 	cdppl	3, 0, cr0, cr1, cr4, {0}
    1c6c:	04000000 	streq	r0, [r0], #-0
    1c70:	23021301 	movwcs	r1, #8961	; 0x2301
    1c74:	137f0900 	cmnne	pc, #0, 18
    1c78:	04040000 	streq	r0, [r4], #-0
    1c7c:	00005e01 	andeq	r5, r0, r1, lsl #28
    1c80:	12010400 	andne	r0, r1, #0, 8
    1c84:	09002302 	stmdbeq	r0, {r1, r8, r9, sp}
    1c88:	00001030 	andeq	r1, r0, r0, lsr r0
    1c8c:	5e010504 	cfsh32pl	mvfx0, mvfx1, #4
    1c90:	04000000 	streq	r0, [r0], #-0
    1c94:	23021101 	movwcs	r1, #8449	; 0x2101
    1c98:	06080900 	streq	r0, [r8], -r0, lsl #18
    1c9c:	06040000 	streq	r0, [r4], -r0
    1ca0:	00005e01 	andeq	r5, r0, r1, lsl #28
    1ca4:	0f020400 	svceq	0x00020400
    1ca8:	09002302 	stmdbeq	r0, {r1, r8, r9, sp}
    1cac:	00001179 	andeq	r1, r0, r9, ror r1
    1cb0:	5e010704 	cdppl	7, 0, cr0, cr1, cr4, {0}
    1cb4:	04000000 	streq	r0, [r0], #-0
    1cb8:	23020e01 	movwcs	r0, #11777	; 0x2e01
    1cbc:	08880900 	stmeq	r8, {r8, fp}
    1cc0:	08040000 	stmdaeq	r4, {}	; <UNPREDICTABLE>
    1cc4:	00005e01 	andeq	r5, r0, r1, lsl #28
    1cc8:	0d010400 	cfstrseq	mvf0, [r1, #-0]
    1ccc:	09002302 	stmdbeq	r0, {r1, r8, r9, sp}
    1cd0:	00000612 	andeq	r0, r0, r2, lsl r6
    1cd4:	5e010904 	cdppl	9, 0, cr0, cr1, cr4, {0}
    1cd8:	04000000 	streq	r0, [r0], #-0
    1cdc:	23020c01 	movwcs	r0, #11265	; 0x2c01
    1ce0:	09300900 	ldmdbeq	r0!, {r8, fp}
    1ce4:	0a040000 	beq	101cec <__bss_end+0xfe484>
    1ce8:	00005e01 	andeq	r5, r0, r1, lsl #28
    1cec:	0b010400 	bleq	42cf4 <__bss_end+0x3f48c>
    1cf0:	09002302 	stmdbeq	r0, {r1, r8, r9, sp}
    1cf4:	00000c49 	andeq	r0, r0, r9, asr #24
    1cf8:	5e010b04 	vmlapl.f64	d0, d1, d4
    1cfc:	04000000 	streq	r0, [r0], #-0
    1d00:	23020a01 	movwcs	r0, #10753	; 0x2a01
    1d04:	0d6b0900 	stcleq	9, cr0, [fp, #-0]
    1d08:	0c040000 	stceq	0, cr0, [r4], {-0}
    1d0c:	00005e01 	andeq	r5, r0, r1, lsl #28
    1d10:	09010400 	stmdbeq	r1, {sl}
    1d14:	09002302 	stmdbeq	r0, {r1, r8, r9, sp}
    1d18:	0000061c 	andeq	r0, r0, ip, lsl r6
    1d1c:	5e010d04 	cdppl	13, 0, cr0, cr1, cr4, {0}
    1d20:	04000000 	streq	r0, [r0], #-0
    1d24:	23020603 	movwcs	r0, #9731	; 0x2603
    1d28:	14f20900 	ldrbtne	r0, [r2], #2304	; 0x900
    1d2c:	0e040000 	cdpeq	0, 0, cr0, cr4, cr0, {0}
    1d30:	00005e01 	andeq	r5, r0, r1, lsl #28
    1d34:	05010400 	streq	r0, [r1, #-1024]	; 0xfffffc00
    1d38:	09002302 	stmdbeq	r0, {r1, r8, r9, sp}
    1d3c:	00000626 	andeq	r0, r0, r6, lsr #12
    1d40:	5e010f04 	cdppl	15, 0, cr0, cr1, cr4, {0}
    1d44:	04000000 	streq	r0, [r0], #-0
    1d48:	23020401 	movwcs	r0, #9217	; 0x2401
    1d4c:	11700900 	cmnne	r0, r0, lsl #18
    1d50:	10040000 	andne	r0, r4, r0
    1d54:	00005e01 	andeq	r5, r0, r1, lsl #28
    1d58:	03010400 	movweq	r0, #5120	; 0x1400
    1d5c:	09002302 	stmdbeq	r0, {r1, r8, r9, sp}
    1d60:	00000630 	andeq	r0, r0, r0, lsr r6
    1d64:	5e011104 	adfpls	f1, f1, f4
    1d68:	04000000 	streq	r0, [r0], #-0
    1d6c:	23020003 	movwcs	r0, #8195	; 0x2003
    1d70:	130a0000 	movwne	r0, #40960	; 0xa000
    1d74:	04000008 	streq	r0, [r0], #-8
    1d78:	0c320112 	ldfeqs	f0, [r2], #-72	; 0xffffffb8
    1d7c:	2d0b0000 	stccs	0, cr0, [fp, #-0]
    1d80:	0400000c 	streq	r0, [r0], #-12
    1d84:	45011504 	strmi	r1, [r1, #-1284]	; 0xfffffafc
    1d88:	0900000f 	stmdbeq	r0, {r0, r1, r2, r3}
    1d8c:	00000ed9 	ldrdeq	r0, [r0], -r9
    1d90:	5e011704 	cdppl	7, 0, cr1, cr1, cr4, {0}
    1d94:	04000000 	streq	r0, [r0], #-0
    1d98:	23021f01 	movwcs	r1, #12033	; 0x2f01
    1d9c:	05f40900 	ldrbeq	r0, [r4, #2304]!	; 0x900
    1da0:	18040000 	stmdane	r4, {}	; <UNPREDICTABLE>
    1da4:	00005e01 	andeq	r5, r0, r1, lsl #28
    1da8:	1e010400 	cfcpysne	mvf0, mvf1
    1dac:	09002302 	stmdbeq	r0, {r1, r8, r9, sp}
    1db0:	00000d87 	andeq	r0, r0, r7, lsl #27
    1db4:	5e011904 	cdppl	9, 0, cr1, cr1, cr4, {0}
    1db8:	04000000 	streq	r0, [r0], #-0
    1dbc:	23021d01 	movwcs	r1, #11521	; 0x2d01
    1dc0:	05fe0900 	ldrbeq	r0, [lr, #2304]!	; 0x900
    1dc4:	1a040000 	bne	101dcc <__bss_end+0xfe564>
    1dc8:	00005e01 	andeq	r5, r0, r1, lsl #28
    1dcc:	1c010400 	cfstrsne	mvf0, [r1], {-0}
    1dd0:	09002302 	stmdbeq	r0, {r1, r8, r9, sp}
    1dd4:	00000ba6 	andeq	r0, r0, r6, lsr #23
    1dd8:	5e011b04 	vmlapl.f64	d1, d1, d4
    1ddc:	04000000 	streq	r0, [r0], #-0
    1de0:	23021b01 	movwcs	r1, #11009	; 0x2b01
    1de4:	06080900 	streq	r0, [r8], -r0, lsl #18
    1de8:	1c040000 	stcne	0, cr0, [r4], {-0}
    1dec:	00005e01 	andeq	r5, r0, r1, lsl #28
    1df0:	18030400 	stmdane	r3, {sl}
    1df4:	09002302 	stmdbeq	r0, {r1, r8, r9, sp}
    1df8:	000015e8 	andeq	r1, r0, r8, ror #11
    1dfc:	5e011d04 	cdppl	13, 0, cr1, cr1, cr4, {0}
    1e00:	04000000 	streq	r0, [r0], #-0
    1e04:	23021701 	movwcs	r1, #9985	; 0x2701
    1e08:	06120900 	ldreq	r0, [r2], -r0, lsl #18
    1e0c:	1e040000 	cdpne	0, 0, cr0, cr4, cr0, {0}
    1e10:	00005e01 	andeq	r5, r0, r1, lsl #28
    1e14:	15020400 	strne	r0, [r2, #-1024]	; 0xfffffc00
    1e18:	09002302 	stmdbeq	r0, {r1, r8, r9, sp}
    1e1c:	000013b7 			; <UNDEFINED> instruction: 0x000013b7
    1e20:	5e011f04 	cdppl	15, 0, cr1, cr1, cr4, {0}
    1e24:	04000000 	streq	r0, [r0], #-0
    1e28:	23021401 	movwcs	r1, #9217	; 0x2401
    1e2c:	124e0900 	subne	r0, lr, #0, 18
    1e30:	20040000 	andcs	r0, r4, r0
    1e34:	00005e01 	andeq	r5, r0, r1, lsl #28
    1e38:	13010400 	movwne	r0, #5120	; 0x1400
    1e3c:	09002302 	stmdbeq	r0, {r1, r8, r9, sp}
    1e40:	0000061c 	andeq	r0, r0, ip, lsl r6
    1e44:	5e012104 	adfpls	f2, f1, f4
    1e48:	04000000 	streq	r0, [r0], #-0
    1e4c:	23021201 	movwcs	r1, #8705	; 0x2201
    1e50:	14d80900 	ldrbne	r0, [r8], #2304	; 0x900
    1e54:	22040000 	andcs	r0, r4, #0
    1e58:	00005e01 	andeq	r5, r0, r1, lsl #28
    1e5c:	11010400 	tstne	r1, r0, lsl #8
    1e60:	09002302 	stmdbeq	r0, {r1, r8, r9, sp}
    1e64:	00000626 	andeq	r0, r0, r6, lsr #12
    1e68:	5e012304 	cdppl	3, 0, cr2, cr1, cr4, {0}
    1e6c:	04000000 	streq	r0, [r0], #-0
    1e70:	23020d04 	movwcs	r0, #11524	; 0x2d04
    1e74:	0ea20900 	cdpeq	9, 10, cr0, cr2, cr0, {0}
    1e78:	24040000 	strcs	r0, [r4], #-0
    1e7c:	00005e01 	andeq	r5, r0, r1, lsl #28
    1e80:	0c010400 	cfstrseq	mvf0, [r1], {-0}
    1e84:	09002302 	stmdbeq	r0, {r1, r8, r9, sp}
    1e88:	00001069 	andeq	r1, r0, r9, rrx
    1e8c:	5e012504 	cfsh32pl	mvfx2, mvfx1, #4
    1e90:	04000000 	streq	r0, [r0], #-0
    1e94:	23020b01 	movwcs	r0, #11009	; 0x2b01
    1e98:	06300900 	ldrteq	r0, [r0], -r0, lsl #18
    1e9c:	26040000 	strcs	r0, [r4], -r0
    1ea0:	00005e01 	andeq	r5, r0, r1, lsl #28
    1ea4:	000b0400 	andeq	r0, fp, r0, lsl #8
    1ea8:	00002302 	andeq	r2, r0, r2, lsl #6
    1eac:	000c980a 	andeq	r9, ip, sl, lsl #16
    1eb0:	01270400 	teqeq	r7, r0, lsl #8
    1eb4:	00000e17 	andeq	r0, r0, r7, lsl lr
    1eb8:	0015fc0b 	andseq	pc, r5, fp, lsl #24
    1ebc:	2a040400 	bcs	102ec4 <__bss_end+0xff65c>
    1ec0:	00101301 	andseq	r1, r0, r1, lsl #6
    1ec4:	12290900 	eorne	r0, r9, #0, 18
    1ec8:	2c040000 	stccs	0, cr0, [r4], {-0}
    1ecc:	00005e01 	andeq	r5, r0, r1, lsl #28
    1ed0:	1f010400 	svcne	0x00010400
    1ed4:	09002302 	stmdbeq	r0, {r1, r8, r9, sp}
    1ed8:	00000e63 	andeq	r0, r0, r3, ror #28
    1edc:	5e012d04 	cdppl	13, 0, cr2, cr1, cr4, {0}
    1ee0:	04000000 	streq	r0, [r0], #-0
    1ee4:	23021e01 	movwcs	r1, #11777	; 0x2e01
    1ee8:	05f40900 	ldrbeq	r0, [r4, #2304]!	; 0x900
    1eec:	2e040000 	cdpcs	0, 0, cr0, cr4, cr0, {0}
    1ef0:	00005e01 	andeq	r5, r0, r1, lsl #28
    1ef4:	1d010400 	cfstrsne	mvf0, [r1, #-0]
    1ef8:	09002302 	stmdbeq	r0, {r1, r8, r9, sp}
    1efc:	000012e8 	andeq	r1, r0, r8, ror #5
    1f00:	5e012f04 	cdppl	15, 0, cr2, cr1, cr4, {0}
    1f04:	04000000 	streq	r0, [r0], #-0
    1f08:	23021c01 	movwcs	r1, #11265	; 0x2c01
    1f0c:	05fe0900 	ldrbeq	r0, [lr, #2304]!	; 0x900
    1f10:	30040000 	andcc	r0, r4, r0
    1f14:	00005e01 	andeq	r5, r0, r1, lsl #28
    1f18:	1b010400 	blne	42f20 <__bss_end+0x3f6b8>
    1f1c:	09002302 	stmdbeq	r0, {r1, r8, r9, sp}
    1f20:	0000097a 	andeq	r0, r0, sl, ror r9
    1f24:	5e013104 	adfpls	f3, f1, f4
    1f28:	04000000 	streq	r0, [r0], #-0
    1f2c:	23021a01 	movwcs	r1, #10753	; 0x2a01
    1f30:	111c0900 	tstne	ip, r0, lsl #18
    1f34:	32040000 	andcc	r0, r4, #0
    1f38:	00005e01 	andeq	r5, r0, r1, lsl #28
    1f3c:	19010400 	stmdbne	r1, {sl}
    1f40:	09002302 	stmdbeq	r0, {r1, r8, r9, sp}
    1f44:	00000608 	andeq	r0, r0, r8, lsl #12
    1f48:	5e013304 	cdppl	3, 0, cr3, cr1, cr4, {0}
    1f4c:	04000000 	streq	r0, [r0], #-0
    1f50:	23021603 	movwcs	r1, #9731	; 0x2603
    1f54:	0d600900 	stcleq	9, cr0, [r0, #-0]
    1f58:	34040000 	strcc	r0, [r4], #-0
    1f5c:	00005e01 	andeq	r5, r0, r1, lsl #28
    1f60:	15010400 	strne	r0, [r1, #-1024]	; 0xfffffc00
    1f64:	09002302 	stmdbeq	r0, {r1, r8, r9, sp}
    1f68:	00000612 	andeq	r0, r0, r2, lsl r6
    1f6c:	5e013504 	cfsh32pl	mvfx3, mvfx1, #4
    1f70:	04000000 	streq	r0, [r0], #-0
    1f74:	23020015 	movwcs	r0, #8213	; 0x2015
    1f78:	430a0000 	movwmi	r0, #40960	; 0xa000
    1f7c:	04000010 	streq	r0, [r0], #-16
    1f80:	0f510136 	svceq	0x00510136
    1f84:	d30b0000 	movwle	r0, #45056	; 0xb000
    1f88:	04000010 	streq	r0, [r0], #-16
    1f8c:	cf013904 	svcgt	0x00013904
    1f90:	09000010 	stmdbeq	r0, {r4}
    1f94:	00000c1b 	andeq	r0, r0, fp, lsl ip
    1f98:	5e013b04 	vmlapl.f64	d3, d1, d4
    1f9c:	04000000 	streq	r0, [r0], #-0
    1fa0:	23021f01 	movwcs	r1, #12033	; 0x2f01
    1fa4:	15990900 	ldrne	r0, [r9, #2304]	; 0x900
    1fa8:	3c040000 	stccc	0, cr0, [r4], {-0}
    1fac:	00005e01 	andeq	r5, r0, r1, lsl #28
    1fb0:	1e010400 	cfcpysne	mvf0, mvf1
    1fb4:	09002302 	stmdbeq	r0, {r1, r8, r9, sp}
    1fb8:	0000103a 	andeq	r1, r0, sl, lsr r0
    1fbc:	5e013d04 	cdppl	13, 0, cr3, cr1, cr4, {0}
    1fc0:	04000000 	streq	r0, [r0], #-0
    1fc4:	23021d01 	movwcs	r1, #11521	; 0x2d01
    1fc8:	05f40900 	ldrbeq	r0, [r4, #2304]!	; 0x900
    1fcc:	3e040000 	cdpcc	0, 0, cr0, cr4, cr0, {0}
    1fd0:	00005e01 	andeq	r5, r0, r1, lsl #28
    1fd4:	100d0400 	andne	r0, sp, r0, lsl #8
    1fd8:	09002302 	stmdbeq	r0, {r1, r8, r9, sp}
    1fdc:	00001533 	andeq	r1, r0, r3, lsr r5
    1fe0:	5e013f04 	cdppl	15, 0, cr3, cr1, cr4, {0}
    1fe4:	04000000 	streq	r0, [r0], #-0
    1fe8:	23020f01 	movwcs	r0, #12033	; 0x2f01
    1fec:	0fe20900 	svceq	0x00e20900
    1ff0:	40040000 	andmi	r0, r4, r0
    1ff4:	00005e01 	andeq	r5, r0, r1, lsl #28
    1ff8:	0e010400 	cfcpyseq	mvf0, mvf1
    1ffc:	09002302 	stmdbeq	r0, {r1, r8, r9, sp}
    2000:	00000b35 	andeq	r0, r0, r5, lsr fp
    2004:	5e014104 	adfpls	f4, f1, f4
    2008:	04000000 	streq	r0, [r0], #-0
    200c:	23020d01 	movwcs	r0, #11521	; 0x2d01
    2010:	14ce0900 	strbne	r0, [lr], #2304	; 0x900
    2014:	42040000 	andmi	r0, r4, #0
    2018:	00005e01 	andeq	r5, r0, r1, lsl #28
    201c:	0c010400 	cfstrseq	mvf0, [r1], {-0}
    2020:	09002302 	stmdbeq	r0, {r1, r8, r9, sp}
    2024:	000005fe 	strdeq	r0, [r0], -lr
    2028:	5e014304 	cdppl	3, 0, cr4, cr1, cr4, {0}
    202c:	04000000 	streq	r0, [r0], #-0
    2030:	2302000c 	movwcs	r0, #8204	; 0x200c
    2034:	050a0000 	streq	r0, [sl, #-0]
    2038:	0400000f 	streq	r0, [r0], #-15
    203c:	101f0144 	andsne	r0, pc, r4, asr #2
    2040:	8f0b0000 	svchi	0x000b0000
    2044:	0400000e 	streq	r0, [r0], #-14
    2048:	67014904 	strvs	r4, [r1, -r4, lsl #18]
    204c:	09000011 	stmdbeq	r0, {r0, r4}
    2050:	000015d7 	ldrdeq	r1, [r0], -r7
    2054:	5e014b04 	vmlapl.f64	d4, d1, d4
    2058:	04000000 	streq	r0, [r0], #-0
    205c:	23021c04 	movwcs	r1, #11268	; 0x2c04
    2060:	05f40900 	ldrbeq	r0, [r4, #2304]!	; 0x900
    2064:	4c040000 	stcmi	0, cr0, [r4], {-0}
    2068:	00005e01 	andeq	r5, r0, r1, lsl #28
    206c:	100c0400 	andne	r0, ip, r0, lsl #8
    2070:	09002302 	stmdbeq	r0, {r1, r8, r9, sp}
    2074:	00000943 	andeq	r0, r0, r3, asr #18
    2078:	5e014d04 	cdppl	13, 0, cr4, cr1, cr4, {0}
    207c:	04000000 	streq	r0, [r0], #-0
    2080:	23020e02 	movwcs	r0, #11778	; 0x2e02
    2084:	05fe0900 	ldrbeq	r0, [lr, #2304]!	; 0x900
    2088:	4e040000 	cdpmi	0, 0, cr0, cr4, cr0, {0}
    208c:	00005e01 	andeq	r5, r0, r1, lsl #28
    2090:	08060400 	stmdaeq	r6, {sl}
    2094:	09002302 	stmdbeq	r0, {r1, r8, r9, sp}
    2098:	00001588 	andeq	r1, r0, r8, lsl #11
    209c:	5e014f04 	cdppl	15, 0, cr4, cr1, cr4, {0}
    20a0:	04000000 	streq	r0, [r0], #-0
    20a4:	23020602 	movwcs	r0, #9730	; 0x2602
    20a8:	06080900 	streq	r0, [r8], -r0, lsl #18
    20ac:	50040000 	andpl	r0, r4, r0
    20b0:	00005e01 	andeq	r5, r0, r1, lsl #28
    20b4:	01050400 	tsteq	r5, r0, lsl #8
    20b8:	09002302 	stmdbeq	r0, {r1, r8, r9, sp}
    20bc:	00001448 	andeq	r1, r0, r8, asr #8
    20c0:	5e015104 	adfpls	f5, f1, f4
    20c4:	04000000 	streq	r0, [r0], #-0
    20c8:	23020001 	movwcs	r0, #8193	; 0x2001
    20cc:	3b0a0000 	blcc	2820d4 <__bss_end+0x27e86c>
    20d0:	04000011 	streq	r0, [r0], #-17	; 0xffffffef
    20d4:	10db0152 	sbcsne	r0, fp, r2, asr r1
    20d8:	a80b0000 	stmdage	fp, {}	; <UNPREDICTABLE>
    20dc:	04000009 	streq	r0, [r0], #-9
    20e0:	c9015704 	stmdbgt	r1, {r2, r8, r9, sl, ip, lr}
    20e4:	09000011 	stmdbeq	r0, {r0, r4}
    20e8:	000005f4 	strdeq	r0, [r0], -r4
    20ec:	5e015904 	cdppl	9, 0, cr5, cr1, cr4, {0}
    20f0:	04000000 	streq	r0, [r0], #-0
    20f4:	23021010 	movwcs	r1, #8208	; 0x2010
    20f8:	15d70900 	ldrbne	r0, [r7, #2304]	; 0x900
    20fc:	5a040000 	bpl	102104 <__bss_end+0xfe89c>
    2100:	00005e01 	andeq	r5, r0, r1, lsl #28
    2104:	0e020400 	cfcpyseq	mvf0, mvf2
    2108:	09002302 	stmdbeq	r0, {r1, r8, r9, sp}
    210c:	000005fe 	strdeq	r0, [r0], -lr
    2110:	5e015b04 	vmlapl.f64	d5, d1, d4
    2114:	04000000 	streq	r0, [r0], #-0
    2118:	2302010d 	movwcs	r0, #8461	; 0x210d
    211c:	14480900 	strbne	r0, [r8], #-2304	; 0xfffff700
    2120:	5c040000 	stcpl	0, cr0, [r4], {-0}
    2124:	00005e01 	andeq	r5, r0, r1, lsl #28
    2128:	00010400 	andeq	r0, r1, r0, lsl #8
    212c:	00002302 	andeq	r2, r0, r2, lsl #6
    2130:	000b450a 	andeq	r4, fp, sl, lsl #10
    2134:	015e0400 	cmpeq	lr, r0, lsl #8
    2138:	00001173 	andeq	r1, r0, r3, ror r1
    213c:	0013160b 	andseq	r1, r3, fp, lsl #12
    2140:	61040400 	tstvs	r4, r0, lsl #8
    2144:	00126101 	andseq	r6, r2, r1, lsl #2
    2148:	15d70900 	ldrbne	r0, [r7, #2304]	; 0x900
    214c:	63040000 	movwvs	r0, #16384	; 0x4000
    2150:	00005e01 	andeq	r5, r0, r1, lsl #28
    2154:	1b050400 	blne	14315c <__bss_end+0x13f8f4>
    2158:	09002302 	stmdbeq	r0, {r1, r8, r9, sp}
    215c:	000005f4 	strdeq	r0, [r0], -r4
    2160:	5e016404 	cdppl	4, 0, cr6, cr1, cr4, {0}
    2164:	04000000 	streq	r0, [r0], #-0
    2168:	2302100b 	movwcs	r1, #8203	; 0x200b
    216c:	09430900 	stmdbeq	r3, {r8, fp}^
    2170:	65040000 	strvs	r0, [r4, #-0]
    2174:	00005e01 	andeq	r5, r0, r1, lsl #28
    2178:	0e020400 	cfcpyseq	mvf0, mvf2
    217c:	09002302 	stmdbeq	r0, {r1, r8, r9, sp}
    2180:	000005fe 	strdeq	r0, [r0], -lr
    2184:	5e016604 	cfmadd32pl	mvax0, mvfx6, mvfx1, mvfx4
    2188:	04000000 	streq	r0, [r0], #-0
    218c:	23020806 	movwcs	r0, #10246	; 0x2806
    2190:	15880900 	strne	r0, [r8, #2304]	; 0x900
    2194:	67040000 	strvs	r0, [r4, -r0]
    2198:	00005e01 	andeq	r5, r0, r1, lsl #28
    219c:	06020400 	streq	r0, [r2], -r0, lsl #8
    21a0:	09002302 	stmdbeq	r0, {r1, r8, r9, sp}
    21a4:	00000608 	andeq	r0, r0, r8, lsl #12
    21a8:	5e016804 	cdppl	8, 0, cr6, cr1, cr4, {0}
    21ac:	04000000 	streq	r0, [r0], #-0
    21b0:	23020105 	movwcs	r0, #8453	; 0x2105
    21b4:	14480900 	strbne	r0, [r8], #-2304	; 0xfffff700
    21b8:	69040000 	stmdbvs	r4, {}	; <UNPREDICTABLE>
    21bc:	00005e01 	andeq	r5, r0, r1, lsl #28
    21c0:	00010400 	andeq	r0, r1, r0, lsl #8
    21c4:	00002302 	andeq	r2, r0, r2, lsl #6
    21c8:	000d310a 	andeq	r3, sp, sl, lsl #2
    21cc:	016a0400 	cmneq	sl, r0, lsl #8
    21d0:	000011d5 	ldrdeq	r1, [r0], -r5
    21d4:	000e060b 	andeq	r0, lr, fp, lsl #12
    21d8:	6d040400 	cfstrsvs	mvf0, [r4, #-0]
    21dc:	0012f901 	andseq	pc, r2, r1, lsl #18
    21e0:	10a00900 	adcne	r0, r0, r0, lsl #18
    21e4:	6f040000 	svcvs	0x00040000
    21e8:	00005e01 	andeq	r5, r0, r1, lsl #28
    21ec:	1f010400 	svcne	0x00010400
    21f0:	09002302 	stmdbeq	r0, {r1, r8, r9, sp}
    21f4:	00000d10 	andeq	r0, r0, r0, lsl sp
    21f8:	5e017004 	cdppl	0, 0, cr7, cr1, cr4, {0}
    21fc:	04000000 	streq	r0, [r0], #-0
    2200:	23021e01 	movwcs	r1, #11777	; 0x2e01
    2204:	05f40900 	ldrbeq	r0, [r4, #2304]!	; 0x900
    2208:	71040000 	tstvc	r4, r0
    220c:	00005e01 	andeq	r5, r0, r1, lsl #28
    2210:	1a040400 	bne	103218 <__bss_end+0xff9b0>
    2214:	09002302 	stmdbeq	r0, {r1, r8, r9, sp}
    2218:	00001443 	andeq	r1, r0, r3, asr #8
    221c:	5e017204 	cdppl	2, 0, cr7, cr1, cr4, {0}
    2220:	04000000 	streq	r0, [r0], #-0
    2224:	23021901 	movwcs	r1, #10497	; 0x2901
    2228:	05fe0900 	ldrbeq	r0, [lr, #2304]!	; 0x900
    222c:	73040000 	movwvc	r0, #16384	; 0x4000
    2230:	00005e01 	andeq	r5, r0, r1, lsl #28
    2234:	18010400 	stmdane	r1, {sl}
    2238:	09002302 	stmdbeq	r0, {r1, r8, r9, sp}
    223c:	00000e54 	andeq	r0, r0, r4, asr lr
    2240:	5e017404 	cdppl	4, 0, cr7, cr1, cr4, {0}
    2244:	04000000 	streq	r0, [r0], #-0
    2248:	23021701 	movwcs	r1, #9985	; 0x2701
    224c:	06080900 	streq	r0, [r8], -r0, lsl #18
    2250:	75040000 	strvc	r0, [r4, #-0]
    2254:	00005e01 	andeq	r5, r0, r1, lsl #28
    2258:	00170400 	andseq	r0, r7, r0, lsl #8
    225c:	00002302 	andeq	r2, r0, r2, lsl #6
    2260:	000aed0a 	andeq	lr, sl, sl, lsl #26
    2264:	01760400 	cmneq	r6, r0, lsl #8
    2268:	0000126d 	andeq	r1, r0, sp, ror #4
    226c:	0011240b 	andseq	r2, r1, fp, lsl #8
    2270:	79040400 	stmdbvc	r4, {sl}
    2274:	00137f01 	andseq	r7, r3, r1, lsl #30
    2278:	0baf0900 	bleq	febc4680 <__bss_end+0xfebc0e18>
    227c:	7b040000 	blvc	102284 <__bss_end+0xfea1c>
    2280:	00005e01 	andeq	r5, r0, r1, lsl #28
    2284:	1d030400 	cfstrsne	mvf0, [r3, #-0]
    2288:	09002302 	stmdbeq	r0, {r1, r8, r9, sp}
    228c:	000005f4 	strdeq	r0, [r0], -r4
    2290:	5e017c04 	cdppl	12, 0, cr7, cr1, cr4, {0}
    2294:	04000000 	streq	r0, [r0], #-0
    2298:	23020815 	movwcs	r0, #10261	; 0x2815
    229c:	15880900 	strne	r0, [r8, #2304]	; 0x900
    22a0:	7d040000 	stcvc	0, cr0, [r4, #-0]
    22a4:	00005e01 	andeq	r5, r0, r1, lsl #28
    22a8:	06020400 	streq	r0, [r2], -r0, lsl #8
    22ac:	09002302 	stmdbeq	r0, {r1, r8, r9, sp}
    22b0:	000005fe 	strdeq	r0, [r0], -lr
    22b4:	5e017e04 	cdppl	14, 0, cr7, cr1, cr4, {0}
    22b8:	04000000 	streq	r0, [r0], #-0
    22bc:	23020204 	movwcs	r0, #8708	; 0x2204
    22c0:	14a10900 	strtne	r0, [r1], #2304	; 0x900
    22c4:	7f040000 	svcvc	0x00040000
    22c8:	00005e01 	andeq	r5, r0, r1, lsl #28
    22cc:	01010400 	tsteq	r1, r0, lsl #8
    22d0:	09002302 	stmdbeq	r0, {r1, r8, r9, sp}
    22d4:	00001448 	andeq	r1, r0, r8, asr #8
    22d8:	5e018004 	cdppl	0, 0, cr8, cr1, cr4, {0}
    22dc:	04000000 	streq	r0, [r0], #-0
    22e0:	23020001 	movwcs	r0, #8193	; 0x2001
    22e4:	e50a0000 	str	r0, [sl, #-0]
    22e8:	0400000c 	streq	r0, [r0], #-12
    22ec:	13050181 	movwne	r0, #20865	; 0x5181
    22f0:	da0b0000 	ble	2c22f8 <__bss_end+0x2bea90>
    22f4:	04000008 	streq	r0, [r0], #-8
    22f8:	5f018404 	svcpl	0x00018404
    22fc:	09000014 	stmdbeq	r0, {r2, r4}
    2300:	00000ed9 	ldrdeq	r0, [r0], -r9
    2304:	5e018604 	cfmadd32pl	mvax0, mvfx8, mvfx1, mvfx4
    2308:	04000000 	streq	r0, [r0], #-0
    230c:	23021f01 	movwcs	r1, #12033	; 0x2f01
    2310:	15e80900 	strbne	r0, [r8, #2304]!	; 0x900
    2314:	87040000 	strhi	r0, [r4, -r0]
    2318:	00005e01 	andeq	r5, r0, r1, lsl #28
    231c:	1e010400 	cfcpysne	mvf0, mvf1
    2320:	09002302 	stmdbeq	r0, {r1, r8, r9, sp}
    2324:	000005f4 	strdeq	r0, [r0], -r4
    2328:	5e018804 	cdppl	8, 0, cr8, cr1, cr4, {0}
    232c:	04000000 	streq	r0, [r0], #-0
    2330:	23021d01 	movwcs	r1, #11521	; 0x2d01
    2334:	08880900 	stmeq	r8, {r8, fp}
    2338:	89040000 	stmdbhi	r4, {}	; <UNPREDICTABLE>
    233c:	00005e01 	andeq	r5, r0, r1, lsl #28
    2340:	1c010400 	cfstrsne	mvf0, [r1], {-0}
    2344:	09002302 	stmdbeq	r0, {r1, r8, r9, sp}
    2348:	000005fe 	strdeq	r0, [r0], -lr
    234c:	5e018a04 	vmlapl.f32	s16, s2, s8
    2350:	04000000 	streq	r0, [r0], #-0
    2354:	23021b01 	movwcs	r1, #11009	; 0x2b01
    2358:	0d870900 	stceq	9, cr0, [r7]
    235c:	8b040000 	blhi	102364 <__bss_end+0xfeafc>
    2360:	00005e01 	andeq	r5, r0, r1, lsl #28
    2364:	1a010400 	bne	4336c <__bss_end+0x3fb04>
    2368:	09002302 	stmdbeq	r0, {r1, r8, r9, sp}
    236c:	00000608 	andeq	r0, r0, r8, lsl #12
    2370:	5e018c04 	cdppl	12, 0, cr8, cr1, cr4, {0}
    2374:	04000000 	streq	r0, [r0], #-0
    2378:	23020713 	movwcs	r0, #10003	; 0x2713
    237c:	14d80900 	ldrbne	r0, [r8], #2304	; 0x900
    2380:	8d040000 	stchi	0, cr0, [r4, #-0]
    2384:	00005e01 	andeq	r5, r0, r1, lsl #28
    2388:	06010400 	streq	r0, [r1], -r0, lsl #8
    238c:	09002302 	stmdbeq	r0, {r1, r8, r9, sp}
    2390:	0000124e 	andeq	r1, r0, lr, asr #4
    2394:	5e018e04 	cdppl	14, 0, cr8, cr1, cr4, {0}
    2398:	04000000 	streq	r0, [r0], #-0
    239c:	23020501 	movwcs	r0, #9473	; 0x2501
    23a0:	06120900 	ldreq	r0, [r2], -r0, lsl #18
    23a4:	8f040000 	svchi	0x00040000
    23a8:	00005e01 	andeq	r5, r0, r1, lsl #28
    23ac:	01040400 	tsteq	r4, r0, lsl #8
    23b0:	09002302 	stmdbeq	r0, {r1, r8, r9, sp}
    23b4:	00000ea2 	andeq	r0, r0, r2, lsr #29
    23b8:	5e019004 	cdppl	0, 0, cr9, cr1, cr4, {0}
    23bc:	04000000 	streq	r0, [r0], #-0
    23c0:	23020001 	movwcs	r0, #8193	; 0x2001
    23c4:	0d0a0000 	stceq	0, cr0, [sl, #-0]
    23c8:	04000009 	streq	r0, [r0], #-9
    23cc:	138b0191 	orrne	r0, fp, #1073741860	; 0x40000024
    23d0:	c80b0000 	stmdagt	fp, {}	; <UNPREDICTABLE>
    23d4:	04000008 	streq	r0, [r0], #-8
    23d8:	e5019604 	str	r9, [r1, #-1540]	; 0xfffff9fc
    23dc:	09000014 	stmdbeq	r0, {r2, r4}
    23e0:	000015d7 	ldrdeq	r1, [r0], -r7
    23e4:	5e019804 	cdppl	8, 0, cr9, cr1, cr4, {0}
    23e8:	04000000 	streq	r0, [r0], #-0
    23ec:	23021c04 	movwcs	r1, #11268	; 0x2c04
    23f0:	05f40900 	ldrbeq	r0, [r4, #2304]!	; 0x900
    23f4:	99040000 	stmdbls	r4, {}	; <UNPREDICTABLE>
    23f8:	00005e01 	andeq	r5, r0, r1, lsl #28
    23fc:	08140400 	ldmdaeq	r4, {sl}
    2400:	09002302 	stmdbeq	r0, {r1, r8, r9, sp}
    2404:	00001588 	andeq	r1, r0, r8, lsl #11
    2408:	5e019a04 	vmlapl.f32	s18, s2, s8
    240c:	04000000 	streq	r0, [r0], #-0
    2410:	23020602 	movwcs	r0, #9730	; 0x2602
    2414:	05fe0900 	ldrbeq	r0, [lr, #2304]!	; 0x900
    2418:	9b040000 	blls	102420 <__bss_end+0xfebb8>
    241c:	00005e01 	andeq	r5, r0, r1, lsl #28
    2420:	02040400 	andeq	r0, r4, #0, 8
    2424:	09002302 	stmdbeq	r0, {r1, r8, r9, sp}
    2428:	000014a1 	andeq	r1, r0, r1, lsr #9
    242c:	5e019c04 	cdppl	12, 0, cr9, cr1, cr4, {0}
    2430:	04000000 	streq	r0, [r0], #-0
    2434:	23020101 	movwcs	r0, #8449	; 0x2101
    2438:	14480900 	strbne	r0, [r8], #-2304	; 0xfffff700
    243c:	9d040000 	stcls	0, cr0, [r4, #-0]
    2440:	00005e01 	andeq	r5, r0, r1, lsl #28
    2444:	00010400 	andeq	r0, r1, r0, lsl #8
    2448:	00002302 	andeq	r2, r0, r2, lsl #6
    244c:	00138f0a 	andseq	r8, r3, sl, lsl #30
    2450:	019f0400 	orrseq	r0, pc, r0, lsl #8
    2454:	0000146b 	andeq	r1, r0, fp, ror #8
    2458:	0015020b 	andseq	r0, r5, fp, lsl #4
    245c:	a4040400 	strge	r0, [r4], #-1024	; 0xfffffc00
    2460:	00156b01 	andseq	r6, r5, r1, lsl #22
    2464:	05f40900 	ldrbeq	r0, [r4, #2304]!	; 0x900
    2468:	a6040000 	strge	r0, [r4], -r0
    246c:	00005e01 	andeq	r5, r0, r1, lsl #28
    2470:	08180400 	ldmdaeq	r8, {sl}
    2474:	09002302 	stmdbeq	r0, {r1, r8, r9, sp}
    2478:	00001588 	andeq	r1, r0, r8, lsl #11
    247c:	5e01a704 	cdppl	7, 0, cr10, cr1, cr4, {0}
    2480:	04000000 	streq	r0, [r0], #-0
    2484:	23020602 	movwcs	r0, #9730	; 0x2602
    2488:	05fe0900 	ldrbeq	r0, [lr, #2304]!	; 0x900
    248c:	a8040000 	stmdage	r4, {}	; <UNPREDICTABLE>
    2490:	00005e01 	andeq	r5, r0, r1, lsl #28
    2494:	03030400 	movweq	r0, #13312	; 0x3400
    2498:	09002302 	stmdbeq	r0, {r1, r8, r9, sp}
    249c:	00000841 	andeq	r0, r0, r1, asr #16
    24a0:	5e01a904 	cdppl	9, 0, cr10, cr1, cr4, {0}
    24a4:	04000000 	streq	r0, [r0], #-0
    24a8:	23020201 	movwcs	r0, #8705	; 0x2201
    24ac:	149e0900 	ldrne	r0, [lr], #2304	; 0x900
    24b0:	aa040000 	bge	1024b8 <__bss_end+0xfec50>
    24b4:	00005e01 	andeq	r5, r0, r1, lsl #28
    24b8:	01010400 	tsteq	r1, r0, lsl #8
    24bc:	09002302 	stmdbeq	r0, {r1, r8, r9, sp}
    24c0:	00001448 	andeq	r1, r0, r8, asr #8
    24c4:	5e01ab04 	vmlapl.f64	d10, d1, d4
    24c8:	04000000 	streq	r0, [r0], #-0
    24cc:	23020001 	movwcs	r0, #8193	; 0x2001
    24d0:	f30a0000 	vhadd.u8	d0, d10, d0
    24d4:	04000009 	streq	r0, [r0], #-9
    24d8:	14f101ad 	ldrbtne	r0, [r1], #429	; 0x1ad
    24dc:	990b0000 	stmdbls	fp, {}	; <UNPREDICTABLE>
    24e0:	0400000f 	streq	r0, [r0], #-15
    24e4:	2701b204 	strcs	fp, [r1, -r4, lsl #4]
    24e8:	09000016 	stmdbeq	r0, {r1, r2, r4}
    24ec:	000015d7 	ldrdeq	r1, [r0], -r7
    24f0:	5e01b404 	cdppl	4, 0, cr11, cr1, cr4, {0}
    24f4:	04000000 	streq	r0, [r0], #-0
    24f8:	23021c04 	movwcs	r1, #11268	; 0x2c04
    24fc:	05f40900 	ldrbeq	r0, [r4, #2304]!	; 0x900
    2500:	b5040000 	strlt	r0, [r4, #-0]
    2504:	00005e01 	andeq	r5, r0, r1, lsl #28
    2508:	15070400 	strne	r0, [r7, #-1024]	; 0xfffffc00
    250c:	09002302 	stmdbeq	r0, {r1, r8, r9, sp}
    2510:	00000a4d 	andeq	r0, r0, sp, asr #20
    2514:	5e01b604 	cfmadd32pl	mvax0, mvfx11, mvfx1, mvfx4
    2518:	04000000 	streq	r0, [r0], #-0
    251c:	23021401 	movwcs	r1, #9217	; 0x2401
    2520:	05fe0900 	ldrbeq	r0, [lr, #2304]!	; 0x900
    2524:	b7040000 	strlt	r0, [r4, -r0]
    2528:	00005e01 	andeq	r5, r0, r1, lsl #28
    252c:	11030400 	tstne	r3, r0, lsl #8
    2530:	09002302 	stmdbeq	r0, {r1, r8, r9, sp}
    2534:	000012c5 	andeq	r1, r0, r5, asr #5
    2538:	5e01b804 	cdppl	8, 0, cr11, cr1, cr4, {0}
    253c:	04000000 	streq	r0, [r0], #-0
    2540:	23021001 	movwcs	r1, #8193	; 0x2001
    2544:	06080900 	streq	r0, [r8], -r0, lsl #18
    2548:	b9040000 	stmdblt	r4, {}	; <UNPREDICTABLE>
    254c:	00005e01 	andeq	r5, r0, r1, lsl #28
    2550:	08080400 	stmdaeq	r8, {sl}
    2554:	09002302 	stmdbeq	r0, {r1, r8, r9, sp}
    2558:	000012dc 	ldrdeq	r1, [r0], -ip
    255c:	5e01ba04 	vmlapl.f32	s22, s2, s8
    2560:	04000000 	streq	r0, [r0], #-0
    2564:	23020602 	movwcs	r0, #9730	; 0x2602
    2568:	06120900 	ldreq	r0, [r2], -r0, lsl #18
    256c:	bb040000 	bllt	102574 <__bss_end+0xfed0c>
    2570:	00005e01 	andeq	r5, r0, r1, lsl #28
    2574:	01050400 	tsteq	r5, r0, lsl #8
    2578:	09002302 	stmdbeq	r0, {r1, r8, r9, sp}
    257c:	00000dab 	andeq	r0, r0, fp, lsr #27
    2580:	5e01bc04 	cdppl	12, 0, cr11, cr1, cr4, {0}
    2584:	04000000 	streq	r0, [r0], #-0
    2588:	23020001 	movwcs	r0, #8193	; 0x2001
    258c:	3a0a0000 	bcc	282594 <__bss_end+0x27ed2c>
    2590:	04000012 	streq	r0, [r0], #-18	; 0xffffffee
    2594:	157701be 	ldrbne	r0, [r7, #-446]!	; 0xfffffe42
    2598:	220b0000 	andcs	r0, fp, #0
    259c:	0400000d 	streq	r0, [r0], #-13
    25a0:	ad01c304 	stcge	3, cr12, [r1, #-16]
    25a4:	09000016 	stmdbeq	r0, {r1, r2, r4}
    25a8:	000015d7 	ldrdeq	r1, [r0], -r7
    25ac:	5e01c504 	cfsh32pl	mvfx12, mvfx1, #4
    25b0:	04000000 	streq	r0, [r0], #-0
    25b4:	23021b05 	movwcs	r1, #11013	; 0x2b05
    25b8:	05f40900 	ldrbeq	r0, [r4, #2304]!	; 0x900
    25bc:	c6040000 	strgt	r0, [r4], -r0
    25c0:	00005e01 	andeq	r5, r0, r1, lsl #28
    25c4:	08130400 	ldmdaeq	r3, {sl}
    25c8:	09002302 	stmdbeq	r0, {r1, r8, r9, sp}
    25cc:	00001588 	andeq	r1, r0, r8, lsl #11
    25d0:	5e01c704 	cdppl	7, 0, cr12, cr1, cr4, {0}
    25d4:	04000000 	streq	r0, [r0], #-0
    25d8:	23020503 	movwcs	r0, #9475	; 0x2503
    25dc:	05fe0900 	ldrbeq	r0, [lr, #2304]!	; 0x900
    25e0:	c8040000 	stmdagt	r4, {}	; <UNPREDICTABLE>
    25e4:	00005e01 	andeq	r5, r0, r1, lsl #28
    25e8:	02030400 	andeq	r0, r3, #0, 8
    25ec:	09002302 	stmdbeq	r0, {r1, r8, r9, sp}
    25f0:	000014a1 	andeq	r1, r0, r1, lsr #9
    25f4:	5e01c904 	cdppl	9, 0, cr12, cr1, cr4, {0}
    25f8:	04000000 	streq	r0, [r0], #-0
    25fc:	23020101 	movwcs	r0, #8449	; 0x2101
    2600:	14480900 	strbne	r0, [r8], #-2304	; 0xfffff700
    2604:	ca040000 	bgt	10260c <__bss_end+0xfeda4>
    2608:	00005e01 	andeq	r5, r0, r1, lsl #28
    260c:	00010400 	andeq	r0, r1, r0, lsl #8
    2610:	00002302 	andeq	r2, r0, r2, lsl #6
    2614:	000c720a 	andeq	r7, ip, sl, lsl #4
    2618:	01cb0400 	biceq	r0, fp, r0, lsl #8
    261c:	00001633 	andeq	r1, r0, r3, lsr r6
    2620:	00151d0b 	andseq	r1, r5, fp, lsl #26
    2624:	ce040400 	cfcpysgt	mvf0, mvf4
    2628:	00172101 	andseq	r2, r7, r1, lsl #2
    262c:	14a10900 	strtne	r0, [r1], #2304	; 0x900
    2630:	d0040000 	andle	r0, r4, r0
    2634:	00005e01 	andeq	r5, r0, r1, lsl #28
    2638:	1f010400 	svcne	0x00010400
    263c:	09002302 	stmdbeq	r0, {r1, r8, r9, sp}
    2640:	000005f4 	strdeq	r0, [r0], -r4
    2644:	5e01d104 	mvfpls	f5, f4
    2648:	04000000 	streq	r0, [r0], #-0
    264c:	2302100f 	movwcs	r1, #8207	; 0x200f
    2650:	15d70900 	ldrbne	r0, [r7, #2304]	; 0x900
    2654:	d2040000 	andle	r0, r4, #0
    2658:	00005e01 	andeq	r5, r0, r1, lsl #28
    265c:	0d030400 	cfstrseq	mvf0, [r3, #-0]
    2660:	09002302 	stmdbeq	r0, {r1, r8, r9, sp}
    2664:	000005fe 	strdeq	r0, [r0], -lr
    2668:	5e01d304 	cdppl	3, 0, cr13, cr1, cr4, {0}
    266c:	04000000 	streq	r0, [r0], #-0
    2670:	2302010c 	movwcs	r0, #8460	; 0x210c
    2674:	14480900 	strbne	r0, [r8], #-2304	; 0xfffff700
    2678:	d4040000 	strle	r0, [r4], #-0
    267c:	00005e01 	andeq	r5, r0, r1, lsl #28
    2680:	00010400 	andeq	r0, r1, r0, lsl #8
    2684:	00002302 	andeq	r2, r0, r2, lsl #6
    2688:	0011ad0a 	andseq	sl, r1, sl, lsl #26
    268c:	01d50400 	bicseq	r0, r5, r0, lsl #8
    2690:	000016b9 			; <UNDEFINED> instruction: 0x000016b9
    2694:	000ff30b 	andeq	pc, pc, fp, lsl #6
    2698:	d7040400 	strle	r0, [r4, -r0, lsl #8]
    269c:	00175f01 	andseq	r5, r7, r1, lsl #30
    26a0:	05f40900 	ldrbeq	r0, [r4, #2304]!	; 0x900
    26a4:	d9040000 	stmdble	r4, {}	; <UNPREDICTABLE>
    26a8:	00005e01 	andeq	r5, r0, r1, lsl #28
    26ac:	011f0400 	tsteq	pc, r0, lsl #8
    26b0:	09002302 	stmdbeq	r0, {r1, r8, r9, sp}
    26b4:	00001448 	andeq	r1, r0, r8, asr #8
    26b8:	5e01da04 	vmlapl.f32	s26, s2, s8
    26bc:	04000000 	streq	r0, [r0], #-0
    26c0:	23020001 	movwcs	r0, #8193	; 0x2001
    26c4:	f30a0000 	vhadd.u8	d0, d10, d0
    26c8:	04000008 	streq	r0, [r0], #-8
    26cc:	172d01db 			; <UNDEFINED> instruction: 0x172d01db
    26d0:	f30b0000 	vhadd.u8	d0, d11, d0
    26d4:	0400000b 	streq	r0, [r0], #-11
    26d8:	9d01dd04 	stcls	13, cr13, [r1, #-16]
    26dc:	09000017 	stmdbeq	r0, {r0, r1, r2, r4}
    26e0:	000005f4 	strdeq	r0, [r0], -r4
    26e4:	5e01df04 	cdppl	15, 0, cr13, cr1, cr4, {0}
    26e8:	04000000 	streq	r0, [r0], #-0
    26ec:	2302011f 	movwcs	r0, #8479	; 0x211f
    26f0:	14480900 	strbne	r0, [r8], #-2304	; 0xfffff700
    26f4:	e0040000 	and	r0, r4, r0
    26f8:	00005e01 	andeq	r5, r0, r1, lsl #28
    26fc:	00010400 	andeq	r0, r1, r0, lsl #8
    2700:	00002302 	andeq	r2, r0, r2, lsl #6
    2704:	0014760a 	andseq	r7, r4, sl, lsl #12
    2708:	01e10400 	mvneq	r0, r0, lsl #8
    270c:	0000176b 	andeq	r1, r0, fp, ror #14
    2710:	0009620b 	andeq	r6, r9, fp, lsl #4
    2714:	e4040400 	str	r0, [r4], #-1024	; 0xfffffc00
    2718:	0017db01 	andseq	sp, r7, r1, lsl #22
    271c:	14a10900 	strtne	r0, [r1], #2304	; 0x900
    2720:	e6040000 	str	r0, [r4], -r0
    2724:	00005e01 	andeq	r5, r0, r1, lsl #28
    2728:	1f010400 	svcne	0x00010400
    272c:	09002302 	stmdbeq	r0, {r1, r8, r9, sp}
    2730:	00000151 	andeq	r0, r0, r1, asr r1
    2734:	5e01e704 	cdppl	7, 0, cr14, cr1, cr4, {0}
    2738:	04000000 	streq	r0, [r0], #-0
    273c:	2302001f 	movwcs	r0, #8223	; 0x201f
    2740:	8b0a0000 	blhi	282748 <__bss_end+0x27eee0>
    2744:	04000011 	streq	r0, [r0], #-17	; 0xffffffef
    2748:	17a901e8 	strne	r0, [r9, r8, ror #3]!
    274c:	2c0b0000 	stccs	0, cr0, [fp], {-0}
    2750:	0400000a 	streq	r0, [r0], #-10
    2754:	4f01eb04 	svcmi	0x0001eb04
    2758:	09000018 	stmdbeq	r0, {r3, r4}
    275c:	000015d7 	ldrdeq	r1, [r0], -r7
    2760:	5e01ed04 	cdppl	13, 0, cr14, cr1, cr4, {0}
    2764:	04000000 	streq	r0, [r0], #-0
    2768:	23021c04 	movwcs	r1, #11268	; 0x2c04
    276c:	05f40900 	ldrbeq	r0, [r4, #2304]!	; 0x900
    2770:	ee040000 	cdp	0, 0, cr0, cr4, cr0, {0}
    2774:	00005e01 	andeq	r5, r0, r1, lsl #28
    2778:	08140400 	ldmdaeq	r4, {sl}
    277c:	09002302 	stmdbeq	r0, {r1, r8, r9, sp}
    2780:	00001588 	andeq	r1, r0, r8, lsl #11
    2784:	5e01ef04 	cdppl	15, 0, cr14, cr1, cr4, {0}
    2788:	04000000 	streq	r0, [r0], #-0
    278c:	23020602 	movwcs	r0, #9730	; 0x2602
    2790:	05fe0900 	ldrbeq	r0, [lr, #2304]!	; 0x900
    2794:	f0040000 			; <UNDEFINED> instruction: 0xf0040000
    2798:	00005e01 	andeq	r5, r0, r1, lsl #28
    279c:	01050400 	tsteq	r5, r0, lsl #8
    27a0:	09002302 	stmdbeq	r0, {r1, r8, r9, sp}
    27a4:	00001448 	andeq	r1, r0, r8, asr #8
    27a8:	5e01f104 	mvfpls	f7, f4
    27ac:	04000000 	streq	r0, [r0], #-0
    27b0:	23020001 	movwcs	r0, #8193	; 0x2001
    27b4:	4a0a0000 	bmi	2827bc <__bss_end+0x27ef54>
    27b8:	04000008 	streq	r0, [r0], #-8
    27bc:	17e701f2 			; <UNDEFINED> instruction: 0x17e701f2
    27c0:	ca0b0000 	bgt	2c27c8 <__bss_end+0x2bef60>
    27c4:	0400000d 	streq	r0, [r0], #-13
    27c8:	d501f504 	strle	pc, [r1, #-1284]	; 0xfffffafc
    27cc:	09000018 	stmdbeq	r0, {r3, r4}
    27d0:	000015d7 	ldrdeq	r1, [r0], -r7
    27d4:	5e01f704 	cdppl	7, 0, cr15, cr1, cr4, {0}
    27d8:	04000000 	streq	r0, [r0], #-0
    27dc:	23021c04 	movwcs	r1, #11268	; 0x2c04
    27e0:	05f40900 	ldrbeq	r0, [r4, #2304]!	; 0x900
    27e4:	f8040000 			; <UNDEFINED> instruction: 0xf8040000
    27e8:	00005e01 	andeq	r5, r0, r1, lsl #28
    27ec:	08140400 	ldmdaeq	r4, {sl}
    27f0:	09002302 	stmdbeq	r0, {r1, r8, r9, sp}
    27f4:	00001588 	andeq	r1, r0, r8, lsl #11
    27f8:	5e01f904 	cdppl	9, 0, cr15, cr1, cr4, {0}
    27fc:	04000000 	streq	r0, [r0], #-0
    2800:	23020503 	movwcs	r0, #9475	; 0x2503
    2804:	05fe0900 	ldrbeq	r0, [lr, #2304]!	; 0x900
    2808:	fa040000 	blx	102810 <__bss_end+0xfefa8>
    280c:	00005e01 	andeq	r5, r0, r1, lsl #28
    2810:	02030400 	andeq	r0, r3, #0, 8
    2814:	09002302 	stmdbeq	r0, {r1, r8, r9, sp}
    2818:	000014a1 	andeq	r1, r0, r1, lsr #9
    281c:	5e01fb04 	vmlapl.f64	d15, d1, d4
    2820:	04000000 	streq	r0, [r0], #-0
    2824:	23020101 	movwcs	r0, #8449	; 0x2101
    2828:	14480900 	strbne	r0, [r8], #-2304	; 0xfffff700
    282c:	fc040000 	stc2	0, cr0, [r4], {-0}
    2830:	00005e01 	andeq	r5, r0, r1, lsl #28
    2834:	00010400 	andeq	r0, r1, r0, lsl #8
    2838:	00002302 	andeq	r2, r0, r2, lsl #6
    283c:	000cb60a 	andeq	fp, ip, sl, lsl #12
    2840:	01fd0400 	mvnseq	r0, r0, lsl #8
    2844:	0000185b 	andeq	r1, r0, fp, asr r8
    2848:	000b8e0b 	andeq	r8, fp, fp, lsl #28
    284c:	00040400 	andeq	r0, r4, r0, lsl #8
    2850:	00196d02 	andseq	r6, r9, r2, lsl #26
    2854:	15d70900 	ldrbne	r0, [r7, #2304]	; 0x900
    2858:	02040000 	andeq	r0, r4, #0
    285c:	00005e02 	andeq	r5, r0, r2, lsl #28
    2860:	1c040400 	cfstrsne	mvf0, [r4], {-0}
    2864:	09002302 	stmdbeq	r0, {r1, r8, r9, sp}
    2868:	000005f4 	strdeq	r0, [r0], -r4
    286c:	5e020304 	cdppl	3, 0, cr0, cr2, cr4, {0}
    2870:	04000000 	streq	r0, [r0], #-0
    2874:	2302100c 	movwcs	r1, #8204	; 0x200c
    2878:	09460900 	stmdbeq	r6, {r8, fp}^
    287c:	04040000 	streq	r0, [r4], #-0
    2880:	00005e02 	andeq	r5, r0, r2, lsl #28
    2884:	0e020400 	cfcpyseq	mvf0, mvf2
    2888:	09002302 	stmdbeq	r0, {r1, r8, r9, sp}
    288c:	000005fe 	strdeq	r0, [r0], -lr
    2890:	5e020504 	cfsh32pl	mvfx0, mvfx2, #4
    2894:	04000000 	streq	r0, [r0], #-0
    2898:	23020806 	movwcs	r0, #10246	; 0x2806
    289c:	15880900 	strne	r0, [r8, #2304]	; 0x900
    28a0:	06040000 	streq	r0, [r4], -r0
    28a4:	00005e02 	andeq	r5, r0, r2, lsl #28
    28a8:	06020400 	streq	r0, [r2], -r0, lsl #8
    28ac:	09002302 	stmdbeq	r0, {r1, r8, r9, sp}
    28b0:	00000608 	andeq	r0, r0, r8, lsl #12
    28b4:	5e020704 	cdppl	7, 0, cr0, cr2, cr4, {0}
    28b8:	04000000 	streq	r0, [r0], #-0
    28bc:	23020105 	movwcs	r0, #8453	; 0x2105
    28c0:	144c0900 	strbne	r0, [ip], #-2304	; 0xfffff700
    28c4:	08040000 	stmdaeq	r4, {}	; <UNPREDICTABLE>
    28c8:	00005e02 	andeq	r5, r0, r2, lsl #28
    28cc:	00010400 	andeq	r0, r1, r0, lsl #8
    28d0:	00002302 	andeq	r2, r0, r2, lsl #6
    28d4:	000a120a 	andeq	r1, sl, sl, lsl #4
    28d8:	020a0400 	andeq	r0, sl, #0, 8
    28dc:	000018e1 	andeq	r1, r0, r1, ror #17
    28e0:	0012620b 	andseq	r6, r2, fp, lsl #4
    28e4:	0d040400 	cfstrseq	mvf0, [r4, #-0]
    28e8:	0019bd02 	andseq	fp, r9, r2, lsl #26
    28ec:	01510900 	cmpeq	r1, r0, lsl #18
    28f0:	0f040000 	svceq	0x00040000
    28f4:	00005e02 	andeq	r5, r0, r2, lsl #28
    28f8:	021e0400 	andseq	r0, lr, #0, 8
    28fc:	09002302 	stmdbeq	r0, {r1, r8, r9, sp}
    2900:	000014a1 	andeq	r1, r0, r1, lsr #9
    2904:	5e021004 	cdppl	0, 0, cr1, cr2, cr4, {0}
    2908:	04000000 	streq	r0, [r0], #-0
    290c:	23020101 	movwcs	r0, #8449	; 0x2101
    2910:	144c0900 	strbne	r0, [ip], #-2304	; 0xfffff700
    2914:	11040000 	tstne	r4, r0
    2918:	00005e02 	andeq	r5, r0, r2, lsl #28
    291c:	00010400 	andeq	r0, r1, r0, lsl #8
    2920:	00002302 	andeq	r2, r0, r2, lsl #6
    2924:	000eaa0a 	andeq	sl, lr, sl, lsl #20
    2928:	02130400 	andseq	r0, r3, #0, 8
    292c:	00001979 	andeq	r1, r0, r9, ror r9
    2930:	0015aa0c 	andseq	sl, r5, ip, lsl #20
    2934:	04016400 	streq	r6, [r1], #-1024	; 0xfffffc00
    2938:	1e2e0215 	mcrne	2, 1, r0, cr14, cr5, {0}
    293c:	4d0d0000 	stcmi	0, cr0, [sp, #-0]
    2940:	0400000d 	streq	r0, [r0], #-13
    2944:	1e2e0217 	mcrne	2, 1, r0, cr14, cr7, {0}
    2948:	23020000 	movwcs	r0, #8192	; 0x2000
    294c:	0c240d00 	stceq	13, cr0, [r4], #-0
    2950:	18040000 	stmdane	r4, {}	; <UNPREDICTABLE>
    2954:	001e3302 	andseq	r3, lr, r2, lsl #6
    2958:	04230200 	strteq	r0, [r3], #-512	; 0xfffffe00
    295c:	0015a20d 	andseq	sl, r5, sp, lsl #4
    2960:	02190400 	andseq	r0, r9, #0, 8
    2964:	00001e38 	andeq	r1, r0, r8, lsr lr
    2968:	0d082302 	stceq	3, cr2, [r8, #-8]
    296c:	000013fd 	strdeq	r1, [r0], -sp
    2970:	3d021a04 	vstrcc	s2, [r2, #-16]
    2974:	0200001e 	andeq	r0, r0, #30
    2978:	e20d0c23 	and	r0, sp, #8960	; 0x2300
    297c:	04000014 	streq	r0, [r0], #-20	; 0xffffffec
    2980:	1e42021b 	mcrne	2, 2, r0, cr2, cr11, {0}
    2984:	23020000 	movwcs	r0, #8192	; 0x2000
    2988:	05f40d10 	ldrbeq	r0, [r4, #3344]!	; 0xd10
    298c:	1c040000 	stcne	0, cr0, [r4], {-0}
    2990:	001e4702 	andseq	r4, lr, r2, lsl #14
    2994:	14230200 	strtne	r0, [r3], #-512	; 0xfffffe00
    2998:	0009820d 	andeq	r8, r9, sp, lsl #4
    299c:	021d0400 	andseq	r0, sp, #0, 8
    29a0:	00001e4c 	andeq	r1, r0, ip, asr #28
    29a4:	0d182302 	ldceq	3, cr2, [r8, #-8]
    29a8:	000005fe 	strdeq	r0, [r0], -lr
    29ac:	47021e04 	strmi	r1, [r2, -r4, lsl #28]
    29b0:	0200001e 	andeq	r0, r0, #30
    29b4:	a50d1c23 	strge	r1, [sp, #-3107]	; 0xfffff3dd
    29b8:	04000011 	streq	r0, [r0], #-17	; 0xffffffef
    29bc:	1e51021f 	mrcne	2, 2, r0, cr1, cr15, {0}
    29c0:	23020000 	movwcs	r0, #8192	; 0x2000
    29c4:	08010d20 	stmdaeq	r1, {r5, r8, sl, fp}
    29c8:	20040000 	andcs	r0, r4, r0
    29cc:	001e5602 	andseq	r5, lr, r2, lsl #12
    29d0:	24230200 	strtcs	r0, [r3], #-512	; 0xfffffe00
    29d4:	0014fa0d 	andseq	pc, r4, sp, lsl #20
    29d8:	02210400 	eoreq	r0, r1, #0, 8
    29dc:	00001e5b 	andeq	r1, r0, fp, asr lr
    29e0:	0d282302 	stceq	3, cr2, [r8, #-8]!
    29e4:	00000608 	andeq	r0, r0, r8, lsl #12
    29e8:	47022204 	strmi	r2, [r2, -r4, lsl #4]
    29ec:	0200001e 	andeq	r0, r0, #30
    29f0:	330d2c23 	movwcc	r2, #56355	; 0xdc23
    29f4:	04000014 	streq	r0, [r0], #-20	; 0xffffffec
    29f8:	1e600223 	cdpne	2, 6, cr0, cr0, cr3, {1}
    29fc:	23020000 	movwcs	r0, #8192	; 0x2000
    2a00:	06120d30 			; <UNDEFINED> instruction: 0x06120d30
    2a04:	24040000 	strcs	r0, [r4], #-0
    2a08:	001e4702 	andseq	r4, lr, r2, lsl #14
    2a0c:	34230200 	strtcc	r0, [r3], #-512	; 0xfffffe00
    2a10:	0011660d 	andseq	r6, r1, sp, lsl #12
    2a14:	02250400 	eoreq	r0, r5, #0, 8
    2a18:	00001e65 	andeq	r1, r0, r5, ror #28
    2a1c:	0d382302 	ldceq	3, cr2, [r8, #-8]!
    2a20:	00000831 	andeq	r0, r0, r1, lsr r8
    2a24:	6a022604 	bvs	8c23c <__bss_end+0x889d4>
    2a28:	0200001e 	andeq	r0, r0, #30
    2a2c:	1c0d3c23 	stcne	12, cr3, [sp], {35}	; 0x23
    2a30:	04000006 	streq	r0, [r0], #-6
    2a34:	1e7f0227 	cdpne	2, 7, cr0, cr15, cr7, {1}
    2a38:	23020000 	movwcs	r0, #8192	; 0x2000
    2a3c:	0a710d40 	beq	1c45f44 <__bss_end+0x1c426dc>
    2a40:	28040000 	stmdacs	r4, {}	; <UNPREDICTABLE>
    2a44:	001e8402 	andseq	r8, lr, r2, lsl #8
    2a48:	50230200 	eorpl	r0, r3, r0, lsl #4
    2a4c:	000f590d 	andeq	r5, pc, sp, lsl #18
    2a50:	02290400 	eoreq	r0, r9, #0, 8
    2a54:	00001e89 	andeq	r1, r0, r9, lsl #29
    2a58:	0d542302 	ldcleq	3, cr2, [r4, #-8]
    2a5c:	00000dbf 			; <UNDEFINED> instruction: 0x00000dbf
    2a60:	8e022a04 	vmlahi.f32	s4, s4, s8
    2a64:	0200001e 	andeq	r0, r0, #30
    2a68:	ea0d5823 	b	358afc <__bss_end+0x355294>
    2a6c:	04000014 	streq	r0, [r0], #-20	; 0xffffffec
    2a70:	1e93022b 	cdpne	2, 9, cr0, cr3, cr11, {1}
    2a74:	23020000 	movwcs	r0, #8192	; 0x2000
    2a78:	0cfe0d5c 	ldcleq	13, cr0, [lr], #368	; 0x170
    2a7c:	2c040000 	stccs	0, cr0, [r4], {-0}
    2a80:	001e9802 	andseq	r9, lr, r2, lsl #16
    2a84:	60230200 	eorvs	r0, r3, r0, lsl #4
    2a88:	000d070d 	andeq	r0, sp, sp, lsl #14
    2a8c:	022d0400 	eoreq	r0, sp, #0, 8
    2a90:	00001e9d 	muleq	r0, sp, lr
    2a94:	0d642302 	stcleq	3, cr2, [r4, #-8]!
    2a98:	00000a44 	andeq	r0, r0, r4, asr #20
    2a9c:	a2022e04 	andge	r2, r2, #4, 28	; 0x40
    2aa0:	0200001e 	andeq	r0, r0, #30
    2aa4:	570d6823 	strpl	r6, [sp, -r3, lsr #16]
    2aa8:	04000015 	streq	r0, [r0], #-21	; 0xffffffeb
    2aac:	1ea7022f 	cdpne	2, 10, cr0, cr7, cr15, {1}
    2ab0:	23020000 	movwcs	r0, #8192	; 0x2000
    2ab4:	06260d6c 	strteq	r0, [r6], -ip, ror #26
    2ab8:	30040000 	andcc	r0, r4, r0
    2abc:	001eac02 	andseq	sl, lr, r2, lsl #24
    2ac0:	70230200 	eorvc	r0, r3, r0, lsl #4
    2ac4:	00143b0d 	andseq	r3, r4, sp, lsl #22
    2ac8:	02310400 	eorseq	r0, r1, #0, 8
    2acc:	00001eb1 			; <UNDEFINED> instruction: 0x00001eb1
    2ad0:	01802303 	orreq	r2, r0, r3, lsl #6
    2ad4:	000b3f0d 	andeq	r3, fp, sp, lsl #30
    2ad8:	02320400 	eorseq	r0, r2, #0, 8
    2adc:	00001eb1 			; <UNDEFINED> instruction: 0x00001eb1
    2ae0:	01842303 	orreq	r2, r4, r3, lsl #6
    2ae4:	0009390d 	andeq	r3, r9, sp, lsl #18
    2ae8:	02330400 	eorseq	r0, r3, #0, 8
    2aec:	00001eb1 			; <UNDEFINED> instruction: 0x00001eb1
    2af0:	01882303 	orreq	r2, r8, r3, lsl #6
    2af4:	0012580d 	andseq	r5, r2, sp, lsl #16
    2af8:	02340400 	eorseq	r0, r4, #0, 8
    2afc:	00001eb1 			; <UNDEFINED> instruction: 0x00001eb1
    2b00:	018c2303 	orreq	r2, ip, r3, lsl #6
    2b04:	000b840d 	andeq	r8, fp, sp, lsl #8
    2b08:	02350400 	eorseq	r0, r5, #0, 8
    2b0c:	00001eb1 			; <UNDEFINED> instruction: 0x00001eb1
    2b10:	01902303 	orrseq	r2, r0, r3, lsl #6
    2b14:	0006300d 	andeq	r3, r6, sp
    2b18:	02360400 	eorseq	r0, r6, #0, 8
    2b1c:	00001e47 	andeq	r1, r0, r7, asr #28
    2b20:	01942303 	orrseq	r2, r4, r3, lsl #6
    2b24:	0013540d 	andseq	r5, r3, sp, lsl #8
    2b28:	02370400 	eorseq	r0, r7, #0, 8
    2b2c:	00001eb1 			; <UNDEFINED> instruction: 0x00001eb1
    2b30:	01982303 	orrseq	r2, r8, r3, lsl #6
    2b34:	0009e60d 	andeq	lr, r9, sp, lsl #12
    2b38:	02380400 	eorseq	r0, r8, #0, 8
    2b3c:	00001eb1 			; <UNDEFINED> instruction: 0x00001eb1
    2b40:	019c2303 	orrseq	r2, ip, r3, lsl #6
    2b44:	000e870d 	andeq	r8, lr, sp, lsl #14
    2b48:	02390400 	eorseq	r0, r9, #0, 8
    2b4c:	00001eb1 			; <UNDEFINED> instruction: 0x00001eb1
    2b50:	01a02303 	lsleq	r2, r3, #6
    2b54:	00088f0d 	andeq	r8, r8, sp, lsl #30
    2b58:	023a0400 	eorseq	r0, sl, #0, 8
    2b5c:	00001eb1 			; <UNDEFINED> instruction: 0x00001eb1
    2b60:	01a42303 			; <UNDEFINED> instruction: 0x01a42303
    2b64:	0010610d 	andseq	r6, r0, sp, lsl #2
    2b68:	023b0400 	eorseq	r0, fp, #0, 8
    2b6c:	00001eb1 			; <UNDEFINED> instruction: 0x00001eb1
    2b70:	01a82303 			; <UNDEFINED> instruction: 0x01a82303
    2b74:	00063a0d 	andeq	r3, r6, sp, lsl #20
    2b78:	023c0400 	eorseq	r0, ip, #0, 8
    2b7c:	00001e47 	andeq	r1, r0, r7, asr #28
    2b80:	01ac2303 			; <UNDEFINED> instruction: 0x01ac2303
    2b84:	000db80d 	andeq	fp, sp, sp, lsl #16
    2b88:	023d0400 	eorseq	r0, sp, #0, 8
    2b8c:	00001eb1 			; <UNDEFINED> instruction: 0x00001eb1
    2b90:	01b02303 	lslseq	r2, r3, #6
    2b94:	00070d0d 	andeq	r0, r7, sp, lsl #26
    2b98:	023e0400 	eorseq	r0, lr, #0, 8
    2b9c:	00001e47 	andeq	r1, r0, r7, asr #28
    2ba0:	01b42303 			; <UNDEFINED> instruction: 0x01b42303
    2ba4:	000d1b0d 	andeq	r1, sp, sp, lsl #22
    2ba8:	023f0400 	eorseq	r0, pc, #0, 8
    2bac:	00001eb6 			; <UNDEFINED> instruction: 0x00001eb6
    2bb0:	01b82303 			; <UNDEFINED> instruction: 0x01b82303
    2bb4:	0012d20d 	andseq	sp, r2, sp, lsl #4
    2bb8:	02400400 	subeq	r0, r0, #0, 8
    2bbc:	00001e47 	andeq	r1, r0, r7, asr #28
    2bc0:	01bc2303 			; <UNDEFINED> instruction: 0x01bc2303
    2bc4:	00100b0d 	andseq	r0, r0, sp, lsl #22
    2bc8:	02410400 	subeq	r0, r1, #0, 8
    2bcc:	00001eb6 			; <UNDEFINED> instruction: 0x00001eb6
    2bd0:	01c02303 	biceq	r2, r0, r3, lsl #6
    2bd4:	00136d0d 	andseq	r6, r3, sp, lsl #26
    2bd8:	02420400 	subeq	r0, r2, #0, 8
    2bdc:	00001ebb 			; <UNDEFINED> instruction: 0x00001ebb
    2be0:	01c42303 	biceq	r2, r4, r3, lsl #6
    2be4:	000de50d 	andeq	lr, sp, sp, lsl #10
    2be8:	02430400 	subeq	r0, r3, #0, 8
    2bec:	00001e47 	andeq	r1, r0, r7, asr #28
    2bf0:	01c82303 	biceq	r2, r8, r3, lsl #6
    2bf4:	0009ec0d 	andeq	lr, r9, sp, lsl #24
    2bf8:	02440400 	subeq	r0, r4, #0, 8
    2bfc:	00001ec0 	andeq	r1, r0, r0, asr #29
    2c00:	01cc2303 	biceq	r2, ip, r3, lsl #6
    2c04:	000fec0d 	andeq	lr, pc, sp, lsl #24
    2c08:	02450400 	subeq	r0, r5, #0, 8
    2c0c:	00001ec5 	andeq	r1, r0, r5, asr #29
    2c10:	01d02303 	bicseq	r2, r0, r3, lsl #6
    2c14:	000df00d 	andeq	pc, sp, sp
    2c18:	02460400 	subeq	r0, r6, #0, 8
    2c1c:	00001e47 	andeq	r1, r0, r7, asr #28
    2c20:	01d42303 	bicseq	r2, r4, r3, lsl #6
    2c24:	000dfb0d 	andeq	pc, sp, sp, lsl #22
    2c28:	02470400 	subeq	r0, r7, #0, 8
    2c2c:	00001eda 	ldrdeq	r1, [r0], -sl
    2c30:	01d82303 	bicseq	r2, r8, r3, lsl #6
    2c34:	0010970d 	andseq	r9, r0, sp, lsl #14
    2c38:	02480400 	subeq	r0, r8, #0, 8
    2c3c:	00001edf 	ldrdeq	r1, [r0], -pc	; <UNPREDICTABLE>
    2c40:	02802303 	addeq	r2, r0, #201326592	; 0xc000000
    2c44:	0010840d 	andseq	r8, r0, sp, lsl #8
    2c48:	02490400 	subeq	r0, r9, #0, 8
    2c4c:	00001ee4 	andeq	r1, r0, r4, ror #29
    2c50:	02842303 	addeq	r2, r4, #201326592	; 0xc000000
    2c54:	000ef20d 	andeq	pc, lr, sp, lsl #4
    2c58:	024a0400 	subeq	r0, sl, #0, 8
    2c5c:	00001e47 	andeq	r1, r0, r7, asr #28
    2c60:	02882303 	addeq	r2, r8, #201326592	; 0xc000000
    2c64:	000d740d 	andeq	r7, sp, sp, lsl #8
    2c68:	024b0400 	subeq	r0, fp, #0, 8
    2c6c:	00001ee4 	andeq	r1, r0, r4, ror #29
    2c70:	028c2303 	addeq	r2, ip, #201326592	; 0xc000000
    2c74:	000e1d0d 	andeq	r1, lr, sp, lsl #26
    2c78:	024c0400 	subeq	r0, ip, #0, 8
    2c7c:	00001e47 	andeq	r1, r0, r7, asr #28
    2c80:	02902303 	addseq	r2, r0, #201326592	; 0xc000000
    2c84:	000e280d 	andeq	r2, lr, sp, lsl #16
    2c88:	024d0400 	subeq	r0, sp, #0, 8
    2c8c:	00001e47 	andeq	r1, r0, r7, asr #28
    2c90:	02942303 	addseq	r2, r4, #201326592	; 0xc000000
    2c94:	0008970d 	andeq	r9, r8, sp, lsl #14
    2c98:	024e0400 	subeq	r0, lr, #0, 8
    2c9c:	00001ee9 	andeq	r1, r0, r9, ror #29
    2ca0:	02982303 	addseq	r2, r8, #201326592	; 0xc000000
    2ca4:	000e330d 	andeq	r3, lr, sp, lsl #6
    2ca8:	024f0400 	subeq	r0, pc, #0, 8
    2cac:	00001eee 	andeq	r1, r0, lr, ror #29
    2cb0:	029c2303 	addseq	r2, ip, #201326592	; 0xc000000
    2cb4:	000a070d 	andeq	r0, sl, sp, lsl #14
    2cb8:	02500400 	subseq	r0, r0, #0, 8
    2cbc:	00001ef3 	strdeq	r1, [r0], -r3
    2cc0:	02ac2303 	adceq	r2, ip, #201326592	; 0xc000000
    2cc4:	000e3e0d 	andeq	r3, lr, sp, lsl #28
    2cc8:	02510400 	subseq	r0, r1, #0, 8
    2ccc:	00001e47 	andeq	r1, r0, r7, asr #28
    2cd0:	02b02303 	adcseq	r2, r0, #201326592	; 0xc000000
    2cd4:	000cd30d 	andeq	sp, ip, sp, lsl #6
    2cd8:	02520400 	subseq	r0, r2, #0, 8
    2cdc:	00001ef8 	strdeq	r1, [r0], -r8
    2ce0:	02b42303 	adcseq	r2, r4, #201326592	; 0xc000000
    2ce4:	000e490d 	andeq	r4, lr, sp, lsl #18
    2ce8:	02530400 	subseq	r0, r3, #0, 8
    2cec:	00001e47 	andeq	r1, r0, r7, asr #28
    2cf0:	02b82303 	adcseq	r2, r8, #201326592	; 0xc000000
    2cf4:	00083b0d 	andeq	r3, r8, sp, lsl #22
    2cf8:	02540400 	subseq	r0, r4, #0, 8
    2cfc:	00001efd 	strdeq	r1, [r0], -sp
    2d00:	02bc2303 	adcseq	r2, ip, #201326592	; 0xc000000
    2d04:	00134c0d 	andseq	r4, r3, sp, lsl #24
    2d08:	02550400 	subseq	r0, r5, #0, 8
    2d0c:	00001f02 	andeq	r1, r0, r2, lsl #30
    2d10:	02c02303 	sbceq	r2, r0, #201326592	; 0xc000000
    2d14:	0014970d 	andseq	r9, r4, sp, lsl #14
    2d18:	02560400 	subseq	r0, r6, #0, 8
    2d1c:	00001f07 	andeq	r1, r0, r7, lsl #30
    2d20:	02c42303 	sbceq	r2, r4, #201326592	; 0xc000000
    2d24:	000ec30d 	andeq	ip, lr, sp, lsl #6
    2d28:	02570400 	subseq	r0, r7, #0, 8
    2d2c:	00001e47 	andeq	r1, r0, r7, asr #28
    2d30:	02c82303 	sbceq	r2, r8, #201326592	; 0xc000000
    2d34:	000f2d0d 	andeq	r2, pc, sp, lsl #26
    2d38:	02580400 	subseq	r0, r8, #0, 8
    2d3c:	00001f0c 	andeq	r1, r0, ip, lsl #30
    2d40:	02cc2303 	sbceq	r2, ip, #201326592	; 0xc000000
    2d44:	000ee00d 	andeq	lr, lr, sp
    2d48:	02590400 	subseq	r0, r9, #0, 8
    2d4c:	00001f11 	andeq	r1, r0, r1, lsl pc
    2d50:	02d02303 	sbcseq	r2, r0, #201326592	; 0xc000000
    2d54:	00148f0d 	andseq	r8, r4, sp, lsl #30
    2d58:	025a0400 	subseq	r0, sl, #0, 8
    2d5c:	00001f16 	andeq	r1, r0, r6, lsl pc
    2d60:	02d42303 	sbcseq	r2, r4, #201326592	; 0xc000000
    2d64:	000ece0d 	andeq	ip, lr, sp, lsl #28
    2d68:	025b0400 	subseq	r0, fp, #0, 8
    2d6c:	00001e47 	andeq	r1, r0, r7, asr #28
    2d70:	02d82303 	sbcseq	r2, r8, #201326592	; 0xc000000
    2d74:	0008800d 	andeq	r8, r8, sp
    2d78:	025c0400 	subseq	r0, ip, #0, 8
    2d7c:	00001f1b 	andeq	r1, r0, fp, lsl pc
    2d80:	02dc2303 	sbcseq	r2, ip, #201326592	; 0xc000000
    2d84:	00146f0d 	andseq	r6, r4, sp, lsl #30
    2d88:	025d0400 	subseq	r0, sp, #0, 8
    2d8c:	00001f20 	andeq	r1, r0, r0, lsr #30
    2d90:	02e02303 	rsceq	r2, r0, #201326592	; 0xc000000
    2d94:	022e0e00 	eoreq	r0, lr, #0, 28
    2d98:	ac0e0000 	stcge	0, cr0, [lr], {-0}
    2d9c:	0e000002 	cdpeq	0, 0, cr0, cr0, cr2, {0}
    2da0:	0000035d 	andeq	r0, r0, sp, asr r3
    2da4:	0003db0e 	andeq	sp, r3, lr, lsl #22
    2da8:	04ae0e00 	strteq	r0, [lr], #3584	; 0xe00
    2dac:	5e0e0000 	cdppl	0, 0, cr0, cr14, cr0, {0}
    2db0:	0e000000 	cdpeq	0, 0, cr0, cr0, cr0, {0}
    2db4:	000005b4 			; <UNDEFINED> instruction: 0x000005b4
    2db8:	0006cb0e 	andeq	ip, r6, lr, lsl #22
    2dbc:	075a0e00 	ldrbeq	r0, [sl, -r0, lsl #28]
    2dc0:	3e0e0000 	cdpcc	0, 0, cr0, cr14, cr0, {0}
    2dc4:	0e000008 	cdpeq	0, 0, cr0, cr0, cr8, {0}
    2dc8:	00000911 	andeq	r0, r0, r1, lsl r9
    2dcc:	00098f0e 	andeq	r8, r9, lr, lsl #30
    2dd0:	0a0d0e00 	beq	3465d8 <__bss_end+0x342d70>
    2dd4:	5e0f0000 	cdppl	0, 0, cr0, cr15, cr0, {0}
    2dd8:	7f000000 	svcvc	0x00000000
    2ddc:	1000001e 	andne	r0, r0, lr, lsl r0
    2de0:	00000069 	andeq	r0, r0, r9, rrx
    2de4:	6f0e0003 	svcvs	0x000e0003
    2de8:	0e00001e 	mcreq	0, 0, r0, cr0, cr14, {0}
    2dec:	00000acf 	andeq	r0, r0, pc, asr #21
    2df0:	000b6f0e 	andeq	r6, fp, lr, lsl #30
    2df4:	0bed0e00 	bleq	ffb465fc <__bss_end+0xffb42d94>
    2df8:	270e0000 	strcs	r0, [lr, -r0]
    2dfc:	0e00000c 	cdpeq	0, 0, cr0, cr0, cr12, {0}
    2e00:	00000e0b 	andeq	r0, r0, fp, lsl #28
    2e04:	000f450e 	andeq	r4, pc, lr, lsl #10
    2e08:	10130e00 	andsne	r0, r3, r0, lsl #28
    2e0c:	cf0e0000 	svcgt	0x000e0000
    2e10:	0e000010 	mcreq	0, 0, r0, cr0, cr0, {0}
    2e14:	00001e6f 	andeq	r1, r0, pc, ror #28
    2e18:	0011670e 	andseq	r6, r1, lr, lsl #14
    2e1c:	11c90e00 	bicne	r0, r9, r0, lsl #28
    2e20:	610e0000 	tstvs	lr, r0
    2e24:	0e000012 	mcreq	0, 0, r0, cr0, cr2, {0}
    2e28:	000012f9 	strdeq	r1, [r0], -r9
    2e2c:	00137f0e 	andseq	r7, r3, lr, lsl #30
    2e30:	005e0f00 	subseq	r0, lr, r0, lsl #30
    2e34:	1eda0000 	cdpne	0, 13, cr0, cr10, cr0, {0}
    2e38:	69100000 	ldmdbvs	r0, {}	; <UNPREDICTABLE>
    2e3c:	09000000 	stmdbeq	r0, {}	; <UNPREDICTABLE>
    2e40:	1eca0e00 	cdpne	14, 12, cr0, cr10, cr0, {0}
    2e44:	5f0e0000 	svcpl	0x000e0000
    2e48:	0e000014 	mcreq	0, 0, r0, cr0, cr4, {0}
    2e4c:	000014e5 	andeq	r1, r0, r5, ror #9
    2e50:	00156b0e 	andseq	r6, r5, lr, lsl #22
    2e54:	1e6f0e00 	cdpne	14, 6, cr0, cr15, cr0, {0}
    2e58:	270e0000 	strcs	r0, [lr, -r0]
    2e5c:	0e000016 	mcreq	0, 0, r0, cr0, cr6, {0}
    2e60:	000016ad 	andeq	r1, r0, sp, lsr #13
    2e64:	0017210e 	andseq	r2, r7, lr, lsl #2
    2e68:	175f0e00 	ldrbne	r0, [pc, -r0, lsl #28]
    2e6c:	9d0e0000 	stcls	0, cr0, [lr, #-0]
    2e70:	0e000017 	mcreq	0, 0, r0, cr0, cr7, {0}
    2e74:	000017db 	ldrdeq	r1, [r0], -fp
    2e78:	00184f0e 	andseq	r4, r8, lr, lsl #30
    2e7c:	18d50e00 	ldmne	r5, {r9, sl, fp}^
    2e80:	6d0e0000 	stcvs	0, cr0, [lr, #-0]
    2e84:	0e000019 	mcreq	0, 0, r0, cr0, cr9, {0}
    2e88:	000019bd 			; <UNDEFINED> instruction: 0x000019bd
    2e8c:	000b5a0a 	andeq	r5, fp, sl, lsl #20
    2e90:	025f0400 	subseq	r0, pc, #0, 8
    2e94:	000019c9 	andeq	r1, r0, r9, asr #19
    2e98:	13a30111 			; <UNDEFINED> instruction: 0x13a30111
    2e9c:	2c010000 	stccs	0, cr0, [r1], {-0}
    2ea0:	00004c01 	andeq	r4, r0, r1, lsl #24
    2ea4:	00088800 	andeq	r8, r8, r0, lsl #16
    2ea8:	0008a400 	andeq	sl, r8, r0, lsl #8
    2eac:	007d0200 	rsbseq	r0, sp, r0, lsl #4
    2eb0:	13c10111 	bicne	r0, r1, #1073741828	; 0x40000004
    2eb4:	3e010000 	cdpcc	0, 0, cr0, cr1, cr0, {0}
    2eb8:	00004c01 	andeq	r4, r0, r1, lsl #24
    2ebc:	0008a400 	andeq	sl, r8, r0, lsl #8
    2ec0:	00090000 	andeq	r0, r9, r0
    2ec4:	007d0200 	rsbseq	r0, sp, r0, lsl #4
    2ec8:	10720111 	rsbsne	r0, r2, r1, lsl r1
    2ecc:	57010000 	strpl	r0, [r1, -r0]
    2ed0:	00004c01 	andeq	r4, r0, r1, lsl #24
    2ed4:	00090000 	andeq	r0, r9, r0
    2ed8:	00095c00 	andeq	r5, r9, r0, lsl #24
    2edc:	007d0200 	rsbseq	r0, sp, r0, lsl #4
    2ee0:	0e780112 	mrceq	1, 3, r0, cr8, cr2, {0}
    2ee4:	70010000 	andvc	r0, r1, r0
    2ee8:	00004c01 	andeq	r4, r0, r1, lsl #24
    2eec:	00095c00 	andeq	r5, r9, r0, lsl #24
    2ef0:	0009c400 	andeq	ip, r9, r0, lsl #8
    2ef4:	007d0200 	rsbseq	r0, sp, r0, lsl #4
    2ef8:	00001fa5 	andeq	r1, r0, r5, lsr #31
    2efc:	00003e13 	andeq	r3, r0, r3, lsl lr
    2f00:	a5700100 	ldrbge	r0, [r0, #-256]!	; 0xffffff00
    2f04:	ab00001f 	blge	2f88 <__save_processor_state+0x588>
    2f08:	00000001 	andeq	r0, r0, r1
    2f0c:	007e0414 	rsbseq	r0, lr, r4, lsl r4
    2f10:	01120000 	tsteq	r2, r0
    2f14:	00000b0d 	andeq	r0, r0, sp, lsl #22
    2f18:	4c018a01 	stcmi	10, cr8, [r1], {1}
    2f1c:	c4000000 	strgt	r0, [r0], #-0
    2f20:	24000009 	strcs	r0, [r0], #-9
    2f24:	0200000a 	andeq	r0, r0, #10
    2f28:	1fd7007d 	svcne	0x00d7007d
    2f2c:	3e130000 	cdpcc	0, 1, cr0, cr3, cr0, {0}
    2f30:	01000000 	tsteq	r0, r0
    2f34:	001fa58a 	andseq	sl, pc, sl, lsl #11
    2f38:	0001c900 	andeq	ip, r1, r0, lsl #18
    2f3c:	01120000 	tsteq	r2, r0
    2f40:	00000acc 	andeq	r0, r0, ip, asr #21
    2f44:	4c01a601 	stcmi	6, cr10, [r1], {1}
    2f48:	24000000 	strcs	r0, [r0], #-0
    2f4c:	8000000a 	andhi	r0, r0, sl
    2f50:	0200000a 	andeq	r0, r0, #10
    2f54:	2003007d 	andcs	r0, r3, sp, ror r0
    2f58:	5e130000 	cdppl	0, 1, cr0, cr3, cr0, {0}
    2f5c:	0100000c 	tsteq	r0, ip
    2f60:	002003a6 	eoreq	r0, r0, r6, lsr #7
    2f64:	0001e700 	andeq	lr, r1, r0, lsl #14
    2f68:	04140000 	ldreq	r0, [r4], #-0
    2f6c:	000000e0 	andeq	r0, r0, r0, ror #1
    2f70:	0c520112 	ldfeqe	f0, [r2], {18}
    2f74:	c0010000 	andgt	r0, r1, r0
    2f78:	00004c01 	andeq	r4, r0, r1, lsl #24
    2f7c:	000a8000 	andeq	r8, sl, r0
    2f80:	000acc00 	andeq	ip, sl, r0, lsl #24
    2f84:	007d0200 	rsbseq	r0, sp, r0, lsl #4
    2f88:	00002035 	andeq	r2, r0, r5, lsr r0
    2f8c:	000c5e13 	andeq	r5, ip, r3, lsl lr
    2f90:	03c00100 	biceq	r0, r0, #0, 2
    2f94:	fa000020 	blx	301c <__restore_processor_state+0x78>
    2f98:	00000001 	andeq	r0, r0, r1
    2f9c:	12960115 	addsne	r0, r6, #1073741829	; 0x40000005
    2fa0:	da010000 	ble	42fa8 <__bss_end+0x3f740>
    2fa4:	000acc01 	andeq	ip, sl, r1, lsl #24
    2fa8:	000afc00 	andeq	pc, sl, r0, lsl #24
    2fac:	007d0200 	rsbseq	r0, sp, r0, lsl #4
    2fb0:	0000205b 	andeq	r2, r0, fp, asr r0
    2fb4:	000f6316 	andeq	r6, pc, r6, lsl r3	; <UNPREDICTABLE>
    2fb8:	57da0100 	ldrbpl	r0, [sl, r0, lsl #2]
    2fbc:	01000000 	tsteq	r0, r0
    2fc0:	b0170050 	andslt	r0, r7, r0, asr r0
    2fc4:	01000013 	tsteq	r0, r3, lsl r0
    2fc8:	00206c16 	eoreq	r6, r0, r6, lsl ip
    2fcc:	40030500 	andmi	r0, r3, r0, lsl #10
    2fd0:	14000038 	strne	r0, [r0], #-56	; 0xffffffc8
    2fd4:	001f2504 	andseq	r2, pc, r4, lsl #10
    2fd8:	12f91800 	rscsne	r1, r9, #0, 16
    2fdc:	17010000 	strne	r0, [r1, -r0]
    2fe0:	0000005e 	andeq	r0, r0, lr, asr r0
    2fe4:	64030501 	strvs	r0, [r3], #-1281	; 0xfffffaff
    2fe8:	00000038 	andeq	r0, r0, r8, lsr r0
    2fec:	00002192 	muleq	r0, r2, r1
    2ff0:	05310002 	ldreq	r0, [r1, #-2]!
    2ff4:	01040000 	tsteq	r4, r0
    2ff8:	00000331 	andeq	r0, r0, r1, lsr r3
    2ffc:	00166001 	andseq	r6, r6, r1
    3000:	0002af00 	andeq	sl, r2, r0, lsl #30
    3004:	000afc00 	andeq	pc, sl, r0, lsl #24
    3008:	0011e400 	andseq	lr, r1, r0, lsl #8
    300c:	0004cc00 	andeq	ip, r4, r0, lsl #24
    3010:	06010200 	streq	r0, [r1], -r0, lsl #4
    3014:	000001a5 	andeq	r0, r0, r5, lsr #3
    3018:	00031703 	andeq	r1, r3, r3, lsl #14
    301c:	370f0200 	strcc	r0, [pc, -r0, lsl #4]
    3020:	02000000 	andeq	r0, r0, #0
    3024:	01a30801 			; <UNDEFINED> instruction: 0x01a30801
    3028:	02020000 	andeq	r0, r2, #0
    302c:	00007005 	andeq	r7, r0, r5
    3030:	07020200 	streq	r0, [r2, -r0, lsl #4]
    3034:	0000027e 	andeq	r0, r0, lr, ror r2
    3038:	00020d03 	andeq	r0, r2, r3, lsl #26
    303c:	57120200 	ldrpl	r0, [r2, -r0, lsl #4]
    3040:	04000000 	streq	r0, [r0], #-0
    3044:	6e690504 	cdpvs	5, 6, cr0, cr9, cr4, {0}
    3048:	0a030074 	beq	c3220 <__bss_end+0xbf9b8>
    304c:	02000001 	andeq	r0, r0, #1
    3050:	00006913 	andeq	r6, r0, r3, lsl r9
    3054:	07040200 	streq	r0, [r4, -r0, lsl #4]
    3058:	00000244 	andeq	r0, r0, r4, asr #4
    305c:	36050802 	strcc	r0, [r5], -r2, lsl #16
    3060:	02000001 	andeq	r0, r0, #1
    3064:	023a0708 	eorseq	r0, sl, #8, 14	; 0x200000
    3068:	c8050000 	stmdagt	r5, {}	; <UNPREDICTABLE>
    306c:	0400000f 	streq	r0, [r0], #-15
    3070:	01791603 	cmneq	r9, r3, lsl #12
    3074:	0c060000 	stceq	0, cr0, [r6], {-0}
    3078:	03000000 	movweq	r0, #0
    307c:	00005e18 	andeq	r5, r0, r8, lsl lr
    3080:	1e020400 	cfcpysne	mvf0, mvf2
    3084:	06002302 	streq	r2, [r0], -r2, lsl #6
    3088:	000014a7 	andeq	r1, r0, r7, lsr #9
    308c:	005e1903 	subseq	r1, lr, r3, lsl #18
    3090:	01040000 	tsteq	r4, r0
    3094:	0023021d 	eoreq	r0, r3, sp, lsl r2
    3098:	0011e206 	andseq	lr, r1, r6, lsl #4
    309c:	5e1a0300 	cdppl	3, 1, cr0, cr10, cr0, {0}
    30a0:	04000000 	streq	r0, [r0], #-0
    30a4:	23021c01 	movwcs	r1, #11265	; 0x2c01
    30a8:	03d70600 	bicseq	r0, r7, #0, 12
    30ac:	1b030000 	blne	c30b4 <__bss_end+0xbf84c>
    30b0:	0000005e 	andeq	r0, r0, lr, asr r0
    30b4:	021a0204 	andseq	r0, sl, #4, 4	; 0x40000000
    30b8:	f4060023 	vst4.8	{d0-d3}, [r6 :128], r3
    30bc:	03000005 	movweq	r0, #5
    30c0:	00005e1c 	andeq	r5, r0, ip, lsl lr
    30c4:	18020400 	stmdane	r2, {sl}
    30c8:	06002302 	streq	r2, [r0], -r2, lsl #6
    30cc:	00000014 	andeq	r0, r0, r4, lsl r0
    30d0:	005e1d03 	subseq	r1, lr, r3, lsl #26
    30d4:	05040000 	streq	r0, [r4, #-0]
    30d8:	00230213 	eoreq	r0, r3, r3, lsl r2
    30dc:	00151406 	andseq	r1, r5, r6, lsl #8
    30e0:	5e1e0300 	cdppl	3, 1, cr0, cr14, cr0, {0}
    30e4:	04000000 	streq	r0, [r0], #-0
    30e8:	23021003 	movwcs	r1, #8195	; 0x2003
    30ec:	0c130600 	ldceq	6, cr0, [r3], {-0}
    30f0:	1f030000 	svcne	0x00030000
    30f4:	0000005e 	andeq	r0, r0, lr, asr r0
    30f8:	020e0204 	andeq	r0, lr, #4, 4	; 0x40000000
    30fc:	fe060023 	cdp2	0, 0, cr0, cr6, cr3, {1}
    3100:	03000005 	movweq	r0, #5
    3104:	00005e20 	andeq	r5, r0, r0, lsr #28
    3108:	0c020400 	cfstrseq	mvf0, [r2], {-0}
    310c:	06002302 	streq	r2, [r0], -r2, lsl #6
    3110:	00001377 	andeq	r1, r0, r7, ror r3
    3114:	005e2103 	subseq	r2, lr, r3, lsl #2
    3118:	05040000 	streq	r0, [r4, #-0]
    311c:	00230207 	eoreq	r0, r3, r7, lsl #4
    3120:	00060806 	andeq	r0, r6, r6, lsl #16
    3124:	5e220300 	cdppl	3, 2, cr0, cr2, cr0, {0}
    3128:	04000000 	streq	r0, [r0], #-0
    312c:	23020601 	movwcs	r0, #9729	; 0x2601
    3130:	12320600 	eorsne	r0, r2, #0, 12
    3134:	23030000 	movwcs	r0, #12288	; 0x3000
    3138:	0000005e 	andeq	r0, r0, lr, asr r0
    313c:	02020404 	andeq	r0, r2, #4, 8	; 0x4000000
    3140:	35060023 	strcc	r0, [r6, #-35]	; 0xffffffdd
    3144:	0300000f 	movweq	r0, #15
    3148:	00005e24 	andeq	r5, r0, r4, lsr #28
    314c:	01010400 	tsteq	r1, r0, lsl #8
    3150:	06002302 	streq	r2, [r0], -r2, lsl #6
    3154:	00001310 	andeq	r1, r0, r0, lsl r3
    3158:	005e2503 	subseq	r2, lr, r3, lsl #10
    315c:	01040000 	tsteq	r4, r0
    3160:	00230200 	eoreq	r0, r3, r0, lsl #4
    3164:	0d900300 	ldceq	3, cr0, [r0]
    3168:	27030000 	strcs	r0, [r3, -r0]
    316c:	0000007e 	andeq	r0, r0, lr, ror r0
    3170:	00145405 	andseq	r5, r4, r5, lsl #8
    3174:	29030400 	stmdbcs	r3, {sl}
    3178:	000001f7 	strdeq	r0, [r0], -r7
    317c:	0005f406 	andeq	pc, r5, r6, lsl #8
    3180:	5e2b0300 	cdppl	3, 2, cr0, cr11, cr0, {0}
    3184:	04000000 	streq	r0, [r0], #-0
    3188:	23021010 	movwcs	r1, #8208	; 0x2010
    318c:	13640600 	cmnne	r4, #0, 12
    3190:	2c030000 	stccs	0, cr0, [r3], {-0}
    3194:	0000005e 	andeq	r0, r0, lr, asr r0
    3198:	02090704 	andeq	r0, r9, #4, 14	; 0x100000
    319c:	bd060023 	stclt	0, cr0, [r6, #-140]	; 0xffffff74
    31a0:	03000008 	movweq	r0, #8
    31a4:	00005e2d 	andeq	r5, r0, sp, lsr #28
    31a8:	06030400 	streq	r0, [r3], -r0, lsl #8
    31ac:	06002302 	streq	r2, [r0], -r2, lsl #6
    31b0:	0000157b 	andeq	r1, r0, fp, ror r5
    31b4:	005e2e03 	subseq	r2, lr, r3, lsl #28
    31b8:	01040000 	tsteq	r4, r0
    31bc:	00230205 	eoreq	r0, r3, r5, lsl #4
    31c0:	0009dc06 	andeq	sp, r9, r6, lsl #24
    31c4:	5e2f0300 	cdppl	3, 2, cr0, cr15, cr0, {0}
    31c8:	04000000 	streq	r0, [r0], #-0
    31cc:	23020401 	movwcs	r0, #9217	; 0x2401
    31d0:	0d550600 	ldcleq	6, cr0, [r5, #-0]
    31d4:	30030000 	andcc	r0, r3, r0
    31d8:	0000005e 	andeq	r0, r0, lr, asr r0
    31dc:	02000404 	andeq	r0, r0, #4, 8	; 0x4000000
    31e0:	03000023 	movweq	r0, #35	; 0x23
    31e4:	00000a79 	andeq	r0, r0, r9, ror sl
    31e8:	01843103 	orreq	r3, r4, r3, lsl #2
    31ec:	7f050000 	svcvc	0x00050000
    31f0:	0400000f 	streq	r0, [r0], #-15
    31f4:	02a83403 	adceq	r3, r8, #50331648	; 0x3000000
    31f8:	45060000 	strmi	r0, [r6, #-0]
    31fc:	03000015 	movweq	r0, #21
    3200:	00005e36 	andeq	r5, r0, r6, lsr lr
    3204:	1b050400 	blne	14420c <__bss_end+0x1409a4>
    3208:	06002302 	streq	r2, [r0], -r2, lsl #6
    320c:	000005f4 	strdeq	r0, [r0], -r4
    3210:	005e3703 	subseq	r3, lr, r3, lsl #14
    3214:	03040000 	movweq	r0, #16384	; 0x4000
    3218:	00230218 	eoreq	r0, r3, r8, lsl r2
    321c:	00001406 	andeq	r1, r0, r6, lsl #8
    3220:	5e380300 	cdppl	3, 3, cr0, cr8, cr0, {0}
    3224:	04000000 	streq	r0, [r0], #-0
    3228:	23021107 	movwcs	r1, #8455	; 0x2107
    322c:	05fe0600 	ldrbeq	r0, [lr, #1536]!	; 0x600
    3230:	39030000 	stmdbcc	r3, {}	; <UNPREDICTABLE>
    3234:	0000005e 	andeq	r0, r0, lr, asr r0
    3238:	02100104 	andseq	r0, r0, #4, 2
    323c:	77060023 	strvc	r0, [r6, -r3, lsr #32]
    3240:	03000013 	movweq	r0, #19
    3244:	00005e3a 	andeq	r5, r0, sl, lsr lr
    3248:	0b050400 	bleq	144250 <__bss_end+0x1409e8>
    324c:	06002302 	streq	r2, [r0], -r2, lsl #6
    3250:	0000153d 	andeq	r1, r0, sp, lsr r5
    3254:	005e3b03 	subseq	r3, lr, r3, lsl #22
    3258:	05040000 	streq	r0, [r4, #-0]
    325c:	00230206 	eoreq	r0, r3, r6, lsl #4
    3260:	00092806 	andeq	r2, r9, r6, lsl #16
    3264:	5e3c0300 	cdppl	3, 3, cr0, cr12, cr0, {0}
    3268:	04000000 	streq	r0, [r0], #-0
    326c:	23020204 	movwcs	r0, #8708	; 0x2204
    3270:	06080600 	streq	r0, [r8], -r0, lsl #12
    3274:	3d030000 	stccc	0, cr0, [r3, #-0]
    3278:	0000005e 	andeq	r0, r0, lr, asr r0
    327c:	02010104 	andeq	r0, r1, #4, 2
    3280:	10060023 	andne	r0, r6, r3, lsr #32
    3284:	03000013 	movweq	r0, #19
    3288:	00005e3e 	andeq	r5, r0, lr, lsr lr
    328c:	00010400 	andeq	r0, r1, r0, lsl #8
    3290:	00002302 	andeq	r2, r0, r2, lsl #6
    3294:	000bd703 	andeq	sp, fp, r3, lsl #14
    3298:	023f0300 	eorseq	r0, pc, #0, 6
    329c:	05000002 	streq	r0, [r0, #-2]
    32a0:	000008a2 	andeq	r0, r0, r2, lsr #17
    32a4:	26420304 	strbcs	r0, [r2], -r4, lsl #6
    32a8:	06000003 	streq	r0, [r0], -r3
    32ac:	00000e6d 	andeq	r0, r0, sp, ror #28
    32b0:	005e4403 	subseq	r4, lr, r3, lsl #8
    32b4:	11040000 	tstne	r4, r0
    32b8:	0023020f 	eoreq	r0, r3, pc, lsl #4
    32bc:	00158f06 	andseq	r8, r5, r6, lsl #30
    32c0:	5e450300 	cdppl	3, 4, cr0, cr5, cr0, {0}
    32c4:	04000000 	streq	r0, [r0], #-0
    32c8:	23020d02 	movwcs	r0, #11522	; 0x2d02
    32cc:	05f40600 	ldrbeq	r0, [r4, #1536]!	; 0x600
    32d0:	46030000 	strmi	r0, [r3], -r0
    32d4:	0000005e 	andeq	r0, r0, lr, asr r0
    32d8:	020c0104 	andeq	r0, ip, #4, 2
    32dc:	0a060023 	beq	183370 <__bss_end+0x17fb08>
    32e0:	03000008 	movweq	r0, #8
    32e4:	00005e47 	andeq	r5, r0, r7, asr #28
    32e8:	03090400 	movweq	r0, #37888	; 0x9400
    32ec:	06002302 	streq	r2, [r0], -r2, lsl #6
    32f0:	00000c0a 	andeq	r0, r0, sl, lsl #24
    32f4:	005e4803 	subseq	r4, lr, r3, lsl #16
    32f8:	02040000 	andeq	r0, r4, #0
    32fc:	00230201 	eoreq	r0, r3, r1, lsl #4
    3300:	0014a706 	andseq	sl, r4, r6, lsl #14
    3304:	5e490300 	cdppl	3, 4, cr0, cr9, cr0, {0}
    3308:	04000000 	streq	r0, [r0], #-0
    330c:	23020001 	movwcs	r0, #8193	; 0x2001
    3310:	c5030000 	strgt	r0, [r3, #-0]
    3314:	03000011 	movweq	r0, #17
    3318:	0002b34b 	andeq	fp, r2, fp, asr #6
    331c:	11f30500 	mvnsne	r0, r0, lsl #10
    3320:	03040000 	movweq	r0, #16384	; 0x4000
    3324:	0003f94e 	andeq	pc, r3, lr, asr #18
    3328:	000c0600 	andeq	r0, ip, r0, lsl #12
    332c:	50030000 	andpl	r0, r3, r0
    3330:	0000005e 	andeq	r0, r0, lr, asr r0
    3334:	02190704 	andseq	r0, r9, #4, 14	; 0x100000
    3338:	f4060023 	vst4.8	{d0-d3}, [r6 :128], r3
    333c:	03000005 	movweq	r0, #5
    3340:	00005e51 	andeq	r5, r0, r1, asr lr
    3344:	18010400 	stmdane	r1, {sl}
    3348:	06002302 	streq	r2, [r0], -r2, lsl #6
    334c:	00001377 	andeq	r1, r0, r7, ror r3
    3350:	005e5203 	subseq	r5, lr, r3, lsl #4
    3354:	05040000 	streq	r0, [r4, #-0]
    3358:	00230213 	eoreq	r0, r3, r3, lsl r2
    335c:	0005fe06 	andeq	pc, r5, r6, lsl #28
    3360:	5e530300 	cdppl	3, 5, cr0, cr3, cr0, {0}
    3364:	04000000 	streq	r0, [r0], #-0
    3368:	23021201 	movwcs	r1, #8705	; 0x2201
    336c:	0efd0600 	cdpeq	6, 15, cr0, cr13, cr0, {0}
    3370:	54030000 	strpl	r0, [r3], #-0
    3374:	0000005e 	andeq	r0, r0, lr, asr r0
    3378:	02110104 	andseq	r0, r1, #4, 2
    337c:	ef060023 	svc	0x00060023
    3380:	03000010 	movweq	r0, #16
    3384:	00005e55 	andeq	r5, r0, r5, asr lr
    3388:	10010400 	andne	r0, r1, r0, lsl #8
    338c:	06002302 	streq	r2, [r0], -r2, lsl #6
    3390:	00001232 	andeq	r1, r0, r2, lsr r2
    3394:	005e5603 	subseq	r5, lr, r3, lsl #12
    3398:	05040000 	streq	r0, [r4, #-0]
    339c:	0023020b 	eoreq	r0, r3, fp, lsl #4
    33a0:	00060806 	andeq	r0, r6, r6, lsl #16
    33a4:	5e570300 	cdppl	3, 5, cr0, cr7, cr0, {0}
    33a8:	04000000 	streq	r0, [r0], #-0
    33ac:	23020803 	movwcs	r0, #10243	; 0x2803
    33b0:	0d550600 	ldcleq	6, cr0, [r5, #-0]
    33b4:	58030000 	stmdapl	r3, {}	; <UNPREDICTABLE>
    33b8:	0000005e 	andeq	r0, r0, lr, asr r0
    33bc:	02050304 	andeq	r0, r5, #4, 6	; 0x10000000
    33c0:	12060023 	andne	r0, r6, #35	; 0x23
    33c4:	03000006 	movweq	r0, #6
    33c8:	00005e59 	andeq	r5, r0, r9, asr lr
    33cc:	01040400 	tsteq	r4, r0, lsl #8
    33d0:	06002302 	streq	r2, [r0], -r2, lsl #6
    33d4:	00001310 	andeq	r1, r0, r0, lsl r3
    33d8:	005e5a03 	subseq	r5, lr, r3, lsl #20
    33dc:	01040000 	tsteq	r4, r0
    33e0:	00230200 	eoreq	r0, r3, r0, lsl #4
    33e4:	10140300 	andsne	r0, r4, r0, lsl #6
    33e8:	5b030000 	blpl	c33f0 <__bss_end+0xbfb88>
    33ec:	00000331 	andeq	r0, r0, r1, lsr r3
    33f0:	000a9605 	andeq	r9, sl, r5, lsl #12
    33f4:	5e030400 	cfcpyspl	mvf0, mvf3
    33f8:	000004ff 	strdeq	r0, [r0], -pc	; <UNPREDICTABLE>
    33fc:	00000c06 	andeq	r0, r0, r6, lsl #24
    3400:	5e600300 	cdppl	3, 6, cr0, cr0, cr0, {0}
    3404:	04000000 	streq	r0, [r0], #-0
    3408:	23021e02 	movwcs	r1, #11778	; 0x2e02
    340c:	05f40600 	ldrbeq	r0, [r4, #1536]!	; 0x600
    3410:	61030000 	tstvs	r3, r0
    3414:	0000005e 	andeq	r0, r0, lr, asr r0
    3418:	021c0204 	andseq	r0, ip, #4, 4	; 0x40000000
    341c:	d7060023 	strle	r0, [r6, -r3, lsr #32]
    3420:	03000003 	movweq	r0, #3
    3424:	00005e62 	andeq	r5, r0, r2, ror #28
    3428:	1a020400 	bne	84430 <__bss_end+0x80bc8>
    342c:	06002302 	streq	r2, [r0], -r2, lsl #6
    3430:	000005fe 	strdeq	r0, [r0], -lr
    3434:	005e6303 	subseq	r6, lr, r3, lsl #6
    3438:	02040000 	andeq	r0, r4, #0
    343c:	00230218 	eoreq	r0, r3, r8, lsl r2
    3440:	00001406 	andeq	r1, r0, r6, lsl #8
    3444:	5e640300 	cdppl	3, 6, cr0, cr4, cr0, {0}
    3448:	04000000 	streq	r0, [r0], #-0
    344c:	23021305 	movwcs	r1, #8965	; 0x2305
    3450:	06080600 	streq	r0, [r8], -r0, lsl #12
    3454:	65030000 	strvs	r0, [r3, #-0]
    3458:	0000005e 	andeq	r0, r0, lr, asr r0
    345c:	02120104 	andseq	r0, r2, #4, 2
    3460:	7d060023 	stcvc	0, cr0, [r6, #-140]	; 0xffffff74
    3464:	0300000d 	movweq	r0, #13
    3468:	00005e66 	andeq	r5, r0, r6, ror #28
    346c:	10020400 	andne	r0, r2, r0, lsl #8
    3470:	06002302 	streq	r2, [r0], -r2, lsl #6
    3474:	0000001c 	andeq	r0, r0, ip, lsl r0
    3478:	005e6703 	subseq	r6, lr, r3, lsl #14
    347c:	02040000 	andeq	r0, r4, #0
    3480:	0023020e 	eoreq	r0, r3, lr, lsl #4
    3484:	00061206 	andeq	r1, r6, r6, lsl #4
    3488:	5e680300 	cdppl	3, 6, cr0, cr8, cr0, {0}
    348c:	04000000 	streq	r0, [r0], #-0
    3490:	23020d01 	movwcs	r0, #11521	; 0x2d01
    3494:	157b0600 	ldrbne	r0, [fp, #-1536]!	; 0xfffffa00
    3498:	69030000 	stmdbvs	r3, {}	; <UNPREDICTABLE>
    349c:	0000005e 	andeq	r0, r0, lr, asr r0
    34a0:	020c0104 	andeq	r0, ip, #4, 2
    34a4:	77060023 	strvc	r0, [r6, -r3, lsr #32]
    34a8:	03000013 	movweq	r0, #19
    34ac:	00005e6a 	andeq	r5, r0, sl, ror #28
    34b0:	07050400 	streq	r0, [r5, -r0, lsl #8]
    34b4:	06002302 	streq	r2, [r0], -r2, lsl #6
    34b8:	00001232 	andeq	r1, r0, r2, lsr r2
    34bc:	005e6b03 	subseq	r6, lr, r3, lsl #22
    34c0:	05040000 	streq	r0, [r4, #-0]
    34c4:	00230202 	eoreq	r0, r3, r2, lsl #4
    34c8:	000ee806 	andeq	lr, lr, r6, lsl #16
    34cc:	5e6c0300 	cdppl	3, 6, cr0, cr12, cr0, {0}
    34d0:	04000000 	streq	r0, [r0], #-0
    34d4:	23020101 	movwcs	r0, #8449	; 0x2101
    34d8:	13100600 	tstne	r0, #0, 12
    34dc:	6d030000 	stcvs	0, cr0, [r3, #-0]
    34e0:	0000005e 	andeq	r0, r0, lr, asr r0
    34e4:	02000104 	andeq	r0, r0, #4, 2
    34e8:	03000023 	movweq	r0, #35	; 0x23
    34ec:	000015ba 			; <UNDEFINED> instruction: 0x000015ba
    34f0:	04046e03 	streq	r6, [r4], #-3587	; 0xfffff1fd
    34f4:	59050000 	stmdbpl	r5, {}	; <UNPREDICTABLE>
    34f8:	0400000a 	streq	r0, [r0], #-10
    34fc:	06167103 	ldreq	r7, [r6], -r3, lsl #2
    3500:	0c060000 	stceq	0, cr0, [r6], {-0}
    3504:	03000000 	movweq	r0, #0
    3508:	00005e73 	andeq	r5, r0, r3, ror lr
    350c:	1e020400 	cfcpysne	mvf0, mvf2
    3510:	06002302 	streq	r2, [r0], -r2, lsl #6
    3514:	0000142a 	andeq	r1, r0, sl, lsr #8
    3518:	005e7403 	subseq	r7, lr, r3, lsl #8
    351c:	02040000 	andeq	r0, r4, #0
    3520:	0023021c 	eoreq	r0, r3, ip, lsl r2
    3524:	0003d706 	andeq	sp, r3, r6, lsl #14
    3528:	5e750300 	cdppl	3, 7, cr0, cr5, cr0, {0}
    352c:	04000000 	streq	r0, [r0], #-0
    3530:	23021a02 	movwcs	r1, #10754	; 0x2a02
    3534:	05f40600 	ldrbeq	r0, [r4, #1536]!	; 0x600
    3538:	76030000 	strvc	r0, [r3], -r0
    353c:	0000005e 	andeq	r0, r0, lr, asr r0
    3540:	02190104 	andseq	r0, r9, #4, 2
    3544:	23060023 	movwcs	r0, #24611	; 0x6023
    3548:	03000014 	movweq	r0, #20
    354c:	00005e77 	andeq	r5, r0, r7, ror lr
    3550:	18010400 	stmdane	r1, {sl}
    3554:	06002302 	streq	r2, [r0], -r2, lsl #6
    3558:	00000014 	andeq	r0, r0, r4, lsl r0
    355c:	005e7803 	subseq	r7, lr, r3, lsl #16
    3560:	05040000 	streq	r0, [r4, #-0]
    3564:	00230213 	eoreq	r0, r3, r3, lsl r2
    3568:	00157b06 	andseq	r7, r5, r6, lsl #22
    356c:	5e790300 	cdppl	3, 7, cr0, cr9, cr0, {0}
    3570:	04000000 	streq	r0, [r0], #-0
    3574:	23021003 	movwcs	r1, #8195	; 0x2003
    3578:	001c0600 	andseq	r0, ip, r0, lsl #12
    357c:	7a030000 	bvc	c3584 <__bss_end+0xbfd1c>
    3580:	0000005e 	andeq	r0, r0, lr, asr r0
    3584:	020e0204 	andeq	r0, lr, #4, 4	; 0x40000000
    3588:	dc060023 	stcle	0, cr0, [r6], {35}	; 0x23
    358c:	03000009 	movweq	r0, #9
    3590:	00005e7b 	andeq	r5, r0, fp, ror lr
    3594:	0d010400 	cfstrseq	mvf0, [r1, #-0]
    3598:	06002302 	streq	r2, [r0], -r2, lsl #6
    359c:	0000094d 	andeq	r0, r0, sp, asr #18
    35a0:	005e7c03 	subseq	r7, lr, r3, lsl #24
    35a4:	01040000 	tsteq	r4, r0
    35a8:	0023020c 	eoreq	r0, r3, ip, lsl #4
    35ac:	00137706 	andseq	r7, r3, r6, lsl #14
    35b0:	5e7d0300 	cdppl	3, 7, cr0, cr13, cr0, {0}
    35b4:	04000000 	streq	r0, [r0], #-0
    35b8:	23020705 	movwcs	r0, #9989	; 0x2705
    35bc:	12320600 	eorsne	r0, r2, #0, 12
    35c0:	7e030000 	cdpvc	0, 0, cr0, cr3, cr0, {0}
    35c4:	0000005e 	andeq	r0, r0, lr, asr r0
    35c8:	02030404 	andeq	r0, r3, #4, 8	; 0x4000000
    35cc:	ea060023 	b	183660 <__bss_end+0x17fdf8>
    35d0:	03000011 	movweq	r0, #17
    35d4:	00005e7f 	andeq	r5, r0, pc, ror lr
    35d8:	02010400 	andeq	r0, r1, #0, 8
    35dc:	06002302 	streq	r2, [r0], -r2, lsl #6
    35e0:	00000ee8 	andeq	r0, r0, r8, ror #29
    35e4:	005e8003 	subseq	r8, lr, r3
    35e8:	01040000 	tsteq	r4, r0
    35ec:	00230201 	eoreq	r0, r3, r1, lsl #4
    35f0:	00131006 	andseq	r1, r3, r6
    35f4:	5e810300 	cdppl	3, 8, cr0, cr1, cr0, {0}
    35f8:	04000000 	streq	r0, [r0], #-0
    35fc:	23020001 	movwcs	r0, #8193	; 0x2001
    3600:	bd030000 	stclt	0, cr0, [r3, #-0]
    3604:	0300000b 	movweq	r0, #11
    3608:	00050a82 	andeq	r0, r5, r2, lsl #21
    360c:	15600500 	strbne	r0, [r0, #-1280]!	; 0xfffffb00
    3610:	03040000 	movweq	r0, #16384	; 0x4000
    3614:	0006a585 	andeq	sl, r6, r5, lsl #11
    3618:	05f40600 	ldrbeq	r0, [r4, #1536]!	; 0x600
    361c:	87030000 	strhi	r0, [r3, -r0]
    3620:	0000005e 	andeq	r0, r0, lr, asr r0
    3624:	02101004 	andseq	r1, r0, #4
    3628:	64060023 	strvs	r0, [r6], #-35	; 0xffffffdd
    362c:	03000013 	movweq	r0, #19
    3630:	00005e88 	andeq	r5, r0, r8, lsl #29
    3634:	09070400 	stmdbeq	r7, {sl}
    3638:	06002302 	streq	r2, [r0], -r2, lsl #6
    363c:	00000f35 	andeq	r0, r0, r5, lsr pc
    3640:	005e8903 	subseq	r8, lr, r3, lsl #18
    3644:	01040000 	tsteq	r4, r0
    3648:	00230208 	eoreq	r0, r3, r8, lsl #4
    364c:	00151406 	andseq	r1, r5, r6, lsl #8
    3650:	5e8a0300 	cdppl	3, 8, cr0, cr10, cr0, {0}
    3654:	04000000 	streq	r0, [r0], #-0
    3658:	23020503 	movwcs	r0, #9475	; 0x2503
    365c:	05fe0600 	ldrbeq	r0, [lr, #1536]!	; 0x600
    3660:	8b030000 	blhi	c3668 <__bss_end+0xbfe00>
    3664:	0000005e 	andeq	r0, r0, lr, asr r0
    3668:	02040104 	andeq	r0, r4, #4, 2
    366c:	d4060023 	strle	r0, [r6], #-35	; 0xffffffdd
    3670:	03000013 	movweq	r0, #19
    3674:	00005e8c 	andeq	r5, r0, ip, lsl #29
    3678:	03010400 	movweq	r0, #5120	; 0x1400
    367c:	06002302 	streq	r2, [r0], -r2, lsl #6
    3680:	00000d55 	andeq	r0, r0, r5, asr sp
    3684:	005e8d03 	subseq	r8, lr, r3, lsl #26
    3688:	03040000 	movweq	r0, #16384	; 0x4000
    368c:	00230200 	eoreq	r0, r3, r0, lsl #4
    3690:	0fab0300 	svceq	0x00ab0300
    3694:	8e030000 	cdphi	0, 0, cr0, cr3, cr0, {0}
    3698:	00000621 	andeq	r0, r0, r1, lsr #12
    369c:	000b1c05 	andeq	r1, fp, r5, lsl #24
    36a0:	90030400 	andls	r0, r3, r0, lsl #8
    36a4:	00000789 	andeq	r0, r0, r9, lsl #15
    36a8:	00000c06 	andeq	r0, r0, r6, lsl #24
    36ac:	5e920300 	cdppl	3, 9, cr0, cr2, cr0, {0}
    36b0:	04000000 	streq	r0, [r0], #-0
    36b4:	23021e02 	movwcs	r1, #11778	; 0x2e02
    36b8:	05f40600 	ldrbeq	r0, [r4, #1536]!	; 0x600
    36bc:	93030000 	movwls	r0, #12288	; 0x3000
    36c0:	0000005e 	andeq	r0, r0, lr, asr r0
    36c4:	021c0204 	andseq	r0, ip, #4, 4	; 0x40000000
    36c8:	d7060023 	strle	r0, [r6, -r3, lsr #32]
    36cc:	03000003 	movweq	r0, #3
    36d0:	00005e94 	muleq	r0, r4, lr
    36d4:	1a020400 	bne	846dc <__bss_end+0x80e74>
    36d8:	06002302 	streq	r2, [r0], -r2, lsl #6
    36dc:	00000d55 	andeq	r0, r0, r5, asr sp
    36e0:	005e9503 	subseq	r9, lr, r3, lsl #10
    36e4:	02040000 	andeq	r0, r4, #0
    36e8:	00230218 	eoreq	r0, r3, r8, lsl r2
    36ec:	00001406 	andeq	r1, r0, r6, lsl #8
    36f0:	5e960300 	cdppl	3, 9, cr0, cr6, cr0, {0}
    36f4:	04000000 	streq	r0, [r0], #-0
    36f8:	23021305 	movwcs	r1, #8965	; 0x2305
    36fc:	05fe0600 	ldrbeq	r0, [lr, #1536]!	; 0x600
    3700:	97030000 	strls	r0, [r3, -r0]
    3704:	0000005e 	andeq	r0, r0, lr, asr r0
    3708:	02110204 	andseq	r0, r1, #4, 4	; 0x40000000
    370c:	dc060023 	stcle	0, cr0, [r6], {35}	; 0x23
    3710:	03000009 	movweq	r0, #9
    3714:	00005e98 	muleq	r0, r8, lr
    3718:	10010400 	andne	r0, r1, r0, lsl #8
    371c:	06002302 	streq	r2, [r0], -r2, lsl #6
    3720:	00000608 	andeq	r0, r0, r8, lsl #12
    3724:	005e9903 	subseq	r9, lr, r3, lsl #18
    3728:	04040000 	streq	r0, [r4], #-0
    372c:	0023020c 	eoreq	r0, r3, ip, lsl #4
    3730:	00137706 	andseq	r7, r3, r6, lsl #14
    3734:	5e9a0300 	cdppl	3, 9, cr0, cr10, cr0, {0}
    3738:	04000000 	streq	r0, [r0], #-0
    373c:	23020705 	movwcs	r0, #9989	; 0x2705
    3740:	12320600 	eorsne	r0, r2, #0, 12
    3744:	9b030000 	blls	c374c <__bss_end+0xbfee4>
    3748:	0000005e 	andeq	r0, r0, lr, asr r0
    374c:	02020504 	andeq	r0, r2, #4, 10	; 0x1000000
    3750:	e8060023 	stmda	r6, {r0, r1, r5}
    3754:	0300000e 	movweq	r0, #14
    3758:	00005e9c 	muleq	r0, ip, lr
    375c:	01010400 	tsteq	r1, r0, lsl #8
    3760:	06002302 	streq	r2, [r0], -r2, lsl #6
    3764:	00001310 	andeq	r1, r0, r0, lsl r3
    3768:	005e9d03 	subseq	r9, lr, r3, lsl #26
    376c:	01040000 	tsteq	r4, r0
    3770:	00230200 	eoreq	r0, r3, r0, lsl #4
    3774:	09c10300 	stmibeq	r1, {r8, r9}^
    3778:	9e030000 	cdpls	0, 0, cr0, cr3, cr0, {0}
    377c:	000006b0 			; <UNDEFINED> instruction: 0x000006b0
    3780:	0010f705 	andseq	pc, r0, r5, lsl #14
    3784:	a1030400 	tstge	r3, r0, lsl #8
    3788:	0000085c 	andeq	r0, r0, ip, asr r8
    378c:	00000c06 	andeq	r0, r0, r6, lsl #24
    3790:	5ea30300 	cdppl	3, 10, cr0, cr3, cr0, {0}
    3794:	04000000 	streq	r0, [r0], #-0
    3798:	23021907 	movwcs	r1, #10503	; 0x2907
    379c:	05f40600 	ldrbeq	r0, [r4, #1536]!	; 0x600
    37a0:	a4030000 	strge	r0, [r3], #-0
    37a4:	0000005e 	andeq	r0, r0, lr, asr r0
    37a8:	02180104 	andseq	r0, r8, #4, 2
    37ac:	77060023 	strvc	r0, [r6, -r3, lsr #32]
    37b0:	03000013 	movweq	r0, #19
    37b4:	00005ea5 	andeq	r5, r0, r5, lsr #29
    37b8:	13050400 	movwne	r0, #21504	; 0x5400
    37bc:	06002302 	streq	r2, [r0], -r2, lsl #6
    37c0:	000005fe 	strdeq	r0, [r0], -lr
    37c4:	005ea603 	subseq	sl, lr, r3, lsl #12
    37c8:	01040000 	tsteq	r4, r0
    37cc:	00230212 	eoreq	r0, r3, r2, lsl r2
    37d0:	000efd06 	andeq	pc, lr, r6, lsl #26
    37d4:	5ea70300 	cdppl	3, 10, cr0, cr7, cr0, {0}
    37d8:	04000000 	streq	r0, [r0], #-0
    37dc:	23021101 	movwcs	r1, #8449	; 0x2101
    37e0:	10ef0600 	rscne	r0, pc, r0, lsl #12
    37e4:	a8030000 	stmdage	r3, {}	; <UNPREDICTABLE>
    37e8:	0000005e 	andeq	r0, r0, lr, asr r0
    37ec:	02100104 	andseq	r0, r0, #4, 2
    37f0:	32060023 	andcc	r0, r6, #35	; 0x23
    37f4:	03000012 	movweq	r0, #18
    37f8:	00005ea9 	andeq	r5, r0, r9, lsr #29
    37fc:	0b050400 	bleq	144804 <__bss_end+0x140f9c>
    3800:	06002302 	streq	r2, [r0], -r2, lsl #6
    3804:	00000608 	andeq	r0, r0, r8, lsl #12
    3808:	005eaa03 	subseq	sl, lr, r3, lsl #20
    380c:	03040000 	movweq	r0, #16384	; 0x4000
    3810:	00230208 	eoreq	r0, r3, r8, lsl #4
    3814:	000d5506 	andeq	r5, sp, r6, lsl #10
    3818:	5eab0300 	cdppl	3, 10, cr0, cr11, cr0, {0}
    381c:	04000000 	streq	r0, [r0], #-0
    3820:	23020503 	movwcs	r0, #9475	; 0x2503
    3824:	06120600 	ldreq	r0, [r2], -r0, lsl #12
    3828:	ac030000 	stcge	0, cr0, [r3], {-0}
    382c:	0000005e 	andeq	r0, r0, lr, asr r0
    3830:	02010404 	andeq	r0, r1, #4, 8	; 0x4000000
    3834:	10060023 	andne	r0, r6, r3, lsr #32
    3838:	03000013 	movweq	r0, #19
    383c:	00005ead 	andeq	r5, r0, sp, lsr #29
    3840:	00010400 	andeq	r0, r1, r0, lsl #8
    3844:	00002302 	andeq	r2, r0, r2, lsl #6
    3848:	0010b603 	andseq	fp, r0, r3, lsl #12
    384c:	94ae0300 	strtls	r0, [lr], #768	; 0x300
    3850:	05000007 	streq	r0, [r0, #-7]
    3854:	000012a9 	andeq	r1, r0, r9, lsr #5
    3858:	dab10304 	ble	fec44470 <__bss_end+0xfec40c08>
    385c:	06000008 	streq	r0, [r0], -r8
    3860:	00000e6d 	andeq	r0, r0, sp, ror #28
    3864:	005eb303 	subseq	fp, lr, r3, lsl #6
    3868:	11040000 	tstne	r4, r0
    386c:	0023020f 	eoreq	r0, r3, pc, lsl #4
    3870:	00158f06 	andseq	r8, r5, r6, lsl #30
    3874:	5eb40300 	cdppl	3, 11, cr0, cr4, cr0, {0}
    3878:	04000000 	streq	r0, [r0], #-0
    387c:	23020d02 	movwcs	r0, #11522	; 0x2d02
    3880:	05f40600 	ldrbeq	r0, [r4, #1536]!	; 0x600
    3884:	b5030000 	strlt	r0, [r3, #-0]
    3888:	0000005e 	andeq	r0, r0, lr, asr r0
    388c:	020c0104 	andeq	r0, ip, #4, 2
    3890:	0a060023 	beq	183924 <__bss_end+0x1800bc>
    3894:	03000008 	movweq	r0, #8
    3898:	00005eb6 			; <UNDEFINED> instruction: 0x00005eb6
    389c:	03090400 	movweq	r0, #37888	; 0x9400
    38a0:	06002302 	streq	r2, [r0], -r2, lsl #6
    38a4:	00000c0a 	andeq	r0, r0, sl, lsl #24
    38a8:	005eb703 	subseq	fp, lr, r3, lsl #14
    38ac:	02040000 	andeq	r0, r4, #0
    38b0:	00230201 	eoreq	r0, r3, r1, lsl #4
    38b4:	0014a706 	andseq	sl, r4, r6, lsl #14
    38b8:	5eb80300 	cdppl	3, 11, cr0, cr8, cr0, {0}
    38bc:	04000000 	streq	r0, [r0], #-0
    38c0:	23020001 	movwcs	r0, #8193	; 0x2001
    38c4:	8a030000 	bhi	c38cc <__bss_end+0xc0064>
    38c8:	03000009 	movweq	r0, #9
    38cc:	000867b9 			; <UNDEFINED> instruction: 0x000867b9
    38d0:	120d0500 	andne	r0, sp, #0, 10
    38d4:	03040000 	movweq	r0, #16384	; 0x4000
    38d8:	000958bc 			; <UNDEFINED> instruction: 0x000958bc
    38dc:	0e6d0600 	cdpeq	6, 6, cr0, cr13, cr0, {0}
    38e0:	be030000 	cdplt	0, 0, cr0, cr3, cr0, {0}
    38e4:	0000005e 	andeq	r0, r0, lr, asr r0
    38e8:	020f1104 	andeq	r1, pc, #4, 2
    38ec:	8f060023 	svchi	0x00060023
    38f0:	03000015 	movweq	r0, #21
    38f4:	00005ebf 			; <UNDEFINED> instruction: 0x00005ebf
    38f8:	0d020400 	cfstrseq	mvf0, [r2, #-0]
    38fc:	06002302 	streq	r2, [r0], -r2, lsl #6
    3900:	000005f4 	strdeq	r0, [r0], -r4
    3904:	005ec003 	subseq	ip, lr, r3
    3908:	01040000 	tsteq	r4, r0
    390c:	0023020c 	eoreq	r0, r3, ip, lsl #4
    3910:	00080a06 	andeq	r0, r8, r6, lsl #20
    3914:	5ec10300 	cdppl	3, 12, cr0, cr1, cr0, {0}
    3918:	04000000 	streq	r0, [r0], #-0
    391c:	23020309 	movwcs	r0, #8969	; 0x2309
    3920:	0c0a0600 	stceq	6, cr0, [sl], {-0}
    3924:	c2030000 	andgt	r0, r3, #0
    3928:	0000005e 	andeq	r0, r0, lr, asr r0
    392c:	02010204 	andeq	r0, r1, #4, 4	; 0x40000000
    3930:	a7060023 	strge	r0, [r6, -r3, lsr #32]
    3934:	03000014 	movweq	r0, #20
    3938:	00005ec3 	andeq	r5, r0, r3, asr #29
    393c:	00010400 	andeq	r0, r1, r0, lsl #8
    3940:	00002302 	andeq	r2, r0, r2, lsl #6
    3944:	0013df03 	andseq	sp, r3, r3, lsl #30
    3948:	e5c40300 	strb	r0, [r4, #768]	; 0x300
    394c:	05000008 	streq	r0, [r0, #-8]
    3950:	00001150 	andeq	r1, r0, r0, asr r1
    3954:	1ac70304 	bne	ff1c456c <__bss_end+0xff1c0d04>
    3958:	0600000a 	streq	r0, [r0], -sl
    395c:	000012f0 	strdeq	r1, [r0], -r0
    3960:	005ec903 	subseq	ip, lr, r3, lsl #18
    3964:	01040000 	tsteq	r4, r0
    3968:	0023021f 	eoreq	r0, r3, pc, lsl r2
    396c:	00108d06 	andseq	r8, r0, r6, lsl #26
    3970:	5eca0300 	cdppl	3, 12, cr0, cr10, cr0, {0}
    3974:	04000000 	streq	r0, [r0], #-0
    3978:	23021e01 	movwcs	r1, #11777	; 0x2e01
    397c:	05f40600 	ldrbeq	r0, [r4, #1536]!	; 0x600
    3980:	cb030000 	blgt	c3988 <__bss_end+0xc0120>
    3984:	0000005e 	andeq	r0, r0, lr, asr r0
    3988:	021c0204 	andseq	r0, ip, #4, 4	; 0x40000000
    398c:	db060023 	blle	183a20 <__bss_end+0x1801b8>
    3990:	0300000c 	movweq	r0, #12
    3994:	00005ecc 	andeq	r5, r0, ip, asr #29
    3998:	1b010400 	blne	449a0 <__bss_end+0x41138>
    399c:	06002302 	streq	r2, [r0], -r2, lsl #6
    39a0:	000005fe 	strdeq	r0, [r0], -lr
    39a4:	005ecd03 	subseq	ip, lr, r3, lsl #26
    39a8:	0a040000 	beq	1039b0 <__bss_end+0x100148>
    39ac:	00230211 	eoreq	r0, r3, r1, lsl r2
    39b0:	000f2306 	andeq	r2, pc, r6, lsl #6
    39b4:	5ece0300 	cdppl	3, 12, cr0, cr14, cr0, {0}
    39b8:	04000000 	streq	r0, [r0], #-0
    39bc:	23021001 	movwcs	r1, #8193	; 0x2001
    39c0:	09bb0600 	ldmibeq	fp!, {r9, sl}
    39c4:	cf030000 	svcgt	0x00030000
    39c8:	0000005e 	andeq	r0, r0, lr, asr r0
    39cc:	020f0104 	andeq	r0, pc, #4, 2
    39d0:	57060023 	strpl	r0, [r6, -r3, lsr #32]
    39d4:	03000009 	movweq	r0, #9
    39d8:	00005ed0 	ldrdeq	r5, [r0], -r0
    39dc:	0e010400 	cfcpyseq	mvf0, mvf1
    39e0:	06002302 	streq	r2, [r0], -r2, lsl #6
    39e4:	00000ae3 	andeq	r0, r0, r3, ror #21
    39e8:	005ed103 	subseq	sp, lr, r3, lsl #2
    39ec:	03040000 	movweq	r0, #16384	; 0x4000
    39f0:	0023020b 	eoreq	r0, r3, fp, lsl #4
    39f4:	00118206 	andseq	r8, r1, r6, lsl #4
    39f8:	5ed20300 	cdppl	3, 13, cr0, cr2, cr0, {0}
    39fc:	04000000 	streq	r0, [r0], #-0
    3a00:	2302000b 	movwcs	r0, #8203	; 0x200b
    3a04:	6c030000 	stcvs	0, cr0, [r3], {-0}
    3a08:	0300000b 	movweq	r0, #11
    3a0c:	000963d5 	ldrdeq	r6, [r9], -r5
    3a10:	13300500 	teqne	r0, #0, 10
    3a14:	03040000 	movweq	r0, #16384	; 0x4000
    3a18:	000abad8 	ldrdeq	fp, [sl], -r8
    3a1c:	154d0600 	strbne	r0, [sp, #-1536]	; 0xfffffa00
    3a20:	da030000 	ble	c3a28 <__bss_end+0xc01c0>
    3a24:	0000005e 	andeq	r0, r0, lr, asr r0
    3a28:	021e0204 	andseq	r0, lr, #4, 4	; 0x40000000
    3a2c:	f4060023 	vst4.8	{d0-d3}, [r6 :128], r3
    3a30:	03000005 	movweq	r0, #5
    3a34:	00005edb 	ldrdeq	r5, [r0], -fp
    3a38:	1c020400 	cfstrsne	mvf0, [r2], {-0}
    3a3c:	06002302 	streq	r2, [r0], -r2, lsl #6
    3a40:	00000c83 	andeq	r0, r0, r3, lsl #25
    3a44:	005edc03 	subseq	sp, lr, r3, lsl #24
    3a48:	02040000 	andeq	r0, r4, #0
    3a4c:	0023021a 	eoreq	r0, r3, sl, lsl r2
    3a50:	0015de06 	andseq	sp, r5, r6, lsl #28
    3a54:	5edd0300 	cdppl	3, 13, cr0, cr13, cr0, {0}
    3a58:	04000000 	streq	r0, [r0], #-0
    3a5c:	23021802 	movwcs	r1, #10242	; 0x2802
    3a60:	15d30600 	ldrbne	r0, [r3, #1536]	; 0x600
    3a64:	de030000 	cdple	0, 0, cr0, cr3, cr0, {0}
    3a68:	0000005e 	andeq	r0, r0, lr, asr r0
    3a6c:	02160204 	andseq	r0, r6, #4, 4	; 0x40000000
    3a70:	fe060023 	cdp2	0, 0, cr0, cr6, cr3, {1}
    3a74:	03000005 	movweq	r0, #5
    3a78:	00005edf 	ldrdeq	r5, [r0], -pc	; <UNPREDICTABLE>
    3a7c:	10060400 	andne	r0, r6, r0, lsl #8
    3a80:	06002302 	streq	r2, [r0], -r2, lsl #6
    3a84:	00001583 	andeq	r1, r0, r3, lsl #11
    3a88:	005ee003 	subseq	lr, lr, r3
    3a8c:	02040000 	andeq	r0, r4, #0
    3a90:	0023020e 	eoreq	r0, r3, lr, lsl #4
    3a94:	00060806 	andeq	r0, r6, r6, lsl #16
    3a98:	5ee10300 	cdppl	3, 14, cr0, cr1, cr0, {0}
    3a9c:	04000000 	streq	r0, [r0], #-0
    3aa0:	2302000e 	movwcs	r0, #8206	; 0x200e
    3aa4:	af030000 	svcge	0x00030000
    3aa8:	03000014 	movweq	r0, #20
    3aac:	000a25e2 	andeq	r2, sl, r2, ror #11
    3ab0:	12790500 	rsbsne	r0, r9, #0, 10
    3ab4:	03040000 	movweq	r0, #16384	; 0x4000
    3ab8:	000b38e4 	andeq	r3, fp, r4, ror #17
    3abc:	15d70600 	ldrbne	r0, [r7, #1536]	; 0x600
    3ac0:	e6030000 	str	r0, [r3], -r0
    3ac4:	0000005e 	andeq	r0, r0, lr, asr r0
    3ac8:	021b0504 	andseq	r0, fp, #4, 10	; 0x1000000
    3acc:	f4060023 	vst4.8	{d0-d3}, [r6 :128], r3
    3ad0:	03000005 	movweq	r0, #5
    3ad4:	00005ee7 	andeq	r5, r0, r7, ror #29
    3ad8:	100b0400 	andne	r0, fp, r0, lsl #8
    3adc:	06002302 	streq	r2, [r0], -r2, lsl #6
    3ae0:	00000946 	andeq	r0, r0, r6, asr #18
    3ae4:	005ee803 	subseq	lr, lr, r3, lsl #16
    3ae8:	02040000 	andeq	r0, r4, #0
    3aec:	0023020e 	eoreq	r0, r3, lr, lsl #4
    3af0:	0005fe06 	andeq	pc, r5, r6, lsl #28
    3af4:	5ee90300 	cdppl	3, 14, cr0, cr9, cr0, {0}
    3af8:	04000000 	streq	r0, [r0], #-0
    3afc:	23020806 	movwcs	r0, #10246	; 0x2806
    3b00:	15880600 	strne	r0, [r8, #1536]	; 0x600
    3b04:	ea030000 	b	c3b0c <__bss_end+0xc02a4>
    3b08:	0000005e 	andeq	r0, r0, lr, asr r0
    3b0c:	02060204 	andeq	r0, r6, #4, 4	; 0x40000000
    3b10:	08060023 	stmdaeq	r6, {r0, r1, r5}
    3b14:	03000006 	movweq	r0, #6
    3b18:	00005eeb 	andeq	r5, r0, fp, ror #29
    3b1c:	00060400 	andeq	r0, r6, r0, lsl #8
    3b20:	00002302 	andeq	r2, r0, r2, lsl #6
    3b24:	000aad03 	andeq	sl, sl, r3, lsl #26
    3b28:	c5ec0300 	strbgt	r0, [ip, #768]!	; 0x300
    3b2c:	0500000a 	streq	r0, [r0, #-10]
    3b30:	00000f3e 	andeq	r0, r0, lr, lsr pc
    3b34:	72ef0304 	rscvc	r0, pc, #4, 6	; 0x10000000
    3b38:	0600000b 	streq	r0, [r0], -fp
    3b3c:	00001030 	andeq	r1, r0, r0, lsr r0
    3b40:	005ef103 	subseq	pc, lr, r3, lsl #2
    3b44:	01040000 	tsteq	r4, r0
    3b48:	0023021f 	eoreq	r0, r3, pc, lsl r2
    3b4c:	0005f406 	andeq	pc, r5, r6, lsl #8
    3b50:	5ef20300 	cdppl	3, 15, cr0, cr2, cr0, {0}
    3b54:	04000000 	streq	r0, [r0], #-0
    3b58:	2302001f 	movwcs	r0, #8223	; 0x201f
    3b5c:	06030000 	streq	r0, [r3], -r0
    3b60:	03000014 	movweq	r0, #20
    3b64:	000b43f3 	strdeq	r4, [fp], -r3
    3b68:	08640500 	stmdaeq	r4!, {r8, sl}^
    3b6c:	03040000 	movweq	r0, #16384	; 0x4000
    3b70:	000d56f6 	strdeq	r5, [sp], -r6
    3b74:	0bb40600 	bleq	fed0537c <__bss_end+0xfed01b14>
    3b78:	f8030000 			; <UNDEFINED> instruction: 0xf8030000
    3b7c:	0000005e 	andeq	r0, r0, lr, asr r0
    3b80:	021f0104 	andseq	r0, pc, #4, 2
    3b84:	5a060023 	bpl	183c18 <__bss_end+0x1803b0>
    3b88:	03000013 	movweq	r0, #19
    3b8c:	00005ef9 	strdeq	r5, [r0], -r9
    3b90:	1e010400 	cfcpysne	mvf0, mvf1
    3b94:	06002302 	streq	r2, [r0], -r2, lsl #6
    3b98:	00001112 	andeq	r1, r0, r2, lsl r1
    3b9c:	005efa03 	subseq	pc, lr, r3, lsl #20
    3ba0:	01040000 	tsteq	r4, r0
    3ba4:	0023021d 	eoreq	r0, r3, sp, lsl r2
    3ba8:	0005f406 	andeq	pc, r5, r6, lsl #8
    3bac:	5efb0300 	cdppl	3, 15, cr0, cr11, cr0, {0}
    3bb0:	04000000 	streq	r0, [r0], #-0
    3bb4:	23021b02 	movwcs	r1, #11010	; 0x2b02
    3bb8:	13880600 	orrne	r0, r8, #0, 12
    3bbc:	fc030000 	stc2	0, cr0, [r3], {-0}
    3bc0:	0000005e 	andeq	r0, r0, lr, asr r0
    3bc4:	021a0104 	andseq	r0, sl, #4, 2
    3bc8:	08060023 	stmdaeq	r6, {r0, r1, r5}
    3bcc:	03000013 	movweq	r0, #19
    3bd0:	00005efd 	strdeq	r5, [r0], -sp
    3bd4:	19010400 	stmdbne	r1, {sl}
    3bd8:	06002302 	streq	r2, [r0], -r2, lsl #6
    3bdc:	00000c69 	andeq	r0, r0, r9, ror #24
    3be0:	005efe03 	subseq	pc, lr, r3, lsl #28
    3be4:	01040000 	tsteq	r4, r0
    3be8:	00230218 	eoreq	r0, r3, r8, lsl r2
    3bec:	000c8d06 	andeq	r8, ip, r6, lsl #26
    3bf0:	5eff0300 	cdppl	3, 15, cr0, cr15, cr0, {0}
    3bf4:	04000000 	streq	r0, [r0], #-0
    3bf8:	23021701 	movwcs	r1, #9985	; 0x2701
    3bfc:	15f10700 	ldrbne	r0, [r1, #1792]!	; 0x700
    3c00:	00030000 	andeq	r0, r3, r0
    3c04:	00005e01 	andeq	r5, r0, r1, lsl #28
    3c08:	16010400 	strne	r0, [r1], -r0, lsl #8
    3c0c:	07002302 	streq	r2, [r0, -r2, lsl #6]
    3c10:	000010ab 	andeq	r1, r0, fp, lsr #1
    3c14:	5e010103 	adfpls	f0, f1, f3
    3c18:	04000000 	streq	r0, [r0], #-0
    3c1c:	23021501 	movwcs	r1, #9473	; 0x2501
    3c20:	05fe0700 	ldrbeq	r0, [lr, #1792]!	; 0x700
    3c24:	02030000 	andeq	r0, r3, #0
    3c28:	00005e01 	andeq	r5, r0, r1, lsl #28
    3c2c:	14010400 	strne	r0, [r1], #-1024	; 0xfffffc00
    3c30:	07002302 	streq	r2, [r0, -r2, lsl #6]
    3c34:	00000b06 	andeq	r0, r0, r6, lsl #22
    3c38:	5e010303 	cdppl	3, 0, cr0, cr1, cr3, {0}
    3c3c:	04000000 	streq	r0, [r0], #-0
    3c40:	23021301 	movwcs	r1, #8961	; 0x2301
    3c44:	137f0700 	cmnne	pc, #0, 14
    3c48:	04030000 	streq	r0, [r3], #-0
    3c4c:	00005e01 	andeq	r5, r0, r1, lsl #28
    3c50:	12010400 	andne	r0, r1, #0, 8
    3c54:	07002302 	streq	r2, [r0, -r2, lsl #6]
    3c58:	00001030 	andeq	r1, r0, r0, lsr r0
    3c5c:	5e010503 	cfsh32pl	mvfx0, mvfx1, #3
    3c60:	04000000 	streq	r0, [r0], #-0
    3c64:	23021101 	movwcs	r1, #8449	; 0x2101
    3c68:	06080700 	streq	r0, [r8], -r0, lsl #14
    3c6c:	06030000 	streq	r0, [r3], -r0
    3c70:	00005e01 	andeq	r5, r0, r1, lsl #28
    3c74:	0f020400 	svceq	0x00020400
    3c78:	07002302 	streq	r2, [r0, -r2, lsl #6]
    3c7c:	00001179 	andeq	r1, r0, r9, ror r1
    3c80:	5e010703 	cdppl	7, 0, cr0, cr1, cr3, {0}
    3c84:	04000000 	streq	r0, [r0], #-0
    3c88:	23020e01 	movwcs	r0, #11777	; 0x2e01
    3c8c:	08880700 	stmeq	r8, {r8, r9, sl}
    3c90:	08030000 	stmdaeq	r3, {}	; <UNPREDICTABLE>
    3c94:	00005e01 	andeq	r5, r0, r1, lsl #28
    3c98:	0d010400 	cfstrseq	mvf0, [r1, #-0]
    3c9c:	07002302 	streq	r2, [r0, -r2, lsl #6]
    3ca0:	00000612 	andeq	r0, r0, r2, lsl r6
    3ca4:	5e010903 	cdppl	9, 0, cr0, cr1, cr3, {0}
    3ca8:	04000000 	streq	r0, [r0], #-0
    3cac:	23020c01 	movwcs	r0, #11265	; 0x2c01
    3cb0:	09300700 	ldmdbeq	r0!, {r8, r9, sl}
    3cb4:	0a030000 	beq	c3cbc <__bss_end+0xc0454>
    3cb8:	00005e01 	andeq	r5, r0, r1, lsl #28
    3cbc:	0b010400 	bleq	44cc4 <__bss_end+0x4145c>
    3cc0:	07002302 	streq	r2, [r0, -r2, lsl #6]
    3cc4:	00000c49 	andeq	r0, r0, r9, asr #24
    3cc8:	5e010b03 	vmlapl.f64	d0, d1, d3
    3ccc:	04000000 	streq	r0, [r0], #-0
    3cd0:	23020a01 	movwcs	r0, #10753	; 0x2a01
    3cd4:	0d6b0700 	stcleq	7, cr0, [fp, #-0]
    3cd8:	0c030000 	stceq	0, cr0, [r3], {-0}
    3cdc:	00005e01 	andeq	r5, r0, r1, lsl #28
    3ce0:	09010400 	stmdbeq	r1, {sl}
    3ce4:	07002302 	streq	r2, [r0, -r2, lsl #6]
    3ce8:	0000061c 	andeq	r0, r0, ip, lsl r6
    3cec:	5e010d03 	cdppl	13, 0, cr0, cr1, cr3, {0}
    3cf0:	04000000 	streq	r0, [r0], #-0
    3cf4:	23020603 	movwcs	r0, #9731	; 0x2603
    3cf8:	14f20700 	ldrbtne	r0, [r2], #1792	; 0x700
    3cfc:	0e030000 	cdpeq	0, 0, cr0, cr3, cr0, {0}
    3d00:	00005e01 	andeq	r5, r0, r1, lsl #28
    3d04:	05010400 	streq	r0, [r1, #-1024]	; 0xfffffc00
    3d08:	07002302 	streq	r2, [r0, -r2, lsl #6]
    3d0c:	00000626 	andeq	r0, r0, r6, lsr #12
    3d10:	5e010f03 	cdppl	15, 0, cr0, cr1, cr3, {0}
    3d14:	04000000 	streq	r0, [r0], #-0
    3d18:	23020401 	movwcs	r0, #9217	; 0x2401
    3d1c:	11700700 	cmnne	r0, r0, lsl #14
    3d20:	10030000 	andne	r0, r3, r0
    3d24:	00005e01 	andeq	r5, r0, r1, lsl #28
    3d28:	03010400 	movweq	r0, #5120	; 0x1400
    3d2c:	07002302 	streq	r2, [r0, -r2, lsl #6]
    3d30:	00000630 	andeq	r0, r0, r0, lsr r6
    3d34:	5e011103 	adfpls	f1, f1, f3
    3d38:	04000000 	streq	r0, [r0], #-0
    3d3c:	23020003 	movwcs	r0, #8195	; 0x2003
    3d40:	13080000 	movwne	r0, #32768	; 0x8000
    3d44:	03000008 	movweq	r0, #8
    3d48:	0b7d0112 	bleq	1f44198 <__bss_end+0x1f40930>
    3d4c:	2d090000 	stccs	0, cr0, [r9, #-0]
    3d50:	0400000c 	streq	r0, [r0], #-12
    3d54:	90011503 	andls	r1, r1, r3, lsl #10
    3d58:	0700000e 	streq	r0, [r0, -lr]
    3d5c:	00000ed9 	ldrdeq	r0, [r0], -r9
    3d60:	5e011703 	cdppl	7, 0, cr1, cr1, cr3, {0}
    3d64:	04000000 	streq	r0, [r0], #-0
    3d68:	23021f01 	movwcs	r1, #12033	; 0x2f01
    3d6c:	05f40700 	ldrbeq	r0, [r4, #1792]!	; 0x700
    3d70:	18030000 	stmdane	r3, {}	; <UNPREDICTABLE>
    3d74:	00005e01 	andeq	r5, r0, r1, lsl #28
    3d78:	1e010400 	cfcpysne	mvf0, mvf1
    3d7c:	07002302 	streq	r2, [r0, -r2, lsl #6]
    3d80:	00000d87 	andeq	r0, r0, r7, lsl #27
    3d84:	5e011903 	cdppl	9, 0, cr1, cr1, cr3, {0}
    3d88:	04000000 	streq	r0, [r0], #-0
    3d8c:	23021d01 	movwcs	r1, #11521	; 0x2d01
    3d90:	05fe0700 	ldrbeq	r0, [lr, #1792]!	; 0x700
    3d94:	1a030000 	bne	c3d9c <__bss_end+0xc0534>
    3d98:	00005e01 	andeq	r5, r0, r1, lsl #28
    3d9c:	1c010400 	cfstrsne	mvf0, [r1], {-0}
    3da0:	07002302 	streq	r2, [r0, -r2, lsl #6]
    3da4:	00000ba6 	andeq	r0, r0, r6, lsr #23
    3da8:	5e011b03 	vmlapl.f64	d1, d1, d3
    3dac:	04000000 	streq	r0, [r0], #-0
    3db0:	23021b01 	movwcs	r1, #11009	; 0x2b01
    3db4:	06080700 	streq	r0, [r8], -r0, lsl #14
    3db8:	1c030000 	stcne	0, cr0, [r3], {-0}
    3dbc:	00005e01 	andeq	r5, r0, r1, lsl #28
    3dc0:	18030400 	stmdane	r3, {sl}
    3dc4:	07002302 	streq	r2, [r0, -r2, lsl #6]
    3dc8:	000015e8 	andeq	r1, r0, r8, ror #11
    3dcc:	5e011d03 	cdppl	13, 0, cr1, cr1, cr3, {0}
    3dd0:	04000000 	streq	r0, [r0], #-0
    3dd4:	23021701 	movwcs	r1, #9985	; 0x2701
    3dd8:	06120700 	ldreq	r0, [r2], -r0, lsl #14
    3ddc:	1e030000 	cdpne	0, 0, cr0, cr3, cr0, {0}
    3de0:	00005e01 	andeq	r5, r0, r1, lsl #28
    3de4:	15020400 	strne	r0, [r2, #-1024]	; 0xfffffc00
    3de8:	07002302 	streq	r2, [r0, -r2, lsl #6]
    3dec:	000013b7 			; <UNDEFINED> instruction: 0x000013b7
    3df0:	5e011f03 	cdppl	15, 0, cr1, cr1, cr3, {0}
    3df4:	04000000 	streq	r0, [r0], #-0
    3df8:	23021401 	movwcs	r1, #9217	; 0x2401
    3dfc:	124e0700 	subne	r0, lr, #0, 14
    3e00:	20030000 	andcs	r0, r3, r0
    3e04:	00005e01 	andeq	r5, r0, r1, lsl #28
    3e08:	13010400 	movwne	r0, #5120	; 0x1400
    3e0c:	07002302 	streq	r2, [r0, -r2, lsl #6]
    3e10:	0000061c 	andeq	r0, r0, ip, lsl r6
    3e14:	5e012103 	adfpls	f2, f1, f3
    3e18:	04000000 	streq	r0, [r0], #-0
    3e1c:	23021201 	movwcs	r1, #8705	; 0x2201
    3e20:	14d80700 	ldrbne	r0, [r8], #1792	; 0x700
    3e24:	22030000 	andcs	r0, r3, #0
    3e28:	00005e01 	andeq	r5, r0, r1, lsl #28
    3e2c:	11010400 	tstne	r1, r0, lsl #8
    3e30:	07002302 	streq	r2, [r0, -r2, lsl #6]
    3e34:	00000626 	andeq	r0, r0, r6, lsr #12
    3e38:	5e012303 	cdppl	3, 0, cr2, cr1, cr3, {0}
    3e3c:	04000000 	streq	r0, [r0], #-0
    3e40:	23020d04 	movwcs	r0, #11524	; 0x2d04
    3e44:	0ea20700 	cdpeq	7, 10, cr0, cr2, cr0, {0}
    3e48:	24030000 	strcs	r0, [r3], #-0
    3e4c:	00005e01 	andeq	r5, r0, r1, lsl #28
    3e50:	0c010400 	cfstrseq	mvf0, [r1], {-0}
    3e54:	07002302 	streq	r2, [r0, -r2, lsl #6]
    3e58:	00001069 	andeq	r1, r0, r9, rrx
    3e5c:	5e012503 	cfsh32pl	mvfx2, mvfx1, #3
    3e60:	04000000 	streq	r0, [r0], #-0
    3e64:	23020b01 	movwcs	r0, #11009	; 0x2b01
    3e68:	06300700 	ldrteq	r0, [r0], -r0, lsl #14
    3e6c:	26030000 	strcs	r0, [r3], -r0
    3e70:	00005e01 	andeq	r5, r0, r1, lsl #28
    3e74:	000b0400 	andeq	r0, fp, r0, lsl #8
    3e78:	00002302 	andeq	r2, r0, r2, lsl #6
    3e7c:	000c9808 	andeq	r9, ip, r8, lsl #16
    3e80:	01270300 	teqeq	r7, r0, lsl #6
    3e84:	00000d62 	andeq	r0, r0, r2, ror #26
    3e88:	0015fc09 	andseq	pc, r5, r9, lsl #24
    3e8c:	2a030400 	bcs	c4e94 <__bss_end+0xc162c>
    3e90:	000f5e01 	andeq	r5, pc, r1, lsl #28
    3e94:	12290700 	eorne	r0, r9, #0, 14
    3e98:	2c030000 	stccs	0, cr0, [r3], {-0}
    3e9c:	00005e01 	andeq	r5, r0, r1, lsl #28
    3ea0:	1f010400 	svcne	0x00010400
    3ea4:	07002302 	streq	r2, [r0, -r2, lsl #6]
    3ea8:	00000e63 	andeq	r0, r0, r3, ror #28
    3eac:	5e012d03 	cdppl	13, 0, cr2, cr1, cr3, {0}
    3eb0:	04000000 	streq	r0, [r0], #-0
    3eb4:	23021e01 	movwcs	r1, #11777	; 0x2e01
    3eb8:	05f40700 	ldrbeq	r0, [r4, #1792]!	; 0x700
    3ebc:	2e030000 	cdpcs	0, 0, cr0, cr3, cr0, {0}
    3ec0:	00005e01 	andeq	r5, r0, r1, lsl #28
    3ec4:	1d010400 	cfstrsne	mvf0, [r1, #-0]
    3ec8:	07002302 	streq	r2, [r0, -r2, lsl #6]
    3ecc:	000012e8 	andeq	r1, r0, r8, ror #5
    3ed0:	5e012f03 	cdppl	15, 0, cr2, cr1, cr3, {0}
    3ed4:	04000000 	streq	r0, [r0], #-0
    3ed8:	23021c01 	movwcs	r1, #11265	; 0x2c01
    3edc:	05fe0700 	ldrbeq	r0, [lr, #1792]!	; 0x700
    3ee0:	30030000 	andcc	r0, r3, r0
    3ee4:	00005e01 	andeq	r5, r0, r1, lsl #28
    3ee8:	1b010400 	blne	44ef0 <__bss_end+0x41688>
    3eec:	07002302 	streq	r2, [r0, -r2, lsl #6]
    3ef0:	0000097a 	andeq	r0, r0, sl, ror r9
    3ef4:	5e013103 	adfpls	f3, f1, f3
    3ef8:	04000000 	streq	r0, [r0], #-0
    3efc:	23021a01 	movwcs	r1, #10753	; 0x2a01
    3f00:	111c0700 	tstne	ip, r0, lsl #14
    3f04:	32030000 	andcc	r0, r3, #0
    3f08:	00005e01 	andeq	r5, r0, r1, lsl #28
    3f0c:	19010400 	stmdbne	r1, {sl}
    3f10:	07002302 	streq	r2, [r0, -r2, lsl #6]
    3f14:	00000608 	andeq	r0, r0, r8, lsl #12
    3f18:	5e013303 	cdppl	3, 0, cr3, cr1, cr3, {0}
    3f1c:	04000000 	streq	r0, [r0], #-0
    3f20:	23021603 	movwcs	r1, #9731	; 0x2603
    3f24:	0d600700 	stcleq	7, cr0, [r0, #-0]
    3f28:	34030000 	strcc	r0, [r3], #-0
    3f2c:	00005e01 	andeq	r5, r0, r1, lsl #28
    3f30:	15010400 	strne	r0, [r1, #-1024]	; 0xfffffc00
    3f34:	07002302 	streq	r2, [r0, -r2, lsl #6]
    3f38:	00000612 	andeq	r0, r0, r2, lsl r6
    3f3c:	5e013503 	cfsh32pl	mvfx3, mvfx1, #3
    3f40:	04000000 	streq	r0, [r0], #-0
    3f44:	23020015 	movwcs	r0, #8213	; 0x2015
    3f48:	43080000 	movwmi	r0, #32768	; 0x8000
    3f4c:	03000010 	movweq	r0, #16
    3f50:	0e9c0136 	mrceq	1, 4, r0, cr12, cr6, {1}
    3f54:	d3090000 	movwle	r0, #36864	; 0x9000
    3f58:	04000010 	streq	r0, [r0], #-16
    3f5c:	1a013903 	bne	52370 <__bss_end+0x4eb08>
    3f60:	07000010 	smladeq	r0, r0, r0, r0
    3f64:	00000c1b 	andeq	r0, r0, fp, lsl ip
    3f68:	5e013b03 	vmlapl.f64	d3, d1, d3
    3f6c:	04000000 	streq	r0, [r0], #-0
    3f70:	23021f01 	movwcs	r1, #12033	; 0x2f01
    3f74:	15990700 	ldrne	r0, [r9, #1792]	; 0x700
    3f78:	3c030000 	stccc	0, cr0, [r3], {-0}
    3f7c:	00005e01 	andeq	r5, r0, r1, lsl #28
    3f80:	1e010400 	cfcpysne	mvf0, mvf1
    3f84:	07002302 	streq	r2, [r0, -r2, lsl #6]
    3f88:	0000103a 	andeq	r1, r0, sl, lsr r0
    3f8c:	5e013d03 	cdppl	13, 0, cr3, cr1, cr3, {0}
    3f90:	04000000 	streq	r0, [r0], #-0
    3f94:	23021d01 	movwcs	r1, #11521	; 0x2d01
    3f98:	05f40700 	ldrbeq	r0, [r4, #1792]!	; 0x700
    3f9c:	3e030000 	cdpcc	0, 0, cr0, cr3, cr0, {0}
    3fa0:	00005e01 	andeq	r5, r0, r1, lsl #28
    3fa4:	100d0400 	andne	r0, sp, r0, lsl #8
    3fa8:	07002302 	streq	r2, [r0, -r2, lsl #6]
    3fac:	00001533 	andeq	r1, r0, r3, lsr r5
    3fb0:	5e013f03 	cdppl	15, 0, cr3, cr1, cr3, {0}
    3fb4:	04000000 	streq	r0, [r0], #-0
    3fb8:	23020f01 	movwcs	r0, #12033	; 0x2f01
    3fbc:	0fe20700 	svceq	0x00e20700
    3fc0:	40030000 	andmi	r0, r3, r0
    3fc4:	00005e01 	andeq	r5, r0, r1, lsl #28
    3fc8:	0e010400 	cfcpyseq	mvf0, mvf1
    3fcc:	07002302 	streq	r2, [r0, -r2, lsl #6]
    3fd0:	00000b35 	andeq	r0, r0, r5, lsr fp
    3fd4:	5e014103 	adfpls	f4, f1, f3
    3fd8:	04000000 	streq	r0, [r0], #-0
    3fdc:	23020d01 	movwcs	r0, #11521	; 0x2d01
    3fe0:	14ce0700 	strbne	r0, [lr], #1792	; 0x700
    3fe4:	42030000 	andmi	r0, r3, #0
    3fe8:	00005e01 	andeq	r5, r0, r1, lsl #28
    3fec:	0c010400 	cfstrseq	mvf0, [r1], {-0}
    3ff0:	07002302 	streq	r2, [r0, -r2, lsl #6]
    3ff4:	000005fe 	strdeq	r0, [r0], -lr
    3ff8:	5e014303 	cdppl	3, 0, cr4, cr1, cr3, {0}
    3ffc:	04000000 	streq	r0, [r0], #-0
    4000:	2302000c 	movwcs	r0, #8204	; 0x200c
    4004:	05080000 	streq	r0, [r8, #-0]
    4008:	0300000f 	movweq	r0, #15
    400c:	0f6a0144 	svceq	0x006a0144
    4010:	8f090000 	svchi	0x00090000
    4014:	0400000e 	streq	r0, [r0], #-14
    4018:	b2014903 	andlt	r4, r1, #49152	; 0xc000
    401c:	07000010 	smladeq	r0, r0, r0, r0
    4020:	000015d7 	ldrdeq	r1, [r0], -r7
    4024:	5e014b03 	vmlapl.f64	d4, d1, d3
    4028:	04000000 	streq	r0, [r0], #-0
    402c:	23021c04 	movwcs	r1, #11268	; 0x2c04
    4030:	05f40700 	ldrbeq	r0, [r4, #1792]!	; 0x700
    4034:	4c030000 	stcmi	0, cr0, [r3], {-0}
    4038:	00005e01 	andeq	r5, r0, r1, lsl #28
    403c:	100c0400 	andne	r0, ip, r0, lsl #8
    4040:	07002302 	streq	r2, [r0, -r2, lsl #6]
    4044:	00000943 	andeq	r0, r0, r3, asr #18
    4048:	5e014d03 	cdppl	13, 0, cr4, cr1, cr3, {0}
    404c:	04000000 	streq	r0, [r0], #-0
    4050:	23020e02 	movwcs	r0, #11778	; 0x2e02
    4054:	05fe0700 	ldrbeq	r0, [lr, #1792]!	; 0x700
    4058:	4e030000 	cdpmi	0, 0, cr0, cr3, cr0, {0}
    405c:	00005e01 	andeq	r5, r0, r1, lsl #28
    4060:	08060400 	stmdaeq	r6, {sl}
    4064:	07002302 	streq	r2, [r0, -r2, lsl #6]
    4068:	00001588 	andeq	r1, r0, r8, lsl #11
    406c:	5e014f03 	cdppl	15, 0, cr4, cr1, cr3, {0}
    4070:	04000000 	streq	r0, [r0], #-0
    4074:	23020602 	movwcs	r0, #9730	; 0x2602
    4078:	06080700 	streq	r0, [r8], -r0, lsl #14
    407c:	50030000 	andpl	r0, r3, r0
    4080:	00005e01 	andeq	r5, r0, r1, lsl #28
    4084:	01050400 	tsteq	r5, r0, lsl #8
    4088:	07002302 	streq	r2, [r0, -r2, lsl #6]
    408c:	00001448 	andeq	r1, r0, r8, asr #8
    4090:	5e015103 	adfpls	f5, f1, f3
    4094:	04000000 	streq	r0, [r0], #-0
    4098:	23020001 	movwcs	r0, #8193	; 0x2001
    409c:	3b080000 	blcc	2040a4 <__bss_end+0x20083c>
    40a0:	03000011 	movweq	r0, #17
    40a4:	10260152 	eorne	r0, r6, r2, asr r1
    40a8:	a8090000 	stmdage	r9, {}	; <UNPREDICTABLE>
    40ac:	04000009 	streq	r0, [r0], #-9
    40b0:	14015703 	strne	r5, [r1], #-1795	; 0xfffff8fd
    40b4:	07000011 	smladeq	r0, r1, r0, r0
    40b8:	000005f4 	strdeq	r0, [r0], -r4
    40bc:	5e015903 	cdppl	9, 0, cr5, cr1, cr3, {0}
    40c0:	04000000 	streq	r0, [r0], #-0
    40c4:	23021010 	movwcs	r1, #8208	; 0x2010
    40c8:	15d70700 	ldrbne	r0, [r7, #1792]	; 0x700
    40cc:	5a030000 	bpl	c40d4 <__bss_end+0xc086c>
    40d0:	00005e01 	andeq	r5, r0, r1, lsl #28
    40d4:	0e020400 	cfcpyseq	mvf0, mvf2
    40d8:	07002302 	streq	r2, [r0, -r2, lsl #6]
    40dc:	000005fe 	strdeq	r0, [r0], -lr
    40e0:	5e015b03 	vmlapl.f64	d5, d1, d3
    40e4:	04000000 	streq	r0, [r0], #-0
    40e8:	2302010d 	movwcs	r0, #8461	; 0x210d
    40ec:	14480700 	strbne	r0, [r8], #-1792	; 0xfffff900
    40f0:	5c030000 	stcpl	0, cr0, [r3], {-0}
    40f4:	00005e01 	andeq	r5, r0, r1, lsl #28
    40f8:	00010400 	andeq	r0, r1, r0, lsl #8
    40fc:	00002302 	andeq	r2, r0, r2, lsl #6
    4100:	000b4508 	andeq	r4, fp, r8, lsl #10
    4104:	015e0300 	cmpeq	lr, r0, lsl #6
    4108:	000010be 	strheq	r1, [r0], -lr
    410c:	00131609 	andseq	r1, r3, r9, lsl #12
    4110:	61030400 	tstvs	r3, r0, lsl #8
    4114:	0011ac01 	andseq	sl, r1, r1, lsl #24
    4118:	15d70700 	ldrbne	r0, [r7, #1792]	; 0x700
    411c:	63030000 	movwvs	r0, #12288	; 0x3000
    4120:	00005e01 	andeq	r5, r0, r1, lsl #28
    4124:	1b050400 	blne	14512c <__bss_end+0x1418c4>
    4128:	07002302 	streq	r2, [r0, -r2, lsl #6]
    412c:	000005f4 	strdeq	r0, [r0], -r4
    4130:	5e016403 	cdppl	4, 0, cr6, cr1, cr3, {0}
    4134:	04000000 	streq	r0, [r0], #-0
    4138:	2302100b 	movwcs	r1, #8203	; 0x200b
    413c:	09430700 	stmdbeq	r3, {r8, r9, sl}^
    4140:	65030000 	strvs	r0, [r3, #-0]
    4144:	00005e01 	andeq	r5, r0, r1, lsl #28
    4148:	0e020400 	cfcpyseq	mvf0, mvf2
    414c:	07002302 	streq	r2, [r0, -r2, lsl #6]
    4150:	000005fe 	strdeq	r0, [r0], -lr
    4154:	5e016603 	cfmadd32pl	mvax0, mvfx6, mvfx1, mvfx3
    4158:	04000000 	streq	r0, [r0], #-0
    415c:	23020806 	movwcs	r0, #10246	; 0x2806
    4160:	15880700 	strne	r0, [r8, #1792]	; 0x700
    4164:	67030000 	strvs	r0, [r3, -r0]
    4168:	00005e01 	andeq	r5, r0, r1, lsl #28
    416c:	06020400 	streq	r0, [r2], -r0, lsl #8
    4170:	07002302 	streq	r2, [r0, -r2, lsl #6]
    4174:	00000608 	andeq	r0, r0, r8, lsl #12
    4178:	5e016803 	cdppl	8, 0, cr6, cr1, cr3, {0}
    417c:	04000000 	streq	r0, [r0], #-0
    4180:	23020105 	movwcs	r0, #8453	; 0x2105
    4184:	14480700 	strbne	r0, [r8], #-1792	; 0xfffff900
    4188:	69030000 	stmdbvs	r3, {}	; <UNPREDICTABLE>
    418c:	00005e01 	andeq	r5, r0, r1, lsl #28
    4190:	00010400 	andeq	r0, r1, r0, lsl #8
    4194:	00002302 	andeq	r2, r0, r2, lsl #6
    4198:	000d3108 	andeq	r3, sp, r8, lsl #2
    419c:	016a0300 	cmneq	sl, r0, lsl #6
    41a0:	00001120 	andeq	r1, r0, r0, lsr #2
    41a4:	000e0609 	andeq	r0, lr, r9, lsl #12
    41a8:	6d030400 	cfstrsvs	mvf0, [r3, #-0]
    41ac:	00124401 	andseq	r4, r2, r1, lsl #8
    41b0:	10a00700 	adcne	r0, r0, r0, lsl #14
    41b4:	6f030000 	svcvs	0x00030000
    41b8:	00005e01 	andeq	r5, r0, r1, lsl #28
    41bc:	1f010400 	svcne	0x00010400
    41c0:	07002302 	streq	r2, [r0, -r2, lsl #6]
    41c4:	00000d10 	andeq	r0, r0, r0, lsl sp
    41c8:	5e017003 	cdppl	0, 0, cr7, cr1, cr3, {0}
    41cc:	04000000 	streq	r0, [r0], #-0
    41d0:	23021e01 	movwcs	r1, #11777	; 0x2e01
    41d4:	05f40700 	ldrbeq	r0, [r4, #1792]!	; 0x700
    41d8:	71030000 	tstvc	r3, r0
    41dc:	00005e01 	andeq	r5, r0, r1, lsl #28
    41e0:	1a040400 	bne	1051e8 <__bss_end+0x101980>
    41e4:	07002302 	streq	r2, [r0, -r2, lsl #6]
    41e8:	00001443 	andeq	r1, r0, r3, asr #8
    41ec:	5e017203 	cdppl	2, 0, cr7, cr1, cr3, {0}
    41f0:	04000000 	streq	r0, [r0], #-0
    41f4:	23021901 	movwcs	r1, #10497	; 0x2901
    41f8:	05fe0700 	ldrbeq	r0, [lr, #1792]!	; 0x700
    41fc:	73030000 	movwvc	r0, #12288	; 0x3000
    4200:	00005e01 	andeq	r5, r0, r1, lsl #28
    4204:	18010400 	stmdane	r1, {sl}
    4208:	07002302 	streq	r2, [r0, -r2, lsl #6]
    420c:	00000e54 	andeq	r0, r0, r4, asr lr
    4210:	5e017403 	cdppl	4, 0, cr7, cr1, cr3, {0}
    4214:	04000000 	streq	r0, [r0], #-0
    4218:	23021701 	movwcs	r1, #9985	; 0x2701
    421c:	06080700 	streq	r0, [r8], -r0, lsl #14
    4220:	75030000 	strvc	r0, [r3, #-0]
    4224:	00005e01 	andeq	r5, r0, r1, lsl #28
    4228:	00170400 	andseq	r0, r7, r0, lsl #8
    422c:	00002302 	andeq	r2, r0, r2, lsl #6
    4230:	000aed08 	andeq	lr, sl, r8, lsl #26
    4234:	01760300 	cmneq	r6, r0, lsl #6
    4238:	000011b8 			; <UNDEFINED> instruction: 0x000011b8
    423c:	00112409 	andseq	r2, r1, r9, lsl #8
    4240:	79030400 	stmdbvc	r3, {sl}
    4244:	0012ca01 	andseq	ip, r2, r1, lsl #20
    4248:	0baf0700 	bleq	febc5e50 <__bss_end+0xfebc25e8>
    424c:	7b030000 	blvc	c4254 <__bss_end+0xc09ec>
    4250:	00005e01 	andeq	r5, r0, r1, lsl #28
    4254:	1d030400 	cfstrsne	mvf0, [r3, #-0]
    4258:	07002302 	streq	r2, [r0, -r2, lsl #6]
    425c:	000005f4 	strdeq	r0, [r0], -r4
    4260:	5e017c03 	cdppl	12, 0, cr7, cr1, cr3, {0}
    4264:	04000000 	streq	r0, [r0], #-0
    4268:	23020815 	movwcs	r0, #10261	; 0x2815
    426c:	15880700 	strne	r0, [r8, #1792]	; 0x700
    4270:	7d030000 	stcvc	0, cr0, [r3, #-0]
    4274:	00005e01 	andeq	r5, r0, r1, lsl #28
    4278:	06020400 	streq	r0, [r2], -r0, lsl #8
    427c:	07002302 	streq	r2, [r0, -r2, lsl #6]
    4280:	000005fe 	strdeq	r0, [r0], -lr
    4284:	5e017e03 	cdppl	14, 0, cr7, cr1, cr3, {0}
    4288:	04000000 	streq	r0, [r0], #-0
    428c:	23020204 	movwcs	r0, #8708	; 0x2204
    4290:	14a10700 	strtne	r0, [r1], #1792	; 0x700
    4294:	7f030000 	svcvc	0x00030000
    4298:	00005e01 	andeq	r5, r0, r1, lsl #28
    429c:	01010400 	tsteq	r1, r0, lsl #8
    42a0:	07002302 	streq	r2, [r0, -r2, lsl #6]
    42a4:	00001448 	andeq	r1, r0, r8, asr #8
    42a8:	5e018003 	cdppl	0, 0, cr8, cr1, cr3, {0}
    42ac:	04000000 	streq	r0, [r0], #-0
    42b0:	23020001 	movwcs	r0, #8193	; 0x2001
    42b4:	e5080000 	str	r0, [r8, #-0]
    42b8:	0300000c 	movweq	r0, #12
    42bc:	12500181 	subsne	r0, r0, #1073741856	; 0x40000020
    42c0:	da090000 	ble	2442c8 <__bss_end+0x240a60>
    42c4:	04000008 	streq	r0, [r0], #-8
    42c8:	aa018403 	bge	652dc <__bss_end+0x61a74>
    42cc:	07000013 	smladeq	r0, r3, r0, r0
    42d0:	00000ed9 	ldrdeq	r0, [r0], -r9
    42d4:	5e018603 	cfmadd32pl	mvax0, mvfx8, mvfx1, mvfx3
    42d8:	04000000 	streq	r0, [r0], #-0
    42dc:	23021f01 	movwcs	r1, #12033	; 0x2f01
    42e0:	15e80700 	strbne	r0, [r8, #1792]!	; 0x700
    42e4:	87030000 	strhi	r0, [r3, -r0]
    42e8:	00005e01 	andeq	r5, r0, r1, lsl #28
    42ec:	1e010400 	cfcpysne	mvf0, mvf1
    42f0:	07002302 	streq	r2, [r0, -r2, lsl #6]
    42f4:	000005f4 	strdeq	r0, [r0], -r4
    42f8:	5e018803 	cdppl	8, 0, cr8, cr1, cr3, {0}
    42fc:	04000000 	streq	r0, [r0], #-0
    4300:	23021d01 	movwcs	r1, #11521	; 0x2d01
    4304:	08880700 	stmeq	r8, {r8, r9, sl}
    4308:	89030000 	stmdbhi	r3, {}	; <UNPREDICTABLE>
    430c:	00005e01 	andeq	r5, r0, r1, lsl #28
    4310:	1c010400 	cfstrsne	mvf0, [r1], {-0}
    4314:	07002302 	streq	r2, [r0, -r2, lsl #6]
    4318:	000005fe 	strdeq	r0, [r0], -lr
    431c:	5e018a03 	vmlapl.f32	s16, s2, s6
    4320:	04000000 	streq	r0, [r0], #-0
    4324:	23021b01 	movwcs	r1, #11009	; 0x2b01
    4328:	0d870700 	stceq	7, cr0, [r7]
    432c:	8b030000 	blhi	c4334 <__bss_end+0xc0acc>
    4330:	00005e01 	andeq	r5, r0, r1, lsl #28
    4334:	1a010400 	bne	4533c <__bss_end+0x41ad4>
    4338:	07002302 	streq	r2, [r0, -r2, lsl #6]
    433c:	00000608 	andeq	r0, r0, r8, lsl #12
    4340:	5e018c03 	cdppl	12, 0, cr8, cr1, cr3, {0}
    4344:	04000000 	streq	r0, [r0], #-0
    4348:	23020713 	movwcs	r0, #10003	; 0x2713
    434c:	14d80700 	ldrbne	r0, [r8], #1792	; 0x700
    4350:	8d030000 	stchi	0, cr0, [r3, #-0]
    4354:	00005e01 	andeq	r5, r0, r1, lsl #28
    4358:	06010400 	streq	r0, [r1], -r0, lsl #8
    435c:	07002302 	streq	r2, [r0, -r2, lsl #6]
    4360:	0000124e 	andeq	r1, r0, lr, asr #4
    4364:	5e018e03 	cdppl	14, 0, cr8, cr1, cr3, {0}
    4368:	04000000 	streq	r0, [r0], #-0
    436c:	23020501 	movwcs	r0, #9473	; 0x2501
    4370:	06120700 	ldreq	r0, [r2], -r0, lsl #14
    4374:	8f030000 	svchi	0x00030000
    4378:	00005e01 	andeq	r5, r0, r1, lsl #28
    437c:	01040400 	tsteq	r4, r0, lsl #8
    4380:	07002302 	streq	r2, [r0, -r2, lsl #6]
    4384:	00000ea2 	andeq	r0, r0, r2, lsr #29
    4388:	5e019003 	cdppl	0, 0, cr9, cr1, cr3, {0}
    438c:	04000000 	streq	r0, [r0], #-0
    4390:	23020001 	movwcs	r0, #8193	; 0x2001
    4394:	0d080000 	stceq	0, cr0, [r8, #-0]
    4398:	03000009 	movweq	r0, #9
    439c:	12d60191 	sbcsne	r0, r6, #1073741860	; 0x40000024
    43a0:	c8090000 	stmdagt	r9, {}	; <UNPREDICTABLE>
    43a4:	04000008 	streq	r0, [r0], #-8
    43a8:	30019603 	andcc	r9, r1, r3, lsl #12
    43ac:	07000014 	smladeq	r0, r4, r0, r0
    43b0:	000015d7 	ldrdeq	r1, [r0], -r7
    43b4:	5e019803 	cdppl	8, 0, cr9, cr1, cr3, {0}
    43b8:	04000000 	streq	r0, [r0], #-0
    43bc:	23021c04 	movwcs	r1, #11268	; 0x2c04
    43c0:	05f40700 	ldrbeq	r0, [r4, #1792]!	; 0x700
    43c4:	99030000 	stmdbls	r3, {}	; <UNPREDICTABLE>
    43c8:	00005e01 	andeq	r5, r0, r1, lsl #28
    43cc:	08140400 	ldmdaeq	r4, {sl}
    43d0:	07002302 	streq	r2, [r0, -r2, lsl #6]
    43d4:	00001588 	andeq	r1, r0, r8, lsl #11
    43d8:	5e019a03 	vmlapl.f32	s18, s2, s6
    43dc:	04000000 	streq	r0, [r0], #-0
    43e0:	23020602 	movwcs	r0, #9730	; 0x2602
    43e4:	05fe0700 	ldrbeq	r0, [lr, #1792]!	; 0x700
    43e8:	9b030000 	blls	c43f0 <__bss_end+0xc0b88>
    43ec:	00005e01 	andeq	r5, r0, r1, lsl #28
    43f0:	02040400 	andeq	r0, r4, #0, 8
    43f4:	07002302 	streq	r2, [r0, -r2, lsl #6]
    43f8:	000014a1 	andeq	r1, r0, r1, lsr #9
    43fc:	5e019c03 	cdppl	12, 0, cr9, cr1, cr3, {0}
    4400:	04000000 	streq	r0, [r0], #-0
    4404:	23020101 	movwcs	r0, #8449	; 0x2101
    4408:	14480700 	strbne	r0, [r8], #-1792	; 0xfffff900
    440c:	9d030000 	stcls	0, cr0, [r3, #-0]
    4410:	00005e01 	andeq	r5, r0, r1, lsl #28
    4414:	00010400 	andeq	r0, r1, r0, lsl #8
    4418:	00002302 	andeq	r2, r0, r2, lsl #6
    441c:	00138f08 	andseq	r8, r3, r8, lsl #30
    4420:	019f0300 	orrseq	r0, pc, r0, lsl #6
    4424:	000013b6 			; <UNDEFINED> instruction: 0x000013b6
    4428:	00150209 	andseq	r0, r5, r9, lsl #4
    442c:	a4030400 	strge	r0, [r3], #-1024	; 0xfffffc00
    4430:	0014b601 	andseq	fp, r4, r1, lsl #12
    4434:	05f40700 	ldrbeq	r0, [r4, #1792]!	; 0x700
    4438:	a6030000 	strge	r0, [r3], -r0
    443c:	00005e01 	andeq	r5, r0, r1, lsl #28
    4440:	08180400 	ldmdaeq	r8, {sl}
    4444:	07002302 	streq	r2, [r0, -r2, lsl #6]
    4448:	00001588 	andeq	r1, r0, r8, lsl #11
    444c:	5e01a703 	cdppl	7, 0, cr10, cr1, cr3, {0}
    4450:	04000000 	streq	r0, [r0], #-0
    4454:	23020602 	movwcs	r0, #9730	; 0x2602
    4458:	05fe0700 	ldrbeq	r0, [lr, #1792]!	; 0x700
    445c:	a8030000 	stmdage	r3, {}	; <UNPREDICTABLE>
    4460:	00005e01 	andeq	r5, r0, r1, lsl #28
    4464:	03030400 	movweq	r0, #13312	; 0x3400
    4468:	07002302 	streq	r2, [r0, -r2, lsl #6]
    446c:	00000841 	andeq	r0, r0, r1, asr #16
    4470:	5e01a903 	cdppl	9, 0, cr10, cr1, cr3, {0}
    4474:	04000000 	streq	r0, [r0], #-0
    4478:	23020201 	movwcs	r0, #8705	; 0x2201
    447c:	149e0700 	ldrne	r0, [lr], #1792	; 0x700
    4480:	aa030000 	bge	c4488 <__bss_end+0xc0c20>
    4484:	00005e01 	andeq	r5, r0, r1, lsl #28
    4488:	01010400 	tsteq	r1, r0, lsl #8
    448c:	07002302 	streq	r2, [r0, -r2, lsl #6]
    4490:	00001448 	andeq	r1, r0, r8, asr #8
    4494:	5e01ab03 	vmlapl.f64	d10, d1, d3
    4498:	04000000 	streq	r0, [r0], #-0
    449c:	23020001 	movwcs	r0, #8193	; 0x2001
    44a0:	f3080000 	vhadd.u8	d0, d8, d0
    44a4:	03000009 	movweq	r0, #9
    44a8:	143c01ad 	ldrtne	r0, [ip], #-429	; 0xfffffe53
    44ac:	99090000 	stmdbls	r9, {}	; <UNPREDICTABLE>
    44b0:	0400000f 	streq	r0, [r0], #-15
    44b4:	7201b203 	andvc	fp, r1, #805306368	; 0x30000000
    44b8:	07000015 	smladeq	r0, r5, r0, r0
    44bc:	000015d7 	ldrdeq	r1, [r0], -r7
    44c0:	5e01b403 	cdppl	4, 0, cr11, cr1, cr3, {0}
    44c4:	04000000 	streq	r0, [r0], #-0
    44c8:	23021c04 	movwcs	r1, #11268	; 0x2c04
    44cc:	05f40700 	ldrbeq	r0, [r4, #1792]!	; 0x700
    44d0:	b5030000 	strlt	r0, [r3, #-0]
    44d4:	00005e01 	andeq	r5, r0, r1, lsl #28
    44d8:	15070400 	strne	r0, [r7, #-1024]	; 0xfffffc00
    44dc:	07002302 	streq	r2, [r0, -r2, lsl #6]
    44e0:	00000a4d 	andeq	r0, r0, sp, asr #20
    44e4:	5e01b603 	cfmadd32pl	mvax0, mvfx11, mvfx1, mvfx3
    44e8:	04000000 	streq	r0, [r0], #-0
    44ec:	23021401 	movwcs	r1, #9217	; 0x2401
    44f0:	05fe0700 	ldrbeq	r0, [lr, #1792]!	; 0x700
    44f4:	b7030000 	strlt	r0, [r3, -r0]
    44f8:	00005e01 	andeq	r5, r0, r1, lsl #28
    44fc:	11030400 	tstne	r3, r0, lsl #8
    4500:	07002302 	streq	r2, [r0, -r2, lsl #6]
    4504:	000012c5 	andeq	r1, r0, r5, asr #5
    4508:	5e01b803 	cdppl	8, 0, cr11, cr1, cr3, {0}
    450c:	04000000 	streq	r0, [r0], #-0
    4510:	23021001 	movwcs	r1, #8193	; 0x2001
    4514:	06080700 	streq	r0, [r8], -r0, lsl #14
    4518:	b9030000 	stmdblt	r3, {}	; <UNPREDICTABLE>
    451c:	00005e01 	andeq	r5, r0, r1, lsl #28
    4520:	08080400 	stmdaeq	r8, {sl}
    4524:	07002302 	streq	r2, [r0, -r2, lsl #6]
    4528:	000012dc 	ldrdeq	r1, [r0], -ip
    452c:	5e01ba03 	vmlapl.f32	s22, s2, s6
    4530:	04000000 	streq	r0, [r0], #-0
    4534:	23020602 	movwcs	r0, #9730	; 0x2602
    4538:	06120700 	ldreq	r0, [r2], -r0, lsl #14
    453c:	bb030000 	bllt	c4544 <__bss_end+0xc0cdc>
    4540:	00005e01 	andeq	r5, r0, r1, lsl #28
    4544:	01050400 	tsteq	r5, r0, lsl #8
    4548:	07002302 	streq	r2, [r0, -r2, lsl #6]
    454c:	00000dab 	andeq	r0, r0, fp, lsr #27
    4550:	5e01bc03 	cdppl	12, 0, cr11, cr1, cr3, {0}
    4554:	04000000 	streq	r0, [r0], #-0
    4558:	23020001 	movwcs	r0, #8193	; 0x2001
    455c:	3a080000 	bcc	204564 <__bss_end+0x200cfc>
    4560:	03000012 	movweq	r0, #18
    4564:	14c201be 	strbne	r0, [r2], #446	; 0x1be
    4568:	22090000 	andcs	r0, r9, #0
    456c:	0400000d 	streq	r0, [r0], #-13
    4570:	f801c303 			; <UNDEFINED> instruction: 0xf801c303
    4574:	07000015 	smladeq	r0, r5, r0, r0
    4578:	000015d7 	ldrdeq	r1, [r0], -r7
    457c:	5e01c503 	cfsh32pl	mvfx12, mvfx1, #3
    4580:	04000000 	streq	r0, [r0], #-0
    4584:	23021b05 	movwcs	r1, #11013	; 0x2b05
    4588:	05f40700 	ldrbeq	r0, [r4, #1792]!	; 0x700
    458c:	c6030000 	strgt	r0, [r3], -r0
    4590:	00005e01 	andeq	r5, r0, r1, lsl #28
    4594:	08130400 	ldmdaeq	r3, {sl}
    4598:	07002302 	streq	r2, [r0, -r2, lsl #6]
    459c:	00001588 	andeq	r1, r0, r8, lsl #11
    45a0:	5e01c703 	cdppl	7, 0, cr12, cr1, cr3, {0}
    45a4:	04000000 	streq	r0, [r0], #-0
    45a8:	23020503 	movwcs	r0, #9475	; 0x2503
    45ac:	05fe0700 	ldrbeq	r0, [lr, #1792]!	; 0x700
    45b0:	c8030000 	stmdagt	r3, {}	; <UNPREDICTABLE>
    45b4:	00005e01 	andeq	r5, r0, r1, lsl #28
    45b8:	02030400 	andeq	r0, r3, #0, 8
    45bc:	07002302 	streq	r2, [r0, -r2, lsl #6]
    45c0:	000014a1 	andeq	r1, r0, r1, lsr #9
    45c4:	5e01c903 	cdppl	9, 0, cr12, cr1, cr3, {0}
    45c8:	04000000 	streq	r0, [r0], #-0
    45cc:	23020101 	movwcs	r0, #8449	; 0x2101
    45d0:	14480700 	strbne	r0, [r8], #-1792	; 0xfffff900
    45d4:	ca030000 	bgt	c45dc <__bss_end+0xc0d74>
    45d8:	00005e01 	andeq	r5, r0, r1, lsl #28
    45dc:	00010400 	andeq	r0, r1, r0, lsl #8
    45e0:	00002302 	andeq	r2, r0, r2, lsl #6
    45e4:	000c7208 	andeq	r7, ip, r8, lsl #4
    45e8:	01cb0300 	biceq	r0, fp, r0, lsl #6
    45ec:	0000157e 	andeq	r1, r0, lr, ror r5
    45f0:	00151d09 	andseq	r1, r5, r9, lsl #26
    45f4:	ce030400 	cfcpysgt	mvf0, mvf3
    45f8:	00166c01 	andseq	r6, r6, r1, lsl #24
    45fc:	14a10700 	strtne	r0, [r1], #1792	; 0x700
    4600:	d0030000 	andle	r0, r3, r0
    4604:	00005e01 	andeq	r5, r0, r1, lsl #28
    4608:	1f010400 	svcne	0x00010400
    460c:	07002302 	streq	r2, [r0, -r2, lsl #6]
    4610:	000005f4 	strdeq	r0, [r0], -r4
    4614:	5e01d103 	mvfpls	f5, f3
    4618:	04000000 	streq	r0, [r0], #-0
    461c:	2302100f 	movwcs	r1, #8207	; 0x200f
    4620:	15d70700 	ldrbne	r0, [r7, #1792]	; 0x700
    4624:	d2030000 	andle	r0, r3, #0
    4628:	00005e01 	andeq	r5, r0, r1, lsl #28
    462c:	0d030400 	cfstrseq	mvf0, [r3, #-0]
    4630:	07002302 	streq	r2, [r0, -r2, lsl #6]
    4634:	000005fe 	strdeq	r0, [r0], -lr
    4638:	5e01d303 	cdppl	3, 0, cr13, cr1, cr3, {0}
    463c:	04000000 	streq	r0, [r0], #-0
    4640:	2302010c 	movwcs	r0, #8460	; 0x210c
    4644:	14480700 	strbne	r0, [r8], #-1792	; 0xfffff900
    4648:	d4030000 	strle	r0, [r3], #-0
    464c:	00005e01 	andeq	r5, r0, r1, lsl #28
    4650:	00010400 	andeq	r0, r1, r0, lsl #8
    4654:	00002302 	andeq	r2, r0, r2, lsl #6
    4658:	0011ad08 	andseq	sl, r1, r8, lsl #26
    465c:	01d50300 	bicseq	r0, r5, r0, lsl #6
    4660:	00001604 	andeq	r1, r0, r4, lsl #12
    4664:	000ff309 	andeq	pc, pc, r9, lsl #6
    4668:	d7030400 	strle	r0, [r3, -r0, lsl #8]
    466c:	0016aa01 	andseq	sl, r6, r1, lsl #20
    4670:	05f40700 	ldrbeq	r0, [r4, #1792]!	; 0x700
    4674:	d9030000 	stmdble	r3, {}	; <UNPREDICTABLE>
    4678:	00005e01 	andeq	r5, r0, r1, lsl #28
    467c:	011f0400 	tsteq	pc, r0, lsl #8
    4680:	07002302 	streq	r2, [r0, -r2, lsl #6]
    4684:	00001448 	andeq	r1, r0, r8, asr #8
    4688:	5e01da03 	vmlapl.f32	s26, s2, s6
    468c:	04000000 	streq	r0, [r0], #-0
    4690:	23020001 	movwcs	r0, #8193	; 0x2001
    4694:	f3080000 	vhadd.u8	d0, d8, d0
    4698:	03000008 	movweq	r0, #8
    469c:	167801db 			; <UNDEFINED> instruction: 0x167801db
    46a0:	f3090000 	vhadd.u8	d0, d9, d0
    46a4:	0400000b 	streq	r0, [r0], #-11
    46a8:	e801dd03 	stmda	r1, {r0, r1, r8, sl, fp, ip, lr, pc}
    46ac:	07000016 	smladeq	r0, r6, r0, r0
    46b0:	000005f4 	strdeq	r0, [r0], -r4
    46b4:	5e01df03 	cdppl	15, 0, cr13, cr1, cr3, {0}
    46b8:	04000000 	streq	r0, [r0], #-0
    46bc:	2302011f 	movwcs	r0, #8479	; 0x211f
    46c0:	14480700 	strbne	r0, [r8], #-1792	; 0xfffff900
    46c4:	e0030000 	and	r0, r3, r0
    46c8:	00005e01 	andeq	r5, r0, r1, lsl #28
    46cc:	00010400 	andeq	r0, r1, r0, lsl #8
    46d0:	00002302 	andeq	r2, r0, r2, lsl #6
    46d4:	00147608 	andseq	r7, r4, r8, lsl #12
    46d8:	01e10300 	mvneq	r0, r0, lsl #6
    46dc:	000016b6 			; <UNDEFINED> instruction: 0x000016b6
    46e0:	00096209 	andeq	r6, r9, r9, lsl #4
    46e4:	e4030400 	str	r0, [r3], #-1024	; 0xfffffc00
    46e8:	00172601 	andseq	r2, r7, r1, lsl #12
    46ec:	14a10700 	strtne	r0, [r1], #1792	; 0x700
    46f0:	e6030000 	str	r0, [r3], -r0
    46f4:	00005e01 	andeq	r5, r0, r1, lsl #28
    46f8:	1f010400 	svcne	0x00010400
    46fc:	07002302 	streq	r2, [r0, -r2, lsl #6]
    4700:	00000151 	andeq	r0, r0, r1, asr r1
    4704:	5e01e703 	cdppl	7, 0, cr14, cr1, cr3, {0}
    4708:	04000000 	streq	r0, [r0], #-0
    470c:	2302001f 	movwcs	r0, #8223	; 0x201f
    4710:	8b080000 	blhi	204718 <__bss_end+0x200eb0>
    4714:	03000011 	movweq	r0, #17
    4718:	16f401e8 	ldrbtne	r0, [r4], r8, ror #3
    471c:	2c090000 	stccs	0, cr0, [r9], {-0}
    4720:	0400000a 	streq	r0, [r0], #-10
    4724:	9a01eb03 	bls	7f338 <__bss_end+0x7bad0>
    4728:	07000017 	smladeq	r0, r7, r0, r0
    472c:	000015d7 	ldrdeq	r1, [r0], -r7
    4730:	5e01ed03 	cdppl	13, 0, cr14, cr1, cr3, {0}
    4734:	04000000 	streq	r0, [r0], #-0
    4738:	23021c04 	movwcs	r1, #11268	; 0x2c04
    473c:	05f40700 	ldrbeq	r0, [r4, #1792]!	; 0x700
    4740:	ee030000 	cdp	0, 0, cr0, cr3, cr0, {0}
    4744:	00005e01 	andeq	r5, r0, r1, lsl #28
    4748:	08140400 	ldmdaeq	r4, {sl}
    474c:	07002302 	streq	r2, [r0, -r2, lsl #6]
    4750:	00001588 	andeq	r1, r0, r8, lsl #11
    4754:	5e01ef03 	cdppl	15, 0, cr14, cr1, cr3, {0}
    4758:	04000000 	streq	r0, [r0], #-0
    475c:	23020602 	movwcs	r0, #9730	; 0x2602
    4760:	05fe0700 	ldrbeq	r0, [lr, #1792]!	; 0x700
    4764:	f0030000 			; <UNDEFINED> instruction: 0xf0030000
    4768:	00005e01 	andeq	r5, r0, r1, lsl #28
    476c:	01050400 	tsteq	r5, r0, lsl #8
    4770:	07002302 	streq	r2, [r0, -r2, lsl #6]
    4774:	00001448 	andeq	r1, r0, r8, asr #8
    4778:	5e01f103 	mvfpls	f7, f3
    477c:	04000000 	streq	r0, [r0], #-0
    4780:	23020001 	movwcs	r0, #8193	; 0x2001
    4784:	4a080000 	bmi	20478c <__bss_end+0x200f24>
    4788:	03000008 	movweq	r0, #8
    478c:	173201f2 			; <UNDEFINED> instruction: 0x173201f2
    4790:	ca090000 	bgt	244798 <__bss_end+0x240f30>
    4794:	0400000d 	streq	r0, [r0], #-13
    4798:	2001f503 	andcs	pc, r1, r3, lsl #10
    479c:	07000018 	smladeq	r0, r8, r0, r0
    47a0:	000015d7 	ldrdeq	r1, [r0], -r7
    47a4:	5e01f703 	cdppl	7, 0, cr15, cr1, cr3, {0}
    47a8:	04000000 	streq	r0, [r0], #-0
    47ac:	23021c04 	movwcs	r1, #11268	; 0x2c04
    47b0:	05f40700 	ldrbeq	r0, [r4, #1792]!	; 0x700
    47b4:	f8030000 			; <UNDEFINED> instruction: 0xf8030000
    47b8:	00005e01 	andeq	r5, r0, r1, lsl #28
    47bc:	08140400 	ldmdaeq	r4, {sl}
    47c0:	07002302 	streq	r2, [r0, -r2, lsl #6]
    47c4:	00001588 	andeq	r1, r0, r8, lsl #11
    47c8:	5e01f903 	cdppl	9, 0, cr15, cr1, cr3, {0}
    47cc:	04000000 	streq	r0, [r0], #-0
    47d0:	23020503 	movwcs	r0, #9475	; 0x2503
    47d4:	05fe0700 	ldrbeq	r0, [lr, #1792]!	; 0x700
    47d8:	fa030000 	blx	c47e0 <__bss_end+0xc0f78>
    47dc:	00005e01 	andeq	r5, r0, r1, lsl #28
    47e0:	02030400 	andeq	r0, r3, #0, 8
    47e4:	07002302 	streq	r2, [r0, -r2, lsl #6]
    47e8:	000014a1 	andeq	r1, r0, r1, lsr #9
    47ec:	5e01fb03 	vmlapl.f64	d15, d1, d3
    47f0:	04000000 	streq	r0, [r0], #-0
    47f4:	23020101 	movwcs	r0, #8449	; 0x2101
    47f8:	14480700 	strbne	r0, [r8], #-1792	; 0xfffff900
    47fc:	fc030000 	stc2	0, cr0, [r3], {-0}
    4800:	00005e01 	andeq	r5, r0, r1, lsl #28
    4804:	00010400 	andeq	r0, r1, r0, lsl #8
    4808:	00002302 	andeq	r2, r0, r2, lsl #6
    480c:	000cb608 	andeq	fp, ip, r8, lsl #12
    4810:	01fd0300 	mvnseq	r0, r0, lsl #6
    4814:	000017a6 	andeq	r1, r0, r6, lsr #15
    4818:	000b8e09 	andeq	r8, fp, r9, lsl #28
    481c:	00030400 	andeq	r0, r3, r0, lsl #8
    4820:	0018b802 	andseq	fp, r8, r2, lsl #16
    4824:	15d70700 	ldrbne	r0, [r7, #1792]	; 0x700
    4828:	02030000 	andeq	r0, r3, #0
    482c:	00005e02 	andeq	r5, r0, r2, lsl #28
    4830:	1c040400 	cfstrsne	mvf0, [r4], {-0}
    4834:	07002302 	streq	r2, [r0, -r2, lsl #6]
    4838:	000005f4 	strdeq	r0, [r0], -r4
    483c:	5e020303 	cdppl	3, 0, cr0, cr2, cr3, {0}
    4840:	04000000 	streq	r0, [r0], #-0
    4844:	2302100c 	movwcs	r1, #8204	; 0x200c
    4848:	09460700 	stmdbeq	r6, {r8, r9, sl}^
    484c:	04030000 	streq	r0, [r3], #-0
    4850:	00005e02 	andeq	r5, r0, r2, lsl #28
    4854:	0e020400 	cfcpyseq	mvf0, mvf2
    4858:	07002302 	streq	r2, [r0, -r2, lsl #6]
    485c:	000005fe 	strdeq	r0, [r0], -lr
    4860:	5e020503 	cfsh32pl	mvfx0, mvfx2, #3
    4864:	04000000 	streq	r0, [r0], #-0
    4868:	23020806 	movwcs	r0, #10246	; 0x2806
    486c:	15880700 	strne	r0, [r8, #1792]	; 0x700
    4870:	06030000 	streq	r0, [r3], -r0
    4874:	00005e02 	andeq	r5, r0, r2, lsl #28
    4878:	06020400 	streq	r0, [r2], -r0, lsl #8
    487c:	07002302 	streq	r2, [r0, -r2, lsl #6]
    4880:	00000608 	andeq	r0, r0, r8, lsl #12
    4884:	5e020703 	cdppl	7, 0, cr0, cr2, cr3, {0}
    4888:	04000000 	streq	r0, [r0], #-0
    488c:	23020105 	movwcs	r0, #8453	; 0x2105
    4890:	144c0700 	strbne	r0, [ip], #-1792	; 0xfffff900
    4894:	08030000 	stmdaeq	r3, {}	; <UNPREDICTABLE>
    4898:	00005e02 	andeq	r5, r0, r2, lsl #28
    489c:	00010400 	andeq	r0, r1, r0, lsl #8
    48a0:	00002302 	andeq	r2, r0, r2, lsl #6
    48a4:	000a1208 	andeq	r1, sl, r8, lsl #4
    48a8:	020a0300 	andeq	r0, sl, #0, 6
    48ac:	0000182c 	andeq	r1, r0, ip, lsr #16
    48b0:	00126209 	andseq	r6, r2, r9, lsl #4
    48b4:	0d030400 	cfstrseq	mvf0, [r3, #-0]
    48b8:	00190802 	andseq	r0, r9, r2, lsl #16
    48bc:	01510700 	cmpeq	r1, r0, lsl #14
    48c0:	0f030000 	svceq	0x00030000
    48c4:	00005e02 	andeq	r5, r0, r2, lsl #28
    48c8:	021e0400 	andseq	r0, lr, #0, 8
    48cc:	07002302 	streq	r2, [r0, -r2, lsl #6]
    48d0:	000014a1 	andeq	r1, r0, r1, lsr #9
    48d4:	5e021003 	cdppl	0, 0, cr1, cr2, cr3, {0}
    48d8:	04000000 	streq	r0, [r0], #-0
    48dc:	23020101 	movwcs	r0, #8449	; 0x2101
    48e0:	144c0700 	strbne	r0, [ip], #-1792	; 0xfffff900
    48e4:	11030000 	tstne	r3, r0
    48e8:	00005e02 	andeq	r5, r0, r2, lsl #28
    48ec:	00010400 	andeq	r0, r1, r0, lsl #8
    48f0:	00002302 	andeq	r2, r0, r2, lsl #6
    48f4:	000eaa08 	andeq	sl, lr, r8, lsl #20
    48f8:	02130300 	andseq	r0, r3, #0, 6
    48fc:	000018c4 	andeq	r1, r0, r4, asr #17
    4900:	0015aa0a 	andseq	sl, r5, sl, lsl #20
    4904:	03016400 	movweq	r6, #5120	; 0x1400
    4908:	1d790215 	lfmne	f0, 2, [r9, #-84]!	; 0xffffffac
    490c:	4d0b0000 	stcmi	0, cr0, [fp, #-0]
    4910:	0300000d 	movweq	r0, #13
    4914:	1d790217 	lfmne	f0, 2, [r9, #-92]!	; 0xffffffa4
    4918:	23020000 	movwcs	r0, #8192	; 0x2000
    491c:	0c240b00 	stceq	11, cr0, [r4], #-0
    4920:	18030000 	stmdane	r3, {}	; <UNPREDICTABLE>
    4924:	001d7e02 	andseq	r7, sp, r2, lsl #28
    4928:	04230200 	strteq	r0, [r3], #-512	; 0xfffffe00
    492c:	0015a20b 	andseq	sl, r5, fp, lsl #4
    4930:	02190300 	andseq	r0, r9, #0, 6
    4934:	00001d83 	andeq	r1, r0, r3, lsl #27
    4938:	0b082302 	bleq	20d548 <__bss_end+0x209ce0>
    493c:	000013fd 	strdeq	r1, [r0], -sp
    4940:	88021a03 	stmdahi	r2, {r0, r1, r9, fp, ip}
    4944:	0200001d 	andeq	r0, r0, #29
    4948:	e20b0c23 	and	r0, fp, #8960	; 0x2300
    494c:	03000014 	movweq	r0, #20
    4950:	1d8d021b 	sfmne	f0, 4, [sp, #108]	; 0x6c
    4954:	23020000 	movwcs	r0, #8192	; 0x2000
    4958:	05f40b10 	ldrbeq	r0, [r4, #2832]!	; 0xb10
    495c:	1c030000 	stcne	0, cr0, [r3], {-0}
    4960:	001d9202 	andseq	r9, sp, r2, lsl #4
    4964:	14230200 	strtne	r0, [r3], #-512	; 0xfffffe00
    4968:	0009820b 	andeq	r8, r9, fp, lsl #4
    496c:	021d0300 	andseq	r0, sp, #0, 6
    4970:	00001d97 	muleq	r0, r7, sp
    4974:	0b182302 	bleq	60d584 <__bss_end+0x609d1c>
    4978:	000005fe 	strdeq	r0, [r0], -lr
    497c:	92021e03 	andls	r1, r2, #3, 28	; 0x30
    4980:	0200001d 	andeq	r0, r0, #29
    4984:	a50b1c23 	strge	r1, [fp, #-3107]	; 0xfffff3dd
    4988:	03000011 	movweq	r0, #17
    498c:	1d9c021f 	lfmne	f0, 4, [ip, #124]	; 0x7c
    4990:	23020000 	movwcs	r0, #8192	; 0x2000
    4994:	08010b20 	stmdaeq	r1, {r5, r8, r9, fp}
    4998:	20030000 	andcs	r0, r3, r0
    499c:	001da102 	andseq	sl, sp, r2, lsl #2
    49a0:	24230200 	strtcs	r0, [r3], #-512	; 0xfffffe00
    49a4:	0014fa0b 	andseq	pc, r4, fp, lsl #20
    49a8:	02210300 	eoreq	r0, r1, #0, 6
    49ac:	00001da6 	andeq	r1, r0, r6, lsr #27
    49b0:	0b282302 	bleq	a0d5c0 <__bss_end+0xa09d58>
    49b4:	00000608 	andeq	r0, r0, r8, lsl #12
    49b8:	92022203 	andls	r2, r2, #805306368	; 0x30000000
    49bc:	0200001d 	andeq	r0, r0, #29
    49c0:	330b2c23 	movwcc	r2, #48163	; 0xbc23
    49c4:	03000014 	movweq	r0, #20
    49c8:	1dab0223 	sfmne	f0, 4, [fp, #140]!	; 0x8c
    49cc:	23020000 	movwcs	r0, #8192	; 0x2000
    49d0:	06120b30 			; <UNDEFINED> instruction: 0x06120b30
    49d4:	24030000 	strcs	r0, [r3], #-0
    49d8:	001d9202 	andseq	r9, sp, r2, lsl #4
    49dc:	34230200 	strtcc	r0, [r3], #-512	; 0xfffffe00
    49e0:	0011660b 	andseq	r6, r1, fp, lsl #12
    49e4:	02250300 	eoreq	r0, r5, #0, 6
    49e8:	00001db0 			; <UNDEFINED> instruction: 0x00001db0
    49ec:	0b382302 	bleq	e0d5fc <__bss_end+0xe09d94>
    49f0:	00000831 	andeq	r0, r0, r1, lsr r8
    49f4:	b5022603 	strlt	r2, [r2, #-1539]	; 0xfffff9fd
    49f8:	0200001d 	andeq	r0, r0, #29
    49fc:	1c0b3c23 	stcne	12, cr3, [fp], {35}	; 0x23
    4a00:	03000006 	movweq	r0, #6
    4a04:	1dca0227 	sfmne	f0, 2, [sl, #156]	; 0x9c
    4a08:	23020000 	movwcs	r0, #8192	; 0x2000
    4a0c:	0a710b40 	beq	1c47714 <__bss_end+0x1c43eac>
    4a10:	28030000 	stmdacs	r3, {}	; <UNPREDICTABLE>
    4a14:	001dcf02 	andseq	ip, sp, r2, lsl #30
    4a18:	50230200 	eorpl	r0, r3, r0, lsl #4
    4a1c:	000f590b 	andeq	r5, pc, fp, lsl #18
    4a20:	02290300 	eoreq	r0, r9, #0, 6
    4a24:	00001dd4 	ldrdeq	r1, [r0], -r4
    4a28:	0b542302 	bleq	150d638 <__bss_end+0x1509dd0>
    4a2c:	00000dbf 			; <UNDEFINED> instruction: 0x00000dbf
    4a30:	d9022a03 	stmdble	r2, {r0, r1, r9, fp, sp}
    4a34:	0200001d 	andeq	r0, r0, #29
    4a38:	ea0b5823 	b	2daacc <__bss_end+0x2d7264>
    4a3c:	03000014 	movweq	r0, #20
    4a40:	1dde022b 	lfmne	f0, 2, [lr, #172]	; 0xac
    4a44:	23020000 	movwcs	r0, #8192	; 0x2000
    4a48:	0cfe0b5c 	vldmiaeq	lr!, {d16-<overflow reg d61>}
    4a4c:	2c030000 	stccs	0, cr0, [r3], {-0}
    4a50:	001de302 	andseq	lr, sp, r2, lsl #6
    4a54:	60230200 	eorvs	r0, r3, r0, lsl #4
    4a58:	000d070b 	andeq	r0, sp, fp, lsl #14
    4a5c:	022d0300 	eoreq	r0, sp, #0, 6
    4a60:	00001de8 	andeq	r1, r0, r8, ror #27
    4a64:	0b642302 	bleq	190d674 <__bss_end+0x1909e0c>
    4a68:	00000a44 	andeq	r0, r0, r4, asr #20
    4a6c:	ed022e03 	stc	14, cr2, [r2, #-12]
    4a70:	0200001d 	andeq	r0, r0, #29
    4a74:	570b6823 	strpl	r6, [fp, -r3, lsr #16]
    4a78:	03000015 	movweq	r0, #21
    4a7c:	1df2022f 	lfmne	f0, 2, [r2, #188]!	; 0xbc
    4a80:	23020000 	movwcs	r0, #8192	; 0x2000
    4a84:	06260b6c 	strteq	r0, [r6], -ip, ror #22
    4a88:	30030000 	andcc	r0, r3, r0
    4a8c:	001df702 	andseq	pc, sp, r2, lsl #14
    4a90:	70230200 	eorvc	r0, r3, r0, lsl #4
    4a94:	00143b0b 	andseq	r3, r4, fp, lsl #22
    4a98:	02310300 	eorseq	r0, r1, #0, 6
    4a9c:	00001dfc 	strdeq	r1, [r0], -ip
    4aa0:	01802303 	orreq	r2, r0, r3, lsl #6
    4aa4:	000b3f0b 	andeq	r3, fp, fp, lsl #30
    4aa8:	02320300 	eorseq	r0, r2, #0, 6
    4aac:	00001dfc 	strdeq	r1, [r0], -ip
    4ab0:	01842303 	orreq	r2, r4, r3, lsl #6
    4ab4:	0009390b 	andeq	r3, r9, fp, lsl #18
    4ab8:	02330300 	eorseq	r0, r3, #0, 6
    4abc:	00001dfc 	strdeq	r1, [r0], -ip
    4ac0:	01882303 	orreq	r2, r8, r3, lsl #6
    4ac4:	0012580b 	andseq	r5, r2, fp, lsl #16
    4ac8:	02340300 	eorseq	r0, r4, #0, 6
    4acc:	00001dfc 	strdeq	r1, [r0], -ip
    4ad0:	018c2303 	orreq	r2, ip, r3, lsl #6
    4ad4:	000b840b 	andeq	r8, fp, fp, lsl #8
    4ad8:	02350300 	eorseq	r0, r5, #0, 6
    4adc:	00001dfc 	strdeq	r1, [r0], -ip
    4ae0:	01902303 	orrseq	r2, r0, r3, lsl #6
    4ae4:	0006300b 	andeq	r3, r6, fp
    4ae8:	02360300 	eorseq	r0, r6, #0, 6
    4aec:	00001d92 	muleq	r0, r2, sp
    4af0:	01942303 	orrseq	r2, r4, r3, lsl #6
    4af4:	0013540b 	andseq	r5, r3, fp, lsl #8
    4af8:	02370300 	eorseq	r0, r7, #0, 6
    4afc:	00001dfc 	strdeq	r1, [r0], -ip
    4b00:	01982303 	orrseq	r2, r8, r3, lsl #6
    4b04:	0009e60b 	andeq	lr, r9, fp, lsl #12
    4b08:	02380300 	eorseq	r0, r8, #0, 6
    4b0c:	00001dfc 	strdeq	r1, [r0], -ip
    4b10:	019c2303 	orrseq	r2, ip, r3, lsl #6
    4b14:	000e870b 	andeq	r8, lr, fp, lsl #14
    4b18:	02390300 	eorseq	r0, r9, #0, 6
    4b1c:	00001dfc 	strdeq	r1, [r0], -ip
    4b20:	01a02303 	lsleq	r2, r3, #6
    4b24:	00088f0b 	andeq	r8, r8, fp, lsl #30
    4b28:	023a0300 	eorseq	r0, sl, #0, 6
    4b2c:	00001dfc 	strdeq	r1, [r0], -ip
    4b30:	01a42303 			; <UNDEFINED> instruction: 0x01a42303
    4b34:	0010610b 	andseq	r6, r0, fp, lsl #2
    4b38:	023b0300 	eorseq	r0, fp, #0, 6
    4b3c:	00001dfc 	strdeq	r1, [r0], -ip
    4b40:	01a82303 			; <UNDEFINED> instruction: 0x01a82303
    4b44:	00063a0b 	andeq	r3, r6, fp, lsl #20
    4b48:	023c0300 	eorseq	r0, ip, #0, 6
    4b4c:	00001d92 	muleq	r0, r2, sp
    4b50:	01ac2303 			; <UNDEFINED> instruction: 0x01ac2303
    4b54:	000db80b 	andeq	fp, sp, fp, lsl #16
    4b58:	023d0300 	eorseq	r0, sp, #0, 6
    4b5c:	00001dfc 	strdeq	r1, [r0], -ip
    4b60:	01b02303 	lslseq	r2, r3, #6
    4b64:	00070d0b 	andeq	r0, r7, fp, lsl #26
    4b68:	023e0300 	eorseq	r0, lr, #0, 6
    4b6c:	00001d92 	muleq	r0, r2, sp
    4b70:	01b42303 			; <UNDEFINED> instruction: 0x01b42303
    4b74:	000d1b0b 	andeq	r1, sp, fp, lsl #22
    4b78:	023f0300 	eorseq	r0, pc, #0, 6
    4b7c:	00001e01 	andeq	r1, r0, r1, lsl #28
    4b80:	01b82303 			; <UNDEFINED> instruction: 0x01b82303
    4b84:	0012d20b 	andseq	sp, r2, fp, lsl #4
    4b88:	02400300 	subeq	r0, r0, #0, 6
    4b8c:	00001d92 	muleq	r0, r2, sp
    4b90:	01bc2303 			; <UNDEFINED> instruction: 0x01bc2303
    4b94:	00100b0b 	andseq	r0, r0, fp, lsl #22
    4b98:	02410300 	subeq	r0, r1, #0, 6
    4b9c:	00001e01 	andeq	r1, r0, r1, lsl #28
    4ba0:	01c02303 	biceq	r2, r0, r3, lsl #6
    4ba4:	00136d0b 	andseq	r6, r3, fp, lsl #26
    4ba8:	02420300 	subeq	r0, r2, #0, 6
    4bac:	00001e06 	andeq	r1, r0, r6, lsl #28
    4bb0:	01c42303 	biceq	r2, r4, r3, lsl #6
    4bb4:	000de50b 	andeq	lr, sp, fp, lsl #10
    4bb8:	02430300 	subeq	r0, r3, #0, 6
    4bbc:	00001d92 	muleq	r0, r2, sp
    4bc0:	01c82303 	biceq	r2, r8, r3, lsl #6
    4bc4:	0009ec0b 	andeq	lr, r9, fp, lsl #24
    4bc8:	02440300 	subeq	r0, r4, #0, 6
    4bcc:	00001e0b 	andeq	r1, r0, fp, lsl #28
    4bd0:	01cc2303 	biceq	r2, ip, r3, lsl #6
    4bd4:	000fec0b 	andeq	lr, pc, fp, lsl #24
    4bd8:	02450300 	subeq	r0, r5, #0, 6
    4bdc:	00001e10 	andeq	r1, r0, r0, lsl lr
    4be0:	01d02303 	bicseq	r2, r0, r3, lsl #6
    4be4:	000df00b 	andeq	pc, sp, fp
    4be8:	02460300 	subeq	r0, r6, #0, 6
    4bec:	00001d92 	muleq	r0, r2, sp
    4bf0:	01d42303 	bicseq	r2, r4, r3, lsl #6
    4bf4:	000dfb0b 	andeq	pc, sp, fp, lsl #22
    4bf8:	02470300 	subeq	r0, r7, #0, 6
    4bfc:	00001e25 	andeq	r1, r0, r5, lsr #28
    4c00:	01d82303 	bicseq	r2, r8, r3, lsl #6
    4c04:	0010970b 	andseq	r9, r0, fp, lsl #14
    4c08:	02480300 	subeq	r0, r8, #0, 6
    4c0c:	00001e2a 	andeq	r1, r0, sl, lsr #28
    4c10:	02802303 	addeq	r2, r0, #201326592	; 0xc000000
    4c14:	0010840b 	andseq	r8, r0, fp, lsl #8
    4c18:	02490300 	subeq	r0, r9, #0, 6
    4c1c:	00001e2f 	andeq	r1, r0, pc, lsr #28
    4c20:	02842303 	addeq	r2, r4, #201326592	; 0xc000000
    4c24:	000ef20b 	andeq	pc, lr, fp, lsl #4
    4c28:	024a0300 	subeq	r0, sl, #0, 6
    4c2c:	00001d92 	muleq	r0, r2, sp
    4c30:	02882303 	addeq	r2, r8, #201326592	; 0xc000000
    4c34:	000d740b 	andeq	r7, sp, fp, lsl #8
    4c38:	024b0300 	subeq	r0, fp, #0, 6
    4c3c:	00001e2f 	andeq	r1, r0, pc, lsr #28
    4c40:	028c2303 	addeq	r2, ip, #201326592	; 0xc000000
    4c44:	000e1d0b 	andeq	r1, lr, fp, lsl #26
    4c48:	024c0300 	subeq	r0, ip, #0, 6
    4c4c:	00001d92 	muleq	r0, r2, sp
    4c50:	02902303 	addseq	r2, r0, #201326592	; 0xc000000
    4c54:	000e280b 	andeq	r2, lr, fp, lsl #16
    4c58:	024d0300 	subeq	r0, sp, #0, 6
    4c5c:	00001d92 	muleq	r0, r2, sp
    4c60:	02942303 	addseq	r2, r4, #201326592	; 0xc000000
    4c64:	0008970b 	andeq	r9, r8, fp, lsl #14
    4c68:	024e0300 	subeq	r0, lr, #0, 6
    4c6c:	00001e34 	andeq	r1, r0, r4, lsr lr
    4c70:	02982303 	addseq	r2, r8, #201326592	; 0xc000000
    4c74:	000e330b 	andeq	r3, lr, fp, lsl #6
    4c78:	024f0300 	subeq	r0, pc, #0, 6
    4c7c:	00001e39 	andeq	r1, r0, r9, lsr lr
    4c80:	029c2303 	addseq	r2, ip, #201326592	; 0xc000000
    4c84:	000a070b 	andeq	r0, sl, fp, lsl #14
    4c88:	02500300 	subseq	r0, r0, #0, 6
    4c8c:	00001e3e 	andeq	r1, r0, lr, lsr lr
    4c90:	02ac2303 	adceq	r2, ip, #201326592	; 0xc000000
    4c94:	000e3e0b 	andeq	r3, lr, fp, lsl #28
    4c98:	02510300 	subseq	r0, r1, #0, 6
    4c9c:	00001d92 	muleq	r0, r2, sp
    4ca0:	02b02303 	adcseq	r2, r0, #201326592	; 0xc000000
    4ca4:	000cd30b 	andeq	sp, ip, fp, lsl #6
    4ca8:	02520300 	subseq	r0, r2, #0, 6
    4cac:	00001e43 	andeq	r1, r0, r3, asr #28
    4cb0:	02b42303 	adcseq	r2, r4, #201326592	; 0xc000000
    4cb4:	000e490b 	andeq	r4, lr, fp, lsl #18
    4cb8:	02530300 	subseq	r0, r3, #0, 6
    4cbc:	00001d92 	muleq	r0, r2, sp
    4cc0:	02b82303 	adcseq	r2, r8, #201326592	; 0xc000000
    4cc4:	00083b0b 	andeq	r3, r8, fp, lsl #22
    4cc8:	02540300 	subseq	r0, r4, #0, 6
    4ccc:	00001e48 	andeq	r1, r0, r8, asr #28
    4cd0:	02bc2303 	adcseq	r2, ip, #201326592	; 0xc000000
    4cd4:	00134c0b 	andseq	r4, r3, fp, lsl #24
    4cd8:	02550300 	subseq	r0, r5, #0, 6
    4cdc:	00001e4d 	andeq	r1, r0, sp, asr #28
    4ce0:	02c02303 	sbceq	r2, r0, #201326592	; 0xc000000
    4ce4:	0014970b 	andseq	r9, r4, fp, lsl #14
    4ce8:	02560300 	subseq	r0, r6, #0, 6
    4cec:	00001e52 	andeq	r1, r0, r2, asr lr
    4cf0:	02c42303 	sbceq	r2, r4, #201326592	; 0xc000000
    4cf4:	000ec30b 	andeq	ip, lr, fp, lsl #6
    4cf8:	02570300 	subseq	r0, r7, #0, 6
    4cfc:	00001d92 	muleq	r0, r2, sp
    4d00:	02c82303 	sbceq	r2, r8, #201326592	; 0xc000000
    4d04:	000f2d0b 	andeq	r2, pc, fp, lsl #26
    4d08:	02580300 	subseq	r0, r8, #0, 6
    4d0c:	00001e57 	andeq	r1, r0, r7, asr lr
    4d10:	02cc2303 	sbceq	r2, ip, #201326592	; 0xc000000
    4d14:	000ee00b 	andeq	lr, lr, fp
    4d18:	02590300 	subseq	r0, r9, #0, 6
    4d1c:	00001e5c 	andeq	r1, r0, ip, asr lr
    4d20:	02d02303 	sbcseq	r2, r0, #201326592	; 0xc000000
    4d24:	00148f0b 	andseq	r8, r4, fp, lsl #30
    4d28:	025a0300 	subseq	r0, sl, #0, 6
    4d2c:	00001e61 	andeq	r1, r0, r1, ror #28
    4d30:	02d42303 	sbcseq	r2, r4, #201326592	; 0xc000000
    4d34:	000ece0b 	andeq	ip, lr, fp, lsl #28
    4d38:	025b0300 	subseq	r0, fp, #0, 6
    4d3c:	00001d92 	muleq	r0, r2, sp
    4d40:	02d82303 	sbcseq	r2, r8, #201326592	; 0xc000000
    4d44:	0008800b 	andeq	r8, r8, fp
    4d48:	025c0300 	subseq	r0, ip, #0, 6
    4d4c:	00001e66 	andeq	r1, r0, r6, ror #28
    4d50:	02dc2303 	sbcseq	r2, ip, #201326592	; 0xc000000
    4d54:	00146f0b 	andseq	r6, r4, fp, lsl #30
    4d58:	025d0300 	subseq	r0, sp, #0, 6
    4d5c:	00001e6b 	andeq	r1, r0, fp, ror #28
    4d60:	02e02303 	rsceq	r2, r0, #201326592	; 0xc000000
    4d64:	01790c00 	cmneq	r9, r0, lsl #24
    4d68:	f70c0000 			; <UNDEFINED> instruction: 0xf70c0000
    4d6c:	0c000001 	stceq	0, cr0, [r0], {1}
    4d70:	000002a8 	andeq	r0, r0, r8, lsr #5
    4d74:	0003260c 	andeq	r2, r3, ip, lsl #12
    4d78:	03f90c00 	mvnseq	r0, #0, 24
    4d7c:	5e0c0000 	cdppl	0, 0, cr0, cr12, cr0, {0}
    4d80:	0c000000 	stceq	0, cr0, [r0], {-0}
    4d84:	000004ff 	strdeq	r0, [r0], -pc	; <UNPREDICTABLE>
    4d88:	0006160c 	andeq	r1, r6, ip, lsl #12
    4d8c:	06a50c00 	strteq	r0, [r5], r0, lsl #24
    4d90:	890c0000 	stmdbhi	ip, {}	; <UNPREDICTABLE>
    4d94:	0c000007 	stceq	0, cr0, [r0], {7}
    4d98:	0000085c 	andeq	r0, r0, ip, asr r8
    4d9c:	0008da0c 	andeq	sp, r8, ip, lsl #20
    4da0:	09580c00 	ldmdbeq	r8, {sl, fp}^
    4da4:	5e0d0000 	cdppl	0, 0, cr0, cr13, cr0, {0}
    4da8:	ca000000 	bgt	4db0 <__bss_end+0x1548>
    4dac:	0e00001d 	mcreq	0, 0, r0, cr0, cr13, {0}
    4db0:	00000069 	andeq	r0, r0, r9, rrx
    4db4:	ba0c0003 	blt	304dc8 <__bss_end+0x301560>
    4db8:	0c00001d 	stceq	0, cr0, [r0], {29}
    4dbc:	00000a1a 	andeq	r0, r0, sl, lsl sl
    4dc0:	000aba0c 	andeq	fp, sl, ip, lsl #20
    4dc4:	0b380c00 	bleq	e07dcc <__bss_end+0xe04564>
    4dc8:	720c0000 	andvc	r0, ip, #0
    4dcc:	0c00000b 	stceq	0, cr0, [r0], {11}
    4dd0:	00000d56 	andeq	r0, r0, r6, asr sp
    4dd4:	000e900c 	andeq	r9, lr, ip
    4dd8:	0f5e0c00 	svceq	0x005e0c00
    4ddc:	1a0c0000 	bne	304de4 <__bss_end+0x30157c>
    4de0:	0c000010 	stceq	0, cr0, [r0], {16}
    4de4:	00001dba 			; <UNDEFINED> instruction: 0x00001dba
    4de8:	0010b20c 	andseq	fp, r0, ip, lsl #4
    4dec:	11140c00 	tstne	r4, r0, lsl #24
    4df0:	ac0c0000 	stcge	0, cr0, [ip], {-0}
    4df4:	0c000011 	stceq	0, cr0, [r0], {17}
    4df8:	00001244 	andeq	r1, r0, r4, asr #4
    4dfc:	0012ca0c 	andseq	ip, r2, ip, lsl #20
    4e00:	005e0d00 	subseq	r0, lr, r0, lsl #26
    4e04:	1e250000 	cdpne	0, 2, cr0, cr5, cr0, {0}
    4e08:	690e0000 	stmdbvs	lr, {}	; <UNPREDICTABLE>
    4e0c:	09000000 	stmdbeq	r0, {}	; <UNPREDICTABLE>
    4e10:	1e150c00 	cdpne	12, 1, cr0, cr5, cr0, {0}
    4e14:	aa0c0000 	bge	304e1c <__bss_end+0x3015b4>
    4e18:	0c000013 	stceq	0, cr0, [r0], {19}
    4e1c:	00001430 	andeq	r1, r0, r0, lsr r4
    4e20:	0014b60c 	andseq	fp, r4, ip, lsl #12
    4e24:	1dba0c00 	ldcne	12, cr0, [sl]
    4e28:	720c0000 	andvc	r0, ip, #0
    4e2c:	0c000015 	stceq	0, cr0, [r0], {21}
    4e30:	000015f8 	strdeq	r1, [r0], -r8
    4e34:	00166c0c 	andseq	r6, r6, ip, lsl #24
    4e38:	16aa0c00 	strtne	r0, [sl], r0, lsl #24
    4e3c:	e80c0000 	stmda	ip, {}	; <UNPREDICTABLE>
    4e40:	0c000016 	stceq	0, cr0, [r0], {22}
    4e44:	00001726 	andeq	r1, r0, r6, lsr #14
    4e48:	00179a0c 	andseq	r9, r7, ip, lsl #20
    4e4c:	18200c00 	stmdane	r0!, {sl, fp}
    4e50:	b80c0000 	stmdalt	ip, {}	; <UNPREDICTABLE>
    4e54:	0c000018 	stceq	0, cr0, [r0], {24}
    4e58:	00001908 	andeq	r1, r0, r8, lsl #18
    4e5c:	000b5a08 	andeq	r5, fp, r8, lsl #20
    4e60:	025f0300 	subseq	r0, pc, #0, 6
    4e64:	00001914 	andeq	r1, r0, r4, lsl r9
    4e68:	0016bd05 	andseq	fp, r6, r5, lsl #26
    4e6c:	19042400 	stmdbne	r4, {sl, sp}
    4e70:	00001f07 	andeq	r1, r0, r7, lsl #30
    4e74:	0017040f 	andseq	r0, r7, pc, lsl #8
    4e78:	071b0400 	ldreq	r0, [fp, -r0, lsl #8]
    4e7c:	0200001f 	andeq	r0, r0, #31
    4e80:	ee0f0023 	cdp	0, 0, cr0, cr15, cr3, {1}
    4e84:	04000016 	streq	r0, [r0], #-22	; 0xffffffea
    4e88:	001f071c 	andseq	r0, pc, ip, lsl r7	; <UNPREDICTABLE>
    4e8c:	04230200 	strteq	r0, [r3], #-512	; 0xfffffe00
    4e90:	00167e0f 	andseq	r7, r6, pc, lsl #28
    4e94:	071d0400 	ldreq	r0, [sp, -r0, lsl #8]
    4e98:	0200001f 	andeq	r0, r0, #31
    4e9c:	1e0f0823 	cdpne	8, 0, cr0, cr15, cr3, {1}
    4ea0:	04000016 	streq	r0, [r0], #-22	; 0xffffffea
    4ea4:	001f071e 	andseq	r0, pc, lr, lsl r7	; <UNPREDICTABLE>
    4ea8:	0c230200 	sfmeq	f0, 4, [r3], #-0
    4eac:	0016f90f 	andseq	pc, r6, pc, lsl #18
    4eb0:	071f0400 	ldreq	r0, [pc, -r0, lsl #8]
    4eb4:	0200001f 	andeq	r0, r0, #31
    4eb8:	e50f1023 	str	r1, [pc, #-35]	; 4e9d <__bss_end+0x1635>
    4ebc:	04000016 	streq	r0, [r0], #-22	; 0xffffffea
    4ec0:	001f0720 	andseq	r0, pc, r0, lsr #14
    4ec4:	14230200 	strtne	r0, [r3], #-512	; 0xfffffe00
    4ec8:	0016740f 	andseq	r7, r6, pc, lsl #8
    4ecc:	07210400 	streq	r0, [r1, -r0, lsl #8]!
    4ed0:	0200001f 	andeq	r0, r0, #31
    4ed4:	6f0f1823 	svcvs	0x000f1823
    4ed8:	04000017 	streq	r0, [r0], #-23	; 0xffffffe9
    4edc:	001f0722 	andseq	r0, pc, r2, lsr #14
    4ee0:	1c230200 	sfmne	f0, 4, [r3], #-0
    4ee4:	0017310f 	andseq	r3, r7, pc, lsl #2
    4ee8:	07230400 	streq	r0, [r3, -r0, lsl #8]!
    4eec:	0200001f 	andeq	r0, r0, #31
    4ef0:	0c002023 	stceq	0, cr2, [r0], {35}	; 0x23
    4ef4:	00000069 	andeq	r0, r0, r9, rrx
    4ef8:	00168703 	andseq	r8, r6, r3, lsl #14
    4efc:	7c250400 	cfstrsvc	mvf0, [r5], #-0
    4f00:	1000001e 	andne	r0, r0, lr, lsl r0
    4f04:	00001694 	muleq	r0, r4, r6
    4f08:	30290404 	eorcc	r0, r9, r4, lsl #8
    4f0c:	1100001f 	tstne	r0, pc, lsl r0
    4f10:	00001727 	andeq	r1, r0, r7, lsr #14
    4f14:	16261100 	strtne	r1, [r6], -r0, lsl #2
    4f18:	00010000 	andeq	r0, r1, r0
    4f1c:	00163012 	andseq	r3, r6, r2, lsl r0
    4f20:	01300100 	teqeq	r0, r0, lsl #2
    4f24:	0000004c 	andeq	r0, r0, ip, asr #32
    4f28:	00000afc 	strdeq	r0, [r0], -ip
    4f2c:	00000b50 	andeq	r0, r0, r0, asr fp
    4f30:	12007d02 	andne	r7, r0, #2, 26	; 0x80
    4f34:	00001784 	andeq	r1, r0, r4, lsl #15
    4f38:	4c014c01 	stcmi	12, cr4, [r1], {1}
    4f3c:	50000000 	andpl	r0, r0, r0
    4f40:	a400000b 	strge	r0, [r0], #-11
    4f44:	0200000b 	andeq	r0, r0, #11
    4f48:	4c13007d 	ldcmi	0, cr0, [r3], {125}	; 0x7d
    4f4c:	01000017 	tsteq	r0, r7, lsl r0
    4f50:	005701a2 	subseq	r0, r7, r2, lsr #3
    4f54:	0ba40000 	bleq	fe904f5c <__bss_end+0xfe9016f4>
    4f58:	0c480000 	mareq	acc0, r0, r8
    4f5c:	7d020000 	stcvc	0, cr0, [r2, #-0]
    4f60:	001f9400 	andseq	r9, pc, r0, lsl #8
    4f64:	16b41400 	ldrtne	r1, [r4], r0, lsl #8
    4f68:	a4010000 	strge	r0, [r1], #-0
    4f6c:	00000069 	andeq	r0, r0, r9, rrx
    4f70:	00176715 	andseq	r6, r7, r5, lsl r7
    4f74:	69a50100 	stmibvs	r5!, {r8}
    4f78:	0d000000 	stceq	0, cr0, [r0, #-0]
    4f7c:	00000002 	andeq	r0, r0, r2
    4f80:	16530116 			; <UNDEFINED> instruction: 0x16530116
    4f84:	69010000 	stmdbvs	r1, {}	; <UNPREDICTABLE>
    4f88:	00004c01 	andeq	r4, r0, r1, lsl #24
    4f8c:	000c4800 	andeq	r4, ip, r0, lsl #16
    4f90:	000c9800 	andeq	r9, ip, r0, lsl #16
    4f94:	007d0200 	rsbseq	r0, sp, r0, lsl #4
    4f98:	00001fc0 	andeq	r1, r0, r0, asr #31
    4f9c:	00161817 	andseq	r1, r6, r7, lsl r8
    4fa0:	57690100 	strbpl	r0, [r9, -r0, lsl #2]!
    4fa4:	8c000000 	stchi	0, cr0, [r0], {-0}
    4fa8:	00000002 	andeq	r0, r0, r2
    4fac:	175a0118 	smmlane	sl, r8, r1, r0
    4fb0:	85010000 	strhi	r0, [r1, #-0]
    4fb4:	00004c01 	andeq	r4, r0, r1, lsl #24
    4fb8:	000c9800 	andeq	r9, ip, r0, lsl #16
    4fbc:	000ce800 	andeq	lr, ip, r0, lsl #16
    4fc0:	00029f00 	andeq	r9, r2, r0, lsl #30
    4fc4:	d7011900 	strle	r1, [r1, -r0, lsl #18]
    4fc8:	01000016 	tsteq	r0, r6, lsl r0
    4fcc:	0ce801ce 	stfeqe	f0, [r8], #824	; 0x338
    4fd0:	0d380000 	ldceq	0, cr0, [r8, #-0]
    4fd4:	7d020000 	stcvc	0, cr0, [r2, #-0]
    4fd8:	0e011a00 	vmlaeq.f32	s2, s2, s0
    4fdc:	01000017 	tsteq	r0, r7, lsl r0
    4fe0:	004c01f2 	strdeq	r0, [ip], #-18	; 0xffffffee
    4fe4:	0d380000 	ldceq	0, cr0, [r8, #-0]
    4fe8:	0f800000 	svceq	0x00800000
    4fec:	02bf0000 	adcseq	r0, pc, #0
    4ff0:	207f0000 	rsbscs	r0, pc, r0
    4ff4:	6f1b0000 	svcvs	0x001b0000
    4ff8:	f2010070 	vqadd.s8	q0, <illegal reg q0.5>, q8
    4ffc:	00001f17 	andeq	r1, r0, r7, lsl pc
    5000:	000002df 	ldrdeq	r0, [r0], -pc	; <UNPREDICTABLE>
    5004:	00170817 	andseq	r0, r7, r7, lsl r8
    5008:	2cf20100 	ldfcse	f0, [r2]
    500c:	f2000000 	vhadd.s8	d0, d0, d0
    5010:	17000002 	strne	r0, [r0, -r2]
    5014:	0000164d 	andeq	r1, r0, sp, asr #12
    5018:	002cf201 	eoreq	pc, ip, r1, lsl #4
    501c:	03050000 	movweq	r0, #20480	; 0x5000
    5020:	d2170000 	andsle	r0, r7, #0
    5024:	01000018 	tsteq	r0, r8, lsl r0
    5028:	00207ff2 	strdeq	r7, [r0], -r2	; <UNPREDICTABLE>
    502c:	00031800 	andeq	r1, r3, r0, lsl #16
    5030:	16a21500 	strtne	r1, [r2], r0, lsl #10
    5034:	f4010000 	vst4.8	{d0-d3}, [r1], r0
    5038:	00000037 	andeq	r0, r0, r7, lsr r0
    503c:	00000336 	andeq	r0, r0, r6, lsr r3
    5040:	00176715 	andseq	r6, r7, r5, lsl r7
    5044:	69f50100 	ldmibvs	r5!, {r8}^
    5048:	96000000 	strls	r0, [r0], -r0
    504c:	1c000003 	stcne	0, cr0, [r0], {3}
    5050:	00746572 	rsbseq	r6, r4, r2, ror r5
    5054:	0057f601 	subseq	pc, r7, r1, lsl #12
    5058:	04f50000 	ldrbteq	r0, [r5], #0
    505c:	441d0000 	ldrmi	r0, [sp], #-0
    5060:	01000016 	tsteq	r0, r6, lsl r0
    5064:	0f4c0174 	svceq	0x004c0174
    5068:	1e000000 	cdpne	0, 0, cr0, cr0, cr0, {0}
    506c:	00002c04 	andeq	r2, r0, r4, lsl #24
    5070:	3a011f00 	bcc	4cc78 <__bss_end+0x49410>
    5074:	01000017 	tsteq	r0, r7, lsl r0
    5078:	4c010194 	stfmis	f0, [r1], {148}	; 0x94
    507c:	80000000 	andhi	r0, r0, r0
    5080:	e400000f 	str	r0, [r0], #-15
    5084:	22000011 	andcs	r0, r0, #17
    5088:	1f000005 	svcne	0x00000005
    508c:	20000021 	andcs	r0, r0, r1, lsr #32
    5090:	0100706f 	tsteq	r0, pc, rrx
    5094:	1f170194 	svcne	0x00170194
    5098:	05420000 	strbeq	r0, [r2, #-0]
    509c:	08210000 	stmdaeq	r1!, {}	; <UNPREDICTABLE>
    50a0:	01000017 	tsteq	r0, r7, lsl r0
    50a4:	002c0194 	mlaeq	ip, r4, r1, r0
    50a8:	05550000 	ldrbeq	r0, [r5, #-0]
    50ac:	4d210000 	stcmi	0, cr0, [r1, #-0]
    50b0:	01000016 	tsteq	r0, r6, lsl r0
    50b4:	002c0194 	mlaeq	ip, r4, r1, r0
    50b8:	05680000 	strbeq	r0, [r8, #-0]!
    50bc:	d2210000 	eorle	r0, r1, #0
    50c0:	01000018 	tsteq	r0, r8, lsl r0
    50c4:	207f0194 			; <UNDEFINED> instruction: 0x207f0194
    50c8:	057b0000 	ldrbeq	r0, [fp, #-0]!
    50cc:	a2220000 	eorge	r0, r2, #0
    50d0:	01000016 	tsteq	r0, r6, lsl r0
    50d4:	00370196 	mlaseq	r7, r6, r1, r0
    50d8:	05990000 	ldreq	r0, [r9]
    50dc:	67220000 	strvs	r0, [r2, -r0]!
    50e0:	01000017 	tsteq	r0, r7, lsl r0
    50e4:	00690197 	mlseq	r9, r7, r1, r0
    50e8:	05f90000 	ldrbeq	r0, [r9, #0]!
    50ec:	72230000 	eorvc	r0, r3, #0
    50f0:	01007465 	tsteq	r0, r5, ror #8
    50f4:	00570198 			; <UNDEFINED> instruction: 0x00570198
    50f8:	07580000 	ldrbeq	r0, [r8, -r0]
    50fc:	441d0000 	ldrmi	r0, [sp], #-0
    5100:	01000016 	tsteq	r0, r6, lsl r0
    5104:	11b40217 			; <UNDEFINED> instruction: 0x11b40217
    5108:	0d000000 	stceq	0, cr0, [r0, #-0]
    510c:	0000212f 	andeq	r2, r0, pc, lsr #2
    5110:	0000212f 	andeq	r2, r0, pc, lsr #2
    5114:	0000690e 	andeq	r6, r0, lr, lsl #18
    5118:	1e000200 	cdpne	2, 0, cr0, cr0, cr0, {0}
    511c:	001f0c04 	andseq	r0, pc, r4, lsl #24
    5120:	171a2400 	ldrne	r2, [sl, -r0, lsl #8]
    5124:	16010000 	strne	r0, [r1], -r0
    5128:	00002146 	andeq	r2, r0, r6, asr #2
    512c:	34180305 	ldrcc	r0, [r8], #-773	; 0xfffffcfb
    5130:	1f250000 	svcne	0x00250000
    5134:	24000021 	strcs	r0, [r0], #-33	; 0xffffffdf
    5138:	000016ca 	andeq	r1, r0, sl, asr #13
    513c:	005e1c01 	subseq	r1, lr, r1, lsl #24
    5140:	03050000 	movweq	r0, #20480	; 0x5000
    5144:	0000384c 	andeq	r3, r0, ip, asr #16
    5148:	00177724 	andseq	r7, r7, r4, lsr #14
    514c:	5e1d0100 	mufple	f0, f5, f0
    5150:	05000000 	streq	r0, [r0, #-0]
    5154:	00385003 	eorseq	r5, r8, r3
    5158:	16ac2400 	strtne	r2, [ip], r0, lsl #8
    515c:	1e010000 	cdpne	0, 0, cr0, cr1, cr0, {0}
    5160:	0000212f 	andeq	r2, r0, pc, lsr #2
    5164:	38480305 	stmdacc	r8, {r0, r2, r8, r9}^
    5168:	b0240000 	eorlt	r0, r4, r0
    516c:	01000013 	tsteq	r0, r3, lsl r0
    5170:	00218f1f 	eoreq	r8, r1, pc, lsl pc
    5174:	44030500 	strmi	r0, [r3], #-1280	; 0xfffffb00
    5178:	1e000038 	mcrne	0, 0, r0, cr0, cr8, {1}
    517c:	001e7004 	andseq	r7, lr, r4
    5180:	006f0000 	rsbeq	r0, pc, r0
    5184:	00020000 	andeq	r0, r2, r0
    5188:	0000076f 	andeq	r0, r0, pc, ror #14
    518c:	07240104 	streq	r0, [r4, -r4, lsl #2]!
    5190:	11e40000 	mvnne	r0, r0
    5194:	120c0000 	andne	r0, ip, #0
    5198:	2f2e0000 	svccs	0x002e0000
    519c:	65707573 	ldrbvs	r7, [r0, #-1395]!	; 0xfffffa8d
    51a0:	75732f72 	ldrbvc	r2, [r3, #-3954]!	; 0xfffff08e
    51a4:	5f726570 	svcpl	0x00726570
    51a8:	616c6564 	cmnvs	ip, r4, ror #10
    51ac:	00532e79 	subseq	r2, r3, r9, ror lr
    51b0:	6d6f682f 	stclvs	8, cr6, [pc, #-188]!	; 50fc <__bss_end+0x1894>
    51b4:	6e612f65 	cdpvs	15, 6, cr2, cr1, cr5, {3}
    51b8:	696f7264 	stmdbvs	pc!, {r2, r5, r6, r9, ip, sp, lr}^	; <UNPREDICTABLE>
    51bc:	656b2f64 	strbvs	r2, [fp, #-3940]!	; 0xfffff09c
    51c0:	6c656e72 	stclvs	14, cr6, [r5], #-456	; 0xfffffe38
    51c4:	6372612f 	cmnvs	r2, #-1073741813	; 0xc000000b
    51c8:	72612f68 	rsbvc	r2, r1, #104, 30	; 0x1a0
    51cc:	616d2f6d 	cmnvs	sp, sp, ror #30
    51d0:	732d6863 	teqvc	sp, #6488064	; 0x630000
    51d4:	69356e75 	ldmdbvs	r5!, {r0, r2, r4, r5, r6, r9, sl, fp, sp, lr}
    51d8:	2f6d702f 	svccs	0x006d702f
    51dc:	6e617473 	mcrvs	4, 3, r7, cr1, cr3, {3}
    51e0:	00796264 	rsbseq	r6, r9, r4, ror #4
    51e4:	20554e47 	subscs	r4, r5, r7, asr #28
    51e8:	32205341 	eorcc	r5, r0, #67108865	; 0x4000001
    51ec:	2e30322e 	cdpcs	2, 3, cr3, cr0, cr14, {1}
    51f0:	01003135 	tsteq	r0, r5, lsr r1
    51f4:	00042b80 	andeq	r2, r4, r0, lsl #23
    51f8:	83000200 	movwhi	r0, #512	; 0x200
    51fc:	04000007 	streq	r0, [r0], #-7
    5200:	00033101 	andeq	r3, r3, r1, lsl #2
    5204:	18890100 	stmne	r9, {r8}
    5208:	02af0000 	adceq	r0, pc, #0
    520c:	120c0000 	andne	r0, ip, #0
    5210:	197c0000 	ldmdbne	ip!, {}^	; <UNPREDICTABLE>
    5214:	07720000 	ldrbeq	r0, [r2, -r0]!
    5218:	01020000 	tsteq	r2, r0
    521c:	0001a506 	andeq	sl, r1, r6, lsl #10
    5220:	03170300 	tsteq	r7, #0, 6
    5224:	0f030000 	svceq	0x00030000
    5228:	00000037 	andeq	r0, r0, r7, lsr r0
    522c:	a3080102 	movwge	r0, #33026	; 0x8102
    5230:	02000001 	andeq	r0, r0, #1
    5234:	00700502 	rsbseq	r0, r0, r2, lsl #10
    5238:	02020000 	andeq	r0, r2, #0
    523c:	00027e07 	andeq	r7, r2, r7, lsl #28
    5240:	020d0300 	andeq	r0, sp, #0, 6
    5244:	12030000 	andne	r0, r3, #0
    5248:	00000057 	andeq	r0, r0, r7, asr r0
    524c:	69050404 	stmdbvs	r5, {r2, sl}
    5250:	0300746e 	movweq	r7, #1134	; 0x46e
    5254:	0000010a 	andeq	r0, r0, sl, lsl #2
    5258:	00691303 	rsbeq	r1, r9, r3, lsl #6
    525c:	04020000 	streq	r0, [r2], #-0
    5260:	00024407 	andeq	r4, r2, r7, lsl #8
    5264:	05080200 	streq	r0, [r8, #-512]	; 0xfffffe00
    5268:	00000136 	andeq	r0, r0, r6, lsr r1
    526c:	3a070802 	bcc	1c727c <__bss_end+0x1c3a14>
    5270:	05000002 	streq	r0, [r0, #-2]
    5274:	000018a6 	andeq	r1, r0, r6, lsr #17
    5278:	b5170404 	ldrlt	r0, [r7, #-1028]	; 0xfffffbfc
    527c:	06000000 	streq	r0, [r0], -r0
    5280:	0000184a 	andeq	r1, r0, sl, asr #16
    5284:	185a0600 	ldmdane	sl, {r9, sl}^
    5288:	06010000 	streq	r0, [r1], -r0
    528c:	0000186a 	andeq	r1, r0, sl, ror #16
    5290:	18ec0602 	stmiane	ip!, {r1, r9, sl}^
    5294:	06030000 	streq	r0, [r3], -r0
    5298:	000018fb 	strdeq	r1, [r0], -fp
    529c:	18330604 	ldmdane	r3!, {r2, r9, sl}
    52a0:	06050000 	streq	r0, [r5], -r0
    52a4:	00001913 	andeq	r1, r0, r3, lsl r9
    52a8:	0b070006 	bleq	1c52c8 <__bss_end+0x1c1a60>
    52ac:	1c000018 	stcne	0, cr0, [r0], {24}
    52b0:	01234604 	teqeq	r3, r4, lsl #12
    52b4:	69080000 	stmdbvs	r8, {}	; <UNPREDICTABLE>
    52b8:	47040064 	strmi	r0, [r4, -r4, rrx]
    52bc:	0000007e 	andeq	r0, r0, lr, ror r0
    52c0:	09002302 	stmdbeq	r0, {r1, r8, r9, sp}
    52c4:	0000189f 	muleq	r0, pc, r8	; <UNPREDICTABLE>
    52c8:	00574804 	subseq	r4, r7, r4, lsl #16
    52cc:	23020000 	movwcs	r0, #8192	; 0x2000
    52d0:	17b10904 	ldrne	r0, [r1, r4, lsl #18]!
    52d4:	49040000 	stmdbmi	r4, {}	; <UNPREDICTABLE>
    52d8:	00000057 	andeq	r0, r0, r7, asr r0
    52dc:	09082302 	stmdbeq	r8, {r1, r8, r9, sp}
    52e0:	000017bf 			; <UNDEFINED> instruction: 0x000017bf
    52e4:	00574a04 	subseq	r4, r7, r4, lsl #20
    52e8:	23020000 	movwcs	r0, #8192	; 0x2000
    52ec:	17d1090c 	ldrbne	r0, [r1, ip, lsl #18]
    52f0:	4b040000 	blmi	1052f8 <__bss_end+0x101a90>
    52f4:	00000057 	andeq	r0, r0, r7, asr r0
    52f8:	09102302 	ldmdbeq	r0, {r1, r8, r9, sp}
    52fc:	000017e8 	andeq	r1, r0, r8, ror #15
    5300:	00574c04 	subseq	r4, r7, r4, lsl #24
    5304:	23020000 	movwcs	r0, #8192	; 0x2000
    5308:	17c70914 	bfine	r0, r4, (invalid: 18:7)
    530c:	4d040000 	stcmi	0, cr0, [r4, #-0]
    5310:	00000057 	andeq	r0, r0, r7, asr r0
    5314:	00182302 	andseq	r2, r8, r2, lsl #6
    5318:	00169405 	andseq	r9, r6, r5, lsl #8
    531c:	29050400 	stmdbcs	r5, {sl}
    5320:	0000013c 	andeq	r0, r0, ip, lsr r1
    5324:	00172706 	andseq	r2, r7, r6, lsl #14
    5328:	26060000 	strcs	r0, [r6], -r0
    532c:	01000016 	tsteq	r0, r6, lsl r0
    5330:	19360a00 	ldmdbne	r6!, {r9, fp}
    5334:	48010000 	stmdami	r1, {}	; <UNPREDICTABLE>
    5338:	00005e01 	andeq	r5, r0, r1, lsl #28
    533c:	00120c00 	andseq	r0, r2, r0, lsl #24
    5340:	00125c00 	andseq	r5, r2, r0, lsl #24
    5344:	007d0200 	rsbseq	r0, sp, r0, lsl #4
    5348:	000001a3 	andeq	r0, r0, r3, lsr #3
    534c:	00190a0b 	andseq	r0, r9, fp, lsl #20
    5350:	5e480100 	dvfple	f0, f0, f0
    5354:	85000000 	strhi	r0, [r0, #-0]
    5358:	0b000007 	bleq	537c <__bss_end+0x1b14>
    535c:	0000179e 	muleq	r0, lr, r7
    5360:	005e4801 	subseq	r4, lr, r1, lsl #16
    5364:	07c40000 	strbeq	r0, [r4, r0]
    5368:	b80c0000 	stmdalt	ip, {}	; <UNPREDICTABLE>
    536c:	01000017 	tsteq	r0, r7, lsl r0
    5370:	00005e4a 	andeq	r5, r0, sl, asr #28
    5374:	0007e200 	andeq	lr, r7, r0, lsl #4
    5378:	192e0c00 	stmdbne	lr!, {sl, fp}
    537c:	4b010000 	blmi	45384 <__bss_end+0x41b1c>
    5380:	0000005e 	andeq	r0, r0, lr, asr r0
    5384:	00000825 	andeq	r0, r0, r5, lsr #16
    5388:	0017ec0c 	andseq	lr, r7, ip, lsl #24
    538c:	4c4c0100 	stfmie	f0, [ip], {-0}
    5390:	5b000000 	blpl	5398 <__bss_end+0x1b30>
    5394:	00000008 	andeq	r0, r0, r8
    5398:	0017a70a 	andseq	sl, r7, sl, lsl #14
    539c:	012c0200 	teqeq	ip, r0, lsl #4
    53a0:	000001e8 	andeq	r0, r0, r8, ror #3
    53a4:	0000125c 	andeq	r1, r0, ip, asr r2
    53a8:	000012a0 	andeq	r1, r0, r0, lsr #5
    53ac:	e8007d02 	stmda	r0, {r1, r8, sl, fp, ip, sp, lr}
    53b0:	0d000001 	stceq	0, cr0, [r0, #-4]
    53b4:	02006469 	andeq	r6, r0, #1761607680	; 0x69000000
    53b8:	0000572c 	andeq	r5, r0, ip, lsr #14
    53bc:	0008a900 	andeq	sl, r8, r0, lsl #18
    53c0:	69720e00 	ldmdbvs	r2!, {r9, sl, fp}^
    53c4:	e82e0200 	stmda	lr!, {r9}
    53c8:	c7000001 	strgt	r0, [r0, -r1]
    53cc:	0e000008 	cdpeq	0, 0, cr0, cr0, cr8, {0}
    53d0:	2f020069 	svccs	0x00020069
    53d4:	00000057 	andeq	r0, r0, r7, asr r0
    53d8:	000008da 	ldrdeq	r0, [r0], -sl
    53dc:	b5040f00 	strlt	r0, [r4, #-3840]	; 0xfffff100
    53e0:	10000000 	andne	r0, r0, r0
    53e4:	00001922 	andeq	r1, r0, r2, lsr #18
    53e8:	57011502 	strpl	r1, [r1, -r2, lsl #10]
    53ec:	03000000 	movweq	r0, #0
    53f0:	00000216 	andeq	r0, r0, r6, lsl r2
    53f4:	00180611 	andseq	r0, r8, r1, lsl r6
    53f8:	e8150200 	ldmda	r5, {r9}
    53fc:	11000001 	tstne	r0, r1
    5400:	000018bf 			; <UNDEFINED> instruction: 0x000018bf
    5404:	004c1502 	subeq	r1, ip, r2, lsl #10
    5408:	12000000 	andne	r0, r0, #0
    540c:	0018dc01 	andseq	sp, r8, r1, lsl #24
    5410:	01480200 	mrseq	r0, SPSR
    5414:	0000004c 	andeq	r0, r0, ip, asr #32
    5418:	000012a0 	andeq	r1, r0, r0, lsr #5
    541c:	000013e0 	andeq	r1, r0, r0, ror #7
    5420:	00000904 	andeq	r0, r0, r4, lsl #18
    5424:	000002b8 			; <UNDEFINED> instruction: 0x000002b8
    5428:	001ec40b 	andseq	ip, lr, fp, lsl #8
    542c:	7e480200 	cdpvc	2, 4, cr0, cr8, cr0, {0}
    5430:	24000000 	strcs	r0, [r0], #-0
    5434:	0b000009 	bleq	5460 <__bss_end+0x1bf8>
    5438:	000018bf 			; <UNDEFINED> instruction: 0x000018bf
    543c:	004c4802 	subeq	r4, ip, r2, lsl #16
    5440:	09580000 	ldmdbeq	r8, {}^	; <UNPREDICTABLE>
    5444:	060c0000 	streq	r0, [ip], -r0
    5448:	02000018 	andeq	r0, r0, #24
    544c:	0001e84a 	andeq	lr, r1, sl, asr #16
    5450:	00098100 	andeq	r8, r9, r0, lsl #2
    5454:	61760e00 	cmnvs	r6, r0, lsl #28
    5458:	4b02006c 	blmi	85610 <__bss_end+0x81da8>
    545c:	0000002c 	andeq	r0, r0, ip, lsr #32
    5460:	000009ab 	andeq	r0, r0, fp, lsr #19
    5464:	0018d713 	andseq	sp, r8, r3, lsl r7
    5468:	2c4b0200 	sfmcs	f0, 2, [fp], {-0}
    546c:	0c000000 	stceq	0, cr0, [r0], {-0}
    5470:	00001842 	andeq	r1, r0, r2, asr #16
    5474:	002c4b02 	eoreq	r4, ip, r2, lsl #22
    5478:	09df0000 	ldmibeq	pc, {}^	; <UNPREDICTABLE>
    547c:	72140000 	andsvc	r0, r4, #0
    5480:	02007465 	andeq	r7, r0, #1694498816	; 0x65000000
    5484:	00004c4c 	andeq	r4, r0, ip, asr #24
    5488:	ee150000 	cdp	0, 1, cr0, cr5, cr0, {0}
    548c:	b8000001 	stmdalt	r0, {r0}
    5490:	d4000012 	strle	r0, [r0], #-18	; 0xffffffee
    5494:	02000012 	andeq	r0, r0, #18
    5498:	020a1653 	andeq	r1, sl, #87031808	; 0x5300000
    549c:	09ff0000 	ldmibeq	pc!, {}^	; <UNPREDICTABLE>
    54a0:	ff160000 			; <UNDEFINED> instruction: 0xff160000
    54a4:	1d000001 	stcne	0, cr0, [r0, #-4]
    54a8:	0000000a 	andeq	r0, r0, sl
    54ac:	b7011200 	strlt	r1, [r1, -r0, lsl #4]
    54b0:	02000018 	andeq	r0, r0, #24
    54b4:	004c018e 	subeq	r0, ip, lr, lsl #3
    54b8:	13e00000 	mvnne	r0, #0
    54bc:	14600000 	strbtne	r0, [r0], #-0
    54c0:	0a460000 	beq	11854c8 <__bss_end+0x1181c60>
    54c4:	030e0000 	movweq	r0, #57344	; 0xe000
    54c8:	c40b0000 	strgt	r0, [fp], #-0
    54cc:	0200001e 	andeq	r0, r0, #30
    54d0:	00007e8e 	andeq	r7, r0, lr, lsl #29
    54d4:	000a6600 	andeq	r6, sl, r0, lsl #12
    54d8:	18060c00 	stmdane	r6, {sl, fp}
    54dc:	90020000 	andls	r0, r2, r0
    54e0:	000001e8 	andeq	r0, r0, r8, ror #3
    54e4:	00000a84 	andeq	r0, r0, r4, lsl #21
    54e8:	6c61760e 	stclvs	6, cr7, [r1], #-56	; 0xffffffc8
    54ec:	2c910200 	lfmcs	f0, 4, [r1], {0}
    54f0:	ae000000 	cdpge	0, 0, cr0, cr0, cr0, {0}
    54f4:	1300000a 	movwne	r0, #10
    54f8:	000018d7 	ldrdeq	r1, [r0], -r7
    54fc:	002c9102 	eoreq	r9, ip, r2, lsl #2
    5500:	12000000 	andne	r0, r0, #0
    5504:	00187a01 	andseq	r7, r8, r1, lsl #20
    5508:	01b10200 			; <UNDEFINED> instruction: 0x01b10200
    550c:	0000004c 	andeq	r0, r0, ip, asr #32
    5510:	00001460 	andeq	r1, r0, r0, ror #8
    5514:	00001668 	andeq	r1, r0, r8, ror #12
    5518:	00000ad8 	ldrdeq	r0, [r0], -r8
    551c:	0000034a 	andeq	r0, r0, sl, asr #6
    5520:	0018140b 	andseq	r1, r8, fp, lsl #8
    5524:	5eb10200 	cdppl	2, 11, cr0, cr1, cr0, {0}
    5528:	f8000000 			; <UNDEFINED> instruction: 0xf8000000
    552c:	0c00000a 	stceq	0, cr0, [r0], {10}
    5530:	00001842 	andeq	r1, r0, r2, asr #16
    5534:	002cb302 	eoreq	fp, ip, r2, lsl #6
    5538:	0b160000 	bleq	585540 <__bss_end+0x581cd8>
    553c:	17000000 	strne	r0, [r0, -r0]
    5540:	0017d901 	andseq	sp, r7, r1, lsl #18
    5544:	010d0200 	tsteq	sp, r0, lsl #4
    5548:	00004c01 	andeq	r4, r0, r1, lsl #24
    554c:	00166800 	andseq	r6, r6, r0, lsl #16
    5550:	00184400 	andseq	r4, r8, r0, lsl #8
    5554:	000bb400 	andeq	fp, fp, r0, lsl #8
    5558:	00038900 	andeq	r8, r3, r0, lsl #18
    555c:	18141800 	ldmdane	r4, {fp, ip}
    5560:	0d020000 	stceq	0, cr0, [r2, #-0]
    5564:	00005e01 	andeq	r5, r0, r1, lsl #28
    5568:	000bd400 	andeq	sp, fp, r0, lsl #8
    556c:	18421900 	stmdane	r2, {r8, fp, ip}^
    5570:	0f020000 	svceq	0x00020000
    5574:	00002c01 	andeq	r2, r0, r1, lsl #24
    5578:	000bf200 	andeq	pc, fp, r0, lsl #4
    557c:	01170000 	tsteq	r7, r0
    5580:	000017f2 	strdeq	r1, [r0], -r2
    5584:	01016402 	tsteq	r1, r2, lsl #8
    5588:	0000004c 	andeq	r0, r0, ip, asr #32
    558c:	00001844 	andeq	r1, r0, r4, asr #16
    5590:	000018e0 	andeq	r1, r0, r0, ror #17
    5594:	00000c90 	muleq	r0, r0, ip
    5598:	000003b8 			; <UNDEFINED> instruction: 0x000003b8
    559c:	00184219 	andseq	r4, r8, r9, lsl r2
    55a0:	01660200 	cmneq	r6, r0, lsl #4
    55a4:	0000002c 	andeq	r0, r0, ip, lsr #32
    55a8:	00000cb0 			; <UNDEFINED> instruction: 0x00000cb0
    55ac:	1f011700 	svcne	0x00011700
    55b0:	02000018 	andeq	r0, r0, #24
    55b4:	4c0101a2 	stfmis	f0, [r1], {162}	; 0xa2
    55b8:	e0000000 	and	r0, r0, r0
    55bc:	7c000018 	stcvc	0, cr0, [r0], {24}
    55c0:	f2000019 	vqadd.s8	d0, d0, d9
    55c4:	e700000c 	str	r0, [r0, -ip]
    55c8:	19000003 	stmdbne	r0, {r0, r1}
    55cc:	00001842 	andeq	r1, r0, r2, asr #16
    55d0:	2c01a402 	cfstrscs	mvf10, [r1], {2}
    55d4:	12000000 	andne	r0, r0, #0
    55d8:	0000000d 	andeq	r0, r0, sp
    55dc:	0000571a 	andeq	r5, r0, sl, lsl r7
    55e0:	0003f700 	andeq	pc, r3, r0, lsl #14
    55e4:	00691b00 	rsbeq	r1, r9, r0, lsl #22
    55e8:	000f0000 	andeq	r0, pc, r0
    55ec:	0018c71c 	andseq	ip, r8, ip, lsl r7
    55f0:	081d0200 	ldmdaeq	sp, {r9}
    55f4:	05000004 	streq	r0, [r0, #-4]
    55f8:	00342403 	eorseq	r2, r4, r3, lsl #8
    55fc:	03e71d00 	mvneq	r1, #0, 26
    5600:	b51a0000 	ldrlt	r0, [sl, #-0]
    5604:	1d000000 	stcne	0, cr0, [r0, #-0]
    5608:	1b000004 	blne	5620 <__bss_end+0x1db8>
    560c:	00000069 	andeq	r0, r0, r9, rrx
    5610:	001c0005 	andseq	r0, ip, r5
    5614:	02000018 	andeq	r0, r0, #24
    5618:	00040d23 	andeq	r0, r4, r3, lsr #26
    561c:	68030500 	stmdavs	r3, {r8, sl}
    5620:	00000034 	andeq	r0, r0, r4, lsr r0
    5624:	000005f5 	strdeq	r0, [r0], -r5
    5628:	09270002 	stmdbeq	r7!, {r1}
    562c:	01040000 	tsteq	r4, r0
    5630:	00000331 	andeq	r0, r0, r1, lsr r3
    5634:	001b5d01 	andseq	r5, fp, r1, lsl #26
    5638:	0002af00 	andeq	sl, r2, r0, lsl #30
    563c:	00197c00 	andseq	r7, r9, r0, lsl #24
    5640:	001db000 	andseq	fp, sp, r0
    5644:	00090e00 	andeq	r0, r9, r0, lsl #28
    5648:	05040200 	streq	r0, [r4, #-512]	; 0xfffffe00
    564c:	0000013b 	andeq	r0, r0, fp, lsr r1
    5650:	44070402 	strmi	r0, [r7], #-1026	; 0xfffffbfe
    5654:	02000002 	andeq	r0, r0, #2
    5658:	023f0704 	eorseq	r0, pc, #4, 14	; 0x100000
    565c:	02020000 	andeq	r0, r2, #0
    5660:	00027e07 	andeq	r7, r2, r7, lsl #28
    5664:	08010200 	stmdaeq	r1, {r9}
    5668:	000001ac 	andeq	r0, r0, ip, lsr #3
    566c:	a5060102 	strge	r0, [r6, #-258]	; 0xfffffefe
    5670:	03000001 	movweq	r0, #1
    5674:	00000317 	andeq	r0, r0, r7, lsl r3
    5678:	005a0f02 	subseq	r0, sl, r2, lsl #30
    567c:	01020000 	tsteq	r2, r0
    5680:	0001a308 	andeq	sl, r1, r8, lsl #6
    5684:	05020200 	streq	r0, [r2, #-512]	; 0xfffffe00
    5688:	00000070 	andeq	r0, r0, r0, ror r0
    568c:	00020d03 	andeq	r0, r2, r3, lsl #26
    5690:	73120200 	tstvc	r2, #0, 4
    5694:	04000000 	streq	r0, [r0], #-0
    5698:	6e690504 	cdpvs	5, 6, cr0, cr9, cr4, {0}
    569c:	0a030074 	beq	c5874 <__bss_end+0xc200c>
    56a0:	02000001 	andeq	r0, r0, #1
    56a4:	00002c13 	andeq	r2, r0, r3, lsl ip
    56a8:	05080200 	streq	r0, [r8, #-512]	; 0xfffffe00
    56ac:	00000136 	andeq	r0, r0, r6, lsr r1
    56b0:	3a070802 	bcc	1c76c0 <__bss_end+0x1c3e58>
    56b4:	05000002 	streq	r0, [r0, #-2]
    56b8:	00001694 	muleq	r0, r4, r6
    56bc:	ac290304 	stcge	3, cr0, [r9], #-16
    56c0:	06000000 	streq	r0, [r0], -r0
    56c4:	00001727 	andeq	r1, r0, r7, lsr #14
    56c8:	16260600 	strtne	r0, [r6], -r0, lsl #12
    56cc:	00010000 	andeq	r0, r1, r0
    56d0:	1a910107 	bne	fe445af4 <__bss_end+0xfe44228c>
    56d4:	1d010000 	stcne	0, cr0, [r1, #-0]
    56d8:	00197c01 	andseq	r7, r9, r1, lsl #24
    56dc:	0019a800 	andseq	sl, r9, r0, lsl #16
    56e0:	007d0200 	rsbseq	r0, sp, r0, lsl #4
    56e4:	000000dd 	ldrdeq	r0, [r0], -sp
    56e8:	01006908 	tsteq	r0, r8, lsl #18
    56ec:	00007a1f 	andeq	r7, r0, pc, lsl sl
    56f0:	18420900 	stmdane	r2, {r8, fp}^
    56f4:	20010000 	andcs	r0, r1, r0
    56f8:	0000007a 	andeq	r0, r0, sl, ror r0
    56fc:	00000d54 	andeq	r0, r0, r4, asr sp
    5700:	61010700 	tstvs	r1, r0, lsl #14
    5704:	01000019 	tsteq	r0, r9, lsl r0
    5708:	19a8014a 	stmibne	r8!, {r1, r3, r6, r8}
    570c:	19d40000 	ldmibne	r4, {}^	; <UNPREDICTABLE>
    5710:	7d020000 	stcvc	0, cr0, [r2, #-0]
    5714:	00010e00 	andeq	r0, r1, r0, lsl #28
    5718:	00690800 	rsbeq	r0, r9, r0, lsl #16
    571c:	007a4c01 	rsbseq	r4, sl, r1, lsl #24
    5720:	42090000 	andmi	r0, r9, #0
    5724:	01000018 	tsteq	r0, r8, lsl r0
    5728:	00007a4d 	andeq	r7, r0, sp, asr #20
    572c:	000d8900 	andeq	r8, sp, r0, lsl #18
    5730:	01070000 	tsteq	r7, r0
    5734:	00001b46 	andeq	r1, r0, r6, asr #22
    5738:	d4018201 	strle	r8, [r1], #-513	; 0xfffffdff
    573c:	00000019 	andeq	r0, r0, r9, lsl r0
    5740:	0200001a 	andeq	r0, r0, #26
    5744:	013f007d 	teqeq	pc, sp, ror r0	; <UNPREDICTABLE>
    5748:	69080000 	stmdbvs	r8, {}	; <UNPREDICTABLE>
    574c:	7a840100 	bvc	fe105b54 <__bss_end+0xfe1022ec>
    5750:	09000000 	stmdbeq	r0, {}	; <UNPREDICTABLE>
    5754:	00001842 	andeq	r1, r0, r2, asr #16
    5758:	007a8501 	rsbseq	r8, sl, r1, lsl #10
    575c:	0dbe0000 	ldceq	0, cr0, [lr]
    5760:	0a000000 	beq	5768 <__bss_end+0x1f00>
    5764:	001aa401 	andseq	sl, sl, r1, lsl #8
    5768:	01910100 	orrseq	r0, r1, r0, lsl #2
    576c:	00001a00 	andeq	r1, r0, r0, lsl #20
    5770:	00001a04 	andeq	r1, r0, r4, lsl #20
    5774:	07007d02 	streq	r7, [r0, -r2, lsl #26]
    5778:	001a7b01 	andseq	r7, sl, r1, lsl #22
    577c:	01a50100 			; <UNDEFINED> instruction: 0x01a50100
    5780:	00001a04 	andeq	r1, r0, r4, lsl #20
    5784:	00001a2c 	andeq	r1, r0, ip, lsr #20
    5788:	94007d02 	strls	r7, [r0], #-3330	; 0xfffff2fe
    578c:	0b000001 	bleq	5798 <__bss_end+0x1f30>
    5790:	00001bea 	andeq	r1, r0, sl, ror #23
    5794:	007aa501 	rsbseq	sl, sl, r1, lsl #10
    5798:	50010000 	andpl	r0, r1, r0
    579c:	006e6f0c 	rsbeq	r6, lr, ip, lsl #30
    57a0:	007aa501 	rsbseq	sl, sl, r1, lsl #10
    57a4:	51010000 	tstpl	r1, r0
    57a8:	00184209 	andseq	r4, r8, r9, lsl #4
    57ac:	7aa70100 	bvc	fe9c5bb4 <__bss_end+0xfe9c234c>
    57b0:	f3000000 	vhadd.u8	d0, d0, d0
    57b4:	0000000d 	andeq	r0, r0, sp
    57b8:	19cb010d 	stmibne	fp, {r0, r2, r3, r8}^
    57bc:	59010000 	stmdbpl	r1, {}	; <UNPREDICTABLE>
    57c0:	001a2c01 	andseq	r2, sl, r1, lsl #24
    57c4:	001a9000 	andseq	r9, sl, r0
    57c8:	000e1c00 	andeq	r1, lr, r0, lsl #24
    57cc:	0001ca00 	andeq	ip, r1, r0, lsl #20
    57d0:	00690e00 	rsbeq	r0, r9, r0, lsl #28
    57d4:	007a5b01 	rsbseq	r5, sl, r1, lsl #22
    57d8:	0e3c0000 	cdpeq	0, 3, cr0, cr12, cr0, {0}
    57dc:	42090000 	andmi	r0, r9, #0
    57e0:	01000018 	tsteq	r0, r8, lsl r0
    57e4:	00007a5c 	andeq	r7, r0, ip, asr sl
    57e8:	000e5b00 	andeq	r5, lr, r0, lsl #22
    57ec:	010d0000 	tsteq	sp, r0
    57f0:	00001a03 	andeq	r1, r0, r3, lsl #20
    57f4:	90012c01 	andls	r2, r1, r1, lsl #24
    57f8:	f000001a 			; <UNDEFINED> instruction: 0xf000001a
    57fc:	a600001a 			; <UNDEFINED> instruction: 0xa600001a
    5800:	0000000e 	andeq	r0, r0, lr
    5804:	0e000002 	cdpeq	0, 0, cr0, cr0, cr2, {0}
    5808:	2e010069 	cdpcs	0, 0, cr0, cr1, cr9, {3}
    580c:	0000007a 	andeq	r0, r0, sl, ror r0
    5810:	00000ec6 	andeq	r0, r0, r6, asr #29
    5814:	00184209 	andseq	r4, r8, r9, lsl #4
    5818:	7a2f0100 	bvc	bc5c20 <__bss_end+0xbc23b8>
    581c:	e5000000 	str	r0, [r0, #-0]
    5820:	0000000e 	andeq	r0, r0, lr
    5824:	1a56010f 	bne	1585c68 <__bss_end+0x1582400>
    5828:	c1010000 	tstgt	r1, r0
    582c:	00007a01 	andeq	r7, r0, r1, lsl #20
    5830:	001af000 	andseq	pc, sl, r0
    5834:	001b1000 	andseq	r1, fp, r0
    5838:	007d0200 	rsbseq	r0, sp, r0, lsl #4
    583c:	00000239 	andeq	r0, r0, r9, lsr r2
    5840:	001bea10 	andseq	lr, fp, r0, lsl sl
    5844:	7ac10100 	bvc	ff045c4c <__bss_end+0xff0423e4>
    5848:	1a000000 	bne	5850 <__bss_end+0x1fe8>
    584c:	1100000f 	tstne	r0, pc
    5850:	00001842 	andeq	r1, r0, r2, asr #16
    5854:	007ac301 	rsbseq	ip, sl, r1, lsl #6
    5858:	53010000 	movwpl	r0, #4096	; 0x1000
    585c:	4c010d00 	stcmi	13, cr0, [r1], {-0}
    5860:	01000019 	tsteq	r0, r9, lsl r0
    5864:	1b1001de 	blne	405fe4 <__bss_end+0x40277c>
    5868:	1b580000 	blne	1605870 <__bss_end+0x1602008>
    586c:	0f2d0000 	svceq	0x002d0000
    5870:	029c0000 	addseq	r0, ip, #0
    5874:	ea0b0000 	b	2c587c <__bss_end+0x2c2014>
    5878:	0100001b 	tsteq	r0, fp, lsl r0
    587c:	00007ade 	ldrdeq	r7, [r0], -lr
    5880:	10500100 	subsne	r0, r0, r0, lsl #2
    5884:	00001990 	muleq	r0, r0, r9
    5888:	007ade01 	rsbseq	sp, sl, r1, lsl #28
    588c:	0f4d0000 	svceq	0x004d0000
    5890:	bb100000 	bllt	405898 <__bss_end+0x402030>
    5894:	0100001b 	tsteq	r0, fp, lsl r0
    5898:	00007ade 	ldrdeq	r7, [r0], -lr
    589c:	000f6000 	andeq	r6, pc, r0
    58a0:	19881000 	stmibne	r8, {ip}
    58a4:	de010000 	cdple	0, 0, cr0, cr1, cr0, {0}
    58a8:	0000007a 	andeq	r0, r0, sl, ror r0
    58ac:	00000f73 	andeq	r0, r0, r3, ror pc
    58b0:	00184209 	andseq	r4, r8, r9, lsl #4
    58b4:	7ae00100 	bvc	ff805cbc <__bss_end+0xff802454>
    58b8:	86000000 	strhi	r0, [r0], -r0
    58bc:	0000000f 	andeq	r0, r0, pc
    58c0:	1b9c0112 	blne	fe705d10 <__bss_end+0xfe7024a8>
    58c4:	fb010000 	blx	458ce <__bss_end+0x42066>
    58c8:	00007a01 	andeq	r7, r0, r1, lsl #20
    58cc:	001b5800 	andseq	r5, fp, r0, lsl #16
    58d0:	001b8800 	andseq	r8, fp, r0, lsl #16
    58d4:	000fdb00 	andeq	sp, pc, r0, lsl #22
    58d8:	0002d200 	andeq	sp, r2, r0, lsl #4
    58dc:	00690800 	rsbeq	r0, r9, r0, lsl #16
    58e0:	007afd01 	rsbseq	pc, sl, r1, lsl #26
    58e4:	42090000 	andmi	r0, r9, #0
    58e8:	01000018 	tsteq	r0, r8, lsl r0
    58ec:	00007afe 	strdeq	r7, [r0], -lr
    58f0:	000ffb00 	andeq	pc, pc, r0, lsl #22
    58f4:	01130000 	tsteq	r3, r0
    58f8:	000019f2 	strdeq	r1, [r0], -r2
    58fc:	01010a01 	tsteq	r1, r1, lsl #20
    5900:	00000068 	andeq	r0, r0, r8, rrx
    5904:	00001b88 	andeq	r1, r0, r8, lsl #23
    5908:	00001cd8 	ldrdeq	r1, [r0], -r8
    590c:	0000102f 	andeq	r1, r0, pc, lsr #32
    5910:	0000041f 	andeq	r0, r0, pc, lsl r4
    5914:	01006914 	tsteq	r0, r4, lsl r9
    5918:	007a010c 	rsbseq	r0, sl, ip, lsl #2
    591c:	42150000 	andsmi	r0, r5, #0
    5920:	01000018 	tsteq	r0, r8, lsl r0
    5924:	007a010d 	rsbseq	r0, sl, sp, lsl #2
    5928:	105c0000 	subsne	r0, ip, r0
    592c:	cb150000 	blgt	545934 <__bss_end+0x5420cc>
    5930:	0100001b 	tsteq	r0, fp, lsl r0
    5934:	007a010e 	rsbseq	r0, sl, lr, lsl #2
    5938:	10af0000 	adcne	r0, pc, r0
    593c:	e2150000 	ands	r0, r5, #0
    5940:	01000019 	tsteq	r0, r9, lsl r0
    5944:	007a010f 	rsbseq	r0, sl, pc, lsl #2
    5948:	10cd0000 	sbcne	r0, sp, r0
    594c:	ea150000 	b	545954 <__bss_end+0x5420ec>
    5950:	01000019 	tsteq	r0, r9, lsl r0
    5954:	007a010f 	rsbseq	r0, sl, pc, lsl #2
    5958:	10ec0000 	rscne	r0, ip, r0
    595c:	ba160000 	blt	585964 <__bss_end+0x5820fc>
    5960:	0100001a 	tsteq	r0, sl, lsl r0
    5964:	007a010f 	rsbseq	r0, sl, pc, lsl #2
    5968:	5b010000 	blpl	45970 <__bss_end+0x42108>
    596c:	001ac316 	andseq	ip, sl, r6, lsl r3
    5970:	010f0100 	tsteq	pc, r0, lsl #2
    5974:	0000007a 	andeq	r0, r0, sl, ror r0
    5978:	cc165901 	ldcgt	9, cr5, [r6], {1}
    597c:	0100001a 	tsteq	r0, sl, lsl r0
    5980:	007a010f 	rsbseq	r0, sl, pc, lsl #2
    5984:	5a010000 	bpl	4598c <__bss_end+0x42124>
    5988:	001b3f16 	andseq	r3, fp, r6, lsl pc
    598c:	010f0100 	tsteq	pc, r0, lsl #2
    5990:	0000007a 	andeq	r0, r0, sl, ror r0
    5994:	71165801 	tstvc	r6, r1, lsl #16
    5998:	0100001b 	tsteq	r0, fp, lsl r0
    599c:	007a010f 	rsbseq	r0, sl, pc, lsl #2
    59a0:	57010000 	strpl	r0, [r1, -r0]
    59a4:	001c0816 	andseq	r0, ip, r6, lsl r8
    59a8:	010f0100 	tsteq	pc, r0, lsl #2
    59ac:	0000007a 	andeq	r0, r0, sl, ror r0
    59b0:	11155601 	tstne	r5, r1, lsl #12
    59b4:	0100001c 	tsteq	r0, ip, lsl r0
    59b8:	007a010f 	rsbseq	r0, sl, pc, lsl #2
    59bc:	110c0000 	tstne	ip, r0
    59c0:	4c160000 	ldcmi	0, cr0, [r6], {-0}
    59c4:	0100001a 	tsteq	r0, sl, lsl r0
    59c8:	007a0110 	rsbseq	r0, sl, r0, lsl r1
    59cc:	55010000 	strpl	r0, [r1, #-0]
    59d0:	00194315 	andseq	r4, r9, r5, lsl r3
    59d4:	01100100 	tsteq	r0, r0, lsl #2
    59d8:	0000007a 	andeq	r0, r0, sl, ror r0
    59dc:	0000112b 	andeq	r1, r0, fp, lsr #2
    59e0:	001a2f15 	andseq	r2, sl, r5, lsl pc
    59e4:	01100100 	tsteq	r0, r0, lsl #2
    59e8:	0000007a 	andeq	r0, r0, sl, ror r0
    59ec:	0000114a 	andeq	r1, r0, sl, asr #2
    59f0:	0019b515 	andseq	fp, r9, r5, lsl r5
    59f4:	01100100 	tsteq	r0, r0, lsl #2
    59f8:	0000007a 	andeq	r0, r0, sl, ror r0
    59fc:	00001169 	andeq	r1, r0, r9, ror #2
    5a00:	001be017 	andseq	lr, fp, r7, lsl r0
    5a04:	001cc800 	andseq	ip, ip, r0, lsl #16
    5a08:	ab011800 	blge	4ba10 <__bss_end+0x481a8>
    5a0c:	0100001b 	tsteq	r0, fp, lsl r0
    5a10:	00730123 	rsbseq	r0, r3, r3, lsr #2
    5a14:	f9010000 			; <UNDEFINED> instruction: 0xf9010000
    5a18:	19000003 	stmdbne	r0, {r0, r1}
    5a1c:	8d011800 	stchi	8, cr1, [r1, #-0]
    5a20:	0100001b 	tsteq	r0, fp, lsl r0
    5a24:	00730124 	rsbseq	r0, r3, r4, lsr #2
    5a28:	0d010000 	stceq	0, cr0, [r1, #-0]
    5a2c:	19000004 	stmdbne	r0, {r2}
    5a30:	70011a00 	andvc	r1, r1, r0, lsl #20
    5a34:	01000019 	tsteq	r0, r9, lsl r0
    5a38:	00730160 	rsbseq	r0, r3, r0, ror #2
    5a3c:	19010000 	stmdbne	r1, {}	; <UNPREDICTABLE>
    5a40:	1b000000 	blne	5a48 <__bss_end+0x21e0>
    5a44:	00001b79 	andeq	r1, r0, r9, ror fp
    5a48:	01016a01 	tsteq	r1, r1, lsl #20
    5a4c:	00000068 	andeq	r0, r0, r8, rrx
    5a50:	00046e01 	andeq	r6, r4, r1, lsl #28
    5a54:	21aa1c00 			; <UNDEFINED> instruction: 0x21aa1c00
    5a58:	6d010000 	stcvs	0, cr0, [r1, #-0]
    5a5c:	00007a01 	andeq	r7, r0, r1, lsl #20
    5a60:	19be1c00 	ldmibne	lr!, {sl, fp, ip}
    5a64:	6e010000 	cdpvs	0, 0, cr0, cr1, cr0, {0}
    5a68:	00004f01 	andeq	r4, r0, r1, lsl #30
    5a6c:	1b321c00 	blne	c8ca74 <__bss_end+0xc8920c>
    5a70:	6f010000 	svcvs	0x00010000
    5a74:	00004f01 	andeq	r4, r0, r1, lsl #30
    5a78:	1b251c00 	blne	94ca80 <__bss_end+0x949218>
    5a7c:	70010000 	andvc	r0, r1, r0
    5a80:	00004f01 	andeq	r4, r0, r1, lsl #30
    5a84:	18421c00 	stmdane	r2, {sl, fp, ip}^
    5a88:	71010000 	tstvc	r1, r0
    5a8c:	00004f01 	andeq	r4, r0, r1, lsl #30
    5a90:	01130000 	tsteq	r3, r0
    5a94:	00000110 	andeq	r0, r0, r0, lsl r1
    5a98:	01018901 	tsteq	r1, r1, lsl #18
    5a9c:	00000068 	andeq	r0, r0, r8, rrx
    5aa0:	00001cd8 	ldrdeq	r1, [r0], -r8
    5aa4:	00001d90 	muleq	r0, r0, sp
    5aa8:	0000117d 	andeq	r1, r0, sp, ror r1
    5aac:	000004dc 	ldrdeq	r0, [r0], -ip
    5ab0:	0000d315 	andeq	sp, r0, r5, lsl r3
    5ab4:	018d0100 	orreq	r0, sp, r0, lsl #2
    5ab8:	00000068 	andeq	r0, r0, r8, rrx
    5abc:	0000119d 	muleq	r0, sp, r1
    5ac0:	00041f1d 	andeq	r1, r4, sp, lsl pc
    5ac4:	001ce000 	andseq	lr, ip, r0
    5ac8:	001d5c00 	andseq	r5, sp, r0, lsl #24
    5acc:	01900100 	orrseq	r0, r0, r0, lsl #2
    5ad0:	001ce017 	andseq	lr, ip, r7, lsl r0
    5ad4:	001d5c00 	andseq	r5, sp, r0, lsl #24
    5ad8:	04311e00 	ldrteq	r1, [r1], #-3584	; 0xfffff200
    5adc:	11eb0000 	mvnne	r0, r0
    5ae0:	3d1f0000 	ldccc	0, cr0, [pc, #-0]	; 5ae8 <__bss_end+0x2280>
    5ae4:	0a000004 	beq	5afc <__bss_end+0x2294>
    5ae8:	0004611e 	andeq	r6, r4, lr, lsl r1
    5aec:	0011fe00 	andseq	pc, r1, r0, lsl #28
    5af0:	04491f00 	strbeq	r1, [r9], #-3840	; 0xfffff100
    5af4:	1f0b0000 	svcne	0x000b0000
    5af8:	00000455 	andeq	r0, r0, r5, asr r4
    5afc:	0000000c 	andeq	r0, r0, ip
    5b00:	199f0120 	ldmibne	pc, {r5, r8}	; <UNPREDICTABLE>
    5b04:	a4010000 	strge	r0, [r1], #-0
    5b08:	007a0101 	rsbseq	r0, sl, r1, lsl #2
    5b0c:	1d900000 	ldcne	0, cr0, [r0]
    5b10:	1d940000 	ldcne	0, cr0, [r4]
    5b14:	7d020000 	stcvc	0, cr0, [r2, #-0]
    5b18:	d3012100 	movwle	r2, #4352	; 0x1100
    5b1c:	0100001b 	tsteq	r0, fp, lsl r0
    5b20:	940101aa 	strls	r0, [r1], #-426	; 0xfffffe56
    5b24:	9800001d 	stmdals	r0, {r0, r2, r3, r4}
    5b28:	0200001d 	andeq	r0, r0, #29
    5b2c:	0121007d 	teqeq	r1, sp, ror r0
    5b30:	00001af9 	strdeq	r1, [r0], -r9
    5b34:	0101b001 	tsteq	r1, r1
    5b38:	00001d98 	muleq	r0, r8, sp
    5b3c:	00001d9c 	muleq	r0, ip, sp
    5b40:	21007d02 	tstcs	r0, r2, lsl #26
    5b44:	001b0f01 	andseq	r0, fp, r1, lsl #30
    5b48:	01b60100 			; <UNDEFINED> instruction: 0x01b60100
    5b4c:	001d9c01 	andseq	r9, sp, r1, lsl #24
    5b50:	001da000 	andseq	sl, sp, r0
    5b54:	007d0200 	rsbseq	r0, sp, r0, lsl #4
    5b58:	1bf30121 	blne	ffcc5fe4 <__bss_end+0xffcc277c>
    5b5c:	bc010000 	stclt	0, cr0, [r1], {-0}
    5b60:	1da00101 	stfnes	f0, [r0, #4]!
    5b64:	1da40000 	stcne	0, cr0, [r4]
    5b68:	7d020000 	stcvc	0, cr0, [r2, #-0]
    5b6c:	37012200 	strcc	r2, [r1, -r0, lsl #4]
    5b70:	0100001a 	tsteq	r0, sl, lsl r0
    5b74:	a40101c2 	strge	r0, [r1], #-450	; 0xfffffe3e
    5b78:	a800001d 	stmdage	r0, {r0, r2, r3, r4}
    5b7c:	0200001d 	andeq	r0, r0, #29
    5b80:	057e007d 	ldrbeq	r0, [lr, #-125]!	; 0xffffff83
    5b84:	ea230000 	b	8c5b8c <__bss_end+0x8c2324>
    5b88:	0100001b 	tsteq	r0, fp, lsl r0
    5b8c:	007a01c2 	rsbseq	r0, sl, r2, asr #3
    5b90:	50010000 	andpl	r0, r1, r0
    5b94:	006e6f24 	rsbeq	r6, lr, r4, lsr #30
    5b98:	7a01c201 	bvc	763a4 <__bss_end+0x72b3c>
    5b9c:	01000000 	tsteq	r0, r0
    5ba0:	01250051 	qsubeq	r0, r1, r5
    5ba4:	00001ad5 	ldrdeq	r1, [r0], -r5
    5ba8:	0101c801 	tsteq	r1, r1, lsl #16
    5bac:	0000007a 	andeq	r0, r0, sl, ror r0
    5bb0:	00001da8 	andeq	r1, r0, r8, lsr #27
    5bb4:	00001dac 	andeq	r1, r0, ip, lsr #27
    5bb8:	aa007d02 	bge	24fc8 <__bss_end+0x21760>
    5bbc:	23000005 	movwcs	r0, #5
    5bc0:	00001bea 	andeq	r1, r0, sl, ror #23
    5bc4:	7a01c801 	bvc	77bd0 <__bss_end+0x74368>
    5bc8:	01000000 	tsteq	r0, r0
    5bcc:	01260050 	qsubeq	r0, r0, r6
    5bd0:	00001a1b 	andeq	r1, r0, fp, lsl sl
    5bd4:	0101ce01 	tsteq	r1, r1, lsl #28
    5bd8:	00001dac 	andeq	r1, r0, ip, lsr #27
    5bdc:	00001db0 			; <UNDEFINED> instruction: 0x00001db0
    5be0:	23007d02 	movwcs	r7, #3330	; 0xd02
    5be4:	00001983 	andeq	r1, r0, r3, lsl #19
    5be8:	7a01ce01 	bvc	793f4 <__bss_end+0x75b8c>
    5bec:	01000000 	tsteq	r0, r0
    5bf0:	1c1a2350 	ldcne	3, cr2, [sl], {80}	; 0x50
    5bf4:	ce010000 	cdpgt	0, 0, cr0, cr1, cr0, {0}
    5bf8:	00007a01 	andeq	r7, r0, r1, lsl #20
    5bfc:	23510100 	cmpcs	r1, #0, 2
    5c00:	00001bc0 	andeq	r1, r0, r0, asr #23
    5c04:	7a01ce01 	bvc	79410 <__bss_end+0x75ba8>
    5c08:	01000000 	tsteq	r0, r0
    5c0c:	19882352 	stmibne	r8, {r1, r4, r6, r8, r9, sp}
    5c10:	ce010000 	cdpgt	0, 0, cr0, cr1, cr0, {0}
    5c14:	00007a01 	andeq	r7, r0, r1, lsl #20
    5c18:	00530100 	subseq	r0, r3, r0, lsl #2
    5c1c:	0006c700 	andeq	ip, r6, r0, lsl #14
    5c20:	98000200 	stmdals	r0, {r9}
    5c24:	0400000b 	streq	r0, [r0], #-11
    5c28:	00033101 	andeq	r3, r3, r1, lsl #2
    5c2c:	1e440100 	dvfnes	f0, f4, f0
    5c30:	02af0000 	adceq	r0, pc, #0
    5c34:	1db00000 	ldcne	0, cr0, [r0]
    5c38:	246c0000 	strbtcs	r0, [ip], #-0
    5c3c:	0af30000 	beq	ffcc5c44 <__bss_end+0xffcc23dc>
    5c40:	04020000 	streq	r0, [r2], #-0
    5c44:	00013b05 	andeq	r3, r1, r5, lsl #22
    5c48:	07040200 	streq	r0, [r4, -r0, lsl #4]
    5c4c:	00000244 	andeq	r0, r0, r4, asr #4
    5c50:	3f070402 	svccc	0x00070402
    5c54:	02000002 	andeq	r0, r0, #2
    5c58:	027e0702 	rsbseq	r0, lr, #524288	; 0x80000
    5c5c:	01020000 	tsteq	r2, r0
    5c60:	0001ac08 	andeq	sl, r1, r8, lsl #24
    5c64:	06010200 	streq	r0, [r1], -r0, lsl #4
    5c68:	000001a5 	andeq	r0, r0, r5, lsr #3
    5c6c:	a3080102 	movwge	r0, #33026	; 0x8102
    5c70:	02000001 	andeq	r0, r0, #1
    5c74:	00700502 	rsbseq	r0, r0, r2, lsl #10
    5c78:	0d030000 	stceq	0, cr0, [r3, #-0]
    5c7c:	03000002 	movweq	r0, #2
    5c80:	00006812 	andeq	r6, r0, r2, lsl r8
    5c84:	05040400 	streq	r0, [r4, #-1024]	; 0xfffffc00
    5c88:	00746e69 	rsbseq	r6, r4, r9, ror #28
    5c8c:	00010a03 	andeq	r0, r1, r3, lsl #20
    5c90:	2c130300 	ldccs	3, cr0, [r3], {-0}
    5c94:	02000000 	andeq	r0, r0, #0
    5c98:	01360508 	teqeq	r6, r8, lsl #10
    5c9c:	35030000 	strcc	r0, [r3, #-0]
    5ca0:	0300001c 	movweq	r0, #28
    5ca4:	00008c15 	andeq	r8, r0, r5, lsl ip
    5ca8:	07080200 	streq	r0, [r8, -r0, lsl #4]
    5cac:	0000023a 	andeq	r0, r0, sl, lsr r2
    5cb0:	001d6e05 	andseq	r6, sp, r5, lsl #28
    5cb4:	0f025000 	svceq	0x00025000
    5cb8:	000001b8 			; <UNDEFINED> instruction: 0x000001b8
    5cbc:	001e0106 	andseq	r0, lr, r6, lsl #2
    5cc0:	6f110200 	svcvs	0x00110200
    5cc4:	02000000 	andeq	r0, r0, #0
    5cc8:	67060023 	strvs	r0, [r6, -r3, lsr #32]
    5ccc:	0200001e 	andeq	r0, r0, #30
    5cd0:	00006f12 	andeq	r6, r0, r2, lsl pc
    5cd4:	04230200 	strteq	r0, [r3], #-512	; 0xfffffe00
    5cd8:	001ebf06 	andseq	fp, lr, r6, lsl #30
    5cdc:	6f130200 	svcvs	0x00130200
    5ce0:	02000000 	andeq	r0, r0, #0
    5ce4:	f3060823 	vsub.i8	d0, d6, d19
    5ce8:	0200001d 	andeq	r0, r0, #29
    5cec:	00006f14 	andeq	r6, r0, r4, lsl pc
    5cf0:	0c230200 	sfmeq	f0, 4, [r3], #-0
    5cf4:	001d4006 	andseq	r4, sp, r6
    5cf8:	6f150200 	svcvs	0x00150200
    5cfc:	02000000 	andeq	r0, r0, #0
    5d00:	b1061023 	tstlt	r6, r3, lsr #32
    5d04:	0200001e 	andeq	r0, r0, #30
    5d08:	00006f16 	andeq	r6, r0, r6, lsl pc
    5d0c:	14230200 	strtne	r0, [r3], #-512	; 0xfffffe00
    5d10:	001dc806 	andseq	ip, sp, r6, lsl #16
    5d14:	6f170200 	svcvs	0x00170200
    5d18:	02000000 	andeq	r0, r0, #0
    5d1c:	d1061823 	tstle	r6, r3, lsr #16
    5d20:	0200001e 	andeq	r0, r0, #30
    5d24:	00006f18 	andeq	r6, r0, r8, lsl pc
    5d28:	1c230200 	sfmne	f0, 4, [r3], #-0
    5d2c:	001e2806 	andseq	r2, lr, r6, lsl #16
    5d30:	6f190200 	svcvs	0x00190200
    5d34:	02000000 	andeq	r0, r0, #0
    5d38:	80062023 	andhi	r2, r6, r3, lsr #32
    5d3c:	0200001d 	andeq	r0, r0, #29
    5d40:	00006f1a 	andeq	r6, r0, sl, lsl pc
    5d44:	24230200 	strtcs	r0, [r3], #-512	; 0xfffffe00
    5d48:	001c6906 	andseq	r6, ip, r6, lsl #18
    5d4c:	6f1b0200 	svcvs	0x001b0200
    5d50:	02000000 	andeq	r0, r0, #0
    5d54:	ca062823 	bgt	18fde8 <__bss_end+0x18c580>
    5d58:	0200001c 	andeq	r0, r0, #28
    5d5c:	00006f1c 	andeq	r6, r0, ip, lsl pc
    5d60:	2c230200 	sfmcs	f0, 4, [r3], #-0
    5d64:	001cd406 	andseq	sp, ip, r6, lsl #8
    5d68:	6f1d0200 	svcvs	0x001d0200
    5d6c:	02000000 	andeq	r0, r0, #0
    5d70:	de063023 	cdple	0, 0, cr3, cr6, cr3, {1}
    5d74:	0200001c 	andeq	r0, r0, #28
    5d78:	00006f1e 	andeq	r6, r0, lr, lsl pc
    5d7c:	34230200 	strtcc	r0, [r3], #-512	; 0xfffffe00
    5d80:	001ce806 	andseq	lr, ip, r6, lsl #16
    5d84:	6f1f0200 	svcvs	0x001f0200
    5d88:	02000000 	andeq	r0, r0, #0
    5d8c:	f2063823 	vadd.i8	d3, d6, d19
    5d90:	0200001c 	andeq	r0, r0, #28
    5d94:	00006f20 	andeq	r6, r0, r0, lsr #30
    5d98:	3c230200 	sfmcc	f0, 4, [r3], #-0
    5d9c:	001cfc06 	andseq	pc, ip, r6, lsl #24
    5da0:	6f210200 	svcvs	0x00210200
    5da4:	02000000 	andeq	r0, r0, #0
    5da8:	19064023 	stmdbne	r6, {r0, r1, r5, lr}
    5dac:	0200001d 	andeq	r0, r0, #29
    5db0:	00006f22 	andeq	r6, r0, r2, lsr #30
    5db4:	44230200 	strtmi	r0, [r3], #-512	; 0xfffffe00
    5db8:	001e3006 	andseq	r3, lr, r6
    5dbc:	6f230200 	svcvs	0x00230200
    5dc0:	02000000 	andeq	r0, r0, #0
    5dc4:	3a064823 	bcc	197e58 <__bss_end+0x1945f0>
    5dc8:	0200001e 	andeq	r0, r0, #30
    5dcc:	00006f24 	andeq	r6, r0, r4, lsr #30
    5dd0:	4c230200 	sfmmi	f0, 4, [r3], #-0
    5dd4:	1d6f0300 	stclne	3, cr0, [pc, #-0]	; 5ddc <__bss_end+0x2574>
    5dd8:	25020000 	strcs	r0, [r2, #-0]
    5ddc:	00000093 	muleq	r0, r3, r0
    5de0:	001c8203 	andseq	r8, ip, r3, lsl #4
    5de4:	b8670200 	stmdalt	r7!, {r9}^
    5de8:	07000001 	streq	r0, [r0, -r1]
    5dec:	001d8c01 	andseq	r8, sp, r1, lsl #24
    5df0:	01d10200 	bicseq	r0, r1, r0, lsl #4
    5df4:	00005d01 	andeq	r5, r0, r1, lsl #26
    5df8:	44080100 	strmi	r0, [r8], #-256	; 0xffffff00
    5dfc:	0100001c 	tsteq	r0, ip, lsl r0
    5e00:	00810115 	addeq	r0, r1, r5, lsl r1
    5e04:	1db00000 	ldcne	0, cr0, [r0]
    5e08:	1e480000 	cdpne	0, 4, cr0, cr8, cr0, {0}
    5e0c:	122a0000 	eorne	r0, sl, #0
    5e10:	02450000 	subeq	r0, r5, #0
    5e14:	0a090000 	beq	245e1c <__bss_end+0x2425b4>
    5e18:	01000019 	tsteq	r0, r9, lsl r0
    5e1c:	00008115 	andeq	r8, r0, r5, lsl r1
    5e20:	00124a00 	andseq	r4, r2, r0, lsl #20
    5e24:	179e0900 	ldrne	r0, [lr, r0, lsl #18]
    5e28:	15010000 	strne	r0, [r1, #-0]
    5e2c:	0000006f 	andeq	r0, r0, pc, rrx
    5e30:	00001272 	andeq	r1, r0, r2, ror r2
    5e34:	0017b80a 	andseq	fp, r7, sl, lsl #16
    5e38:	81170100 	tsthi	r7, r0, lsl #2
    5e3c:	85000000 	strhi	r0, [r0, #-0]
    5e40:	0a000012 	beq	5e90 <__bss_end+0x2628>
    5e44:	0000192e 	andeq	r1, r0, lr, lsr #18
    5e48:	00811801 	addeq	r1, r1, r1, lsl #16
    5e4c:	12c80000 	sbcne	r0, r8, #0
    5e50:	ec0a0000 	stc	0, cr0, [sl], {-0}
    5e54:	01000017 	tsteq	r0, r7, lsl r0
    5e58:	00005d19 	andeq	r5, r0, r9, lsl sp
    5e5c:	00132800 	andseq	r2, r3, r0, lsl #16
    5e60:	010b0000 	tsteq	fp, r0
    5e64:	00001bab 	andeq	r1, r0, fp, lsr #23
    5e68:	48018e02 	stmdami	r1, {r1, r9, sl, fp, pc}
    5e6c:	7800001e 	stmdavc	r0, {r1, r2, r3, r4}
    5e70:	8300001e 	movwhi	r0, #30
    5e74:	6e000013 	mcrvs	0, 0, r0, cr0, cr3, {0}
    5e78:	0a000002 	beq	5e88 <__bss_end+0x2620>
    5e7c:	00001842 	andeq	r1, r0, r2, asr #16
    5e80:	006f9002 	rsbeq	r9, pc, r2
    5e84:	13a30000 			; <UNDEFINED> instruction: 0x13a30000
    5e88:	0c000000 	stceq	0, cr0, [r0], {-0}
    5e8c:	001b8d01 	andseq	r8, fp, r1, lsl #26
    5e90:	019b0200 	orrseq	r0, fp, r0, lsl #4
    5e94:	00001e78 	andeq	r1, r0, r8, ror lr
    5e98:	00001e98 	muleq	r0, r8, lr
    5e9c:	96007d02 	strls	r7, [r0], -r2, lsl #26
    5ea0:	0a000002 	beq	5eb0 <__bss_end+0x2648>
    5ea4:	00001842 	andeq	r1, r0, r2, asr #16
    5ea8:	006f9d02 	rsbeq	r9, pc, r2, lsl #26
    5eac:	13d70000 	bicsne	r0, r7, #0
    5eb0:	0c000000 	stceq	0, cr0, [r0], {-0}
    5eb4:	001e0f01 	andseq	r0, lr, r1, lsl #30
    5eb8:	01a60200 			; <UNDEFINED> instruction: 0x01a60200
    5ebc:	00001e98 	muleq	r0, r8, lr
    5ec0:	00001eb0 			; <UNDEFINED> instruction: 0x00001eb0
    5ec4:	be007d02 	cdplt	13, 0, cr7, cr0, cr2, {0}
    5ec8:	0a000002 	beq	5ed8 <__bss_end+0x2670>
    5ecc:	00001842 	andeq	r1, r0, r2, asr #16
    5ed0:	006fa802 	rsbeq	sl, pc, r2, lsl #16
    5ed4:	14060000 	strne	r0, [r6], #-0
    5ed8:	0c000000 	stceq	0, cr0, [r0], {-0}
    5edc:	001e7001 	andseq	r7, lr, r1
    5ee0:	01af0200 			; <UNDEFINED> instruction: 0x01af0200
    5ee4:	00001eb0 			; <UNDEFINED> instruction: 0x00001eb0
    5ee8:	00001ec8 	andeq	r1, r0, r8, asr #29
    5eec:	e6007d02 	str	r7, [r0], -r2, lsl #26
    5ef0:	0a000002 	beq	5f00 <__bss_end+0x2698>
    5ef4:	00001842 	andeq	r1, r0, r2, asr #16
    5ef8:	006fb102 	rsbeq	fp, pc, r2, lsl #2
    5efc:	14300000 	ldrtne	r0, [r0], #-0
    5f00:	0b000000 	bleq	5f08 <__bss_end+0x26a0>
    5f04:	001da101 	andseq	sl, sp, r1, lsl #2
    5f08:	01b80200 			; <UNDEFINED> instruction: 0x01b80200
    5f0c:	00001ec8 	andeq	r1, r0, r8, asr #29
    5f10:	00001f1c 	andeq	r1, r0, ip, lsl pc
    5f14:	0000145a 	andeq	r1, r0, sl, asr r4
    5f18:	0000030a 	andeq	r0, r0, sl, lsl #6
    5f1c:	0200690d 	andeq	r6, r0, #212992	; 0x34000
    5f20:	00006fba 			; <UNDEFINED> instruction: 0x00006fba
    5f24:	0b000000 	bleq	5f2c <__bss_end+0x26c4>
    5f28:	001c4e01 	andseq	r4, ip, r1, lsl #28
    5f2c:	01c60200 	biceq	r0, r6, r0, lsl #4
    5f30:	00001f1c 	andeq	r1, r0, ip, lsl pc
    5f34:	00001fdc 	ldrdeq	r1, [r0], -ip
    5f38:	0000147a 	andeq	r1, r0, sl, ror r4
    5f3c:	0000034d 	andeq	r0, r0, sp, asr #6
    5f40:	0200690e 	andeq	r6, r0, #229376	; 0x38000
    5f44:	00006fc8 	andeq	r6, r0, r8, asr #31
    5f48:	00149a00 	andseq	r9, r4, r0, lsl #20
    5f4c:	18420a00 	stmdane	r2, {r9, fp}^
    5f50:	c9020000 	stmdbgt	r2, {}	; <UNPREDICTABLE>
    5f54:	0000006f 	andeq	r0, r0, pc, rrx
    5f58:	000014e7 	andeq	r1, r0, r7, ror #9
    5f5c:	001ec90f 	andseq	ip, lr, pc, lsl #18
    5f60:	6fca0200 	svcvs	0x00ca0200
    5f64:	01000000 	tsteq	r0, r0
    5f68:	010c0054 	qaddeq	r0, r4, ip
    5f6c:	00001d5d 	andeq	r1, r0, sp, asr sp
    5f70:	dc01e902 	stcle	9, cr14, [r1], {2}
    5f74:	3800001f 	stmdacc	r0, {r0, r1, r2, r3, r4}
    5f78:	02000020 	andeq	r0, r0, #32
    5f7c:	0375007d 	cmneq	r5, #125	; 0x7d
    5f80:	420a0000 	andmi	r0, sl, #0
    5f84:	02000018 	andeq	r0, r0, #24
    5f88:	00006feb 	andeq	r6, r0, fp, ror #31
    5f8c:	00150000 	andseq	r0, r5, r0
    5f90:	01100000 	tsteq	r0, r0
    5f94:	00001970 	andeq	r1, r0, r0, ror r9
    5f98:	01011202 	tsteq	r1, r2, lsl #4
    5f9c:	00002038 	andeq	r2, r0, r8, lsr r0
    5fa0:	0000206c 	andeq	r2, r0, ip, rrx
    5fa4:	9d007d02 	stcls	13, cr7, [r0, #-8]
    5fa8:	11000003 	tstne	r0, r3
    5fac:	14020069 	strne	r0, [r2], #-105	; 0xffffff97
    5fb0:	00006f01 	andeq	r6, r0, r1, lsl #30
    5fb4:	0015ad00 	andseq	sl, r5, r0, lsl #26
    5fb8:	01120000 	tsteq	r2, r0
    5fbc:	00001c1f 	andeq	r1, r0, pc, lsl ip
    5fc0:	01011c02 	tsteq	r1, r2, lsl #24
    5fc4:	0000206c 	andeq	r2, r0, ip, rrx
    5fc8:	000020f8 	strdeq	r2, [r0], -r8
    5fcc:	000015cc 	andeq	r1, r0, ip, asr #11
    5fd0:	000003d8 	ldrdeq	r0, [r0], -r8
    5fd4:	6b6c6313 	blvs	1b1ec28 <__bss_end+0x1b1b3c0>
    5fd8:	011c0200 	tsteq	ip, r0, lsl #4
    5fdc:	0000006f 	andeq	r0, r0, pc, rrx
    5fe0:	000015ec 	andeq	r1, r0, ip, ror #11
    5fe4:	00184214 	andseq	r4, r8, r4, lsl r2
    5fe8:	011e0200 	tsteq	lr, r0, lsl #4
    5fec:	0000006f 	andeq	r0, r0, pc, rrx
    5ff0:	000015ff 	strdeq	r1, [r0], -pc	; <UNPREDICTABLE>
    5ff4:	01ce1500 	biceq	r1, lr, r0, lsl #10
    5ff8:	20f80000 	rscscs	r0, r8, r0
    5ffc:	21000000 	tstcs	r0, r0
    6000:	7d020000 	stcvc	0, cr0, [r2, #-0]
    6004:	9d011600 	stcls	6, cr1, [r1, #-0]
    6008:	0200001e 	andeq	r0, r0, #30
    600c:	5d0101e3 	stfpls	f0, [r1, #-908]	; 0xfffffc74
    6010:	00000000 	andeq	r0, r0, r0
    6014:	34000021 	strcc	r0, [r0], #-33	; 0xffffffdf
    6018:	02000021 	andeq	r0, r0, #33	; 0x21
    601c:	0416007d 	ldreq	r0, [r6], #-125	; 0xffffff83
    6020:	42140000 	andsmi	r0, r4, #0
    6024:	02000018 	andeq	r0, r0, #24
    6028:	006f01e5 	rsbeq	r0, pc, r5, ror #3
    602c:	16ba0000 	ldrtne	r0, [sl], r0
    6030:	10000000 	andne	r0, r0, r0
    6034:	001db201 	andseq	fp, sp, r1, lsl #4
    6038:	02160200 	andseq	r0, r6, #0, 4
    603c:	00213401 	eoreq	r3, r1, r1, lsl #8
    6040:	00215400 	eoreq	r5, r1, r0, lsl #8
    6044:	007d0200 	rsbseq	r0, sp, r0, lsl #4
    6048:	0000044d 	andeq	r0, r0, sp, asr #8
    604c:	006e6f17 	rsbeq	r6, lr, r7, lsl pc
    6050:	6f021602 	svcvs	0x00021602
    6054:	01000000 	tsteq	r0, r0
    6058:	18421450 	stmdane	r2, {r4, r6, sl, ip}^
    605c:	18020000 	stmdane	r2, {}	; <UNPREDICTABLE>
    6060:	00006f02 	andeq	r6, r0, r2, lsl #30
    6064:	0016ef00 	andseq	lr, r6, r0, lsl #30
    6068:	01100000 	tsteq	r0, r0
    606c:	00001dd7 	ldrdeq	r1, [r0], -r7
    6070:	01022e02 	tsteq	r2, r2, lsl #28
    6074:	00002154 	andeq	r2, r0, r4, asr r1
    6078:	00002184 	andeq	r2, r0, r4, lsl #3
    607c:	95007d02 	strls	r7, [r0, #-3330]	; 0xfffff2fe
    6080:	17000004 	strne	r0, [r0, -r4]
    6084:	006b6c63 	rsbeq	r6, fp, r3, ror #24
    6088:	6f022e02 	svcvs	0x00022e02
    608c:	01000000 	tsteq	r0, r0
    6090:	18421450 	stmdane	r2, {r4, r6, sl, ip}^
    6094:	30020000 	andcc	r0, r2, r0
    6098:	00006f02 	andeq	r6, r0, r2, lsl #30
    609c:	00171800 	andseq	r1, r7, r0, lsl #16
    60a0:	1e201400 	cdpne	4, 2, cr1, cr0, cr0, {0}
    60a4:	32020000 	andcc	r0, r2, #0
    60a8:	00006f02 	andeq	r6, r0, r2, lsl #30
    60ac:	00174b00 	andseq	r4, r7, r0, lsl #22
    60b0:	01160000 	tsteq	r6, r0
    60b4:	00001c5f 	andeq	r1, r0, pc, asr ip
    60b8:	01025a02 	tsteq	r2, r2, lsl #20
    60bc:	0000006f 	andeq	r0, r0, pc, rrx
    60c0:	00002184 	andeq	r2, r0, r4, lsl #3
    60c4:	000021f8 	strdeq	r2, [r0], -r8
    60c8:	e3007d02 	movw	r7, #3330	; 0xd02
    60cc:	14000004 	strne	r0, [r0], #-4
    60d0:	00001842 	andeq	r1, r0, r2, asr #16
    60d4:	6f025c02 	svcvs	0x00025c02
    60d8:	7f000000 	svcvc	0x00000000
    60dc:	14000017 	strne	r0, [r0], #-23	; 0xffffffe9
    60e0:	00001c69 	andeq	r1, r0, r9, ror #24
    60e4:	6f025d02 	svcvs	0x00025d02
    60e8:	92000000 	andls	r0, r0, #0
    60ec:	14000017 	strne	r0, [r0], #-23	; 0xffffffe9
    60f0:	00001c3b 	andeq	r1, r0, fp, lsr ip
    60f4:	6f025e02 	svcvs	0x00025e02
    60f8:	c6000000 	strgt	r0, [r0], -r0
    60fc:	00000017 	andeq	r0, r0, r7, lsl r0
    6100:	1d520118 	ldfnee	f0, [r2, #-96]	; 0xffffffa0
    6104:	42020000 	andmi	r0, r2, #0
    6108:	005d0101 	subseq	r0, sp, r1, lsl #2
    610c:	21f80000 	mvnscs	r0, r0
    6110:	23c40000 	biccs	r0, r4, #0
    6114:	17d90000 	ldrbne	r0, [r9, r0]
    6118:	053c0000 	ldreq	r0, [ip, #-0]!
    611c:	b1190000 	tstlt	r9, r0
    6120:	0200001c 	andeq	r0, r0, #28
    6124:	053c0142 	ldreq	r0, [ip, #-322]!	; 0xfffffebe
    6128:	17f90000 	ldrbne	r0, [r9, r0]!
    612c:	691a0000 	ldmdbvs	sl, {}	; <UNPREDICTABLE>
    6130:	01440200 	mrseq	r0, SPSR
    6134:	0000006f 	andeq	r0, r0, pc, rrx
    6138:	00184214 	andseq	r4, r8, r4, lsl r2
    613c:	01450200 	mrseq	r0, SPSR
    6140:	0000006f 	andeq	r0, r0, pc, rrx
    6144:	00001817 	andeq	r1, r0, r7, lsl r8
    6148:	001bcb14 	andseq	ip, fp, r4, lsl fp
    614c:	01460200 	mrseq	r0, SPSR
    6150:	0000005d 	andeq	r0, r0, sp, asr r0
    6154:	000018f0 	strdeq	r1, [r0], -r0
    6158:	c3041b00 	movwgt	r1, #19200	; 0x4b00
    615c:	1c000001 	stcne	0, cr0, [r0], {1}
    6160:	001d9701 	andseq	r9, sp, r1, lsl #14
    6164:	027a0200 	rsbseq	r0, sl, #0, 4
    6168:	00005d01 	andeq	r5, r0, r1, lsl #26
    616c:	0023c400 	eoreq	ip, r3, r0, lsl #8
    6170:	0023cc00 	eoreq	ip, r3, r0, lsl #24
    6174:	007d0200 	rsbseq	r0, sp, r0, lsl #4
    6178:	1cb60110 	ldfnes	f0, [r6], #64	; 0x40
    617c:	81020000 	tsthi	r2, r0
    6180:	23cc0102 	biccs	r0, ip, #-2147483648	; 0x80000000
    6184:	23dc0000 	bicscs	r0, ip, #0
    6188:	7d020000 	stcvc	0, cr0, [r2, #-0]
    618c:	00058500 	andeq	r8, r5, r0, lsl #10
    6190:	1e8b1900 	cdpne	9, 8, cr1, cr11, cr0, {0}
    6194:	81020000 	tsthi	r2, r0
    6198:	00058502 	andeq	r8, r5, r2, lsl #10
    619c:	00190e00 	andseq	r0, r9, r0, lsl #28
    61a0:	041b0000 	ldreq	r0, [fp], #-0
    61a4:	000001b8 			; <UNDEFINED> instruction: 0x000001b8
    61a8:	00a30118 	adceq	r0, r3, r8, lsl r1
    61ac:	88020000 	stmdahi	r2, {}	; <UNPREDICTABLE>
    61b0:	005d0102 	subseq	r0, sp, r2, lsl #2
    61b4:	23dc0000 	bicscs	r0, ip, #0
    61b8:	24500000 	ldrbcs	r0, [r0], #-0
    61bc:	19210000 	stmdbne	r1!, {}	; <UNPREDICTABLE>
    61c0:	05d80000 	ldrbeq	r0, [r8]
    61c4:	69110000 	ldmdbvs	r1, {}	; <UNPREDICTABLE>
    61c8:	028a0200 	addeq	r0, sl, #0, 4
    61cc:	0000006f 	andeq	r0, r0, pc, rrx
    61d0:	0000194e 	andeq	r1, r0, lr, asr #18
    61d4:	001bcb14 	andseq	ip, fp, r4, lsl fp
    61d8:	028b0200 	addeq	r0, fp, #0, 4
    61dc:	0000005d 	andeq	r0, r0, sp, asr r0
    61e0:	00001985 	andeq	r1, r0, r5, lsl #19
    61e4:	001cab1d 	andseq	sl, ip, sp, lsl fp
    61e8:	028c0200 	addeq	r0, ip, #0, 4
    61ec:	000001b8 			; <UNDEFINED> instruction: 0x000001b8
    61f0:	7fa09103 	svcvc	0x00a09103
    61f4:	5d011c00 	stcpl	12, cr1, [r1, #-0]
    61f8:	0200001e 	andeq	r0, r0, #30
    61fc:	5d0102a2 	sfmpl	f0, 4, [r1, #-648]	; 0xfffffd78
    6200:	50000000 	andpl	r0, r0, r0
    6204:	58000024 	stmdapl	r0, {r2, r5}
    6208:	02000024 	andeq	r0, r0, #36	; 0x24
    620c:	011c007d 	tsteq	ip, sp, ror r0
    6210:	00001d32 	andeq	r1, r0, r2, lsr sp
    6214:	0102a702 	tsteq	r2, r2, lsl #14
    6218:	0000005d 	andeq	r0, r0, sp, asr r0
    621c:	00002458 	andeq	r2, r0, r8, asr r4
    6220:	0000245c 	andeq	r2, r0, ip, asr r4
    6224:	10007d02 	andne	r7, r0, r2, lsl #26
    6228:	001c7301 	andseq	r7, ip, r1, lsl #6
    622c:	02ac0200 	adceq	r0, ip, #0, 4
    6230:	00245c01 	eoreq	r5, r4, r1, lsl #24
    6234:	00246000 	eoreq	r6, r4, r0
    6238:	007d0200 	rsbseq	r0, sp, r0, lsl #4
    623c:	00000632 	andeq	r0, r0, r2, lsr r6
    6240:	6b6c6317 	blvs	1b1eea4 <__bss_end+0x1b1b63c>
    6244:	02ac0200 	adceq	r0, ip, #0, 4
    6248:	00000068 	andeq	r0, r0, r8, rrx
    624c:	1e005001 	cdpne	0, 0, cr5, cr0, cr1, {0}
    6250:	001d2301 	andseq	r2, sp, r1, lsl #6
    6254:	02b10200 	adcseq	r0, r1, #0, 4
    6258:	00246001 	eoreq	r6, r4, r1
    625c:	00246400 	eoreq	r6, r4, r0, lsl #8
    6260:	007d0200 	rsbseq	r0, sp, r0, lsl #4
    6264:	1c900110 	ldfnes	f0, [r0], {16}
    6268:	b6020000 	strlt	r0, [r2], -r0
    626c:	24640102 	strbtcs	r0, [r4], #-258	; 0xfffffefe
    6270:	24680000 	strbtcs	r0, [r8], #-0
    6274:	7d020000 	stcvc	0, cr0, [r2, #-0]
    6278:	00066f00 	andeq	r6, r6, r0, lsl #30
    627c:	6c631700 	stclvs	7, cr1, [r3], #-0
    6280:	b602006b 	strlt	r0, [r2], -fp, rrx
    6284:	00006f02 	andeq	r6, r0, r2, lsl #30
    6288:	00500100 	subseq	r0, r0, r0, lsl #2
    628c:	1d06011c 	stfnes	f0, [r6, #-112]	; 0xffffff90
    6290:	bb020000 	bllt	86298 <__bss_end+0x82a30>
    6294:	005d0102 	subseq	r0, sp, r2, lsl #2
    6298:	24680000 	strbtcs	r0, [r8], #-0
    629c:	246c0000 	strbtcs	r0, [ip], #-0
    62a0:	7d020000 	stcvc	0, cr0, [r2, #-0]
    62a4:	6d741f00 	ldclvs	15, cr1, [r4, #-0]
    62a8:	69020070 	stmdbvs	r2, {r4, r5, r6}
    62ac:	000001b8 			; <UNDEFINED> instruction: 0x000001b8
    62b0:	35900305 	ldrcc	r0, [r0, #773]	; 0x305
    62b4:	6f200000 	svcvs	0x00200000
    62b8:	a9000000 	stmdbge	r0, {}	; <UNPREDICTABLE>
    62bc:	21000006 	tstcs	r0, r6
    62c0:	0000002c 	andeq	r0, r0, ip, lsr #32
    62c4:	8022001f 	eorhi	r0, r2, pc, lsl r0
    62c8:	0200001e 	andeq	r0, r0, #30
    62cc:	06990107 	ldreq	r0, [r9], r7, lsl #2
    62d0:	01010000 	tsteq	r1, r0
    62d4:	001e8023 	andseq	r8, lr, r3, lsr #32
    62d8:	01070200 	tsteq	r7, r0, lsl #4
    62dc:	00000699 	muleq	r0, r9, r6
    62e0:	10030501 	andne	r0, r3, r1, lsl #10
    62e4:	00000035 	andeq	r0, r0, r5, lsr r0
    62e8:	000004e4 	andeq	r0, r0, r4, ror #9
    62ec:	0ddc0002 	ldcleq	0, cr0, [ip, #8]
    62f0:	01040000 	tsteq	r4, r0
    62f4:	00000331 	andeq	r0, r0, r1, lsr r3
    62f8:	001ee301 	andseq	lr, lr, r1, lsl #6
    62fc:	0002af00 	andeq	sl, r2, r0, lsl #30
    6300:	00246c00 	eoreq	r6, r4, r0, lsl #24
    6304:	0027d400 	eoreq	sp, r7, r0, lsl #8
    6308:	000d6c00 	andeq	r6, sp, r0, lsl #24
    630c:	06010200 	streq	r0, [r1], -r0, lsl #4
    6310:	000001a5 	andeq	r0, r0, r5, lsr #3
    6314:	a3080102 	movwge	r0, #33026	; 0x8102
    6318:	02000001 	andeq	r0, r0, #1
    631c:	00700502 	rsbseq	r0, r0, r2, lsl #10
    6320:	02020000 	andeq	r0, r2, #0
    6324:	00027e07 	andeq	r7, r2, r7, lsl #28
    6328:	020d0300 	andeq	r0, sp, #0, 6
    632c:	12030000 	andne	r0, r3, #0
    6330:	0000004c 	andeq	r0, r0, ip, asr #32
    6334:	69050404 	stmdbvs	r5, {r2, sl}
    6338:	0300746e 	movweq	r7, #1134	; 0x46e
    633c:	0000010a 	andeq	r0, r0, sl, lsl #2
    6340:	005e1303 	subseq	r1, lr, r3, lsl #6
    6344:	04020000 	streq	r0, [r2], #-0
    6348:	00024407 	andeq	r4, r2, r7, lsl #8
    634c:	05080200 	streq	r0, [r8, #-512]	; 0xfffffe00
    6350:	00000136 	andeq	r0, r0, r6, lsr r1
    6354:	3a070802 	bcc	1c8364 <__bss_end+0x1c4afc>
    6358:	05000002 	streq	r0, [r0, #-2]
    635c:	00001936 	andeq	r1, r0, r6, lsr r9
    6360:	53014801 	movwpl	r4, #6145	; 0x1801
    6364:	6c000000 	stcvs	0, cr0, [r0], {-0}
    6368:	bc000024 	stclt	0, cr0, [r0], {36}	; 0x24
    636c:	02000024 	andeq	r0, r0, #36	; 0x24
    6370:	00da007d 	sbcseq	r0, sl, sp, ror r0
    6374:	0a060000 	beq	18637c <__bss_end+0x182b14>
    6378:	01000019 	tsteq	r0, r9, lsl r0
    637c:	00005348 	andeq	r5, r0, r8, asr #6
    6380:	0019af00 	andseq	sl, r9, r0, lsl #30
    6384:	179e0600 	ldrne	r0, [lr, r0, lsl #12]
    6388:	48010000 	stmdami	r1, {}	; <UNPREDICTABLE>
    638c:	00000053 	andeq	r0, r0, r3, asr r0
    6390:	000019ee 	andeq	r1, r0, lr, ror #19
    6394:	0017b807 	andseq	fp, r7, r7, lsl #16
    6398:	534a0100 	movtpl	r0, #41216	; 0xa100
    639c:	0c000000 	stceq	0, cr0, [r0], {-0}
    63a0:	0700001a 	smladeq	r0, sl, r0, r0
    63a4:	0000192e 	andeq	r1, r0, lr, lsr #18
    63a8:	00534b01 	subseq	r4, r3, r1, lsl #22
    63ac:	1a4f0000 	bne	13c63b4 <__bss_end+0x13c2b4c>
    63b0:	ec070000 	stc	0, cr0, [r7], {-0}
    63b4:	01000017 	tsteq	r0, r7, lsl r0
    63b8:	0000414c 	andeq	r4, r0, ip, asr #2
    63bc:	001a8500 	andseq	r8, sl, r0, lsl #10
    63c0:	01080000 	tsteq	r8, r0
    63c4:	00002014 	andeq	r2, r0, r4, lsl r0
    63c8:	bc011202 	sfmlt	f1, 4, [r1], {2}
    63cc:	dc000024 	stcle	0, cr0, [r0], {36}	; 0x24
    63d0:	d3000024 	movwle	r0, #36	; 0x24
    63d4:	0200001a 	andeq	r0, r0, #26
    63d8:	09000001 	stmdbeq	r0, {r0}
    63dc:	00001f44 	andeq	r1, r0, r4, asr #30
    63e0:	01021502 	tsteq	r2, r2, lsl #10
    63e4:	91020000 	tstls	r2, r0
    63e8:	530a0074 	movwpl	r0, #41076	; 0xa074
    63ec:	08000000 	stmdaeq	r0, {}	; <UNPREDICTABLE>
    63f0:	00200f01 	eoreq	r0, r0, r1, lsl #30
    63f4:	011c0200 	tsteq	ip, r0, lsl #4
    63f8:	000024dc 	ldrdeq	r2, [r0], -ip
    63fc:	000024fc 	strdeq	r2, [r0], -ip
    6400:	00001af3 	strdeq	r1, [r0], -r3
    6404:	0000012f 	andeq	r0, r0, pc, lsr #2
    6408:	001f4409 	andseq	r4, pc, r9, lsl #8
    640c:	021f0200 	andseq	r0, pc, #0, 4
    6410:	02000001 	andeq	r0, r0, #1
    6414:	0b007491 	bleq	23660 <__bss_end+0x1fdf8>
    6418:	001fd601 	andseq	sp, pc, r1, lsl #12
    641c:	012a0200 	teqeq	sl, r0, lsl #4
    6420:	000024fc 	strdeq	r2, [r0], -ip
    6424:	00002514 	andeq	r2, r0, r4, lsl r5
    6428:	57007d02 	strpl	r7, [r0, -r2, lsl #26]
    642c:	07000001 	streq	r0, [r0, -r1]
    6430:	0000206a 	andeq	r2, r0, sl, rrx
    6434:	00532c02 	subseq	r2, r3, r2, lsl #24
    6438:	1b130000 	blne	4c6440 <__bss_end+0x4c2bd8>
    643c:	08000000 	stmdaeq	r0, {}	; <UNPREDICTABLE>
    6440:	0020c301 	eoreq	ip, r0, r1, lsl #6
    6444:	01330200 	teqeq	r3, r0, lsl #4
    6448:	00002514 	andeq	r2, r0, r4, lsl r5
    644c:	00002524 	andeq	r2, r0, r4, lsr #10
    6450:	00001b36 	andeq	r1, r0, r6, lsr fp
    6454:	0000017e 	andeq	r0, r0, lr, ror r1
    6458:	6c61760c 	stclvs	6, cr7, [r1], #-48	; 0xffffffd0
    645c:	02330200 	eorseq	r0, r3, #0, 4
    6460:	01000001 	tsteq	r0, r1
    6464:	010d0050 	qaddeq	r0, r0, sp
    6468:	0000205b 	andeq	r2, r0, fp, asr r0
    646c:	53013902 	movwpl	r3, #6402	; 0x1902
    6470:	24000000 	strcs	r0, [r0], #-0
    6474:	34000025 	strcc	r0, [r0], #-37	; 0xffffffdb
    6478:	02000025 	andeq	r0, r0, #37	; 0x25
    647c:	0108007d 	tsteq	r8, sp, ror r0
    6480:	00001f99 	muleq	r0, r9, pc	; <UNPREDICTABLE>
    6484:	34013e02 	strcc	r3, [r1], #-3586	; 0xfffff1fe
    6488:	44000025 	strmi	r0, [r0], #-37	; 0xffffffdb
    648c:	56000025 	strpl	r0, [r0], -r5, lsr #32
    6490:	bd00001b 	stclt	0, cr0, [r0, #-108]	; 0xffffff94
    6494:	0c000001 	stceq	0, cr0, [r0], {1}
    6498:	006c6176 	rsbeq	r6, ip, r6, ror r1
    649c:	01023e02 	tsteq	r2, r2, lsl #28
    64a0:	50010000 	andpl	r0, r1, r0
    64a4:	f3010e00 	vcge.f32	d0, d1, d0
    64a8:	0200001e 	andeq	r0, r0, #30
    64ac:	00530144 	subseq	r0, r3, r4, asr #2
    64b0:	25440000 	strbcs	r0, [r4, #-0]
    64b4:	25680000 	strbcs	r0, [r8, #-0]!
    64b8:	1b760000 	blne	1d864c0 <__bss_end+0x1d82c58>
    64bc:	01f70000 	mvnseq	r0, r0
    64c0:	760f0000 	strvc	r0, [pc], -r0
    64c4:	02006c61 	andeq	r6, r0, #24832	; 0x6100
    64c8:	00010244 	andeq	r0, r1, r4, asr #4
    64cc:	001b9600 	andseq	r9, fp, r0, lsl #12
    64d0:	6d741000 	ldclvs	0, cr1, [r4, #-0]
    64d4:	46020070 			; <UNDEFINED> instruction: 0x46020070
    64d8:	00000053 	andeq	r0, r0, r3, asr r0
    64dc:	0e005001 	cdpeq	0, 0, cr5, cr0, cr1, {0}
    64e0:	001f6f01 	andseq	r6, pc, r1, lsl #30
    64e4:	014c0200 	mrseq	r0, SPSR
    64e8:	00000053 	andeq	r0, r0, r3, asr r0
    64ec:	00002568 	andeq	r2, r0, r8, ror #10
    64f0:	0000258c 	andeq	r2, r0, ip, lsl #11
    64f4:	00001bb5 			; <UNDEFINED> instruction: 0x00001bb5
    64f8:	00000231 	andeq	r0, r0, r1, lsr r2
    64fc:	6c61760f 	stclvs	6, cr7, [r1], #-60	; 0xffffffc4
    6500:	024c0200 	subeq	r0, ip, #0, 4
    6504:	d5000001 	strle	r0, [r0, #-1]
    6508:	1000001b 	andne	r0, r0, fp, lsl r0
    650c:	00706d74 	rsbseq	r6, r0, r4, ror sp
    6510:	00534e02 	subseq	r4, r3, r2, lsl #28
    6514:	50010000 	andpl	r0, r1, r0
    6518:	b4011100 	strlt	r1, [r1], #-256	; 0xffffff00
    651c:	02000020 	andeq	r0, r0, #32
    6520:	00530154 	subseq	r0, r3, r4, asr r1
    6524:	258c0000 	strcs	r0, [ip]
    6528:	25940000 	ldrcs	r0, [r4]
    652c:	7d020000 	stcvc	0, cr0, [r2, #-0]
    6530:	00025b00 	andeq	r5, r2, r0, lsl #22
    6534:	21aa0900 			; <UNDEFINED> instruction: 0x21aa0900
    6538:	56020000 	strpl	r0, [r2], -r0
    653c:	00000053 	andeq	r0, r0, r3, asr r0
    6540:	12005001 	andne	r5, r0, #1
    6544:	001fec01 	andseq	lr, pc, r1, lsl #24
    6548:	015c0200 	cmpeq	ip, r0, lsl #4
    654c:	00002594 	muleq	r0, r4, r5
    6550:	000025b0 			; <UNDEFINED> instruction: 0x000025b0
    6554:	0b007d02 	bleq	25964 <__bss_end+0x220fc>
    6558:	00207e01 	eoreq	r7, r0, r1, lsl #28
    655c:	01660200 	cmneq	r6, r0, lsl #4
    6560:	000025b0 			; <UNDEFINED> instruction: 0x000025b0
    6564:	000025dc 	ldrdeq	r2, [r0], -ip
    6568:	b3007d02 	movwlt	r7, #3330	; 0xd02
    656c:	06000002 	streq	r0, [r0], -r2
    6570:	00002006 	andeq	r2, r0, r6
    6574:	00536602 	subseq	r6, r3, r2, lsl #12
    6578:	1bf40000 	blne	ffd06580 <__bss_end+0xffd02d18>
    657c:	60130000 	andsvs	r0, r3, r0
    6580:	0200001f 	andeq	r0, r0, #31
    6584:	00005366 	andeq	r5, r0, r6, ror #6
    6588:	07510100 	ldrbeq	r0, [r1, -r0, lsl #2]
    658c:	000021aa 	andeq	r2, r0, sl, lsr #3
    6590:	00536902 	subseq	r6, r3, r2, lsl #18
    6594:	1c070000 	stcne	0, cr0, [r7], {-0}
    6598:	12000000 	andne	r0, r0, #0
    659c:	001f3001 	andseq	r3, pc, r1
    65a0:	01840200 	orreq	r0, r4, r0, lsl #4
    65a4:	000025dc 	ldrdeq	r2, [r0], -ip
    65a8:	000025fc 	strdeq	r2, [r0], -ip
    65ac:	0b007d02 	bleq	259bc <__bss_end+0x22154>
    65b0:	001f8b01 	andseq	r8, pc, r1, lsl #22
    65b4:	018f0200 	orreq	r0, pc, r0, lsl #4
    65b8:	000025fc 	strdeq	r2, [r0], -ip
    65bc:	00002610 	andeq	r2, r0, r0, lsl r6
    65c0:	ef007d02 	svc	0x00007d02
    65c4:	07000002 	streq	r0, [r0, -r2]
    65c8:	000021aa 	andeq	r2, r0, sl, lsr #3
    65cc:	00539102 	subseq	r9, r3, r2, lsl #2
    65d0:	1c500000 	mrane	r0, r0, acc0
    65d4:	08000000 	stmdaeq	r0, {}	; <UNPREDICTABLE>
    65d8:	001f1d01 	andseq	r1, pc, r1, lsl #26
    65dc:	019a0200 	orrseq	r0, sl, r0, lsl #4
    65e0:	00002610 	andeq	r2, r0, r0, lsl r6
    65e4:	000026f8 	strdeq	r2, [r0], -r8
    65e8:	00001c70 	andeq	r1, r0, r0, ror ip
    65ec:	00000381 	andeq	r0, r0, r1, lsl #7
    65f0:	00204a06 	eoreq	r4, r0, r6, lsl #20
    65f4:	539a0200 	orrspl	r0, sl, #0, 4
    65f8:	90000000 	andls	r0, r0, r0
    65fc:	0700001c 	smladeq	r0, ip, r0, r0
    6600:	000020a2 	andeq	r2, r0, r2, lsr #1
    6604:	00539c02 	subseq	r9, r3, r2, lsl #24
    6608:	1ca30000 	stcne	0, cr0, [r3]
    660c:	90070000 	andls	r0, r7, r0
    6610:	02000020 	andeq	r0, r0, #32
    6614:	0000539d 	muleq	r0, sp, r3
    6618:	001cc800 	andseq	ip, ip, r0, lsl #16
    661c:	20990700 	addscs	r0, r9, r0, lsl #14
    6620:	9e020000 	cdpls	0, 0, cr0, cr2, cr0, {0}
    6624:	00000053 	andeq	r0, r0, r3, asr r0
    6628:	00001cef 	andeq	r1, r0, pc, ror #25
    662c:	0020ab07 	eoreq	sl, r0, r7, lsl #22
    6630:	539f0200 	orrspl	r0, pc, #0, 4
    6634:	1f000000 	svcne	0x00000000
    6638:	0700001d 	smladeq	r0, sp, r0, r0
    663c:	000001dd 	ldrdeq	r0, [r0], -sp
    6640:	0053a002 	subseq	sl, r3, r2
    6644:	1d4f0000 	stclne	0, cr0, [pc, #-0]	; 664c <__bss_end+0x2de4>
    6648:	e4070000 	str	r0, [r7], #-0
    664c:	0200001f 	andeq	r0, r0, #31
    6650:	000053a1 	andeq	r5, r0, r1, lsr #7
    6654:	001d7900 	andseq	r7, sp, r0, lsl #18
    6658:	18420700 	stmdane	r2, {r8, r9, sl}^
    665c:	a2020000 	andge	r0, r2, #0
    6660:	00000102 	andeq	r0, r0, r2, lsl #2
    6664:	00001d98 	muleq	r0, r8, sp
    6668:	4e010800 	cdpmi	8, 0, cr0, cr1, cr0, {0}
    666c:	0200001f 	andeq	r0, r0, #31
    6670:	26f801cf 	ldrbtcs	r0, [r8], pc, asr #3
    6674:	274c0000 	strbcs	r0, [ip, -r0]
    6678:	1dda0000 	ldclne	0, cr0, [sl]
    667c:	03d60000 	bicseq	r0, r6, #0
    6680:	750f0000 	strvc	r0, [pc, #-0]	; 6688 <__bss_end+0x2e20>
    6684:	cf020073 	svcgt	0x00020073
    6688:	00000053 	andeq	r0, r0, r3, asr r0
    668c:	00001dfa 	strdeq	r1, [r0], -sl
    6690:	001fff07 	andseq	pc, pc, r7, lsl #30
    6694:	53d10200 	bicspl	r0, r1, #0, 4
    6698:	18000000 	stmdane	r0, {}	; <UNPREDICTABLE>
    669c:	1400001e 	strne	r0, [r0], #-30	; 0xffffffe2
    66a0:	00727563 	rsbseq	r7, r2, r3, ror #10
    66a4:	0053d202 	subseq	sp, r3, r2, lsl #4
    66a8:	1e5c0000 	cdpne	0, 5, cr0, cr12, cr0, {0}
    66ac:	09070000 	stmdbeq	r7, {}	; <UNPREDICTABLE>
    66b0:	0200001f 	andeq	r0, r0, #31
    66b4:	000053d3 	ldrdeq	r5, [r0], -r3
    66b8:	001e8600 	andseq	r8, lr, r0, lsl #12
    66bc:	01150000 	tsteq	r5, r0
    66c0:	00001eda 	ldrdeq	r1, [r0], -sl
    66c4:	01010602 	tsteq	r1, r2, lsl #12
    66c8:	0000274c 	andeq	r2, r0, ip, asr #14
    66cc:	00002758 	andeq	r2, r0, r8, asr r7
    66d0:	ff007d02 			; <UNDEFINED> instruction: 0xff007d02
    66d4:	16000003 	strne	r0, [r0], -r3
    66d8:	0200736d 	andeq	r7, r0, #-1275068415	; 0xb4000001
    66dc:	00530106 	subseq	r0, r3, r6, lsl #2
    66e0:	1ea50000 	cdpne	0, 10, cr0, cr5, cr0, {0}
    66e4:	17000000 	strne	r0, [r0, -r0]
    66e8:	00205301 	eoreq	r5, r0, r1, lsl #6
    66ec:	01100200 	tsteq	r0, r0, lsl #4
    66f0:	00275801 	eoreq	r5, r7, r1, lsl #16
    66f4:	00277000 	eoreq	r7, r7, r0
    66f8:	007d0200 	rsbseq	r0, sp, r0, lsl #4
    66fc:	1f100115 	svcne	0x00100115
    6700:	18020000 	stmdane	r2, {}	; <UNPREDICTABLE>
    6704:	27700101 	ldrbcs	r0, [r0, -r1, lsl #2]!
    6708:	27880000 	strcs	r0, [r8, r0]
    670c:	7d020000 	stcvc	0, cr0, [r2, #-0]
    6710:	00043e00 	andeq	r3, r4, r0, lsl #28
    6714:	18d21800 	ldmne	r2, {fp, ip}^
    6718:	1a020000 	bne	86720 <__bss_end+0x82eb8>
    671c:	00005301 	andeq	r5, r0, r1, lsl #6
    6720:	001eb800 	andseq	fp, lr, r0, lsl #16
    6724:	01150000 	tsteq	r5, r0
    6728:	0000203e 	andeq	r2, r0, lr, lsr r0
    672c:	01012402 	tsteq	r1, r2, lsl #8
    6730:	00002788 	andeq	r2, r0, r8, lsl #15
    6734:	000027a0 	andeq	r2, r0, r0, lsr #15
    6738:	68007d02 	stmdavs	r0, {r1, r8, sl, fp, ip, sp, lr}
    673c:	18000004 	stmdane	r0, {r2}
    6740:	000018d2 	ldrdeq	r1, [r0], -r2
    6744:	53012602 	movwpl	r2, #5634	; 0x1602
    6748:	d6000000 	strle	r0, [r0], -r0
    674c:	0000001e 	andeq	r0, r0, lr, lsl r0
    6750:	1faf0119 	svcne	0x00af0119
    6754:	33020000 	movwcc	r0, #8192	; 0x2000
    6758:	27a00101 	strcs	r0, [r0, r1, lsl #2]!
    675c:	27d40000 	ldrbcs	r0, [r4, r0]
    6760:	1ef40000 	cdpne	0, 15, cr0, cr4, cr0, {0}
    6764:	04a30000 	strteq	r0, [r3], #0
    6768:	6e160000 	cdpvs	0, 1, cr0, cr6, cr0, {0}
    676c:	02006d75 	andeq	r6, r0, #7488	; 0x1d40
    6770:	004c0133 	subeq	r0, ip, r3, lsr r1
    6774:	1f140000 	svcne	0x00140000
    6778:	d2180000 	andsle	r0, r8, #0
    677c:	02000018 	andeq	r0, r0, #24
    6780:	00530135 	subseq	r0, r3, r5, lsr r1
    6784:	1f270000 	svcne	0x00270000
    6788:	09000000 	stmdbeq	r0, {}	; <UNPREDICTABLE>
    678c:	00002075 	andeq	r2, r0, r5, ror r0
    6790:	00530402 	subseq	r0, r3, r2, lsl #8
    6794:	03050000 	movweq	r0, #20480	; 0x5000
    6798:	00003860 	andeq	r3, r0, r0, ror #16
    679c:	001f5709 	andseq	r5, pc, r9, lsl #14
    67a0:	53050200 	movwpl	r0, #20992	; 0x5200
    67a4:	05000000 	streq	r0, [r0, #-0]
    67a8:	00385c03 	eorseq	r5, r8, r3, lsl #24
    67ac:	20210900 	eorcs	r0, r1, r0, lsl #18
    67b0:	06020000 	streq	r0, [r2], -r0
    67b4:	00000053 	andeq	r0, r0, r3, asr r0
    67b8:	38540305 	ldmdacc	r4, {r0, r2, r8, r9}^
    67bc:	b7090000 	strlt	r0, [r9, -r0]
    67c0:	0200001f 	andeq	r0, r0, #31
    67c4:	00005307 	andeq	r5, r0, r7, lsl #6
    67c8:	58030500 	stmdapl	r3, {r8, sl}
    67cc:	00000038 	andeq	r0, r0, r8, lsr r0
    67d0:	0000006f 	andeq	r0, r0, pc, rrx
    67d4:	0f960002 	svceq	0x00960002
    67d8:	01040000 	tsteq	r4, r0
    67dc:	00000e78 	andeq	r0, r0, r8, ror lr
    67e0:	000027e0 	andeq	r2, r0, r0, ror #15
    67e4:	00002930 	andeq	r2, r0, r0, lsr r9
    67e8:	2e2e2f2e 	cdpcs	15, 2, cr2, cr14, cr14, {1}
    67ec:	6d656d2f 	stclvs	13, cr6, [r5, #-188]!	; 0xffffff44
    67f0:	756d6d5f 	strbvc	r6, [sp, #-3423]!	; 0xfffff2a1
    67f4:	5f63705f 	svcpl	0x0063705f
    67f8:	2e6d7361 	cdpcs	3, 6, cr7, cr13, cr1, {3}
    67fc:	682f0053 	stmdavs	pc!, {r0, r1, r4, r6}	; <UNPREDICTABLE>
    6800:	2f656d6f 	svccs	0x00656d6f
    6804:	72646e61 	rsbvc	r6, r4, #1552	; 0x610
    6808:	2f64696f 	svccs	0x0064696f
    680c:	6e72656b 	cdpvs	5, 7, cr6, cr2, cr11, {3}
    6810:	612f6c65 	teqvs	pc, r5, ror #24
    6814:	2f686372 	svccs	0x00686372
    6818:	2f6d7261 	svccs	0x006d7261
    681c:	6863616d 	stmdavs	r3!, {r0, r2, r3, r5, r6, r8, sp, lr}^
    6820:	6e75732d 	cdpvs	3, 7, cr7, cr5, cr13, {1}
    6824:	702f6935 	eorvc	r6, pc, r5, lsr r9	; <UNPREDICTABLE>
    6828:	74732f6d 	ldrbtvc	r2, [r3], #-3949	; 0xfffff093
    682c:	62646e61 	rsbvs	r6, r4, #1552	; 0x610
    6830:	4e470079 	mcrmi	0, 2, r0, cr7, cr9, {3}
    6834:	53412055 	movtpl	r2, #4181	; 0x1055
    6838:	322e3220 	eorcc	r3, lr, #32, 4
    683c:	31352e30 	teqcc	r5, r0, lsr lr
    6840:	65800100 	strvs	r0, [r0, #256]	; 0x100
    6844:	02000001 	andeq	r0, r0, #1
    6848:	000faa00 	andeq	sl, pc, r0, lsl #20
    684c:	31010400 	tstcc	r1, r0, lsl #8
    6850:	01000003 	tsteq	r0, r3
    6854:	000020fe 	strdeq	r2, [r0], -lr
    6858:	000002af 	andeq	r0, r0, pc, lsr #5
    685c:	00002940 	andeq	r2, r0, r0, asr #18
    6860:	000029f0 	strdeq	r2, [r0], -r0
    6864:	00000f02 	andeq	r0, r0, r2, lsl #30
    6868:	44070402 	strmi	r0, [r7], #-1026	; 0xfffffbfe
    686c:	02000002 	andeq	r0, r0, #2
    6870:	01a30801 			; <UNDEFINED> instruction: 0x01a30801
    6874:	04030000 	streq	r0, [r3], #-0
    6878:	746e6905 	strbtvc	r6, [lr], #-2309	; 0xfffff6fb
    687c:	06010200 	streq	r0, [r1], -r0, lsl #4
    6880:	000001a5 	andeq	r0, r0, r5, lsr #3
    6884:	70050202 	andvc	r0, r5, r2, lsl #4
    6888:	02000000 	andeq	r0, r0, #0
    688c:	027e0702 	rsbseq	r0, lr, #524288	; 0x80000
    6890:	0a040000 	beq	106898 <__bss_end+0x103030>
    6894:	03000001 	movweq	r0, #1
    6898:	00002513 	andeq	r2, r0, r3, lsl r5
    689c:	05080200 	streq	r0, [r8, #-512]	; 0xfffffe00
    68a0:	00000136 	andeq	r0, r0, r6, lsr r1
    68a4:	3a070802 	bcc	1c88b4 <__bss_end+0x1c504c>
    68a8:	05000002 	streq	r0, [r0, #-2]
    68ac:	00000080 	andeq	r0, r0, r0, lsl #1
    68b0:	f2200224 	vhsub.s32	d0, d0, d20
    68b4:	06000000 	streq	r0, [r0], -r0
    68b8:	00000032 	andeq	r0, r0, r2, lsr r0
    68bc:	004f2202 	subeq	r2, pc, r2, lsl #4
    68c0:	23020000 	movwcs	r0, #8192	; 0x2000
    68c4:	72630700 	rsbvc	r0, r3, #0, 14
    68c8:	4f240200 	svcmi	0x00240200
    68cc:	02000000 	andeq	r0, r0, #0
    68d0:	d2060423 	andle	r0, r6, #587202560	; 0x23000000
    68d4:	02000003 	andeq	r0, r0, #3
    68d8:	00004f25 	andeq	r4, r0, r5, lsr #30
    68dc:	08230200 	stmdaeq	r3!, {r9}
    68e0:	00015a06 	andeq	r5, r1, r6, lsl #20
    68e4:	4f270200 	svcmi	0x00270200
    68e8:	02000000 	andeq	r0, r0, #0
    68ec:	4a060c23 	bmi	189980 <__bss_end+0x186118>
    68f0:	02000003 	andeq	r0, r0, #3
    68f4:	00004f28 	andeq	r4, r0, r8, lsr #30
    68f8:	10230200 	eorne	r0, r3, r0, lsl #4
    68fc:	00037206 	andeq	r7, r3, r6, lsl #4
    6900:	4f290200 	svcmi	0x00290200
    6904:	02000000 	andeq	r0, r0, #0
    6908:	ed061423 	cfstrs	mvf1, [r6, #-140]	; 0xffffff74
    690c:	02000000 	andeq	r0, r0, #0
    6910:	00004f2c 	andeq	r4, r0, ip, lsr #30
    6914:	18230200 	stmdane	r3!, {r9}
    6918:	0001b106 	andeq	fp, r1, r6, lsl #2
    691c:	4f2f0200 	svcmi	0x002f0200
    6920:	02000000 	andeq	r0, r0, #0
    6924:	6d061c23 	stcvs	12, cr1, [r6, #-140]	; 0xffffff74
    6928:	02000003 	andeq	r0, r0, #3
    692c:	00004f30 	andeq	r4, r0, r0, lsr pc
    6930:	20230200 	eorcs	r0, r3, r0, lsl #4
    6934:	ef010800 	svc	0x00010800
    6938:	01000020 	tsteq	r0, r0, lsr #32
    693c:	29400107 	stmdbcs	r0, {r0, r1, r2, r8}^
    6940:	297c0000 	ldmdbcs	ip!, {}^	; <UNPREDICTABLE>
    6944:	7d020000 	stcvc	0, cr0, [r2, #-0]
    6948:	00011800 	andeq	r1, r1, r0, lsl #16
    694c:	007a0900 	rsbseq	r0, sl, r0, lsl #18
    6950:	07010000 	streq	r0, [r1, -r0]
    6954:	00000118 	andeq	r0, r0, r8, lsl r1
    6958:	0a005001 	beq	1a964 <__bss_end+0x170fc>
    695c:	00006804 	andeq	r6, r0, r4, lsl #16
    6960:	dd010800 	stcle	8, cr0, [r1, #-0]
    6964:	01000020 	tsteq	r0, r0, lsr #32
    6968:	297c011d 	ldmdbcs	ip!, {r0, r2, r3, r4, r8}^
    696c:	29e00000 	stmibcs	r0!, {}^	; <UNPREDICTABLE>
    6970:	7d020000 	stcvc	0, cr0, [r2, #-0]
    6974:	00014400 	andeq	r4, r1, r0, lsl #8
    6978:	007a0900 	rsbseq	r0, sl, r0, lsl #18
    697c:	1d010000 	stcne	0, cr0, [r1, #-0]
    6980:	00000118 	andeq	r0, r0, r8, lsl r1
    6984:	0b005001 	bleq	1a990 <__bss_end+0x17128>
    6988:	0020d301 	eoreq	sp, r0, r1, lsl #6
    698c:	01520100 	cmpeq	r2, r0, lsl #2
    6990:	000029e0 	andeq	r2, r0, r0, ror #19
    6994:	000029f0 	strdeq	r2, [r0], -r0
    6998:	0c007d02 	stceq	13, cr7, [r0], {2}
    699c:	00627474 	rsbeq	r7, r2, r4, ror r4
    69a0:	004f5401 	subeq	r5, pc, r1, lsl #8
    69a4:	1f500000 	svcne	0x00500000
    69a8:	00000000 	andeq	r0, r0, r0
    69ac:	0000040a 	andeq	r0, r0, sl, lsl #8
    69b0:	10610002 	rsbne	r0, r1, r2
    69b4:	01040000 	tsteq	r4, r0
    69b8:	00000331 	andeq	r0, r0, r1, lsr r3
    69bc:	00215a01 	eoreq	r5, r1, r1, lsl #20
    69c0:	0002af00 	andeq	sl, r2, r0, lsl #30
    69c4:	002a0000 	eoreq	r0, sl, r0
    69c8:	00341800 	eorseq	r1, r4, r0, lsl #16
    69cc:	000f7f00 	andeq	r7, pc, r0, lsl #30
    69d0:	06010200 	streq	r0, [r1], -r0, lsl #4
    69d4:	000001a5 	andeq	r0, r0, r5, lsr #3
    69d8:	a3080102 	movwge	r0, #33026	; 0x8102
    69dc:	02000001 	andeq	r0, r0, #1
    69e0:	00700502 	rsbseq	r0, r0, r2, lsl #10
    69e4:	02020000 	andeq	r0, r2, #0
    69e8:	00027e07 	andeq	r7, r2, r7, lsl #28
    69ec:	05040300 	streq	r0, [r4, #-768]	; 0xfffffd00
    69f0:	00746e69 	rsbseq	r6, r4, r9, ror #28
    69f4:	00010a04 	andeq	r0, r1, r4, lsl #20
    69f8:	53130300 	tstpl	r3, #0, 6
    69fc:	02000000 	andeq	r0, r0, #0
    6a00:	02440704 	subeq	r0, r4, #4, 14	; 0x100000
    6a04:	08020000 	stmdaeq	r2, {}	; <UNPREDICTABLE>
    6a08:	00013605 	andeq	r3, r1, r5, lsl #12
    6a0c:	07080200 	streq	r0, [r8, -r0, lsl #4]
    6a10:	0000023a 	andeq	r0, r0, sl, lsr r2
    6a14:	00019505 	andeq	r9, r1, r5, lsl #10
    6a18:	1b02c400 	blne	b7a20 <__bss_end+0xb41b8>
    6a1c:	00000333 	andeq	r0, r0, r3, lsr r3
    6a20:	00003206 	andeq	r3, r0, r6, lsl #4
    6a24:	48200200 	stmdami	r0!, {r9}
    6a28:	02000000 	andeq	r0, r0, #0
    6a2c:	63070023 	movwvs	r0, #28707	; 0x7023
    6a30:	23020072 	movwcs	r0, #8306	; 0x2072
    6a34:	00000048 	andeq	r0, r0, r8, asr #32
    6a38:	07042302 	streq	r2, [r4, -r2, lsl #6]
    6a3c:	00726361 	rsbseq	r6, r2, r1, ror #6
    6a40:	00482402 	subeq	r2, r8, r2, lsl #8
    6a44:	23020000 	movwcs	r0, #8192	; 0x2000
    6a48:	03d20608 	bicseq	r0, r2, #8, 12	; 0x800000
    6a4c:	25020000 	strcs	r0, [r2, #-0]
    6a50:	00000048 	andeq	r0, r0, r8, asr #32
    6a54:	060c2302 	streq	r2, [ip], -r2, lsl #6
    6a58:	00000037 	andeq	r0, r0, r7, lsr r0
    6a5c:	00482602 	subeq	r2, r8, r2, lsl #12
    6a60:	23020000 	movwcs	r0, #8192	; 0x2000
    6a64:	00c00610 	sbceq	r0, r0, r0, lsl r6
    6a68:	27020000 	strcs	r0, [r2, -r0]
    6a6c:	00000048 	andeq	r0, r0, r8, asr #32
    6a70:	06142302 	ldreq	r2, [r4], -r2, lsl #6
    6a74:	00000200 	andeq	r0, r0, r0, lsl #4
    6a78:	00482802 	subeq	r2, r8, r2, lsl #16
    6a7c:	23020000 	movwcs	r0, #8192	; 0x2000
    6a80:	015a0618 	cmpeq	sl, r8, lsl r6
    6a84:	32020000 	andcc	r0, r2, #0
    6a88:	00000048 	andeq	r0, r0, r8, asr #32
    6a8c:	061c2302 	ldreq	r2, [ip], -r2, lsl #6
    6a90:	0000034a 	andeq	r0, r0, sl, asr #6
    6a94:	00483302 	subeq	r3, r8, r2, lsl #6
    6a98:	23020000 	movwcs	r0, #8192	; 0x2000
    6a9c:	03720620 	cmneq	r2, #32, 12	; 0x2000000
    6aa0:	34020000 	strcc	r0, [r2], #-0
    6aa4:	00000048 	andeq	r0, r0, r8, asr #32
    6aa8:	06242302 	strteq	r2, [r4], -r2, lsl #6
    6aac:	000000ed 	andeq	r0, r0, sp, ror #1
    6ab0:	00483602 	subeq	r3, r8, r2, lsl #12
    6ab4:	23020000 	movwcs	r0, #8192	; 0x2000
    6ab8:	00600628 	rsbeq	r0, r0, r8, lsr #12
    6abc:	38020000 	stmdacc	r2, {}	; <UNPREDICTABLE>
    6ac0:	00000048 	andeq	r0, r0, r8, asr #32
    6ac4:	062c2302 	strteq	r2, [ip], -r2, lsl #6
    6ac8:	00000367 	andeq	r0, r0, r7, ror #6
    6acc:	00483902 	subeq	r3, r8, r2, lsl #18
    6ad0:	23020000 	movwcs	r0, #8192	; 0x2000
    6ad4:	018e0630 	orreq	r0, lr, r0, lsr r6
    6ad8:	3a020000 	bcc	86ae0 <__bss_end+0x83278>
    6adc:	00000048 	andeq	r0, r0, r8, asr #32
    6ae0:	06342302 	ldrteq	r2, [r4], -r2, lsl #6
    6ae4:	00000381 	andeq	r0, r0, r1, lsl #7
    6ae8:	00483b02 	subeq	r3, r8, r2, lsl #22
    6aec:	23020000 	movwcs	r0, #8192	; 0x2000
    6af0:	01280638 	teqeq	r8, r8, lsr r6
    6af4:	3d020000 	stccc	0, cr0, [r2, #-0]
    6af8:	00000048 	andeq	r0, r0, r8, asr #32
    6afc:	063c2302 	ldrteq	r2, [ip], -r2, lsl #6
    6b00:	00000024 	andeq	r0, r0, r4, lsr #32
    6b04:	00483e02 	subeq	r3, r8, r2, lsl #28
    6b08:	23020000 	movwcs	r0, #8192	; 0x2000
    6b0c:	61700740 	cmnvs	r0, r0, asr #14
    6b10:	40020072 	andmi	r0, r2, r2, ror r0
    6b14:	00000048 	andeq	r0, r0, r8, asr #32
    6b18:	06442302 	strbeq	r2, [r4], -r2, lsl #6
    6b1c:	00000321 	andeq	r0, r0, r1, lsr #6
    6b20:	00484202 	subeq	r4, r8, r2, lsl #4
    6b24:	23020000 	movwcs	r0, #8192	; 0x2000
    6b28:	032c0648 	teqeq	ip, #72, 12	; 0x4800000
    6b2c:	43020000 	movwmi	r0, #8192	; 0x2000
    6b30:	00000048 	andeq	r0, r0, r8, asr #32
    6b34:	064c2302 	strbeq	r2, [ip], -r2, lsl #6
    6b38:	00000235 	andeq	r0, r0, r5, lsr r2
    6b3c:	00484402 	subeq	r4, r8, r2, lsl #8
    6b40:	23020000 	movwcs	r0, #8192	; 0x2000
    6b44:	031c0650 	tsteq	ip, #80, 12	; 0x5000000
    6b48:	45020000 	strmi	r0, [r2, #-0]
    6b4c:	00000048 	andeq	r0, r0, r8, asr #32
    6b50:	07542302 	ldrbeq	r2, [r4, -r2, lsl #6]
    6b54:	00726973 	rsbseq	r6, r2, r3, ror r9
    6b58:	00484702 	subeq	r4, r8, r2, lsl #14
    6b5c:	23020000 	movwcs	r0, #8192	; 0x2000
    6b60:	01610658 	cmneq	r1, r8, asr r6
    6b64:	49020000 	stmdbmi	r2, {}	; <UNPREDICTABLE>
    6b68:	00000048 	andeq	r0, r0, r8, asr #32
    6b6c:	075c2302 	ldrbeq	r2, [ip, -r2, lsl #6]
    6b70:	00726363 	rsbseq	r6, r2, r3, ror #6
    6b74:	00484a02 	subeq	r4, r8, r2, lsl #20
    6b78:	23020000 	movwcs	r0, #8192	; 0x2000
    6b7c:	73650760 	cmnvc	r5, #96, 14	; 0x1800000
    6b80:	4b020072 	blmi	86d50 <__bss_end+0x834e8>
    6b84:	00000048 	andeq	r0, r0, r8, asr #32
    6b88:	06642302 	strbteq	r2, [r4], -r2, lsl #6
    6b8c:	00000378 	andeq	r0, r0, r8, ror r3
    6b90:	00484c02 	subeq	r4, r8, r2, lsl #24
    6b94:	23020000 	movwcs	r0, #8192	; 0x2000
    6b98:	65750768 	ldrbvs	r0, [r5, #-1896]!	; 0xfffff898
    6b9c:	4d020072 	stcmi	0, cr0, [r2, #-456]	; 0xfffffe38
    6ba0:	00000048 	andeq	r0, r0, r8, asr #32
    6ba4:	066c2302 	strbteq	r2, [ip], -r2, lsl #6
    6ba8:	00000144 	andeq	r0, r0, r4, asr #2
    6bac:	00484e02 	subeq	r4, r8, r2, lsl #28
    6bb0:	23020000 	movwcs	r0, #8192	; 0x2000
    6bb4:	02510670 	subseq	r0, r1, #112, 12	; 0x7000000
    6bb8:	4f020000 	svcmi	0x00020000
    6bbc:	00000048 	andeq	r0, r0, r8, asr #32
    6bc0:	06742302 	ldrbteq	r2, [r4], -r2, lsl #6
    6bc4:	000003cc 	andeq	r0, r0, ip, asr #7
    6bc8:	00485102 	subeq	r5, r8, r2, lsl #2
    6bcc:	23020000 	movwcs	r0, #8192	; 0x2000
    6bd0:	00e10678 	rsceq	r0, r1, r8, ror r6
    6bd4:	52020000 	andpl	r0, r2, #0
    6bd8:	00000048 	andeq	r0, r0, r8, asr #32
    6bdc:	067c2302 	ldrbteq	r2, [ip], -r2, lsl #6
    6be0:	000002fd 	strdeq	r0, [r0], -sp
    6be4:	00485602 	subeq	r5, r8, r2, lsl #12
    6be8:	23030000 	movwcs	r0, #12288	; 0x3000
    6bec:	cf060180 	svcgt	0x00060180
    6bf0:	02000001 	andeq	r0, r0, #1
    6bf4:	00004858 	andeq	r4, r0, r8, asr r8
    6bf8:	84230300 	strthi	r0, [r3], #-768	; 0xfffffd00
    6bfc:	01b10601 			; <UNDEFINED> instruction: 0x01b10601
    6c00:	5a020000 	bpl	86c08 <__bss_end+0x833a0>
    6c04:	00000048 	andeq	r0, r0, r8, asr #32
    6c08:	01882303 	orreq	r2, r8, r3, lsl #6
    6c0c:	00036d06 	andeq	r6, r3, r6, lsl #26
    6c10:	485b0200 	ldmdami	fp, {r9}^
    6c14:	03000000 	movweq	r0, #0
    6c18:	06018c23 	streq	r8, [r1], -r3, lsr #24
    6c1c:	00000178 	andeq	r0, r0, r8, ror r1
    6c20:	00485e02 	subeq	r5, r8, r2, lsl #28
    6c24:	23030000 	movwcs	r0, #12288	; 0x3000
    6c28:	be060190 	fltltd	f6, r0
    6c2c:	02000003 	andeq	r0, r0, #3
    6c30:	0000485f 	andeq	r4, r0, pc, asr r8
    6c34:	94230300 	strtls	r0, [r3], #-768	; 0xfffffd00
    6c38:	02130601 	andseq	r0, r3, #1048576	; 0x100000
    6c3c:	60020000 	andvs	r0, r2, r0
    6c40:	00000048 	andeq	r0, r0, r8, asr #32
    6c44:	01982303 	orrseq	r2, r8, r3, lsl #6
    6c48:	0000d906 	andeq	sp, r0, r6, lsl #18
    6c4c:	48610200 	stmdami	r1!, {r9}^
    6c50:	03000000 	movweq	r0, #0
    6c54:	06019c23 	streq	r9, [r1], -r3, lsr #24
    6c58:	0000035f 	andeq	r0, r0, pc, asr r3
    6c5c:	00486202 	subeq	r6, r8, r2, lsl #4
    6c60:	23030000 	movwcs	r0, #12288	; 0x3000
    6c64:	910601a0 	smlatbls	r6, r0, r1, r0
    6c68:	02000002 	andeq	r0, r0, #2
    6c6c:	00004863 	andeq	r4, r0, r3, ror #16
    6c70:	a4230300 	strtge	r0, [r3], #-768	; 0xfffffd00
    6c74:	02560601 	subseq	r0, r6, #1048576	; 0x100000
    6c78:	67020000 	strvs	r0, [r2, -r0]
    6c7c:	00000048 	andeq	r0, r0, r8, asr #32
    6c80:	01a82303 			; <UNDEFINED> instruction: 0x01a82303
    6c84:	00008a06 	andeq	r8, r0, r6, lsl #20
    6c88:	48680200 	stmdami	r8!, {r9}^
    6c8c:	03000000 	movweq	r0, #0
    6c90:	0601ac23 	streq	sl, [r1], -r3, lsr #24
    6c94:	00000312 	andeq	r0, r0, r2, lsl r3
    6c98:	00487002 	subeq	r7, r8, r2
    6c9c:	23030000 	movwcs	r0, #12288	; 0x3000
    6ca0:	630701b0 	movwvs	r0, #29104	; 0x71b0
    6ca4:	02006469 	andeq	r6, r0, #1761607680	; 0x69000000
    6ca8:	00004871 	andeq	r4, r0, r1, ror r8
    6cac:	b4230300 	strtlt	r0, [r3], #-768	; 0xfffffd00
    6cb0:	017f0601 	cmneq	pc, r1, lsl #12
    6cb4:	72020000 	andvc	r0, r2, #0
    6cb8:	00000048 	andeq	r0, r0, r8, asr #32
    6cbc:	01b82303 			; <UNDEFINED> instruction: 0x01b82303
    6cc0:	0002a706 	andeq	sl, r2, r6, lsl #14
    6cc4:	48730200 	ldmdami	r3!, {r9}^
    6cc8:	03000000 	movweq	r0, #0
    6ccc:	0601bc23 	streq	fp, [r1], -r3, lsr #24
    6cd0:	000003c5 	andeq	r0, r0, r5, asr #7
    6cd4:	00487402 	subeq	r7, r8, r2, lsl #8
    6cd8:	23030000 	movwcs	r0, #12288	; 0x3000
    6cdc:	080001c0 	stmdaeq	r0, {r6, r7, r8}
    6ce0:	00218501 	eoreq	r8, r1, r1, lsl #10
    6ce4:	014f0100 	mrseq	r0, SPSR
    6ce8:	00002a00 	andeq	r2, r0, r0, lsl #20
    6cec:	00002fa4 	andeq	r2, r0, r4, lsr #31
    6cf0:	59007d02 	stmdbpl	r0, {r1, r8, sl, fp, ip, sp, lr}
    6cf4:	09000003 	stmdbeq	r0, {r0, r1}
    6cf8:	00002155 	andeq	r2, r0, r5, asr r1
    6cfc:	03594f01 	cmpeq	r9, #1, 30
    6d00:	50010000 	andpl	r0, r1, r0
    6d04:	68040a00 	stmdavs	r4, {r9, fp}
    6d08:	08000000 	stmdaeq	r0, {}	; <UNPREDICTABLE>
    6d0c:	00213b01 	eoreq	r3, r1, r1, lsl #22
    6d10:	01c50100 	biceq	r0, r5, r0, lsl #2
    6d14:	00002fa4 	andeq	r2, r0, r4, lsr #31
    6d18:	00003328 	andeq	r3, r0, r8, lsr #6
    6d1c:	85007d02 	strhi	r7, [r0, #-3330]	; 0xfffff2fe
    6d20:	09000003 	stmdbeq	r0, {r0, r1}
    6d24:	00002155 	andeq	r2, r0, r5, asr r1
    6d28:	0359c501 	cmpeq	r9, #4194304	; 0x400000
    6d2c:	50010000 	andpl	r0, r1, r0
    6d30:	69010b00 	stmdbvs	r1, {r8, r9, fp}
    6d34:	01000021 	tsteq	r0, r1, lsr #32
    6d38:	2801012b 	stmdacs	r1, {r0, r1, r3, r5, r8}
    6d3c:	2c000033 	stccs	0, cr0, [r0], {51}	; 0x33
    6d40:	02000033 	andeq	r0, r0, #51	; 0x33
    6d44:	03ad007d 			; <UNDEFINED> instruction: 0x03ad007d
    6d48:	550c0000 	strpl	r0, [ip, #-0]
    6d4c:	01000021 	tsteq	r0, r1, lsr #32
    6d50:	0359012b 	cmpeq	r9, #-1073741814	; 0xc000000a
    6d54:	50010000 	andpl	r0, r1, r0
    6d58:	22010b00 	andcs	r0, r1, #0, 22
    6d5c:	01000021 	tsteq	r0, r1, lsr #32
    6d60:	2c010130 	stfcss	f0, [r1], {48}	; 0x30
    6d64:	44000033 	strmi	r0, [r0], #-51	; 0xffffffcd
    6d68:	02000033 	andeq	r0, r0, #51	; 0x33
    6d6c:	03d7007d 	bicseq	r0, r7, #125	; 0x7d
    6d70:	760d0000 	strvc	r0, [sp], -r0
    6d74:	01006c61 	tsteq	r0, r1, ror #24
    6d78:	00480133 	subeq	r0, r8, r3, lsr r1
    6d7c:	1f640000 	svcne	0x00640000
    6d80:	0b000000 	bleq	6d88 <__bss_end+0x3520>
    6d84:	00211001 	eoreq	r1, r1, r1
    6d88:	013b0100 	teqeq	fp, r0, lsl #2
    6d8c:	00334401 	eorseq	r4, r3, r1, lsl #8
    6d90:	00341800 	eorseq	r1, r4, r0, lsl #16
    6d94:	007d0200 	rsbseq	r0, sp, r0, lsl #4
    6d98:	000003fd 	strdeq	r0, [r0], -sp
    6d9c:	0021550e 	eoreq	r5, r1, lr, lsl #10
    6da0:	013d0100 	teqeq	sp, r0, lsl #2
    6da4:	00000359 	andeq	r0, r0, r9, asr r3
    6da8:	219c0f00 	orrscs	r0, ip, r0, lsl #30
    6dac:	0f010000 	svceq	0x00010000
    6db0:	00000408 	andeq	r0, r0, r8, lsl #8
    6db4:	00006810 	andeq	r6, r0, r0, lsl r8
	...

Disassembly of section .debug_line:

00000000 <.debug_line>:
       0:	000000df 	ldrdeq	r0, [r0], -pc	; <UNPREDICTABLE>
       4:	006e0002 	rsbeq	r0, lr, r2
       8:	01020000 	tsteq	r2, r0
       c:	000d0efb 	strdeq	r0, [sp], -fp
      10:	01010101 	tsteq	r1, r1, lsl #2
      14:	01000000 	tsteq	r0, r0
      18:	2e010000 	cdpcs	0, 0, cr0, cr1, cr0, {0}
      1c:	7075732f 	rsbsvc	r7, r5, pc, lsr #6
      20:	732f7265 	teqvc	pc, #1342177286	; 0x50000006
      24:	65707375 	ldrbvs	r7, [r0, #-885]!	; 0xfffffc8b
      28:	2e00646e 	cdpcs	4, 0, cr6, cr0, cr14, {3}
      2c:	7075732f 	rsbsvc	r7, r5, pc, lsr #6
      30:	732f7265 	teqvc	pc, #1342177286	; 0x50000006
      34:	65707375 	ldrbvs	r7, [r0, #-885]!	; 0xfffffc8b
      38:	2e2f646e 	cdpcs	4, 2, cr6, cr15, cr14, {3}
      3c:	2f2e2e2f 	svccs	0x002e2e2f
      40:	2e2f2e2e 	cdpcs	14, 2, cr2, cr15, cr14, {1}
      44:	7300002e 	movwvc	r0, #46	; 0x2e
      48:	65707375 	ldrbvs	r7, [r0, #-885]!	; 0xfffffc8b
      4c:	632e646e 	teqvs	lr, #1845493760	; 0x6e000000
      50:	00000100 	andeq	r0, r0, r0, lsl #2
      54:	745f6d70 	ldrbvc	r6, [pc], #-3440	; 5c <__suspend_start+0x5c>
      58:	73657079 	cmnvc	r5, #121	; 0x79
      5c:	0200682e 	andeq	r6, r0, #3014656	; 0x2e0000
      60:	656d0000 	strbvs	r0, [sp, #-0]!
      64:	70635f6d 	rsbvc	r5, r3, sp, ror #30
      68:	00682e75 	rsbeq	r2, r8, r5, ror lr
      6c:	70000002 	andvc	r0, r0, r2
      70:	00682e6d 	rsbeq	r2, r8, sp, ror #28
      74:	00000002 	andeq	r0, r0, r2
      78:	00020500 	andeq	r0, r2, r0, lsl #10
      7c:	03000000 	movweq	r0, #0
      80:	03010185 	movweq	r0, #4485	; 0x1185
      84:	74032e0d 	strvc	r2, [r3], #-3597	; 0xfffff1f3
      88:	2e0c034a 	cdpcs	3, 0, cr0, cr12, cr10, {2}
      8c:	502f4f33 	eorpl	r4, pc, r3, lsr pc	; <UNPREDICTABLE>
      90:	0402002f 	streq	r0, [r2], #-47	; 0xffffffd1
      94:	4a0a0301 	bmi	280ca0 <__bss_end+0x27d438>
      98:	2f854c9f 	svccs	0x00854c9f
      9c:	2f4b2f4b 	svccs	0x004b2f4b
      a0:	02004b4b 	andeq	r4, r0, #76800	; 0x12c00
      a4:	004d0104 	subeq	r0, sp, r4, lsl #2
      a8:	06020402 	streq	r0, [r2], -r2, lsl #8
      ac:	69a106ba 	stmibvs	r1!, {r1, r3, r4, r5, r7, r9, sl}
      b0:	03302c4c 	teqeq	r0, #76, 24	; 0x4c00
      b4:	336c2e09 	cmncc	ip, #9, 28	; 0x90
      b8:	2f4a2203 	svccs	0x004a2203
      bc:	16034c2f 	strne	r4, [r3], -pc, lsr #24
      c0:	6a23082e 	bvs	8c2180 <__bss_end+0x8be918>
      c4:	4f302c4c 	svcmi	0x00302c4c
      c8:	002e4603 	eoreq	r4, lr, r3, lsl #12
      cc:	32010402 	andcc	r0, r1, #33554432	; 0x2000000
      d0:	02040200 	andeq	r0, r4, #0, 4
      d4:	a106ba06 	tstge	r6, r6, lsl #20
      d8:	2e790335 	mrccs	3, 3, r0, cr9, cr5, {1}
      dc:	0e026a31 	mcreq	10, 0, r6, cr2, cr1, {1}
      e0:	54010100 	strpl	r0, [r1], #-256	; 0xffffff00
      e4:	02000000 	andeq	r0, r0, #0
      e8:	00002700 	andeq	r2, r0, r0, lsl #14
      ec:	fb010200 	blx	408f6 <__bss_end+0x3d08e>
      f0:	01000d0e 	tsteq	r0, lr, lsl #26
      f4:	00010101 	andeq	r0, r1, r1, lsl #2
      f8:	00010000 	andeq	r0, r1, r0
      fc:	2f2e0100 	svccs	0x002e0100
     100:	65707573 	ldrbvs	r7, [r0, #-1395]!	; 0xfffffa8d
     104:	63000072 	movwvs	r0, #114	; 0x72
     108:	6f6d6d6f 	svcvs	0x006d6d6f
     10c:	00632e6e 	rsbeq	r2, r3, lr, ror #28
     110:	00000001 	andeq	r0, r0, r1
     114:	bc020500 	cfstr32lt	mvfx0, [r2], {-0}
     118:	03000001 	movweq	r0, #1
     11c:	09030123 	stmdbeq	r3, {r0, r1, r5, r8}
     120:	04020001 	streq	r0, [r2], #-1
     124:	02002f02 	andeq	r2, r0, #2, 30
     128:	002d0204 	eoreq	r0, sp, r4, lsl #4
     12c:	2f020402 	svccs	0x00020402
     130:	01040200 	tsteq	r4, r0, lsl #4
     134:	02024f2d 	andeq	r4, r2, #45, 30	; 0xb4
     138:	4c010100 	stfmis	f0, [r1], {-0}
     13c:	02000001 	andeq	r0, r0, #1
     140:	00002600 	andeq	r2, r0, r0, lsl #12
     144:	fb010200 	blx	4094e <__bss_end+0x3d0e6>
     148:	01000d0e 	tsteq	r0, lr, lsl #26
     14c:	00010101 	andeq	r0, r1, r1, lsl #2
     150:	00010000 	andeq	r0, r1, r0
     154:	2f2e0100 	svccs	0x002e0100
     158:	65707573 	ldrbvs	r7, [r0, #-1395]!	; 0xfffffa8d
     15c:	73000072 	movwvc	r0, #114	; 0x72
     160:	6b636174 	blvs	18d8738 <__bss_end+0x18d4ed0>
     164:	0100532e 	tsteq	r0, lr, lsr #6
     168:	00000000 	andeq	r0, r0, r0
     16c:	01e00205 	mvneq	r0, r5, lsl #4
     170:	09030000 	stmdbeq	r3, {}	; <UNPREDICTABLE>
     174:	332f2f01 	teqcc	pc, #1, 30
     178:	2f332f2f 	svccs	0x00332f2f
     17c:	302f2f34 	eorcc	r2, pc, r4, lsr pc	; <UNPREDICTABLE>
     180:	2f2f2f30 	svccs	0x002f2f30
     184:	2f302f30 	svccs	0x00302f30
     188:	332f302f 	teqcc	pc, #47	; 0x2f
     18c:	2f2f2f2f 	svccs	0x002f2f2f
     190:	2f302f2f 	svccs	0x00302f2f
     194:	2f2f2f2f 	svccs	0x002f2f2f
     198:	2f2f2f2f 	svccs	0x002f2f2f
     19c:	2f2f2f2f 	svccs	0x002f2f2f
     1a0:	2f30302f 	svccs	0x0030302f
     1a4:	2f2f2f2f 	svccs	0x002f2f2f
     1a8:	2f2f302f 	svccs	0x002f302f
     1ac:	2f2f3030 	svccs	0x002f3030
     1b0:	2f342f2f 	svccs	0x00342f2f
     1b4:	2f2f2f2f 	svccs	0x002f2f2f
     1b8:	2f2f2f33 	svccs	0x002f2f33
     1bc:	2f332f2f 	svccs	0x00332f2f
     1c0:	2f2f2f2f 	svccs	0x002f2f2f
     1c4:	2f332f2f 	svccs	0x00332f2f
     1c8:	2f2f2f2f 	svccs	0x002f2f2f
     1cc:	2f2f332f 	svccs	0x002f332f
     1d0:	2f2f2f2f 	svccs	0x002f2f2f
     1d4:	2f2f2f33 	svccs	0x002f2f33
     1d8:	332f2f2f 	teqcc	pc, #47, 30	; 0xbc
     1dc:	2f2f2f2f 	svccs	0x002f2f2f
     1e0:	2f332f2f 	svccs	0x00332f2f
     1e4:	2f2f2f2f 	svccs	0x002f2f2f
     1e8:	2f2f332f 	svccs	0x002f332f
     1ec:	2f2f2f2f 	svccs	0x002f2f2f
     1f0:	2f2f332f 	svccs	0x002f332f
     1f4:	2f2f2f2f 	svccs	0x002f2f2f
     1f8:	2f302f33 	svccs	0x00302f33
     1fc:	2f2f2f31 	svccs	0x002f2f31
     200:	2f2f2f2f 	svccs	0x002f2f2f
     204:	2f2f2f2f 	svccs	0x002f2f2f
     208:	2f2f2f2f 	svccs	0x002f2f2f
     20c:	2f2f2f31 	svccs	0x002f2f31
     210:	2f2f2f2f 	svccs	0x002f2f2f
     214:	2f2f2f2f 	svccs	0x002f2f2f
     218:	2f2f2f2f 	svccs	0x002f2f2f
     21c:	30302f2f 	eorscc	r2, r0, pc, lsr #30
     220:	2f2f312f 	svccs	0x002f312f
     224:	2f2f2f2f 	svccs	0x002f2f2f
     228:	2f2f2f2f 	svccs	0x002f2f2f
     22c:	2f2f2f2f 	svccs	0x002f2f2f
     230:	302f2f2f 	eorcc	r2, pc, pc, lsr #30
     234:	302f332f 	eorcc	r3, pc, pc, lsr #6
     238:	2f2f312f 	svccs	0x002f312f
     23c:	2f2f2f2f 	svccs	0x002f2f2f
     240:	2f2f2f2f 	svccs	0x002f2f2f
     244:	2f2f2f2f 	svccs	0x002f2f2f
     248:	2f2f312f 	svccs	0x002f312f
     24c:	2f2f2f2f 	svccs	0x002f2f2f
     250:	2f2f2f2f 	svccs	0x002f2f2f
     254:	2f2f2f2f 	svccs	0x002f2f2f
     258:	302f2f2f 	eorcc	r2, pc, pc, lsr #30
     25c:	2f312f30 	svccs	0x00312f30
     260:	2f2f2f2f 	svccs	0x002f2f2f
     264:	2f2f2f2f 	svccs	0x002f2f2f
     268:	2f2f2f2f 	svccs	0x002f2f2f
     26c:	2f2f2f2f 	svccs	0x002f2f2f
     270:	2f342f30 	svccs	0x00342f30
     274:	c02f2f2f 	eorgt	r2, pc, pc, lsr #30
     278:	302f2f30 	eorcc	r2, pc, r0, lsr pc	; <UNPREDICTABLE>
     27c:	2f2f2f34 	svccs	0x002f2f34
     280:	2f30dc2f 	svccs	0x0030dc2f
     284:	3a02302f 	bcc	8c348 <__bss_end+0x88ae0>
     288:	b3010100 	movwlt	r0, #4352	; 0x1100
     28c:	02000000 	andeq	r0, r0, #0
     290:	00005500 	andeq	r5, r0, r0, lsl #10
     294:	fb010200 	blx	40a9e <__bss_end+0x3d236>
     298:	01000d0e 	tsteq	r0, lr, lsl #26
     29c:	00010101 	andeq	r0, r1, r1, lsl #2
     2a0:	00010000 	andeq	r0, r1, r0
     2a4:	2f2e0100 	svccs	0x002e0100
     2a8:	65707573 	ldrbvs	r7, [r0, #-1395]!	; 0xfffffa8d
     2ac:	2f2e0072 	svccs	0x002e0072
     2b0:	65707573 	ldrbvs	r7, [r0, #-1395]!	; 0xfffffa8d
     2b4:	2e2e2f72 	mcrcs	15, 1, r2, cr14, cr2, {3}
     2b8:	002e2e2f 	eoreq	r2, lr, pc, lsr #28
     2bc:	70757300 	rsbsvc	r7, r5, r0, lsl #6
     2c0:	695f7265 	ldmdbvs	pc, {r0, r2, r5, r6, r9, ip, sp, lr}^	; <UNPREDICTABLE>
     2c4:	632e746e 	teqvs	lr, #1845493760	; 0x6e000000
     2c8:	00000100 	andeq	r0, r0, r0, lsl #2
     2cc:	745f6d70 	ldrbvc	r6, [pc], #-3440	; 2d4 <finished+0x14>
     2d0:	73657079 	cmnvc	r5, #121	; 0x79
     2d4:	0200682e 	andeq	r6, r0, #3014656	; 0x2e0000
     2d8:	75730000 	ldrbvc	r0, [r3, #-0]!
     2dc:	5f726570 	svcpl	0x00726570
     2e0:	2e746e69 	cdpcs	14, 7, cr6, cr4, cr9, {3}
     2e4:	00010068 	andeq	r0, r1, r8, rrx
     2e8:	05000000 	streq	r0, [r0, #-0]
     2ec:	0006e002 	andeq	lr, r6, r2
     2f0:	01250300 	teqeq	r5, r0, lsl #6
     2f4:	2e0e0313 	mcrcs	3, 0, r0, cr14, cr3, {0}
     2f8:	4d2e7203 	sfmmi	f7, 4, [lr, #-12]!
     2fc:	4b4b4b4b 	blmi	12d3030 <__bss_end+0x12cf7c8>
     300:	4b4b4b4b 	blmi	12d3034 <__bss_end+0x12cf7cc>
     304:	2f2f2b50 	svccs	0x002f2b50
     308:	342f2f2f 	strtcc	r2, [pc], #-3887	; 310 <disable_cache+0x8>
     30c:	312f2f29 	teqcc	pc, r9, lsr #30
     310:	660f0331 			; <UNDEFINED> instruction: 0x660f0331
     314:	2e0b0314 	mcrcs	3, 0, r0, cr11, cr4, {0}
     318:	672e7503 	strvs	r7, [lr, -r3, lsl #10]!
     31c:	4b4b4b4b 	blmi	12d3050 <__bss_end+0x12cf7e8>
     320:	2d2f4b4b 	fstmdbxcs	pc!, {d4-d40}	;@ Deprecated
     324:	0f03312f 	svceq	0x0003312f
     328:	322a174a 	eorcc	r1, sl, #19398656	; 0x1280000
     32c:	4b332c2b 	blmi	ccb3e0 <__bss_end+0xcc7b78>
     330:	0369832d 	cmneq	r9, #-1275068416	; 0xb4000000
     334:	2b17660f 	blcs	5d9b78 <__bss_end+0x5d6310>
     338:	4c302c31 	ldcmi	12, cr2, [r0], #-196	; 0xffffff3c
     33c:	0008024b 	andeq	r0, r8, fp, asr #4
     340:	00720101 	rsbseq	r0, r2, r1, lsl #2
     344:	00020000 	andeq	r0, r2, r0
     348:	00000055 	andeq	r0, r0, r5, asr r0
     34c:	0efb0102 	cdpeq	1, 15, cr0, cr11, cr2, {0}
     350:	0101000d 	tsteq	r1, sp
     354:	00000101 	andeq	r0, r0, r1, lsl #2
     358:	00000100 	andeq	r0, r0, r0, lsl #2
     35c:	732f2e01 	teqvc	pc, #1, 28
     360:	72657075 	rsbvc	r7, r5, #117	; 0x75
     364:	732f2e00 	teqvc	pc, #0, 28
     368:	72657075 	rsbvc	r7, r5, #117	; 0x75
     36c:	2f2e2e2f 	svccs	0x002e2e2f
     370:	00002e2e 	andeq	r2, r0, lr, lsr #28
     374:	65707573 	ldrbvs	r7, [r0, #-1395]!	; 0xfffffa8d
     378:	6d745f72 	ldclvs	15, cr5, [r4, #-456]!	; 0xfffffe38
     37c:	00632e72 	rsbeq	r2, r3, r2, ror lr
     380:	73000001 	movwvc	r0, #1
     384:	72657075 	rsbvc	r7, r5, #117	; 0x75
     388:	726d745f 	rsbvc	r7, sp, #1593835520	; 0x5f000000
     38c:	0100682e 	tsteq	r0, lr, lsr #16
     390:	6d700000 	ldclvs	0, cr0, [r0, #-0]
     394:	7079745f 	rsbsvc	r7, r9, pc, asr r4
     398:	682e7365 	stmdavs	lr!, {r0, r2, r5, r6, r8, r9, ip, sp, lr}
     39c:	00000200 	andeq	r0, r0, r0, lsl #4
     3a0:	02050000 	andeq	r0, r5, #0
     3a4:	00000848 	andeq	r0, r0, r8, asr #16
     3a8:	14012203 	strne	r2, [r1], #-515	; 0xfffffdfd
     3ac:	66110369 	ldrvs	r0, [r1], -r9, ror #6
     3b0:	0269a016 	rsbeq	sl, r9, #22
     3b4:	01010004 	tsteq	r1, r4
     3b8:	00000110 	andeq	r0, r0, r0, lsl r1
     3bc:	00950002 	addseq	r0, r5, r2
     3c0:	01020000 	tsteq	r2, r0
     3c4:	000d0efb 	strdeq	r0, [sp], -fp
     3c8:	01010101 	tsteq	r1, r1, lsl #2
     3cc:	01000000 	tsteq	r0, r0
     3d0:	2e010000 	cdpcs	0, 0, cr0, cr1, cr0, {0}
     3d4:	7075732f 	rsbsvc	r7, r5, pc, lsr #6
     3d8:	2e007265 	cdpcs	2, 0, cr7, cr0, cr5, {3}
     3dc:	7075732f 	rsbsvc	r7, r5, pc, lsr #6
     3e0:	2e2f7265 	cdpcs	2, 2, cr7, cr15, cr5, {3}
     3e4:	2e2e2f2e 	cdpcs	15, 2, cr2, cr14, cr14, {1}
     3e8:	6f682f00 	svcvs	0x00682f00
     3ec:	612f656d 	teqvs	pc, sp, ror #10
     3f0:	6f72646e 	svcvs	0x0072646e
     3f4:	6b2f6469 	blvs	bd95a0 <__bss_end+0xbd5d38>
     3f8:	656e7265 	strbvs	r7, [lr, #-613]!	; 0xfffffd9b
     3fc:	72612f6c 	rsbvc	r2, r1, #108, 30	; 0x1b0
     400:	612f6863 	teqvs	pc, r3, ror #16
     404:	6d2f6d72 	stcvs	13, cr6, [pc, #-456]!	; 244 <flush_dcache+0x8>
     408:	2d686361 	stclcs	3, cr6, [r8, #-388]!	; 0xfffffe7c
     40c:	356e7573 	strbcc	r7, [lr, #-1395]!	; 0xfffffa8d
     410:	6e692f69 	cdpvs	15, 6, cr2, cr9, cr9, {3}
     414:	64756c63 	ldrbtvs	r6, [r5], #-3171	; 0xfffff39d
     418:	616d2f65 	cmnvs	sp, r5, ror #30
     41c:	00006863 	andeq	r6, r0, r3, ror #16
     420:	65707573 	ldrbvs	r7, [r0, #-1395]!	; 0xfffffa8d
     424:	6c635f72 	stclvs	15, cr5, [r3], #-456	; 0xfffffe38
     428:	2e6b636f 	cdpcs	3, 6, cr6, cr11, cr15, {3}
     42c:	00010063 	andeq	r0, r1, r3, rrx
     430:	5f6d7000 	svcpl	0x006d7000
     434:	65707974 	ldrbvs	r7, [r0, #-2420]!	; 0xfffff68c
     438:	00682e73 	rsbeq	r2, r8, r3, ror lr
     43c:	70000002 	andvc	r0, r0, r2
     440:	00682e6d 	rsbeq	r2, r8, sp, ror #28
     444:	63000002 	movwvs	r0, #2
     448:	5f756d63 	svcpl	0x00756d63
     44c:	73676572 	cmnvc	r7, #478150656	; 0x1c800000
     450:	0300682e 	movweq	r6, #2094	; 0x82e
     454:	00000000 	andeq	r0, r0, r0
     458:	08880205 	stmeq	r8, {r0, r2, r9}
     45c:	2c030000 	stccs	0, cr0, [r3], {-0}
     460:	2b311301 	blcs	c4506c <__bss_end+0xc41804>
     464:	660e034d 	strvs	r0, [lr], -sp, asr #6
     468:	2e090313 	mcrcs	3, 0, r0, cr9, cr3, {0}
     46c:	832e7703 	teqhi	lr, #786432	; 0xc0000
     470:	67686767 	strbvs	r6, [r8, -r7, ror #14]!
     474:	4a0f0369 	bmi	3c1220 <__bss_end+0x3bd9b8>
     478:	2e090313 	mcrcs	3, 0, r0, cr9, cr3, {0}
     47c:	832e7703 	teqhi	lr, #786432	; 0xc0000
     480:	67686767 	strbvs	r6, [r8, -r7, ror #14]!
     484:	4a0f0369 	bmi	3c1230 <__bss_end+0x3bd9c8>
     488:	9f684e13 	svcls	0x00684e13
     48c:	842c309f 	strthi	r3, [ip], #-159	; 0xffffff61
     490:	032e7803 	teqeq	lr, #196608	; 0x30000
     494:	0e032e09 	cdpeq	14, 0, cr2, cr3, cr9, {0}
     498:	684e1366 	stmdavs	lr, {r1, r2, r5, r6, r8, r9, ip}^
     49c:	0384839f 	orreq	r8, r4, #2080374786	; 0x7c000002
     4a0:	09034a78 	stmdbeq	r3, {r3, r4, r5, r6, r9, fp, lr}
     4a4:	6610032e 	ldrvs	r0, [r0], -lr, lsr #6
     4a8:	2f2d4b14 	svccs	0x002d4b14
     4ac:	33838367 	orrcc	r8, r3, #-1677721599	; 0x9c000001
     4b0:	0f036b29 	svceq	0x00036b29
     4b4:	67681366 	strbvs	r1, [r8, -r6, ror #6]!
     4b8:	036b6767 	cmneq	fp, #27000832	; 0x19c0000
     4bc:	2f2f820f 	svccs	0x002f820f
     4c0:	2b312b31 	blcs	c4b18c <__bss_end+0xc47924>
     4c4:	02312b31 	eorseq	r2, r1, #50176	; 0xc400
     4c8:	01010006 	tsteq	r1, r6
     4cc:	00000254 	andeq	r0, r0, r4, asr r2
     4d0:	009a0002 	addseq	r0, sl, r2
     4d4:	01020000 	tsteq	r2, r0
     4d8:	000d0efb 	strdeq	r0, [sp], -fp
     4dc:	01010101 	tsteq	r1, r1, lsl #2
     4e0:	01000000 	tsteq	r0, r0
     4e4:	2e010000 	cdpcs	0, 0, cr0, cr1, cr0, {0}
     4e8:	7075732f 	rsbsvc	r7, r5, pc, lsr #6
     4ec:	2e007265 	cdpcs	2, 0, cr7, cr0, cr5, {3}
     4f0:	7075732f 	rsbsvc	r7, r5, pc, lsr #6
     4f4:	2e2f7265 	cdpcs	2, 2, cr7, cr15, cr5, {3}
     4f8:	2e2e2f2e 	cdpcs	15, 2, cr2, cr14, cr14, {1}
     4fc:	6f682f00 	svcvs	0x00682f00
     500:	612f656d 	teqvs	pc, sp, ror #10
     504:	6f72646e 	svcvs	0x0072646e
     508:	6b2f6469 	blvs	bd96b4 <__bss_end+0xbd5e4c>
     50c:	656e7265 	strbvs	r7, [lr, #-613]!	; 0xfffffd9b
     510:	72612f6c 	rsbvc	r2, r1, #108, 30	; 0x1b0
     514:	612f6863 	teqvs	pc, r3, ror #16
     518:	6d2f6d72 	stcvs	13, cr6, [pc, #-456]!	; 358 <disable_icache+0x14>
     51c:	2d686361 	stclcs	3, cr6, [r8, #-388]!	; 0xfffffe7c
     520:	356e7573 	strbcc	r7, [lr, #-1395]!	; 0xfffffa8d
     524:	6e692f69 	cdpvs	15, 6, cr2, cr9, cr9, {3}
     528:	64756c63 	ldrbtvs	r6, [r5], #-3171	; 0xfffff39d
     52c:	616d2f65 	cmnvs	sp, r5, ror #30
     530:	00006863 	andeq	r6, r0, r3, ror #16
     534:	65707573 	ldrbvs	r7, [r0, #-1395]!	; 0xfffffa8d
     538:	77745f72 			; <UNDEFINED> instruction: 0x77745f72
     53c:	00632e69 	rsbeq	r2, r3, r9, ror #28
     540:	70000001 	andvc	r0, r0, r1
     544:	79745f6d 	ldmdbvc	r4!, {r0, r2, r3, r5, r6, r8, r9, sl, fp, ip, lr}^
     548:	2e736570 	mrccs	5, 3, r6, cr3, cr0, {3}
     54c:	00020068 	andeq	r0, r2, r8, rrx
     550:	6d636300 	stclvs	3, cr6, [r3, #-0]
     554:	65725f75 	ldrbvs	r5, [r2, #-3957]!	; 0xfffff08b
     558:	682e7367 	stmdavs	lr!, {r0, r1, r2, r5, r6, r8, r9, ip, sp, lr}
     55c:	00000300 	andeq	r0, r0, r0, lsl #6
     560:	65707573 	ldrbvs	r7, [r0, #-1395]!	; 0xfffffa8d
     564:	77745f72 			; <UNDEFINED> instruction: 0x77745f72
     568:	00682e69 	rsbeq	r2, r8, r9, ror #28
     56c:	00000001 	andeq	r0, r0, r1
     570:	fc020500 	stc2	5, cr0, [r2], {-0}
     574:	0300000a 	movweq	r0, #10
     578:	4c130130 	ldfmis	f0, [r3], {48}	; 0x30
     57c:	684c302c 	stmdavs	ip, {r2, r3, r5, ip, sp}^
     580:	04020068 	streq	r0, [r2], #-104	; 0xffffff98
     584:	03696701 	cmneq	r9, #262144	; 0x40000
     588:	4c13660f 	ldcmi	6, cr6, [r3], {15}
     58c:	684c302c 	stmdavs	ip, {r2, r3, r5, ip, sp}^
     590:	04020068 	streq	r0, [r2], #-104	; 0xffffff98
     594:	03696701 	cmneq	r9, #262144	; 0x40000
     598:	166600c9 	strbtne	r0, [r6], -r9, asr #1
     59c:	02002abc 	andeq	r2, r0, #188, 20	; 0xbc000
     5a0:	00350104 	eorseq	r0, r5, r4, lsl #2
     5a4:	06020402 	streq	r0, [r2], -r2, lsl #8
     5a8:	00670666 	rsbeq	r0, r7, r6, ror #12
     5ac:	06010402 	streq	r0, [r1], -r2, lsl #8
     5b0:	0402004a 	streq	r0, [r2], #-74	; 0xffffffb6
     5b4:	00340601 	eorseq	r0, r4, r1, lsl #12
     5b8:	06020402 	streq	r0, [r2], -r2, lsl #8
     5bc:	00670666 	rsbeq	r0, r7, r6, ror #12
     5c0:	06010402 	streq	r0, [r1], -r2, lsl #8
     5c4:	0402004a 	streq	r0, [r2], #-74	; 0xffffffb6
     5c8:	00340601 	eorseq	r0, r4, r1, lsl #12
     5cc:	06020402 	streq	r0, [r2], -r2, lsl #8
     5d0:	30670666 	rsbcc	r0, r7, r6, ror #12
     5d4:	51667203 	cmnpl	r6, r3, lsl #4
     5d8:	032e0b03 	teqeq	lr, #3072	; 0xc00
     5dc:	134a7fa9 	movtne	r7, #44969	; 0xafa9
     5e0:	4c684b83 	stclmi	11, cr4, [r8], #-524	; 0xfffffdf4
     5e4:	01040200 	tsteq	r4, r0, lsl #4
     5e8:	11036967 	tstne	r3, r7, ror #18
     5ec:	a12b3366 	teqge	fp, r6, ror #6
     5f0:	2a4e4d2f 	bcs	1393ab4 <__bss_end+0x139024c>
     5f4:	3c038430 	cfstrscc	mvf8, [r3], {48}	; 0x30
     5f8:	2b31144a 	blcs	c45728 <__bss_end+0xc41ec0>
     5fc:	696a4b4d 	stmdbvs	sl!, {r0, r2, r3, r6, r8, r9, fp, lr}^
     600:	82130386 	andshi	r0, r3, #402653186	; 0x18000002
     604:	68332917 	ldmdavs	r3!, {r0, r1, r2, r4, r8, fp, sp}
     608:	660b032f 	strvs	r0, [fp], -pc, lsr #6
     60c:	04020067 	streq	r0, [r2], #-103	; 0xffffff99
     610:	02002f01 	andeq	r2, r0, #1, 30
     614:	66060204 	strvs	r0, [r6], -r4, lsl #4
     618:	2f4f6706 	svccs	0x004f6706
     61c:	00674b6c 	rsbeq	r4, r7, ip, ror #22
     620:	2f010402 	svccs	0x00010402
     624:	02040200 	andeq	r0, r4, #0, 4
     628:	67066606 	strvs	r6, [r6, -r6, lsl #12]
     62c:	2f6c2f4e 	svccs	0x006c2f4e
     630:	04020067 	streq	r0, [r2], #-103	; 0xffffff99
     634:	02002f01 	andeq	r2, r0, #1, 30
     638:	66060204 	strvs	r0, [r6], -r4, lsl #4
     63c:	2f4e6706 	svccs	0x004e6706
     640:	674b4d6b 	strbvs	r4, [fp, -fp, ror #26]
     644:	01040200 	tsteq	r4, r0, lsl #4
     648:	0402002f 	streq	r0, [r2], #-47	; 0xffffffd1
     64c:	06660602 	strbteq	r0, [r6], -r2, lsl #12
     650:	6e2f4e67 	cdpvs	14, 2, cr4, cr15, cr7, {3}
     654:	04020083 	streq	r0, [r2], #-131	; 0xffffff7d
     658:	02002f01 	andeq	r2, r0, #1, 30
     65c:	66060204 	strvs	r0, [r6], -r4, lsl #4
     660:	2f4e6706 	svccs	0x004e6706
     664:	00674b6c 	rsbeq	r4, r7, ip, ror #22
     668:	2f010402 	svccs	0x00010402
     66c:	02040200 	andeq	r0, r4, #0, 4
     670:	67066606 	strvs	r6, [r6, -r6, lsl #12]
     674:	676c2f4e 	strbvs	r2, [ip, -lr, asr #30]!
     678:	01040200 	tsteq	r4, r0, lsl #4
     67c:	0402002f 	streq	r0, [r2], #-47	; 0xffffffd1
     680:	06660602 	strbteq	r0, [r6], -r2, lsl #12
     684:	2f4b4e67 	svccs	0x004b4e67
     688:	69660c03 	stmdbvs	r6!, {r0, r1, sl, fp}^
     68c:	7803314e 	stmdavc	r3, {r1, r2, r3, r6, r8, ip, sp}
     690:	9e1b034a 	cdpls	3, 1, cr0, cr11, cr10, {2}
     694:	2f4c6733 	svccs	0x004c6733
     698:	67660b03 	strbvs	r0, [r6, -r3, lsl #22]!
     69c:	01040200 	tsteq	r4, r0, lsl #4
     6a0:	0402002f 	streq	r0, [r2], #-47	; 0xffffffd1
     6a4:	06820602 	streq	r0, [r2], r2, lsl #12
     6a8:	6c2f4f67 	stcvs	15, cr4, [pc], #-412	; 514 <mem_preload_tlb_nommu+0x30>
     6ac:	0200674b 	andeq	r6, r0, #19660800	; 0x12c0000
     6b0:	002f0104 	eoreq	r0, pc, r4, lsl #2
     6b4:	06020402 	streq	r0, [r2], -r2, lsl #8
     6b8:	4e670682 	cdpmi	6, 6, cr0, cr7, cr2, {4}
     6bc:	672f6c2f 	strvs	r6, [pc, -pc, lsr #24]!
     6c0:	01040200 	tsteq	r4, r0, lsl #4
     6c4:	0402002f 	streq	r0, [r2], #-47	; 0xffffffd1
     6c8:	06820602 	streq	r0, [r2], r2, lsl #12
     6cc:	6b2f4e67 	blvs	bd4070 <__bss_end+0xbd0808>
     6d0:	00674b4d 	rsbeq	r4, r7, sp, asr #22
     6d4:	2f010402 	svccs	0x00010402
     6d8:	02040200 	andeq	r0, r4, #0, 4
     6dc:	67068206 	strvs	r8, [r6, -r6, lsl #4]
     6e0:	836e2f4e 	cmnhi	lr, #312	; 0x138
     6e4:	01040200 	tsteq	r4, r0, lsl #4
     6e8:	0402002f 	streq	r0, [r2], #-47	; 0xffffffd1
     6ec:	06820602 	streq	r0, [r2], r2, lsl #12
     6f0:	6c2f4e67 	stcvs	14, cr4, [pc], #-412	; 55c <mem_preload_tlb_nommu+0x78>
     6f4:	0200674b 	andeq	r6, r0, #19660800	; 0x12c0000
     6f8:	002f0104 	eoreq	r0, pc, r4, lsl #2
     6fc:	06020402 	streq	r0, [r2], -r2, lsl #8
     700:	4e670682 	cdpmi	6, 6, cr0, cr7, cr2, {4}
     704:	00676c2f 	rsbeq	r6, r7, pc, lsr #24
     708:	2f010402 	svccs	0x00010402
     70c:	02040200 	andeq	r0, r4, #0, 4
     710:	67068206 	strvs	r8, [r6, -r6, lsl #4]
     714:	032f4b4e 	teqeq	pc, #79872	; 0x13800
     718:	4f69660c 	svcmi	0x0069660c
     71c:	022e7a03 	eoreq	r7, lr, #12288	; 0x3000
     720:	0101000c 	tsteq	r1, ip
     724:	0000004a 	andeq	r0, r0, sl, asr #32
     728:	002c0002 	eoreq	r0, ip, r2
     72c:	01020000 	tsteq	r2, r0
     730:	000d0efb 	strdeq	r0, [sp], -fp
     734:	01010101 	tsteq	r1, r1, lsl #2
     738:	01000000 	tsteq	r0, r0
     73c:	2e010000 	cdpcs	0, 0, cr0, cr1, cr0, {0}
     740:	7075732f 	rsbsvc	r7, r5, pc, lsr #6
     744:	00007265 	andeq	r7, r0, r5, ror #4
     748:	65707573 	ldrbvs	r7, [r0, #-1395]!	; 0xfffffa8d
     74c:	65645f72 	strbvs	r5, [r4, #-3954]!	; 0xfffff08e
     750:	2e79616c 	rpwcsez	f6, f1, #4.0
     754:	00010053 	andeq	r0, r1, r3, asr r0
     758:	05000000 	streq	r0, [r0, #-0]
     75c:	0011e402 	andseq	lr, r1, r2, lsl #8
     760:	010d0300 	tsteq	sp, r0, lsl #6
     764:	2f302f2f 	svccs	0x00302f2f
     768:	302f2f2f 	eorcc	r2, pc, pc, lsr #30
     76c:	0002022f 	andeq	r0, r2, pc, lsr #4
     770:	01980101 	orrseq	r0, r8, r1, lsl #2
     774:	00020000 	andeq	r0, r2, r0
     778:	00000070 	andeq	r0, r0, r0, ror r0
     77c:	0efb0102 	cdpeq	1, 15, cr0, cr11, cr2, {0}
     780:	0101000d 	tsteq	r1, sp
     784:	00000101 	andeq	r0, r0, r1, lsl #2
     788:	00000100 	andeq	r0, r0, r0, lsl #2
     78c:	732f2e01 	teqvc	pc, #1, 28
     790:	72657075 	rsbvc	r7, r5, #117	; 0x75
     794:	2f2e2e2f 	svccs	0x002e2e2f
     798:	2e002e2e 	cdpcs	14, 0, cr2, cr0, cr14, {1}
     79c:	7075732f 	rsbsvc	r7, r5, pc, lsr #6
     7a0:	00007265 	andeq	r7, r0, r5, ror #4
     7a4:	682e6d70 	stmdavs	lr!, {r4, r5, r6, r8, sl, fp, sp, lr}
     7a8:	00000100 	andeq	r0, r0, r0, lsl #2
     7ac:	65707573 	ldrbvs	r7, [r0, #-1395]!	; 0xfffffa8d
     7b0:	6f705f72 	svcvs	0x00705f72
     7b4:	2e726577 	mrccs	5, 3, r6, cr2, cr7, {3}
     7b8:	00020063 	andeq	r0, r2, r3, rrx
     7bc:	5f6d7000 	svcpl	0x006d7000
     7c0:	65707974 	ldrbvs	r7, [r0, #-2420]!	; 0xfffff68c
     7c4:	00682e73 	rsbeq	r2, r8, r3, ror lr
     7c8:	73000001 	movwvc	r0, #1
     7cc:	72657075 	rsbvc	r7, r5, #117	; 0x75
     7d0:	776f705f 			; <UNDEFINED> instruction: 0x776f705f
     7d4:	682e7265 	stmdavs	lr!, {r0, r2, r5, r6, r9, ip, sp, lr}
     7d8:	00000200 	andeq	r0, r0, r0, lsl #4
     7dc:	65707573 	ldrbvs	r7, [r0, #-1395]!	; 0xfffffa8d
     7e0:	77745f72 			; <UNDEFINED> instruction: 0x77745f72
     7e4:	00682e69 	rsbeq	r2, r8, r9, ror #28
     7e8:	00000002 	andeq	r0, r0, r2
     7ec:	0c020500 	cfstr32eq	mvfx0, [r2], {-0}
     7f0:	03000012 	movweq	r0, #18
     7f4:	170100c8 	strne	r0, [r1, -r8, asr #1]
     7f8:	2f6e3329 	svccs	0x006e3329
     7fc:	01040200 	tsteq	r4, r0, lsl #4
     800:	064a062b 	strbeq	r0, [sl], -fp, lsr #12
     804:	362f4c36 			; <UNDEFINED> instruction: 0x362f4c36
     808:	4a6c0348 	bmi	1b01530 <__bss_end+0x1afdcc8>
     80c:	042e1903 	strteq	r1, [lr], #-2307	; 0xfffff6fd
     810:	2e430302 	cdpcs	3, 4, cr0, cr3, cr2, {0}
     814:	4b322a16 	blmi	c8b074 <__bss_end+0xc8780c>
     818:	02008067 	andeq	r8, r0, #103	; 0x67
     81c:	2e060104 	adfcss	f0, f6, f4
     820:	032f4f06 	teqeq	pc, #6, 30
     824:	4f2e4a12 	svcmi	0x002e4a12
     828:	4a48032f 	bmi	12014ec <__bss_end+0x11fdc84>
     82c:	d600c103 	strle	ip, [r0], -r3, lsl #2
     830:	322d4bd8 	eorcc	r4, sp, #216, 22	; 0x36000
     834:	312d2fbb 			; <UNDEFINED> instruction: 0x312d2fbb
     838:	032d694b 	teqeq	sp, #1228800	; 0x12c000
     83c:	2f7f660c 	svccs	0x007f660c
     840:	352d6430 	strcc	r6, [sp, #-1072]!	; 0xfffffbd0
     844:	2d2e7a03 	vstmdbcs	lr!, {s14-s16}
     848:	03516c2f 	cmpeq	r1, #12032	; 0x2f00
     84c:	2f2f2e79 	svccs	0x002f2e79
     850:	2f2d2f2d 	svccs	0x002d2f2d
     854:	4a76036b 	bmi	1d81608 <__bss_end+0x1d7dda0>
     858:	032e0b03 	teqeq	lr, #3072	; 0xc00
     85c:	38032e5a 	stmdacc	r3, {r1, r3, r4, r6, r9, sl, fp, sp}
     860:	2f322e9e 	svccs	0x00322e9e
     864:	2c68da4e 	stclcs	10, cr13, [r8], #-312	; 0xfffffec8
     868:	2a30302f 	bcs	c0c92c <__bss_end+0xc090c4>
     86c:	322c2c4e 	eorcc	r2, ip, #19968	; 0x4e00
     870:	7803302c 	stmdavc	r3, {r2, r3, r5, ip, sp}
     874:	2e09034a 	cdpcs	3, 0, cr0, cr9, cr10, {2}
     878:	2e4a1003 	cdpcs	0, 4, cr1, cr10, cr3, {0}
     87c:	d94b4c31 	stmdble	fp, {r0, r4, r5, sl, fp, lr}^
     880:	884b652f 	stmdahi	fp, {r0, r1, r2, r3, r5, r8, sl, sp, lr}^
     884:	652fd94b 	strvs	sp, [pc, #-2379]!	; ffffff41 <__bss_end+0xffffc6d9>
     888:	d94b884b 	stmdble	fp, {r0, r1, r3, r6, fp, pc}^
     88c:	884b652f 	stmdahi	fp, {r0, r1, r2, r3, r5, r8, sl, sp, lr}^
     890:	652fd94b 	strvs	sp, [pc, #-2379]!	; ffffff4d <__bss_end+0xffffc6e5>
     894:	d94b884b 	stmdble	fp, {r0, r1, r3, r6, fp, pc}^
     898:	884b652f 	stmdahi	fp, {r0, r1, r2, r3, r5, r8, sl, sp, lr}^
     89c:	652fd94b 	strvs	sp, [pc, #-2379]!	; ffffff59 <__bss_end+0xffffc6f1>
     8a0:	2d2f874b 	stccs	7, cr8, [pc, #-300]!	; 77c <mem_int_exit+0x8>
     8a4:	7603a32f 	strvc	sl, [r3], -pc, lsr #6
     8a8:	2e0b034a 	cdpcs	3, 0, cr0, cr11, cr10, {2}
     8ac:	172e0f03 	strne	r0, [lr, -r3, lsl #30]!
     8b0:	2f332e29 	svccs	0x00332e29
     8b4:	4b652fd9 	blmi	194c820 <__bss_end+0x1948fb8>
     8b8:	2fd94b88 	svccs	0x00d94b88
     8bc:	4b884b65 	blmi	fe213658 <__bss_end+0xfe20fdf0>
     8c0:	4b652fd9 	blmi	194c82c <__bss_end+0x1948fc4>
     8c4:	2fd94b88 	svccs	0x00d94b88
     8c8:	4b884b65 	blmi	fe213664 <__bss_end+0xfe20fdfc>
     8cc:	4b652fd9 	blmi	194c838 <__bss_end+0x1948fd0>
     8d0:	2fd94b88 	svccs	0x00d94b88
     8d4:	036c4b65 	cmneq	ip, #103424	; 0x19400
     8d8:	0a034a77 	beq	d32bc <__bss_end+0xcfa54>
     8dc:	2e0f032e 	cdpcs	3, 0, cr0, cr15, cr14, {1}
     8e0:	312b4d2f 	teqcc	fp, pc, lsr #26
     8e4:	4b652fa1 	blmi	194c770 <__bss_end+0x1948f08>
     8e8:	652fbd89 	strvs	fp, [pc, #-3465]!	; fffffb67 <__bss_end+0xffffc2ff>
     8ec:	8213034b 	andshi	r0, r3, #738197505	; 0x2c000001
     8f0:	032e0903 	teqeq	lr, #49152	; 0xc000
     8f4:	4d2f4a0f 	vstmdbmi	pc!, {s8-s22}
     8f8:	2fa1312b 	svccs	0x00a1312b
     8fc:	bd894b65 	vstrlt	d4, [r9, #404]	; 0x194
     900:	034b652f 	movteq	r6, #46383	; 0xb52f
     904:	09038212 	stmdbeq	r3, {r1, r4, r9, pc}
     908:	0004022e 	andeq	r0, r4, lr, lsr #4
     90c:	01e10101 	mvneq	r0, r1, lsl #2
     910:	00020000 	andeq	r0, r2, r0
     914:	00000071 	andeq	r0, r0, r1, ror r0
     918:	0efb0102 	cdpeq	1, 15, cr0, cr11, cr2, {0}
     91c:	0101000d 	tsteq	r1, sp
     920:	00000101 	andeq	r0, r0, r1, lsl #2
     924:	00000100 	andeq	r0, r0, r0, lsl #2
     928:	732f2e01 	teqvc	pc, #1, 28
     92c:	72657075 	rsbvc	r7, r5, #117	; 0x75
     930:	6172642f 	cmnvs	r2, pc, lsr #8
     934:	2f2e006d 	svccs	0x002e006d
     938:	65707573 	ldrbvs	r7, [r0, #-1395]!	; 0xfffffa8d
     93c:	72642f72 	rsbvc	r2, r4, #456	; 0x1c8
     940:	2e2f6d61 	cdpcs	13, 2, cr6, cr15, cr1, {3}
     944:	2f2e2e2f 	svccs	0x002e2e2f
     948:	2e2f2e2e 	cdpcs	14, 2, cr2, cr15, cr14, {1}
     94c:	2f2e002e 	svccs	0x002e002e
     950:	65707573 	ldrbvs	r7, [r0, #-1395]!	; 0xfffffa8d
     954:	72642f72 	rsbvc	r2, r4, #456	; 0x1c8
     958:	2e2f6d61 	cdpcs	13, 2, cr6, cr15, cr1, {3}
     95c:	002e2e2f 	eoreq	r2, lr, pc, lsr #28
     960:	61726400 	cmnvs	r2, r0, lsl #8
     964:	00632e6d 	rsbeq	r2, r3, sp, ror #28
     968:	70000001 	andvc	r0, r0, r1
     96c:	79745f6d 	ldmdbvc	r4!, {r0, r2, r3, r5, r6, r8, r9, sl, fp, ip, lr}^
     970:	2e736570 	mrccs	5, 3, r6, cr3, cr0, {3}
     974:	00020068 	andeq	r0, r2, r8, rrx
     978:	70757300 	rsbsvc	r7, r5, r0, lsl #6
     97c:	745f7265 	ldrbvc	r7, [pc], #-613	; 984 <mem_clk_setdiv+0x28>
     980:	682e6977 	stmdavs	lr!, {r0, r1, r2, r4, r5, r6, r8, fp, sp, lr}
     984:	00000300 	andeq	r0, r0, r0, lsl #6
     988:	02050000 	andeq	r0, r5, #0
     98c:	0000197c 	andeq	r1, r0, ip, ror r9
     990:	16011d03 	strne	r1, [r1], -r3, lsl #26
     994:	002f2f4b 	eoreq	r2, pc, fp, asr #30
     998:	31010402 	tstcc	r1, r2, lsl #8
     99c:	03112f67 	tsteq	r1, #412	; 0x19c
     9a0:	4b164a22 	blmi	593230 <__bss_end+0x58f9c8>
     9a4:	02002f2f 	andeq	r2, r0, #47, 30	; 0xbc
     9a8:	67310104 	ldrvs	r0, [r1, -r4, lsl #2]!
     9ac:	2d03112f 	stfcss	f1, [r3, #-188]	; 0xffffff44
     9b0:	2f4b164a 	svccs	0x004b164a
     9b4:	0402002f 	streq	r0, [r2], #-47	; 0xffffffd1
     9b8:	2f673101 	svccs	0x00673101
     9bc:	11144e11 	tstne	r4, r1, lsl lr
     9c0:	152e1303 	strne	r1, [lr, #-771]!	; 0xfffffcfd
     9c4:	302d2f4c 	eorcc	r2, sp, ip, asr #30
     9c8:	aa032f30 	bge	cc690 <__bss_end+0xc8e28>
     9cc:	3133667f 	teqcc	r3, pc, ror r6
     9d0:	002f2f4b 	eoreq	r2, pc, fp, asr #30
     9d4:	2f010402 	svccs	0x00010402
     9d8:	2f2f4d83 	svccs	0x002f4d83
     9dc:	04020031 	streq	r0, [r2], #-49	; 0xffffffcf
     9e0:	02003002 	andeq	r3, r0, #2
     9e4:	00480204 	subeq	r0, r8, r4, lsl #4
     9e8:	30020402 	andcc	r0, r2, r2, lsl #8
     9ec:	02040200 	andeq	r0, r4, #0, 4
     9f0:	ba034e2c 	blt	d42a8 <__bss_end+0xd0a40>
     9f4:	00334a7f 	eorseq	r4, r3, pc, ror sl
     9f8:	30020402 	andcc	r0, r2, r2, lsl #8
     9fc:	02040200 	andeq	r0, r4, #0, 4
     a00:	04020048 	streq	r0, [r2], #-72	; 0xffffffb8
     a04:	02003002 	andeq	r3, r0, #2
     a08:	032c0204 	teqeq	ip, #4, 4	; 0x40000000
     a0c:	4b314a0b 	blmi	c53240 <__bss_end+0xc4f9d8>
     a10:	02002f2f 	andeq	r2, r0, #47, 30	; 0xbc
     a14:	672f0104 	strvs	r0, [pc, -r4, lsl #2]!
     a18:	f903674d 			; <UNDEFINED> instruction: 0xf903674d
     a1c:	35154a00 	ldrcc	r4, [r5, #-2560]	; 0xfffff600
     a20:	03504b29 	cmpeq	r0, #41984	; 0xa400
     a24:	2b154a11 	blcs	553270 <__bss_end+0x54fa08>
     a28:	30303031 	eorscc	r3, r0, r1, lsr r0
     a2c:	2f2a2c30 	svccs	0x002a2c30
     a30:	2f2f2f2f 	svccs	0x002f2f2f
     a34:	11032f2f 	tstne	r3, pc, lsr #30
     a38:	4b2b3566 	blmi	acdfd8 <__bss_end+0xaca770>
     a3c:	2f302f2f 	svccs	0x00302f2f
     a40:	1a4d2f2f 	bne	134c704 <__bss_end+0x1348e9c>
     a44:	522e7803 	eorpl	r7, lr, #196608	; 0x30000
     a48:	2c2f2f4b 	stccs	15, cr2, [pc], #-300	; 924 <mem_clk_pllenable+0x24>
     a4c:	2f2f2f31 	svccs	0x002f2f31
     a50:	302d2f2f 	eorcc	r2, sp, pc, lsr #30
     a54:	2f2d2f4b 	svccs	0x002d2f4b
     a58:	032e0c03 	teqeq	lr, #768	; 0x300
     a5c:	2f302e76 	svccs	0x00302e76
     a60:	31313030 	teqcc	r1, r0, lsr r0
     a64:	032e0b03 	teqeq	lr, #3072	; 0xc00
     a68:	2b342e72 	blcs	d0c438 <__bss_end+0xd08bd0>
     a6c:	302b3131 	eorcc	r3, fp, r1, lsr r1
     a70:	2f2f2d30 	svccs	0x002f2d30
     a74:	02003031 	andeq	r3, r0, #49	; 0x31
     a78:	84670104 	strbthi	r0, [r7], #-260	; 0xfffffefc
     a7c:	032b3131 	teqeq	fp, #1073741836	; 0x4000000c
     a80:	75032e0e 	strvc	r2, [r3, #-3598]	; 0xfffff1f2
     a84:	2f2f312e 	svccs	0x002f312e
     a88:	2f2f2f31 	svccs	0x002f2f31
     a8c:	002f2f31 	eoreq	r2, pc, r1, lsr pc	; <UNPREDICTABLE>
     a90:	2f010402 	svccs	0x00010402
     a94:	2f2d2f85 	svccs	0x002d2f85
     a98:	304d2f31 	subcc	r2, sp, r1, lsr pc
     a9c:	8225034d 	eorhi	r0, r5, #872415233	; 0x34000001
     aa0:	04020031 	streq	r0, [r2], #-49	; 0xffffffcf
     aa4:	2e670301 	cdpcs	3, 6, cr0, cr7, cr1, {0}
     aa8:	01040200 	tsteq	r4, r0, lsl #4
     aac:	04020031 	streq	r0, [r2], #-49	; 0xffffffcf
     ab0:	02002f01 	andeq	r2, r0, #1, 30
     ab4:	00620104 	rsbeq	r0, r2, r4, lsl #2
     ab8:	69010402 	stmdbvs	r1, {r1, sl}
     abc:	01040200 	tsteq	r4, r0, lsl #4
     ac0:	2d2f862f 	stccs	6, cr8, [pc, #-188]!	; a0c <mem_clk_getdiv+0x48>
     ac4:	4b81bf2f 	blmi	fe070788 <__bss_end+0xfe06cf20>
     ac8:	69660e03 	stmdbvs	r6!, {r0, r1, r9, sl, fp}^
     acc:	30313151 	eorscc	r3, r1, r1, asr r1
     ad0:	034a7203 	movteq	r7, #41475	; 0xa203
     ad4:	144c2e0f 	strbne	r2, [ip], #-3599	; 0xfffff1f1
     ad8:	11143311 	tstne	r4, r1, lsl r3
     adc:	33111433 	tstcc	r1, #855638016	; 0x33000000
     ae0:	14331114 	ldrtne	r1, [r3], #-276	; 0xfffffeec
     ae4:	11143311 	tstne	r4, r1, lsl r3
     ae8:	33111433 	tstcc	r1, #855638016	; 0x33000000
     aec:	02021114 	andeq	r1, r2, #20, 2
     af0:	75010100 	strvc	r0, [r1, #-256]	; 0xffffff00
     af4:	02000002 	andeq	r0, r0, #2
     af8:	00007300 	andeq	r7, r0, r0, lsl #6
     afc:	fb010200 	blx	41306 <__bss_end+0x3da9e>
     b00:	01000d0e 	tsteq	r0, lr, lsl #26
     b04:	00010101 	andeq	r0, r1, r1, lsl #2
     b08:	00010000 	andeq	r0, r1, r0
     b0c:	2f2e0100 	svccs	0x002e0100
     b10:	65707573 	ldrbvs	r7, [r0, #-1395]!	; 0xfffffa8d
     b14:	72642f72 	rsbvc	r2, r4, #456	; 0x1c8
     b18:	2e2f6d61 	cdpcs	13, 2, cr6, cr15, cr1, {3}
     b1c:	002e2e2f 	eoreq	r2, lr, pc, lsr #28
     b20:	75732f2e 	ldrbvc	r2, [r3, #-3886]!	; 0xfffff0d2
     b24:	2f726570 	svccs	0x00726570
     b28:	6d617264 	sfmvs	f7, 2, [r1, #-400]!	; 0xfffffe70
     b2c:	732f2e00 	teqvc	pc, #0, 28
     b30:	72657075 	rsbvc	r7, r5, #117	; 0x75
     b34:	6172642f 	cmnvs	r2, pc, lsr #8
     b38:	2f2e2f6d 	svccs	0x002e2f6d
     b3c:	2e2f2e2e 	cdpcs	14, 2, cr2, cr15, cr14, {1}
     b40:	2e2e2f2e 	cdpcs	15, 2, cr2, cr14, cr14, {1}
     b44:	6f630000 	svcvs	0x00630000
     b48:	6e6f6d6d 	cdpvs	13, 6, cr6, cr15, cr13, {3}
     b4c:	0100682e 	tsteq	r0, lr, lsr #16
     b50:	72640000 	rsbvc	r0, r4, #0
     b54:	695f6d61 	ldmdbvs	pc, {r0, r5, r6, r8, sl, fp, sp, lr}^	; <UNPREDICTABLE>
     b58:	2e74696e 	cdpcs	9, 7, cr6, cr4, cr14, {3}
     b5c:	00020063 	andeq	r0, r2, r3, rrx
     b60:	5f6d7000 	svcpl	0x006d7000
     b64:	65707974 	ldrbvs	r7, [r0, #-2420]!	; 0xfffff68c
     b68:	00682e73 	rsbeq	r2, r8, r3, ror lr
     b6c:	00000003 	andeq	r0, r0, r3
     b70:	b0020500 	andlt	r0, r2, r0, lsl #10
     b74:	0300001d 	movweq	r0, #29
     b78:	29170115 	ldmdbcs	r7, {r0, r2, r4, r8}
     b7c:	2f524e2f 	svccs	0x00524e2f
     b80:	0402002d 	streq	r0, [r2], #-45	; 0xffffffd3
     b84:	66062c01 	strvs	r2, [r6], -r1, lsl #24
     b88:	4b685206 	blmi	1a153a8 <__bss_end+0x1a11b40>
     b8c:	03484eda 	movteq	r4, #36570	; 0x8eda
     b90:	1903666c 	stmdbne	r3, {r2, r3, r5, r6, r9, sl, sp, lr}
     b94:	0302044a 	movweq	r0, #9290	; 0x244a
     b98:	346600d8 	strbtcc	r0, [r6], #-216	; 0xffffff28
     b9c:	2f2f4b2b 	svccs	0x002f4b2b
     ba0:	2f2f2f2f 	svccs	0x002f2f2f
     ba4:	4b4c154d 	blmi	13060e0 <__bss_end+0x1302878>
     ba8:	154d2f2f 	strbne	r2, [sp, #-3887]	; 0xfffff0d1
     bac:	4d2f2f4b 	stcmi	15, cr2, [pc, #-300]!	; a88 <mem_clk_get_pll_factor+0x8>
     bb0:	2f2f4b15 	svccs	0x002f4b15
     bb4:	9f2d324d 	svcls	0x002d324d
     bb8:	4b2d2f30 	blmi	b4c880 <__bss_end+0xb49018>
     bbc:	682d2f30 	stmdavs	sp!, {r4, r5, r8, r9, sl, fp, sp}
     bc0:	29174e2d 	ldmdbcs	r7, {r0, r2, r3, r5, r9, sl, fp, lr}
     bc4:	7a033633 	bvc	ce498 <__bss_end+0xcac30>
     bc8:	0200302e 	andeq	r3, r0, #46	; 0x2e
     bcc:	006c0204 	rsbeq	r0, ip, r4, lsl #4
     bd0:	48020402 	stmdami	r2, {r1, sl}
     bd4:	02040200 	andeq	r0, r4, #0, 4
     bd8:	04020030 	streq	r0, [r2], #-48	; 0xffffffd0
     bdc:	02002c02 	andeq	r2, r0, #512	; 0x200
     be0:	00300204 	eorseq	r0, r0, r4, lsl #4
     be4:	80020402 	andhi	r0, r2, r2, lsl #8
     be8:	02004c33 	andeq	r4, r0, #13056	; 0x3300
     bec:	00300204 	eorseq	r0, r0, r4, lsl #4
     bf0:	48020402 	stmdami	r2, {r1, sl}
     bf4:	02040200 	andeq	r0, r4, #0, 4
     bf8:	04020030 	streq	r0, [r2], #-48	; 0xffffffd0
     bfc:	02002c02 	andeq	r2, r0, #512	; 0x200
     c00:	00300204 	eorseq	r0, r0, r4, lsl #4
     c04:	64020402 	strvs	r0, [r2], #-1026	; 0xfffffbfe
     c08:	02004c33 	andeq	r4, r0, #13056	; 0x3300
     c0c:	00300204 	eorseq	r0, r0, r4, lsl #4
     c10:	48020402 	stmdami	r2, {r1, sl}
     c14:	02040200 	andeq	r0, r4, #0, 4
     c18:	04020030 	streq	r0, [r2], #-48	; 0xffffffd0
     c1c:	02002c02 	andeq	r2, r0, #512	; 0x200
     c20:	00300204 	eorseq	r0, r0, r4, lsl #4
     c24:	80020402 	andhi	r0, r2, r2, lsl #8
     c28:	6a2d2f32 	bvs	b4c8f8 <__bss_end+0xb49090>
     c2c:	2f2f4b15 	svccs	0x002f4b15
     c30:	2f2f2f30 	svccs	0x002f2f30
     c34:	2f2f2f30 	svccs	0x002f2f30
     c38:	2f2f2f30 	svccs	0x002f2f30
     c3c:	2f2f2f30 	svccs	0x002f2f30
     c40:	4a0e032f 	bmi	381904 <__bss_end+0x37e09c>
     c44:	04020015 	streq	r0, [r2], #-21	; 0xffffffeb
     c48:	02004c02 	andeq	r4, r0, #512	; 0x200
     c4c:	00480204 	subeq	r0, r8, r4, lsl #4
     c50:	30020402 	andcc	r0, r2, r2, lsl #8
     c54:	02040200 	andeq	r0, r4, #0, 4
     c58:	04020048 	streq	r0, [r2], #-72	; 0xffffffb8
     c5c:	02003002 	andeq	r3, r0, #2
     c60:	322c0204 	eorcc	r0, ip, #4, 4	; 0x40000000
     c64:	2e0a0369 	cdpcs	3, 0, cr0, cr10, cr9, {3}
     c68:	344a7a03 	strbcc	r7, [sl], #-2563	; 0xfffff5fd
     c6c:	302e7a03 	eorcc	r7, lr, r3, lsl #20
     c70:	342f2f30 	strtcc	r2, [pc], #-3888	; c78 <mem_twi_init+0x30>
     c74:	2f2e7a03 	svccs	0x002e7a03
     c78:	2f2f2f2f 	svccs	0x002f2f2f
     c7c:	0d032f2f 	stceq	15, cr2, [r3, #-188]	; 0xffffff44
     c80:	2e74032e 	cdpcs	3, 7, cr0, cr4, cr14, {1}
     c84:	2f4e322f 	svccs	0x004e322f
     c88:	30302f2f 	eorscc	r2, r0, pc, lsr #30
     c8c:	032d302d 	teqeq	sp, #45	; 0x2d
     c90:	14660193 	strbtne	r0, [r6], #-403	; 0xfffffe6d
     c94:	164a1003 	strbne	r1, [sl], -r3
     c98:	02002f4b 	andeq	r2, r0, #300	; 0x12c
     c9c:	69310104 	ldmdbvs	r1!, {r2, r8}
     ca0:	82200351 	eorhi	r0, r0, #1140850689	; 0x44000001
     ca4:	312c3015 	teqcc	ip, r5, lsl r0
     ca8:	032f3030 	teqeq	pc, #48	; 0x30
     cac:	10034a0d 	andne	r4, r3, sp, lsl #20
     cb0:	2c4d6701 	mcrrcs	7, 0, r6, sp, cr1
     cb4:	03344b2f 	teqeq	r4, #48128	; 0xbc00
     cb8:	4b174a12 	blmi	5d3508 <__bss_end+0x5cfca0>
     cbc:	302d2f2f 	eorcc	r2, sp, pc, lsr #30
     cc0:	2f302d2f 	svccs	0x00302d2f
     cc4:	2d2f302d 	stccs	0, cr3, [pc, #-180]!	; c18 <_mem_twi_stop+0x74>
     cc8:	2d4c6a31 	vstrcs	s13, [ip, #-196]	; 0xffffff3c
     ccc:	2f2d302f 	svccs	0x002d302f
     cd0:	cc03312f 	stfgts	f3, [r3], {47}	; 0x2f
     cd4:	31344a7d 	teqcc	r4, sp, ror sl
     cd8:	2b31352b 	blcs	c4e18c <__bss_end+0xc4a924>
     cdc:	312f4d31 	teqcc	pc, r1, lsr sp	; <UNPREDICTABLE>
     ce0:	31312f4d 	teqcc	r1, sp, asr #30
     ce4:	312b4d2b 	teqcc	fp, fp, lsr #26
     ce8:	2d2f6830 	stccs	8, cr6, [pc, #-192]!	; c30 <_mem_twi_stop+0x8c>
     cec:	302d2f30 	eorcc	r2, sp, r0, lsr pc
     cf0:	2f302d2f 	svccs	0x00302d2f
     cf4:	322f302d 	eorcc	r3, pc, #45	; 0x2d
     cf8:	032e0c03 	teqeq	lr, #768	; 0x300
     cfc:	312f2e73 	teqcc	pc, r3, ror lr	; <UNPREDICTABLE>
     d00:	2f2d2f2a 	svccs	0x002d2f2a
     d04:	312f2f2f 	teqcc	pc, pc, lsr #30
     d08:	2d302d2f 	ldccs	13, cr2, [r0, #-188]!	; 0xffffff44
     d0c:	2f312f2f 	svccs	0x00312f2f
     d10:	01040200 	tsteq	r4, r0, lsl #4
     d14:	0a038467 	beq	e1eb8 <__bss_end+0xde650>
     d18:	4b4b4d2e 	blmi	12d41d8 <__bss_end+0x12d0970>
     d1c:	4c674d4d 	stclmi	13, cr4, [r7], #-308	; 0xfffffecc
     d20:	4c4c4b31 	vmovmi	d17, r4, ip
     d24:	2f4d4b4b 	svccs	0x004d4b4b
     d28:	2f312f2f 	svccs	0x00312f2f
     d2c:	0402002f 	streq	r0, [r2], #-47	; 0xffffffd1
     d30:	2f693001 	svccs	0x00693001
     d34:	2d314f30 	ldccs	15, cr4, [r1, #-192]!	; 0xffffff40
     d38:	b9033429 	stmdblt	r3, {r0, r3, r5, sl, ip, sp}
     d3c:	4e154a01 	vnmlsmi.f32	s8, s10, s2
     d40:	500f4d13 	andpl	r4, pc, r3, lsl sp	; <UNPREDICTABLE>
     d44:	88684b4f 	stmdahi	r8!, {r0, r1, r2, r3, r6, r8, r9, fp, lr}^
     d48:	302d302c 	eorcc	r3, sp, ip, lsr #32
     d4c:	002d2f30 	eoreq	r2, sp, r0, lsr pc
     d50:	48010402 	stmdami	r1, {r1, sl}
     d54:	14864c6b 	strne	r4, [r6], #3179	; 0xc6b
     d58:	3211144d 	andscc	r1, r1, #1291845632	; 0x4d000000
     d5c:	14321114 	ldrtne	r1, [r2], #-276	; 0xfffffeec
     d60:	11143211 	tstne	r4, r1, lsl r2
     d64:	02111432 	andseq	r1, r1, #838860800	; 0x32000000
     d68:	01010002 	tsteq	r1, r2
     d6c:	00000108 	andeq	r0, r0, r8, lsl #2
     d70:	003c0002 	eorseq	r0, ip, r2
     d74:	01020000 	tsteq	r2, r0
     d78:	000d0efb 	strdeq	r0, [sp], -fp
     d7c:	01010101 	tsteq	r1, r1, lsl #2
     d80:	01000000 	tsteq	r0, r0
     d84:	2e010000 	cdpcs	0, 0, cr0, cr1, cr0, {0}
     d88:	002e2e2f 	eoreq	r2, lr, pc, lsr #28
     d8c:	2e6d7000 	cdpcs	0, 6, cr7, cr13, cr0, {0}
     d90:	00010068 	andeq	r0, r1, r8, rrx
     d94:	5f6d7000 	svcpl	0x006d7000
     d98:	75626564 	strbvc	r6, [r2, #-1380]!	; 0xfffffa9c
     d9c:	00632e67 	rsbeq	r2, r3, r7, ror #28
     da0:	70000001 	andvc	r0, r0, r1
     da4:	79745f6d 	ldmdbvc	r4!, {r0, r2, r3, r5, r6, r8, r9, sl, fp, ip, lr}^
     da8:	2e736570 	mrccs	5, 3, r6, cr3, cr0, {3}
     dac:	00010068 	andeq	r0, r1, r8, rrx
     db0:	05000000 	streq	r0, [r0, #-0]
     db4:	00246c02 	eoreq	r6, r4, r2, lsl #24
     db8:	00c80300 	sbceq	r0, r8, r0, lsl #6
     dbc:	33291701 	teqcc	r9, #262144	; 0x40000
     dc0:	02002f6e 	andeq	r2, r0, #440	; 0x1b8
     dc4:	062b0104 	strteq	r0, [fp], -r4, lsl #2
     dc8:	4c36064a 	ldcmi	6, cr0, [r6], #-296	; 0xfffffed8
     dcc:	0348362f 	movteq	r3, #34351	; 0x862f
     dd0:	19034a6c 	stmdbne	r3, {r2, r3, r5, r6, r9, fp, lr}
     dd4:	0302042e 	movweq	r0, #9262	; 0x242e
     dd8:	302e7fa9 	eorcc	r7, lr, r9, lsr #31
     ddc:	01040200 	tsteq	r4, r0, lsl #4
     de0:	304d6a4b 	subcc	r6, sp, fp, asr #20
     de4:	01040200 	tsteq	r4, r0, lsl #4
     de8:	13516a4b 	cmpne	r1, #307200	; 0x4b000
     dec:	4d302f4c 	ldcmi	15, cr2, [r0, #-304]!	; 0xfffffed0
     df0:	134d312e 	movtne	r3, #53550	; 0xd12e
     df4:	312e4d4b 	teqcc	lr, fp, asr #26
     df8:	302c304d 	eorcc	r3, ip, sp, asr #32
     dfc:	30694c2f 	rsbcc	r4, r9, pc, lsr #24
     e00:	4c2f302c 	stcmi	0, cr3, [pc], #-176	; d58 <twi_byte_rw+0x20>
     e04:	31301569 	teqcc	r0, r9, ror #10
     e08:	4d4c6914 	stclmi	9, cr6, [ip, #-80]	; 0xffffffb0
     e0c:	66090314 			; <UNDEFINED> instruction: 0x66090314
     e10:	3231302f 	eorscc	r3, r1, #47	; 0x2f
     e14:	1531314d 	ldrne	r3, [r1, #-333]!	; 0xfffffeb3
     e18:	154d6869 	strbne	r6, [sp, #-2153]	; 0xfffff797
     e1c:	35314b4e 	ldrcc	r4, [r1, #-2894]!	; 0xfffff4b2
     e20:	2d2f894d 	stccs	9, cr8, [pc, #-308]!	; cf4 <setup_twi_env+0xc>
     e24:	674b6a2f 	strbvs	r6, [fp, -pc, lsr #20]
     e28:	322c4c67 	eorcc	r4, ip, #26368	; 0x6700
     e2c:	30686768 	rsbcc	r6, r8, r8, ror #14
     e30:	2e780334 	mrccs	3, 3, r0, cr8, cr4, {1}
     e34:	2f2f4b2f 	svccs	0x002f4b2f
     e38:	322d302d 	eorcc	r3, sp, #45	; 0x2d
     e3c:	312f2d2b 	teqcc	pc, fp, lsr #26
     e40:	352e8887 	strcc	r8, [lr, #-2183]!	; 0xfffff779
     e44:	032f6c83 	teqeq	pc, #33536	; 0x8300
     e48:	4d352e79 	ldcmi	14, cr2, [r5, #-484]!	; 0xfffffe1c
     e4c:	0402002f 	streq	r0, [r2], #-47	; 0xffffffd1
     e50:	25032d01 	strcs	r2, [r3, #-3329]	; 0xfffff2ff
     e54:	0f4d139e 	svceq	0x004d139e
     e58:	142e0903 	strtne	r0, [lr], #-2307	; 0xfffff6fd
     e5c:	4b166969 	blmi	59b408 <__bss_end+0x597ba0>
     e60:	154d312f 	strbne	r3, [sp, #-303]	; 0xfffffed1
     e64:	50312f4c 	eorspl	r2, r1, ip, asr #30
     e68:	30302c32 	eorscc	r2, r0, r2, lsr ip
     e6c:	2f2f302a 	svccs	0x002f302a
     e70:	02312f30 	eorseq	r2, r1, #48, 30	; 0xc0
     e74:	01010004 	tsteq	r1, r4
     e78:	00000086 	andeq	r0, r0, r6, lsl #1
     e7c:	002c0002 	eoreq	r0, ip, r2
     e80:	01020000 	tsteq	r2, r0
     e84:	000d0efb 	strdeq	r0, [sp], -fp
     e88:	01010101 	tsteq	r1, r1, lsl #2
     e8c:	01000000 	tsteq	r0, r0
     e90:	2e010000 	cdpcs	0, 0, cr0, cr1, cr0, {0}
     e94:	002e2e2f 	eoreq	r2, lr, pc, lsr #28
     e98:	6d656d00 	stclvs	13, cr6, [r5, #-0]
     e9c:	756d6d5f 	strbvc	r6, [sp, #-3423]!	; 0xfffff2a1
     ea0:	5f63705f 	svcpl	0x0063705f
     ea4:	2e6d7361 	cdpcs	3, 6, cr7, cr13, cr1, {3}
     ea8:	00010053 	andeq	r0, r1, r3, asr r0
     eac:	05000000 	streq	r0, [r0, #-0]
     eb0:	0027e002 	eoreq	lr, r7, r2
     eb4:	2f2f1700 	svccs	0x002f1700
     eb8:	302f2f2f 	eorcc	r2, pc, pc, lsr #30
     ebc:	2f2f2f2f 	svccs	0x002f2f2f
     ec0:	2f2f2f2f 	svccs	0x002f2f2f
     ec4:	2f2f2f2f 	svccs	0x002f2f2f
     ec8:	30302f2f 	eorscc	r2, r0, pc, lsr #30
     ecc:	2f2f2f2f 	svccs	0x002f2f2f
     ed0:	2f302f2f 	svccs	0x00302f2f
     ed4:	2f30302f 	svccs	0x0030302f
     ed8:	2f8a302f 	svccs	0x008a302f
     edc:	2f2f2f2f 	svccs	0x002f2f2f
     ee0:	6d2f512f 	stfvss	f5, [pc, #-188]!	; e2c <twi_byte_rw+0xf4>
     ee4:	30302f2f 	eorscc	r2, r0, pc, lsr #30
     ee8:	2f302f2f 	svccs	0x00302f2f
     eec:	6d2f6c2f 	stcvs	12, cr6, [pc, #-188]!	; e38 <twi_byte_rw+0x100>
     ef0:	2f2f2f2f 	svccs	0x002f2f2f
     ef4:	2f2f2f2f 	svccs	0x002f2f2f
     ef8:	2f2f2f2f 	svccs	0x002f2f2f
     efc:	0006022f 	andeq	r0, r6, pc, lsr #4
     f00:	00790101 	rsbseq	r0, r9, r1, lsl #2
     f04:	00020000 	andeq	r0, r2, r0
     f08:	00000045 	andeq	r0, r0, r5, asr #32
     f0c:	0efb0102 	cdpeq	1, 15, cr0, cr11, cr2, {0}
     f10:	0101000d 	tsteq	r1, sp
     f14:	00000101 	andeq	r0, r0, r1, lsl #2
     f18:	00000100 	andeq	r0, r0, r0, lsl #2
     f1c:	2e2f2e01 	cdpcs	14, 2, cr2, cr15, cr1, {0}
     f20:	2f2e002e 	svccs	0x002e002e
     f24:	2e2f2e2e 	cdpcs	14, 2, cr2, cr15, cr14, {1}
     f28:	656d0000 	strbvs	r0, [sp, #-0]!
     f2c:	6d6d5f6d 	stclvs	15, cr5, [sp, #-436]!	; 0xfffffe4c
     f30:	63705f75 	cmnvs	r0, #468	; 0x1d4
     f34:	0100632e 	tsteq	r0, lr, lsr #6
     f38:	6d700000 	ldclvs	0, cr0, [r0, #-0]
     f3c:	0200682e 	andeq	r6, r0, #3014656	; 0x2e0000
     f40:	6d700000 	ldclvs	0, cr0, [r0, #-0]
     f44:	7079745f 	rsbsvc	r7, r9, pc, asr r4
     f48:	682e7365 	stmdavs	lr!, {r0, r2, r5, r6, r8, r9, ip, sp, lr}
     f4c:	00000100 	andeq	r0, r0, r0, lsl #2
     f50:	02050000 	andeq	r0, r5, #0
     f54:	00002940 	andeq	r2, r0, r0, asr #18
     f58:	4d4c1419 	cfstrdmi	mvd1, [ip, #-100]	; 0xffffff9c
     f5c:	4d4b4b4f 	vstrmi	d20, [fp, #-316]	; 0xfffffec4
     f60:	4c15314c 	ldfmis	f3, [r5], {76}	; 0x4c
     f64:	2f4b4e4c 	svccs	0x004b4e4c
     f68:	1313bb4b 	tstne	r3, #76800	; 0x12c00
     f6c:	2f4c3213 	svccs	0x004c3213
     f70:	03312f2f 	teqeq	r1, #47, 30	; 0xbc
     f74:	30152e17 	andscc	r2, r5, r7, lsl lr
     f78:	0202302f 	andeq	r3, r2, #47	; 0x2f
     f7c:	ed010100 	stfs	f0, [r1, #-0]
     f80:	02000000 	andeq	r0, r0, #0
     f84:	00004700 	andeq	r4, r0, r0, lsl #14
     f88:	fb010200 	blx	41792 <__bss_end+0x3df2a>
     f8c:	01000d0e 	tsteq	r0, lr, lsl #26
     f90:	00010101 	andeq	r0, r1, r1, lsl #2
     f94:	00010000 	andeq	r0, r1, r0
     f98:	2f2e0100 	svccs	0x002e0100
     f9c:	2e002e2e 	cdpcs	14, 0, cr2, cr0, cr14, {1}
     fa0:	2f2e2e2f 	svccs	0x002e2e2f
     fa4:	6d00002e 	stcvs	0, cr0, [r0, #-184]	; 0xffffff48
     fa8:	635f6d65 	cmpvs	pc, #6464	; 0x1940
     fac:	632e7570 	teqvs	lr, #112, 10	; 0x1c000000
     fb0:	00000100 	andeq	r0, r0, r0, lsl #2
     fb4:	5f6d656d 	svcpl	0x006d656d
     fb8:	2e757063 	cdpcs	0, 7, cr7, cr5, cr3, {3}
     fbc:	00020068 	andeq	r0, r2, r8, rrx
     fc0:	5f6d7000 	svcpl	0x006d7000
     fc4:	65707974 	ldrbvs	r7, [r0, #-2420]!	; 0xfffff68c
     fc8:	00682e73 	rsbeq	r2, r8, r3, ror lr
     fcc:	00000001 	andeq	r0, r0, r1
     fd0:	00020500 	andeq	r0, r2, r0, lsl #10
     fd4:	0300002a 	movweq	r0, #42	; 0x2a
     fd8:	160100cf 	strne	r0, [r1], -pc, asr #1
     fdc:	0c03f3f7 	stceq	3, cr15, [r3], {247}	; 0xf7
     fe0:	f6f3f3f2 			; <UNDEFINED> instruction: 0xf6f3f3f2
     fe4:	f3f3f3f6 	vrsra.u64	<illegal reg q15.5>, q11, #13
     fe8:	f6f6f3f6 			; <UNDEFINED> instruction: 0xf6f6f3f6
     fec:	f6f3f3f3 			; <UNDEFINED> instruction: 0xf6f3f3f3
     ff0:	f3f3f3f6 	vrsra.u64	<illegal reg q15.5>, q11, #13
     ff4:	f6f3f3f3 			; <UNDEFINED> instruction: 0xf6f3f3f3
     ff8:	f4f6f7f3 			; <UNDEFINED> instruction: 0xf4f6f7f3
     ffc:	f3f3f5f3 	vsli.64	<illegal reg q15.5>, <illegal reg q9.5>, #51	; 0x33
    1000:	f6f3f3f3 			; <UNDEFINED> instruction: 0xf6f3f3f3
    1004:	f20903f3 	vcge.s8	q0, <illegal reg q12.5>, <illegal reg q9.5>
    1008:	f3f3f3f3 	vrsra.u64	<illegal reg q15.5>, <illegal reg q9.5>, #13
    100c:	f71431f9 			; <UNDEFINED> instruction: 0xf71431f9
    1010:	f3f20b03 	vtbl.8	d16, {d2-d5}, d3
    1014:	2ff32f2f 	svccs	0x00f32f2f
    1018:	322ff32f 	eorcc	pc, pc, #-1140850688	; 0xbc000000
    101c:	f21103f4 	vcge.s16	q0, <illegal reg q8.5>, q10
    1020:	f3f4f3f3 	vrsra.u64	<illegal reg q15.5>, <illegal reg q9.5>, #12
    1024:	f3f20a03 	vtbl.8	d16, {d2-d4}, d3
    1028:	f3f3f3f5 	vrsra.u64	<illegal reg q15.5>, <illegal reg q10.5>, #13
    102c:	f3f6f3f3 	vrsra.u64	<illegal reg q15.5>, <illegal reg q9.5>, #10
    1030:	f3f3f3f9 	vrsra.u64	<illegal reg q15.5>, <illegal reg q12.5>, #13
    1034:	302ff9f3 	strdcc	pc, [pc], -r3	; <UNPREDICTABLE>
    1038:	14311431 	ldrtne	r1, [r1], #-1073	; 0xfffffbcf
    103c:	4d312f4c 	ldcmi	15, cr2, [r1, #-304]!	; 0xfffffed0
    1040:	4c4b4d15 	mcrrmi	13, 1, r4, fp, cr5
    1044:	332f2f4b 	teqcc	pc, #300	; 0x12c
    1048:	30302f30 	eorscc	r2, r0, r0, lsr pc
    104c:	302f2f2f 	eorcc	r2, pc, pc, lsr #30
    1050:	0d03302f 	stceq	0, cr3, [r3, #-188]	; 0xffffff44
    1054:	302f2f2e 	eorcc	r2, pc, lr, lsr #30
    1058:	304c4d2f 	subcc	r4, ip, pc, lsr #26
    105c:	2f4b4d4b 	svccs	0x004b4d4b
    1060:	312f2f2f 	teqcc	pc, pc, lsr #30
    1064:	2f2f312f 	svccs	0x002f312f
    1068:	02302f2f 	eorseq	r2, r0, #47, 30	; 0xbc
    106c:	01010008 	tsteq	r1, r8

Disassembly of section .debug_loc:

00000000 <.debug_loc>:
       0:	00000000 	andeq	r0, r0, r0
       4:	00000004 	andeq	r0, r0, r4
       8:	007d0002 	rsbseq	r0, sp, r2
       c:	00000004 	andeq	r0, r0, r4
      10:	000001bc 			; <UNDEFINED> instruction: 0x000001bc
      14:	107d0002 	rsbsne	r0, sp, r2
	...
      20:	00000034 	andeq	r0, r0, r4, lsr r0
      24:	00000040 	andeq	r0, r0, r0, asr #32
      28:	40550001 	subsmi	r0, r5, r1
      2c:	bc000000 	stclt	0, cr0, [r0], {-0}
      30:	01000001 	tsteq	r0, r1
      34:	00005500 	andeq	r5, r0, r0, lsl #10
	...
      40:	00040000 	andeq	r0, r4, r0
      44:	00010000 	andeq	r0, r1, r0
      48:	00000050 	andeq	r0, r0, r0, asr r0
	...
      54:	00000400 	andeq	r0, r0, r0, lsl #8
      58:	51000100 	tstpl	r0, r0, lsl #2
	...
      68:	0000000c 	andeq	r0, r0, ip
      6c:	0c520001 	mrrceq	0, 0, r0, r2, cr1
      70:	10000000 	andne	r0, r0, r0
      74:	03000000 	movweq	r0, #0
      78:	9f017200 	svcls	0x00017200
      7c:	00000010 	andeq	r0, r0, r0, lsl r0
      80:	0000001c 	andeq	r0, r0, ip, lsl r0
      84:	00520001 	subseq	r0, r2, r1
	...
      90:	04000000 	streq	r0, [r0], #-0
      94:	01000000 	tsteq	r0, r0
      98:	00005100 	andeq	r5, r0, r0, lsl #2
	...
      a4:	00100000 	andseq	r0, r0, r0
      a8:	00010000 	andeq	r0, r1, r0
      ac:	00001050 	andeq	r1, r0, r0, asr r0
      b0:	00001c00 	andeq	r1, r0, r0, lsl #24
      b4:	50000100 	andpl	r0, r0, r0, lsl #2
	...
      c0:	000000f0 	strdeq	r0, [r0], -r0	; <UNPREDICTABLE>
      c4:	00000104 	andeq	r0, r0, r4, lsl #2
      c8:	007d0002 	rsbseq	r0, sp, r2
      cc:	00000104 	andeq	r0, r0, r4, lsl #2
      d0:	00000138 	andeq	r0, r0, r8, lsr r1
      d4:	087d0002 	ldmdaeq	sp!, {r1}^
	...
      e0:	000000f0 	strdeq	r0, [r0], -r0	; <UNPREDICTABLE>
      e4:	00000100 	andeq	r0, r0, r0, lsl #2
      e8:	00500001 	subseq	r0, r0, r1
      ec:	00000000 	andeq	r0, r0, r0
      f0:	f8000000 			; <UNDEFINED> instruction: 0xf8000000
      f4:	10000000 	andne	r0, r0, r0
      f8:	01000001 	tsteq	r0, r1
      fc:	01105200 	tsteq	r0, r0, lsl #4
     100:	01240000 	teqeq	r4, r0
     104:	00030000 	andeq	r0, r3, r0
     108:	249f7071 	ldrcs	r7, [pc], #113	; 110 <__suspend_start+0x110>
     10c:	38000001 	stmdacc	r0, {r0}
     110:	03000001 	movweq	r0, #1
     114:	9f6c7200 	svcls	0x006c7200
	...
     120:	000000f8 	strdeq	r0, [r0], -r8
     124:	00000100 	andeq	r0, r0, r0, lsl #2
     128:	00700005 	rsbseq	r0, r0, r5
     12c:	009f1a4f 	addseq	r1, pc, pc, asr #20
     130:	14000001 	strne	r0, [r0], #-1
     134:	01000001 	tsteq	r0, r1
     138:	00005000 	andeq	r5, r0, r0
     13c:	00000000 	andeq	r0, r0, r0
     140:	01380000 	teqeq	r8, r0
     144:	01480000 	mrseq	r0, SPSR
     148:	00010000 	andeq	r0, r1, r0
     14c:	00000050 	andeq	r0, r0, r0, asr r0
     150:	00000000 	andeq	r0, r0, r0
     154:	00013800 	andeq	r3, r1, r0, lsl #16
     158:	00015000 	andeq	r5, r1, r0
     15c:	30000200 	andcc	r0, r0, r0, lsl #4
     160:	0000009f 	muleq	r0, pc, r0	; <UNPREDICTABLE>
     164:	00000000 	andeq	r0, r0, r0
     168:	00014000 	andeq	r4, r1, r0
     16c:	00014400 	andeq	r4, r1, r0, lsl #8
     170:	52000100 	andpl	r0, r0, #0, 2
     174:	00000144 	andeq	r0, r0, r4, asr #2
     178:	00000154 	andeq	r0, r0, r4, asr r1
     17c:	7c720003 	ldclvc	0, cr0, [r2], #-12
     180:	0000009f 	muleq	r0, pc, r0	; <UNPREDICTABLE>
     184:	00000000 	andeq	r0, r0, r0
     188:	00014000 	andeq	r4, r1, r0
     18c:	00014800 	andeq	r4, r1, r0, lsl #16
     190:	70000500 	andvc	r0, r0, r0, lsl #10
     194:	9f1a4f00 	svcls	0x001a4f00
     198:	00000148 	andeq	r0, r0, r8, asr #2
     19c:	00000160 	andeq	r0, r0, r0, ror #2
     1a0:	00500001 	subseq	r0, r0, r1
     1a4:	00000000 	andeq	r0, r0, r0
     1a8:	d4000000 	strle	r0, [r0], #-0
     1ac:	18000000 	stmdane	r0, {}	; <UNPREDICTABLE>
     1b0:	01000001 	tsteq	r0, r1
     1b4:	012c5000 	teqeq	ip, r0
     1b8:	01300000 	teqeq	r0, r0
     1bc:	00010000 	andeq	r0, r1, r0
     1c0:	00000050 	andeq	r0, r0, r0, asr r0
     1c4:	00000000 	andeq	r0, r0, r0
     1c8:	00013c00 	andeq	r3, r1, r0, lsl #24
     1cc:	00018800 	andeq	r8, r1, r0, lsl #16
     1d0:	50000100 	andpl	r0, r0, r0, lsl #2
     1d4:	0000018c 	andeq	r0, r0, ip, lsl #3
     1d8:	00000190 	muleq	r0, r0, r1
     1dc:	00500001 	subseq	r0, r0, r1
     1e0:	00000000 	andeq	r0, r0, r0
     1e4:	9c000000 	stcls	0, cr0, [r0], {-0}
     1e8:	e0000001 	and	r0, r0, r1
     1ec:	01000001 	tsteq	r0, r1
     1f0:	00005000 	andeq	r5, r0, r0
     1f4:	00000000 	andeq	r0, r0, r0
     1f8:	01f80000 	mvnseq	r0, r0
     1fc:	02380000 	eorseq	r0, r8, #0
     200:	00010000 	andeq	r0, r1, r0
     204:	00000050 	andeq	r0, r0, r0, asr r0
     208:	00000000 	andeq	r0, r0, r0
     20c:	0000a800 	andeq	sl, r0, r0, lsl #16
     210:	0000c800 	andeq	ip, r0, r0, lsl #16
     214:	0a000400 	beq	121c <raw_lib_udiv+0x10>
     218:	c89ff2ff 	ldmgt	pc, {r0, r1, r2, r3, r4, r5, r6, r7, r9, ip, sp, lr, pc}	; <UNPREDICTABLE>
     21c:	d4000000 	strle	r0, [r0], #-0
     220:	01000000 	tsteq	r0, r0
     224:	00d45200 	sbcseq	r5, r4, r0, lsl #4
     228:	00d80000 	sbcseq	r0, r8, r0
     22c:	00030000 	andeq	r0, r3, r0
     230:	d89f7f72 	ldmle	pc, {r1, r4, r5, r6, r8, r9, sl, fp, ip, sp, lr}	; <UNPREDICTABLE>
     234:	ec000000 	stc	0, cr0, [r0], {-0}
     238:	01000000 	tsteq	r0, r0
     23c:	00ec5200 	rsceq	r5, ip, r0, lsl #4
     240:	00f80000 	rscseq	r0, r8, r0
     244:	00010000 	andeq	r0, r1, r0
     248:	0000f852 	andeq	pc, r0, r2, asr r8	; <UNPREDICTABLE>
     24c:	0000fc00 	andeq	pc, r0, r0, lsl #24
     250:	72000300 	andvc	r0, r0, #0, 6
     254:	00fc9f7f 	rscseq	r9, ip, pc, ror pc
     258:	01100000 	tsteq	r0, r0
     25c:	00010000 	andeq	r0, r1, r0
     260:	00011052 	andeq	r1, r1, r2, asr r0
     264:	00011c00 	andeq	r1, r1, r0, lsl #24
     268:	52000100 	andpl	r0, r0, #0, 2
     26c:	0000011c 	andeq	r0, r0, ip, lsl r1
     270:	00000120 	andeq	r0, r0, r0, lsr #2
     274:	7f720003 	svcvc	0x00720003
     278:	0001209f 	muleq	r1, pc, r0	; <UNPREDICTABLE>
     27c:	00014c00 	andeq	r4, r1, r0, lsl #24
     280:	52000100 	andpl	r0, r0, #0, 2
	...
     28c:	0000014c 	andeq	r0, r0, ip, asr #2
     290:	00000184 	andeq	r0, r0, r4, lsl #3
     294:	00500001 	subseq	r0, r0, r1
     298:	00000000 	andeq	r0, r0, r0
     29c:	9c000000 	stcls	0, cr0, [r0], {-0}
     2a0:	a0000001 	andge	r0, r0, r1
     2a4:	02000001 	andeq	r0, r0, #1
     2a8:	a0007d00 	andge	r7, r0, r0, lsl #26
     2ac:	ec000001 	stc	0, cr0, [r0], {1}
     2b0:	02000001 	andeq	r0, r0, #1
     2b4:	00087d00 	andeq	r7, r8, r0, lsl #26
     2b8:	00000000 	andeq	r0, r0, r0
     2bc:	3c000000 	stccc	0, cr0, [r0], {-0}
     2c0:	44000002 	strmi	r0, [r0], #-2
     2c4:	02000002 	andeq	r0, r0, #2
     2c8:	44007d00 	strmi	r7, [r0], #-3328	; 0xfffff300
     2cc:	84000002 	strhi	r0, [r0], #-2
     2d0:	02000004 	andeq	r0, r0, #4
     2d4:	00087d00 	andeq	r7, r8, r0, lsl #26
     2d8:	00000000 	andeq	r0, r0, r0
     2dc:	3c000000 	stccc	0, cr0, [r0], {-0}
     2e0:	90000002 	andls	r0, r0, r2
     2e4:	01000003 	tsteq	r0, r3
     2e8:	00005000 	andeq	r5, r0, r0
     2ec:	00000000 	andeq	r0, r0, r0
     2f0:	023c0000 	eorseq	r0, ip, #0
     2f4:	02a40000 	adceq	r0, r4, #0
     2f8:	00010000 	andeq	r0, r1, r0
     2fc:	00000051 	andeq	r0, r0, r1, asr r0
     300:	00000000 	andeq	r0, r0, r0
     304:	00023c00 	andeq	r3, r2, r0, lsl #24
     308:	0002f000 	andeq	pc, r2, r0
     30c:	52000100 	andpl	r0, r0, #0, 2
	...
     318:	0000023c 	andeq	r0, r0, ip, lsr r2
     31c:	00000338 	andeq	r0, r0, r8, lsr r3
     320:	7c530001 	mrrcvc	0, 0, r0, r3, cr1
     324:	44000003 	strmi	r0, [r0], #-3
     328:	01000004 	tsteq	r0, r4
     32c:	00005300 	andeq	r5, r0, r0, lsl #6
     330:	00000000 	andeq	r0, r0, r0
     334:	02540000 	subseq	r0, r4, #0
     338:	02580000 	subseq	r0, r8, #0
     33c:	00010000 	andeq	r0, r1, r0
     340:	0002945e 	andeq	r9, r2, lr, asr r4
     344:	00029800 	andeq	r9, r2, r0, lsl #16
     348:	5e000100 	adfpls	f0, f0, f0
     34c:	000002dc 	ldrdeq	r0, [r0], -ip
     350:	000002e0 	andeq	r0, r0, r0, ror #5
     354:	205e0001 	subscs	r0, lr, r1
     358:	24000003 	strcs	r0, [r0], #-3
     35c:	01000003 	tsteq	r0, r3
     360:	03705200 	cmneq	r0, #0, 4
     364:	03740000 	cmneq	r4, #0
     368:	00010000 	andeq	r0, r1, r0
     36c:	0003b453 	andeq	fp, r3, r3, asr r4
     370:	0003b800 	andeq	fp, r3, r0, lsl #16
     374:	52000100 	andpl	r0, r0, #0, 2
     378:	000003fc 	strdeq	r0, [r0], -ip
     37c:	00000400 	andeq	r0, r0, r0, lsl #8
     380:	44520001 	ldrbmi	r0, [r2], #-1
     384:	48000004 	stmdami	r0, {r2}
     388:	01000004 	tsteq	r0, r4
     38c:	00005300 	andeq	r5, r0, r0, lsl #6
     390:	00000000 	andeq	r0, r0, r0
     394:	026c0000 	rsbeq	r0, ip, #0
     398:	02700000 	rsbseq	r0, r0, #0
     39c:	00040000 	andeq	r0, r4, r0
     3a0:	9ff2ff0a 	svcls	0x00f2ff0a
     3a4:	00000270 	andeq	r0, r0, r0, ror r2
     3a8:	0000027c 	andeq	r0, r0, ip, ror r2
     3ac:	7c5e0001 	mrrcvc	0, 0, r0, lr, cr1
     3b0:	80000002 	andhi	r0, r0, r2
     3b4:	03000002 	movweq	r0, #2
     3b8:	9f7f7e00 	svcls	0x007f7e00
     3bc:	00000280 	andeq	r0, r0, r0, lsl #5
     3c0:	00000294 	muleq	r0, r4, r2
     3c4:	b45e0001 	ldrblt	r0, [lr], #-1
     3c8:	b8000002 	stmdalt	r0, {r1}
     3cc:	04000002 	streq	r0, [r0], #-2
     3d0:	f2ff0a00 	vmlsl.s<illegal width 64>	q8, d15, d0
     3d4:	0002b89f 	muleq	r2, pc, r8	; <UNPREDICTABLE>
     3d8:	0002c400 	andeq	ip, r2, r0, lsl #8
     3dc:	5e000100 	adfpls	f0, f0, f0
     3e0:	000002c4 	andeq	r0, r0, r4, asr #5
     3e4:	000002c8 	andeq	r0, r0, r8, asr #5
     3e8:	7f7e0003 	svcvc	0x007e0003
     3ec:	0002c89f 	muleq	r2, pc, r8	; <UNPREDICTABLE>
     3f0:	0002dc00 	andeq	sp, r2, r0, lsl #24
     3f4:	5e000100 	adfpls	f0, f0, f0
     3f8:	000002f8 	strdeq	r0, [r0], -r8
     3fc:	000002fc 	strdeq	r0, [r0], -ip
     400:	ff0a0004 			; <UNDEFINED> instruction: 0xff0a0004
     404:	02fc9ff2 	rscseq	r9, ip, #968	; 0x3c8
     408:	03080000 	movweq	r0, #32768	; 0x8000
     40c:	00010000 	andeq	r0, r1, r0
     410:	00030852 	andeq	r0, r3, r2, asr r8
     414:	00030c00 	andeq	r0, r3, r0, lsl #24
     418:	72000300 	andvc	r0, r0, #0, 6
     41c:	030c9f7f 	movweq	r9, #53119	; 0xcf7f
     420:	03200000 	teqeq	r0, #0
     424:	00010000 	andeq	r0, r1, r0
     428:	00034852 	andeq	r4, r3, r2, asr r8
     42c:	00034c00 	andeq	r4, r3, r0, lsl #24
     430:	0a000400 	beq	1438 <mem_get_voltage+0x58>
     434:	4c9ff2ff 	lfmmi	f7, 1, [pc], {255}	; 0xff
     438:	58000003 	stmdapl	r0, {r0, r1}
     43c:	01000003 	tsteq	r0, r3
     440:	03585300 	cmpeq	r8, #0, 6
     444:	035c0000 	cmpeq	ip, #0
     448:	00030000 	andeq	r0, r3, r0
     44c:	5c9f7f73 	ldcpl	15, cr7, [pc], {115}	; 0x73
     450:	70000003 	andvc	r0, r0, r3
     454:	01000003 	tsteq	r0, r3
     458:	038c5300 	orreq	r5, ip, #0, 6
     45c:	03900000 	orrseq	r0, r0, #0
     460:	00040000 	andeq	r0, r4, r0
     464:	9ff2ff0a 	svcls	0x00f2ff0a
     468:	00000390 	muleq	r0, r0, r3
     46c:	0000039c 	muleq	r0, ip, r3
     470:	9c520001 	mrrcls	0, 0, r0, r2, cr1
     474:	a0000003 	andge	r0, r0, r3
     478:	03000003 	movweq	r0, #3
     47c:	9f7f7200 	svcls	0x007f7200
     480:	000003a0 	andeq	r0, r0, r0, lsr #7
     484:	000003b4 			; <UNDEFINED> instruction: 0x000003b4
     488:	d4520001 	ldrble	r0, [r2], #-1
     48c:	d8000003 	stmdale	r0, {r0, r1}
     490:	04000003 	streq	r0, [r0], #-3
     494:	f2ff0a00 	vmlsl.s<illegal width 64>	q8, d15, d0
     498:	0003d89f 	muleq	r3, pc, r8	; <UNPREDICTABLE>
     49c:	0003e400 	andeq	lr, r3, r0, lsl #8
     4a0:	52000100 	andpl	r0, r0, #0, 2
     4a4:	000003e4 	andeq	r0, r0, r4, ror #7
     4a8:	000003e8 	andeq	r0, r0, r8, ror #7
     4ac:	7f720003 	svcvc	0x00720003
     4b0:	0003e89f 	muleq	r3, pc, r8	; <UNPREDICTABLE>
     4b4:	0003fc00 	andeq	pc, r3, r0, lsl #24
     4b8:	52000100 	andpl	r0, r0, #0, 2
     4bc:	00000414 	andeq	r0, r0, r4, lsl r4
     4c0:	00000418 	andeq	r0, r0, r8, lsl r4
     4c4:	ff0a0004 			; <UNDEFINED> instruction: 0xff0a0004
     4c8:	04189ff2 	ldreq	r9, [r8], #-4082	; 0xfffff00e
     4cc:	04240000 	strteq	r0, [r4], #-0
     4d0:	00010000 	andeq	r0, r1, r0
     4d4:	00042452 	andeq	r2, r4, r2, asr r4
     4d8:	00042800 	andeq	r2, r4, r0, lsl #16
     4dc:	72000300 	andvc	r0, r0, #0, 6
     4e0:	04289f7f 	strteq	r9, [r8], #-3967	; 0xfffff081
     4e4:	043c0000 	ldrteq	r0, [ip], #-0
     4e8:	00010000 	andeq	r0, r1, r0
     4ec:	00000052 	andeq	r0, r0, r2, asr r0
     4f0:	00000000 	andeq	r0, r0, r0
     4f4:	00023c00 	andeq	r3, r2, r0, lsl #24
     4f8:	00045c00 	andeq	r5, r4, r0, lsl #24
     4fc:	09000300 	stmdbeq	r0, {r8, r9}
     500:	045c9fff 	ldrbeq	r9, [ip], #-4095	; 0xfffff001
     504:	04640000 	strbteq	r0, [r4], #-0
     508:	00020000 	andeq	r0, r2, r0
     50c:	04709f30 	ldrbteq	r9, [r0], #-3888	; 0xfffff0d0
     510:	04840000 	streq	r0, [r4], #0
     514:	00020000 	andeq	r0, r2, r0
     518:	00009f30 	andeq	r9, r0, r0, lsr pc
     51c:	00000000 	andeq	r0, r0, r0
     520:	04840000 	streq	r0, [r4], #0
     524:	04880000 	streq	r0, [r8], #0
     528:	00020000 	andeq	r0, r2, r0
     52c:	0488007d 	streq	r0, [r8], #125	; 0x7d
     530:	06e80000 	strbteq	r0, [r8], r0
     534:	00020000 	andeq	r0, r2, r0
     538:	0000087d 	andeq	r0, r0, sp, ror r8
     53c:	00000000 	andeq	r0, r0, r0
     540:	04840000 	streq	r0, [r4], #0
     544:	05dc0000 	ldrbeq	r0, [ip]
     548:	00010000 	andeq	r0, r1, r0
     54c:	00000050 	andeq	r0, r0, r0, asr r0
     550:	00000000 	andeq	r0, r0, r0
     554:	00048400 	andeq	r8, r4, r0, lsl #8
     558:	0004f400 	andeq	pc, r4, r0, lsl #8
     55c:	51000100 	tstpl	r0, r0, lsl #2
	...
     568:	00000484 	andeq	r0, r0, r4, lsl #9
     56c:	00000544 	andeq	r0, r0, r4, asr #10
     570:	00520001 	subseq	r0, r2, r1
     574:	00000000 	andeq	r0, r0, r0
     578:	84000000 	strhi	r0, [r0], #-0
     57c:	90000004 	andls	r0, r0, r4
     580:	01000005 	tsteq	r0, r5
     584:	05d85300 	ldrbeq	r5, [r8, #768]	; 0x300
     588:	06ac0000 	strteq	r0, [ip], r0
     58c:	00010000 	andeq	r0, r1, r0
     590:	00000053 	andeq	r0, r0, r3, asr r0
     594:	00000000 	andeq	r0, r0, r0
     598:	0004a000 	andeq	sl, r4, r0
     59c:	0004a400 	andeq	sl, r4, r0, lsl #8
     5a0:	5e000100 	adfpls	f0, f0, f0
     5a4:	000004e4 	andeq	r0, r0, r4, ror #9
     5a8:	000004e8 	andeq	r0, r0, r8, ror #9
     5ac:	305e0001 	subscc	r0, lr, r1
     5b0:	34000005 	strcc	r0, [r0], #-5
     5b4:	01000005 	tsteq	r0, r5
     5b8:	05785e00 	ldrbeq	r5, [r8, #-3584]!	; 0xfffff200
     5bc:	057c0000 	ldrbeq	r0, [ip, #-0]!
     5c0:	00010000 	andeq	r0, r1, r0
     5c4:	0005cc5c 	andeq	ip, r5, ip, asr ip
     5c8:	0005d000 	andeq	sp, r5, r0
     5cc:	53000100 	movwpl	r0, #256	; 0x100
     5d0:	00000614 	andeq	r0, r0, r4, lsl r6
     5d4:	00000618 	andeq	r0, r0, r8, lsl r6
     5d8:	60500001 	subsvs	r0, r0, r1
     5dc:	64000006 	strvs	r0, [r0], #-6
     5e0:	01000006 	tsteq	r0, r6
     5e4:	06ac5100 	strteq	r5, [ip], r0, lsl #2
     5e8:	06b00000 	ldrteq	r0, [r0], r0
     5ec:	00010000 	andeq	r0, r1, r0
     5f0:	00000053 	andeq	r0, r0, r3, asr r0
     5f4:	00000000 	andeq	r0, r0, r0
     5f8:	0004b800 	andeq	fp, r4, r0, lsl #16
     5fc:	0004bc00 	andeq	fp, r4, r0, lsl #24
     600:	0a000400 	beq	1608 <mem_power_init+0x1a8>
     604:	bc9ff2ff 	lfmlt	f7, 1, [pc], {255}	; 0xff
     608:	cc000004 	stcgt	0, cr0, [r0], {4}
     60c:	01000004 	tsteq	r0, r4
     610:	04cc5e00 	strbeq	r5, [ip], #3584	; 0xe00
     614:	04d00000 	ldrbeq	r0, [r0], #0
     618:	00030000 	andeq	r0, r3, r0
     61c:	d09f7f7e 	addsle	r7, pc, lr, ror pc	; <UNPREDICTABLE>
     620:	e4000004 	str	r0, [r0], #-4
     624:	01000004 	tsteq	r0, r4
     628:	05045e00 	streq	r5, [r4, #-3584]	; 0xfffff200
     62c:	05080000 	streq	r0, [r8, #-0]
     630:	00040000 	andeq	r0, r4, r0
     634:	9ff2ff0a 	svcls	0x00f2ff0a
     638:	00000508 	andeq	r0, r0, r8, lsl #10
     63c:	00000518 	andeq	r0, r0, r8, lsl r5
     640:	185e0001 	ldmdane	lr, {r0}^
     644:	1c000005 	stcne	0, cr0, [r0], {5}
     648:	03000005 	movweq	r0, #5
     64c:	9f7f7e00 	svcls	0x007f7e00
     650:	0000051c 	andeq	r0, r0, ip, lsl r5
     654:	00000530 	andeq	r0, r0, r0, lsr r5
     658:	4c5e0001 	mrrcmi	0, 0, r0, lr, cr1
     65c:	50000005 	andpl	r0, r0, r5
     660:	04000005 	streq	r0, [r0], #-5
     664:	f2ff0a00 	vmlsl.s<illegal width 64>	q8, d15, d0
     668:	0005509f 	muleq	r5, pc, r0	; <UNPREDICTABLE>
     66c:	00056000 	andeq	r6, r5, r0
     670:	5c000100 	stfpls	f0, [r0], {-0}
     674:	00000560 	andeq	r0, r0, r0, ror #10
     678:	00000564 	andeq	r0, r0, r4, ror #10
     67c:	7f7c0003 	svcvc	0x007c0003
     680:	0005649f 	muleq	r5, pc, r4	; <UNPREDICTABLE>
     684:	00057800 	andeq	r7, r5, r0, lsl #16
     688:	5c000100 	stfpls	f0, [r0], {-0}
     68c:	000005a0 	andeq	r0, r0, r0, lsr #11
     690:	000005a4 	andeq	r0, r0, r4, lsr #11
     694:	ff0a0004 			; <UNDEFINED> instruction: 0xff0a0004
     698:	05a49ff2 	streq	r9, [r4, #4082]!	; 0xff2
     69c:	05b40000 	ldreq	r0, [r4, #0]!
     6a0:	00010000 	andeq	r0, r1, r0
     6a4:	0005b453 	andeq	fp, r5, r3, asr r4
     6a8:	0005b800 	andeq	fp, r5, r0, lsl #16
     6ac:	73000300 	movwvc	r0, #768	; 0x300
     6b0:	05b89f7f 	ldreq	r9, [r8, #3967]!	; 0xf7f
     6b4:	05cc0000 	strbeq	r0, [ip]
     6b8:	00010000 	andeq	r0, r1, r0
     6bc:	0005e853 	andeq	lr, r5, r3, asr r8
     6c0:	0005ec00 	andeq	lr, r5, r0, lsl #24
     6c4:	0a000400 	beq	16cc <mem_power_exit+0x64>
     6c8:	ec9ff2ff 	lfm	f7, 1, [pc], {255}	; 0xff
     6cc:	fc000005 	stc2	0, cr0, [r0], {5}
     6d0:	01000005 	tsteq	r0, r5
     6d4:	05fc5000 	ldrbeq	r5, [ip, #0]!
     6d8:	06000000 	streq	r0, [r0], -r0
     6dc:	00030000 	andeq	r0, r3, r0
     6e0:	009f7f70 	addseq	r7, pc, r0, ror pc	; <UNPREDICTABLE>
     6e4:	14000006 	strne	r0, [r0], #-6
     6e8:	01000006 	tsteq	r0, r6
     6ec:	06345000 	ldrteq	r5, [r4], -r0
     6f0:	06380000 	ldrteq	r0, [r8], -r0
     6f4:	00040000 	andeq	r0, r4, r0
     6f8:	9ff2ff0a 	svcls	0x00f2ff0a
     6fc:	00000638 	andeq	r0, r0, r8, lsr r6
     700:	00000648 	andeq	r0, r0, r8, asr #12
     704:	48510001 	ldmdami	r1, {r0}^
     708:	4c000006 	stcmi	0, cr0, [r0], {6}
     70c:	03000006 	movweq	r0, #6
     710:	9f7f7100 	svcls	0x007f7100
     714:	0000064c 	andeq	r0, r0, ip, asr #12
     718:	00000660 	andeq	r0, r0, r0, ror #12
     71c:	78510001 	ldmdavc	r1, {r0}^
     720:	7c000006 	stcvc	0, cr0, [r0], {6}
     724:	04000006 	streq	r0, [r0], #-6
     728:	f2ff0a00 	vmlsl.s<illegal width 64>	q8, d15, d0
     72c:	00067c9f 	muleq	r6, pc, ip	; <UNPREDICTABLE>
     730:	00068c00 	andeq	r8, r6, r0, lsl #24
     734:	52000100 	andpl	r0, r0, #0, 2
     738:	0000068c 	andeq	r0, r0, ip, lsl #13
     73c:	00000690 	muleq	r0, r0, r6
     740:	7f720003 	svcvc	0x00720003
     744:	0006909f 	muleq	r6, pc, r0	; <UNPREDICTABLE>
     748:	0006a400 	andeq	sl, r6, r0, lsl #8
     74c:	52000100 	andpl	r0, r0, #0, 2
	...
     758:	00000484 	andeq	r0, r0, r4, lsl #9
     75c:	000006c4 	andeq	r0, r0, r4, asr #13
     760:	ff090003 			; <UNDEFINED> instruction: 0xff090003
     764:	0006c49f 	muleq	r6, pc, r4	; <UNPREDICTABLE>
     768:	0006d000 	andeq	sp, r6, r0
     76c:	30000200 	andcc	r0, r0, r0, lsl #4
     770:	0006d09f 	muleq	r6, pc, r0	; <UNPREDICTABLE>
     774:	0006e800 	andeq	lr, r6, r0, lsl #16
     778:	30000200 	andcc	r0, r0, r0, lsl #4
     77c:	0000009f 	muleq	r0, pc, r0	; <UNPREDICTABLE>
	...
     788:	00002800 	andeq	r2, r0, r0, lsl #16
     78c:	50000100 	andpl	r0, r0, r0, lsl #2
     790:	00000028 	andeq	r0, r0, r8, lsr #32
     794:	00000034 	andeq	r0, r0, r4, lsr r0
     798:	34530001 	ldrbcc	r0, [r3], #-1
     79c:	48000000 	stmdami	r0, {}	; <UNPREDICTABLE>
     7a0:	01000000 	tsteq	r0, r0
     7a4:	00485300 	subeq	r5, r8, r0, lsl #6
     7a8:	004c0000 	subeq	r0, ip, r0
     7ac:	00010000 	andeq	r0, r1, r0
     7b0:	00004c50 	andeq	r4, r0, r0, asr ip
     7b4:	00005000 	andeq	r5, r0, r0
     7b8:	53000100 	movwpl	r0, #256	; 0x100
	...
     7c8:	0000000c 	andeq	r0, r0, ip
     7cc:	48510001 	ldmdami	r1, {r0}^
     7d0:	50000000 	andpl	r0, r0, r0
     7d4:	01000000 	tsteq	r0, r0
     7d8:	00005200 	andeq	r5, r0, r0, lsl #4
	...
     7e4:	000c0000 	andeq	r0, ip, r0
     7e8:	00010000 	andeq	r0, r1, r0
     7ec:	00000c51 	andeq	r0, r0, r1, asr ip
     7f0:	00001800 	andeq	r1, r0, r0, lsl #16
     7f4:	52000100 	andpl	r0, r0, #0, 2
     7f8:	00000018 	andeq	r0, r0, r8, lsl r0
     7fc:	00000038 	andeq	r0, r0, r8, lsr r0
     800:	38520001 	ldmdacc	r2, {r0}^
     804:	44000000 	strmi	r0, [r0], #-0
     808:	05000000 	streq	r0, [r0, #-0]
     80c:	31007200 	tstcc	r0, r0, lsl #4
     810:	00449f25 	subeq	r9, r4, r5, lsr #30
     814:	00500000 	subseq	r0, r0, r0
     818:	00010000 	andeq	r0, r1, r0
     81c:	00000052 	andeq	r0, r0, r2, asr r0
	...
     828:	00002800 	andeq	r2, r0, r0, lsl #16
     82c:	30000200 	andcc	r0, r0, r0, lsl #4
     830:	0000289f 	muleq	r0, pc, r8	; <UNPREDICTABLE>
     834:	00003000 	andeq	r3, r0, r0
     838:	50000100 	andpl	r0, r0, r0, lsl #2
     83c:	00000038 	andeq	r0, r0, r8, lsr r0
     840:	00000048 	andeq	r0, r0, r8, asr #32
     844:	48500001 	ldmdami	r0, {r0}^
     848:	50000000 	andpl	r0, r0, r0
     84c:	02000000 	andeq	r0, r0, #0
     850:	009f3000 	addseq	r3, pc, r0
	...
     85c:	14000000 	strne	r0, [r0], #-0
     860:	02000000 	andeq	r0, r0, #0
     864:	149f3000 	ldrne	r3, [pc], #0	; 86c <mem_tmr_disable_watchdog+0xc>
     868:	1c000000 	stcne	0, cr0, [r0], {-0}
     86c:	01000000 	tsteq	r0, r0
     870:	001c5100 	andseq	r5, ip, r0, lsl #2
     874:	00380000 	eorseq	r0, r8, r0
     878:	00010000 	andeq	r0, r1, r0
     87c:	00003851 	andeq	r3, r0, r1, asr r8
     880:	00003c00 	andeq	r3, r0, r0, lsl #24
     884:	71000300 	tstvc	r0, r0, lsl #6
     888:	003c9f7f 	eorseq	r9, ip, pc, ror pc
     88c:	00480000 	subeq	r0, r8, r0
     890:	00010000 	andeq	r0, r1, r0
     894:	00004851 	andeq	r4, r0, r1, asr r8
     898:	00005000 	andeq	r5, r0, r0
     89c:	30000200 	andcc	r0, r0, r0, lsl #4
     8a0:	0000009f 	muleq	r0, pc, r0	; <UNPREDICTABLE>
     8a4:	00000000 	andeq	r0, r0, r0
     8a8:	00005000 	andeq	r5, r0, r0
     8ac:	00006000 	andeq	r6, r0, r0
     8b0:	50000100 	andpl	r0, r0, r0, lsl #2
     8b4:	00000060 	andeq	r0, r0, r0, rrx
     8b8:	00000094 	muleq	r0, r4, r0
     8bc:	005c0001 	subseq	r0, ip, r1
     8c0:	00000000 	andeq	r0, r0, r0
     8c4:	6c000000 	stcvs	0, cr0, [r0], {-0}
     8c8:	80000000 	andhi	r0, r0, r0
     8cc:	01000000 	tsteq	r0, r0
     8d0:	00005000 	andeq	r5, r0, r0
     8d4:	00000000 	andeq	r0, r0, r0
     8d8:	00500000 	subseq	r0, r0, r0
     8dc:	00600000 	rsbeq	r0, r0, r0
     8e0:	00020000 	andeq	r0, r2, r0
     8e4:	00609f30 	rsbeq	r9, r0, r0, lsr pc
     8e8:	00800000 	addeq	r0, r0, r0
     8ec:	00010000 	andeq	r0, r1, r0
     8f0:	00008053 	andeq	r8, r0, r3, asr r0
     8f4:	00009400 	andeq	r9, r0, r0, lsl #8
     8f8:	53000100 	movwpl	r0, #256	; 0x100
	...
     904:	00000094 	muleq	r0, r4, r0
     908:	00000098 	muleq	r0, r8, r0
     90c:	007d0002 	rsbseq	r0, sp, r2
     910:	00000098 	muleq	r0, r8, r0
     914:	000001d4 	ldrdeq	r0, [r0], -r4
     918:	207d0002 	rsbscs	r0, sp, r2
	...
     924:	00000094 	muleq	r0, r4, r0
     928:	000000a3 	andeq	r0, r0, r3, lsr #1
     92c:	a3500001 	cmpge	r0, #1
     930:	e0000000 	and	r0, r0, r0
     934:	01000000 	tsteq	r0, r0
     938:	00e45500 	rsceq	r5, r4, r0, lsl #10
     93c:	00f00000 	rscseq	r0, r0, r0
     940:	00010000 	andeq	r0, r1, r0
     944:	0001c055 	andeq	ip, r1, r5, asr r0
     948:	0001d400 	andeq	sp, r1, r0, lsl #8
     94c:	55000100 	strpl	r0, [r0, #-256]	; 0xffffff00
	...
     958:	00000094 	muleq	r0, r4, r0
     95c:	000000a3 	andeq	r0, r0, r3, lsr #1
     960:	a3510001 	cmpge	r1, #1
     964:	50000000 	andpl	r0, r0, r0
     968:	01000001 	tsteq	r0, r1
     96c:	01c05600 	biceq	r5, r0, r0, lsl #12
     970:	01d40000 	bicseq	r0, r4, r0
     974:	00010000 	andeq	r0, r1, r0
     978:	00000056 	andeq	r0, r0, r6, asr r0
     97c:	00000000 	andeq	r0, r0, r0
     980:	00009400 	andeq	r9, r0, r0, lsl #8
     984:	0000a400 	andeq	sl, r0, r0, lsl #8
     988:	30000200 	andcc	r0, r0, r0, lsl #4
     98c:	0000a49f 	muleq	r0, pc, r4	; <UNPREDICTABLE>
     990:	0000d800 	andeq	sp, r0, r0, lsl #16
     994:	50000100 	andpl	r0, r0, r0, lsl #2
     998:	000000d8 	ldrdeq	r0, [r0], -r8
     99c:	000001d4 	ldrdeq	r0, [r0], -r4
     9a0:	00540001 	subseq	r0, r4, r1
     9a4:	00000000 	andeq	r0, r0, r0
     9a8:	e0000000 	and	r0, r0, r0
     9ac:	e4000000 	str	r0, [r0], #-0
     9b0:	01000000 	tsteq	r0, r0
     9b4:	010c5500 	tsteq	ip, r0, lsl #10
     9b8:	01140000 	tsteq	r4, r0
     9bc:	00010000 	andeq	r0, r1, r0
     9c0:	00012855 	andeq	r2, r1, r5, asr r8
     9c4:	00012c00 	andeq	r2, r1, r0, lsl #24
     9c8:	55000100 	strpl	r0, [r0, #-256]	; 0xffffff00
     9cc:	0000013c 	andeq	r0, r0, ip, lsr r1
     9d0:	00000150 	andeq	r0, r0, r0, asr r1
     9d4:	00550001 	subseq	r0, r5, r1
     9d8:	00000000 	andeq	r0, r0, r0
     9dc:	68000000 	stmdavs	r0, {}	; <UNPREDICTABLE>
     9e0:	b8000001 	stmdalt	r0, {r0}
     9e4:	02000001 	andeq	r0, r0, #1
     9e8:	bc5f9100 	ldfltp	f1, [pc], {-0}
     9ec:	c0000001 	andgt	r0, r0, r1
     9f0:	02000001 	andeq	r0, r0, #1
     9f4:	005f9100 	subseq	r9, pc, r0, lsl #2
     9f8:	00000000 	andeq	r0, r0, r0
     9fc:	ac000000 	stcge	0, cr0, [r0], {-0}
     a00:	50000000 	andpl	r0, r0, r0
     a04:	01000001 	tsteq	r0, r1
     a08:	01c05600 	biceq	r5, r0, r0, lsl #12
     a0c:	01d40000 	bicseq	r0, r4, r0
     a10:	00010000 	andeq	r0, r1, r0
     a14:	00000056 	andeq	r0, r0, r6, asr r0
     a18:	00000000 	andeq	r0, r0, r0
     a1c:	0000ac00 	andeq	sl, r0, r0, lsl #24
     a20:	0000d800 	andeq	sp, r0, r0, lsl #16
     a24:	50000100 	andpl	r0, r0, r0, lsl #2
     a28:	000000d8 	ldrdeq	r0, [r0], -r8
     a2c:	000001b8 			; <UNDEFINED> instruction: 0x000001b8
     a30:	c0540001 	subsgt	r0, r4, r1
     a34:	d4000001 	strle	r0, [r0], #-1
     a38:	01000001 	tsteq	r0, r1
     a3c:	00005400 	andeq	r5, r0, r0, lsl #8
     a40:	00000000 	andeq	r0, r0, r0
     a44:	01d40000 	bicseq	r0, r4, r0
     a48:	01d80000 	bicseq	r0, r8, r0
     a4c:	00020000 	andeq	r0, r2, r0
     a50:	01d8007d 	bicseq	r0, r8, sp, ror r0
     a54:	02540000 	subseq	r0, r4, #0
     a58:	00020000 	andeq	r0, r2, r0
     a5c:	0000187d 	andeq	r1, r0, sp, ror r8
     a60:	00000000 	andeq	r0, r0, r0
     a64:	01d40000 	bicseq	r0, r4, r0
     a68:	01df0000 	bicseq	r0, pc, r0
     a6c:	00010000 	andeq	r0, r1, r0
     a70:	0001df50 	andeq	sp, r1, r0, asr pc
     a74:	00025400 	andeq	r5, r2, r0, lsl #8
     a78:	55000100 	strpl	r0, [r0, #-256]	; 0xffffff00
	...
     a84:	000001d4 	ldrdeq	r0, [r0], -r4
     a88:	000001e0 	andeq	r0, r0, r0, ror #3
     a8c:	9f300002 	svcls	0x00300002
     a90:	000001e0 	andeq	r0, r0, r0, ror #3
     a94:	000001ec 	andeq	r0, r0, ip, ror #3
     a98:	ec500001 	mrrc	0, 0, r0, r0, cr1	; <UNPREDICTABLE>
     a9c:	54000001 	strpl	r0, [r0], #-1
     aa0:	01000002 	tsteq	r0, r2
     aa4:	00005400 	andeq	r5, r0, r0, lsl #8
     aa8:	00000000 	andeq	r0, r0, r0
     aac:	02180000 	andseq	r0, r8, #0
     ab0:	021c0000 	andseq	r0, ip, #0
     ab4:	00020000 	andeq	r0, r2, r0
     ab8:	02286791 	eoreq	r6, r8, #38010880	; 0x2440000
     abc:	02380000 	eorseq	r0, r8, #0
     ac0:	00010000 	andeq	r0, r1, r0
     ac4:	00023c51 	andeq	r3, r2, r1, asr ip
     ac8:	00024400 	andeq	r4, r2, r0, lsl #8
     acc:	53000100 	movwpl	r0, #256	; 0x100
	...
     ad8:	00000254 	andeq	r0, r0, r4, asr r2
     adc:	00000258 	andeq	r0, r0, r8, asr r2
     ae0:	007d0002 	rsbseq	r0, sp, r2
     ae4:	00000258 	andeq	r0, r0, r8, asr r2
     ae8:	0000045c 	andeq	r0, r0, ip, asr r4
     aec:	107d0002 	rsbsne	r0, sp, r2
	...
     af8:	00000254 	andeq	r0, r0, r4, asr r2
     afc:	00000260 	andeq	r0, r0, r0, ror #4
     b00:	60500001 	subsvs	r0, r0, r1
     b04:	5c000002 	stcpl	0, cr0, [r0], {2}
     b08:	01000004 	tsteq	r0, r4
     b0c:	00005400 	andeq	r5, r0, r0, lsl #8
     b10:	00000000 	andeq	r0, r0, r0
     b14:	02880000 	addeq	r0, r8, #0
     b18:	028c0000 	addeq	r0, ip, #0
     b1c:	00020000 	andeq	r0, r2, r0
     b20:	029c6f91 	addseq	r6, ip, #580	; 0x244
     b24:	02a00000 	adceq	r0, r0, #0
     b28:	00010000 	andeq	r0, r1, r0
     b2c:	0002a053 	andeq	sl, r2, r3, asr r0
     b30:	0002d800 	andeq	sp, r2, r0, lsl #16
     b34:	91000200 	tstls	r0, r0, lsl #4
     b38:	0002e86f 	andeq	lr, r2, pc, ror #16
     b3c:	0002ec00 	andeq	lr, r2, r0, lsl #24
     b40:	53000100 	movwpl	r0, #256	; 0x100
     b44:	000002ec 	andeq	r0, r0, ip, ror #5
     b48:	00000324 	andeq	r0, r0, r4, lsr #6
     b4c:	6f910002 	svcvs	0x00910002
     b50:	00000334 	andeq	r0, r0, r4, lsr r3
     b54:	00000338 	andeq	r0, r0, r8, lsr r3
     b58:	38530001 	ldmdacc	r3, {r0}^
     b5c:	70000003 	andvc	r0, r0, r3
     b60:	02000003 	andeq	r0, r0, #3
     b64:	806f9100 	rsbhi	r9, pc, r0, lsl #2
     b68:	84000003 	strhi	r0, [r0], #-3
     b6c:	01000003 	tsteq	r0, r3
     b70:	03845300 	orreq	r5, r4, #0, 6
     b74:	03bc0000 			; <UNDEFINED> instruction: 0x03bc0000
     b78:	00020000 	andeq	r0, r2, r0
     b7c:	03cc6f91 	biceq	r6, ip, #580	; 0x244
     b80:	03d00000 	bicseq	r0, r0, #0
     b84:	00010000 	andeq	r0, r1, r0
     b88:	0003d053 	andeq	sp, r3, r3, asr r0
     b8c:	00040800 	andeq	r0, r4, r0, lsl #16
     b90:	91000200 	tstls	r0, r0, lsl #4
     b94:	0004186f 	andeq	r1, r4, pc, ror #16
     b98:	00041c00 	andeq	r1, r4, r0, lsl #24
     b9c:	53000100 	movwpl	r0, #256	; 0x100
     ba0:	0000041c 	andeq	r0, r0, ip, lsl r4
     ba4:	0000045c 	andeq	r0, r0, ip, asr r4
     ba8:	6f910002 	svcvs	0x00910002
	...
     bb4:	0000045c 	andeq	r0, r0, ip, asr r4
     bb8:	00000464 	andeq	r0, r0, r4, ror #8
     bbc:	007d0002 	rsbseq	r0, sp, r2
     bc0:	00000464 	andeq	r0, r0, r4, ror #8
     bc4:	00000638 	andeq	r0, r0, r8, lsr r6
     bc8:	107d0002 	rsbsne	r0, sp, r2
	...
     bd4:	0000045c 	andeq	r0, r0, ip, asr r4
     bd8:	00000470 	andeq	r0, r0, r0, ror r4
     bdc:	70500001 	subsvc	r0, r0, r1
     be0:	38000004 	stmdacc	r0, {r2}
     be4:	01000006 	tsteq	r0, r6
     be8:	00005400 	andeq	r5, r0, r0, lsl #8
     bec:	00000000 	andeq	r0, r0, r0
     bf0:	04880000 	streq	r0, [r8], #0
     bf4:	048c0000 	streq	r0, [ip], #0
     bf8:	00020000 	andeq	r0, r2, r0
     bfc:	049c6f91 	ldreq	r6, [ip], #3985	; 0xf91
     c00:	04a00000 	strteq	r0, [r0], #0
     c04:	00010000 	andeq	r0, r1, r0
     c08:	0004a053 	andeq	sl, r4, r3, asr r0
     c0c:	0004d800 	andeq	sp, r4, r0, lsl #16
     c10:	91000200 	tstls	r0, r0, lsl #4
     c14:	0004e86f 	andeq	lr, r4, pc, ror #16
     c18:	0004ec00 	andeq	lr, r4, r0, lsl #24
     c1c:	53000100 	movwpl	r0, #256	; 0x100
     c20:	000004ec 	andeq	r0, r0, ip, ror #9
     c24:	00000524 	andeq	r0, r0, r4, lsr #10
     c28:	6f910002 	svcvs	0x00910002
     c2c:	00000534 	andeq	r0, r0, r4, lsr r5
     c30:	00000538 	andeq	r0, r0, r8, lsr r5
     c34:	38530001 	ldmdacc	r3, {r0}^
     c38:	70000005 	andvc	r0, r0, r5
     c3c:	02000005 	andeq	r0, r0, #5
     c40:	806f9100 	rsbhi	r9, pc, r0, lsl #2
     c44:	84000005 	strhi	r0, [r0], #-5
     c48:	01000005 	tsteq	r0, r5
     c4c:	05845300 	streq	r5, [r4, #768]	; 0x300
     c50:	05bc0000 	ldreq	r0, [ip, #0]!
     c54:	00020000 	andeq	r0, r2, r0
     c58:	05cc6f91 	strbeq	r6, [ip, #3985]	; 0xf91
     c5c:	05d00000 	ldrbeq	r0, [r0]
     c60:	00010000 	andeq	r0, r1, r0
     c64:	0005d053 	andeq	sp, r5, r3, asr r0
     c68:	00060800 	andeq	r0, r6, r0, lsl #16
     c6c:	91000200 	tstls	r0, r0, lsl #4
     c70:	0006186f 	andeq	r1, r6, pc, ror #16
     c74:	00061c00 	andeq	r1, r6, r0, lsl #24
     c78:	53000100 	movwpl	r0, #256	; 0x100
     c7c:	0000061c 	andeq	r0, r0, ip, lsl r6
     c80:	00000638 	andeq	r0, r0, r8, lsr r6
     c84:	6f910002 	svcvs	0x00910002
	...
     c90:	00000638 	andeq	r0, r0, r8, lsr r6
     c94:	0000063c 	andeq	r0, r0, ip, lsr r6
     c98:	007d0002 	rsbseq	r0, sp, r2
     c9c:	0000063c 	andeq	r0, r0, ip, lsr r6
     ca0:	000006d4 	ldrdeq	r0, [r0], -r4
     ca4:	107d0002 	rsbsne	r0, sp, r2
	...
     cb0:	0000064c 	andeq	r0, r0, ip, asr #12
     cb4:	00000664 	andeq	r0, r0, r4, ror #12
     cb8:	7f740002 	svcvc	0x00740002
     cbc:	00000674 	andeq	r0, r0, r4, ror r6
     cc0:	00000678 	andeq	r0, r0, r8, ror r6
     cc4:	78530001 	ldmdavc	r3, {r0}^
     cc8:	a4000006 	strge	r0, [r0], #-6
     ccc:	02000006 	andeq	r0, r0, #6
     cd0:	b46f9100 	strbtlt	r9, [pc], #-256	; cd8 <mem_twi_exit+0x40>
     cd4:	b8000006 	stmdalt	r0, {r1, r2}
     cd8:	01000006 	tsteq	r0, r6
     cdc:	06b85300 	ldrteq	r5, [r8], r0, lsl #6
     ce0:	06d40000 	ldrbeq	r0, [r4], r0
     ce4:	00020000 	andeq	r0, r2, r0
     ce8:	00006f91 	muleq	r0, r1, pc	; <UNPREDICTABLE>
     cec:	00000000 	andeq	r0, r0, r0
     cf0:	06d40000 	ldrbeq	r0, [r4], r0
     cf4:	06d80000 	ldrbeq	r0, [r8], r0
     cf8:	00020000 	andeq	r0, r2, r0
     cfc:	06d8007d 			; <UNDEFINED> instruction: 0x06d8007d
     d00:	07700000 	ldrbeq	r0, [r0, -r0]!
     d04:	00020000 	andeq	r0, r2, r0
     d08:	0000107d 	andeq	r1, r0, sp, ror r0
     d0c:	00000000 	andeq	r0, r0, r0
     d10:	06e80000 	strbteq	r0, [r8], r0
     d14:	07000000 	streq	r0, [r0, -r0]
     d18:	00020000 	andeq	r0, r2, r0
     d1c:	07107f74 			; <UNDEFINED> instruction: 0x07107f74
     d20:	07140000 	ldreq	r0, [r4, -r0]
     d24:	00010000 	andeq	r0, r1, r0
     d28:	00071453 	andeq	r1, r7, r3, asr r4
     d2c:	00074000 	andeq	r4, r7, r0
     d30:	91000200 	tstls	r0, r0, lsl #4
     d34:	0007506f 	andeq	r5, r7, pc, rrx
     d38:	00075400 	andeq	r5, r7, r0, lsl #8
     d3c:	53000100 	movwpl	r0, #256	; 0x100
     d40:	00000754 	andeq	r0, r0, r4, asr r7
     d44:	00000770 	andeq	r0, r0, r0, ror r7
     d48:	6f910002 	svcvs	0x00910002
	...
     d54:	00000008 	andeq	r0, r0, r8
     d58:	0000000c 	andeq	r0, r0, ip
     d5c:	0c520001 	mrrceq	0, 0, r0, r2, cr1
     d60:	10000000 	andne	r0, r0, r0
     d64:	01000000 	tsteq	r0, r0
     d68:	00105200 	andseq	r5, r0, r0, lsl #4
     d6c:	00140000 	andseq	r0, r4, r0
     d70:	00010000 	andeq	r0, r1, r0
     d74:	00001452 	andeq	r1, r0, r2, asr r4
     d78:	00002700 	andeq	r2, r0, r0, lsl #14
     d7c:	73000200 	movwvc	r0, #512	; 0x200
     d80:	00000004 	andeq	r0, r0, r4
     d84:	00000000 	andeq	r0, r0, r0
     d88:	00003400 	andeq	r3, r0, r0, lsl #8
     d8c:	00003800 	andeq	r3, r0, r0, lsl #16
     d90:	52000100 	andpl	r0, r0, #0, 2
     d94:	00000038 	andeq	r0, r0, r8, lsr r0
     d98:	0000003c 	andeq	r0, r0, ip, lsr r0
     d9c:	3c520001 	mrrccc	0, 0, r0, r2, cr1
     da0:	40000000 	andmi	r0, r0, r0
     da4:	01000000 	tsteq	r0, r0
     da8:	00405200 	subeq	r5, r0, r0, lsl #4
     dac:	00530000 	subseq	r0, r3, r0
     db0:	00020000 	andeq	r0, r2, r0
     db4:	00000473 	andeq	r0, r0, r3, ror r4
     db8:	00000000 	andeq	r0, r0, r0
     dbc:	00600000 	rsbeq	r0, r0, r0
     dc0:	00640000 	rsbeq	r0, r4, r0
     dc4:	00010000 	andeq	r0, r1, r0
     dc8:	00006452 	andeq	r6, r0, r2, asr r4
     dcc:	00006800 	andeq	r6, r0, r0, lsl #16
     dd0:	52000100 	andpl	r0, r0, #0, 2
     dd4:	00000068 	andeq	r0, r0, r8, rrx
     dd8:	0000006c 	andeq	r0, r0, ip, rrx
     ddc:	6c520001 	mrrcvs	0, 0, r0, r2, cr1
     de0:	7f000000 	svcvc	0x00000000
     de4:	02000000 	andeq	r0, r0, #0
     de8:	00047300 	andeq	r7, r4, r0, lsl #6
     dec:	00000000 	andeq	r0, r0, r0
     df0:	9c000000 	stcls	0, cr0, [r0], {-0}
     df4:	a0000000 	andge	r0, r0, r0
     df8:	01000000 	tsteq	r0, r0
     dfc:	00a05200 	adceq	r5, r0, r0, lsl #4
     e00:	00a40000 	adceq	r0, r4, r0
     e04:	00010000 	andeq	r0, r1, r0
     e08:	0000a452 	andeq	sl, r0, r2, asr r4
     e0c:	0000b000 	andeq	fp, r0, r0
     e10:	52000100 	andpl	r0, r0, #0, 2
	...
     e1c:	000000b0 	strheq	r0, [r0], -r0	; <UNPREDICTABLE>
     e20:	000000b4 	strheq	r0, [r0], -r4
     e24:	007d0002 	rsbseq	r0, sp, r2
     e28:	000000b4 	strheq	r0, [r0], -r4
     e2c:	00000114 	andeq	r0, r0, r4, lsl r1
     e30:	087d0002 	ldmdaeq	sp!, {r1}^
	...
     e3c:	000000f0 	strdeq	r0, [r0], -r0	; <UNPREDICTABLE>
     e40:	000000f4 	strdeq	r0, [r0], -r4
     e44:	9f300002 	svcls	0x00300002
     e48:	00000104 	andeq	r0, r0, r4, lsl #2
     e4c:	00000114 	andeq	r0, r0, r4, lsl r1
     e50:	00540001 	subseq	r0, r4, r1
     e54:	00000000 	andeq	r0, r0, r0
     e58:	c0000000 	andgt	r0, r0, r0
     e5c:	c4000000 	strgt	r0, [r0], #-0
     e60:	01000000 	tsteq	r0, r0
     e64:	00c45200 	sbceq	r5, r4, r0, lsl #4
     e68:	00c80000 	sbceq	r0, r8, r0
     e6c:	00010000 	andeq	r0, r1, r0
     e70:	0000c852 	andeq	ip, r0, r2, asr r8
     e74:	0000cc00 	andeq	ip, r0, r0, lsl #24
     e78:	52000100 	andpl	r0, r0, #0, 2
     e7c:	000000cc 	andeq	r0, r0, ip, asr #1
     e80:	000000e3 	andeq	r0, r0, r3, ror #1
     e84:	04730002 	ldrbteq	r0, [r3], #-2
     e88:	000000e8 	andeq	r0, r0, r8, ror #1
     e8c:	000000ec 	andeq	r0, r0, ip, ror #1
     e90:	ec530001 	mrrc	0, 0, r0, r3, cr1
     e94:	f4000000 	vst4.8	{d0-d3}, [r0], r0
     e98:	01000000 	tsteq	r0, r0
     e9c:	00005300 	andeq	r5, r0, r0, lsl #6
     ea0:	00000000 	andeq	r0, r0, r0
     ea4:	01140000 	tsteq	r4, r0
     ea8:	01180000 	tsteq	r8, r0
     eac:	00020000 	andeq	r0, r2, r0
     eb0:	0118007d 	tsteq	r8, sp, ror r0
     eb4:	01740000 	cmneq	r4, r0
     eb8:	00020000 	andeq	r0, r2, r0
     ebc:	0000087d 	andeq	r0, r0, sp, ror r8
     ec0:	00000000 	andeq	r0, r0, r0
     ec4:	01140000 	tsteq	r4, r0
     ec8:	011c0000 	tsteq	ip, r0
     ecc:	00020000 	andeq	r0, r2, r0
     ed0:	012c9f30 	teqeq	ip, r0, lsr pc
     ed4:	01740000 	cmneq	r4, r0
     ed8:	00010000 	andeq	r0, r1, r0
     edc:	00000054 	andeq	r0, r0, r4, asr r0
     ee0:	00000000 	andeq	r0, r0, r0
     ee4:	00014000 	andeq	r4, r1, r0
     ee8:	00014400 	andeq	r4, r1, r0, lsl #8
     eec:	52000100 	andpl	r0, r0, #0, 2
     ef0:	00000144 	andeq	r0, r0, r4, asr #2
     ef4:	00000148 	andeq	r0, r0, r8, asr #2
     ef8:	48520001 	ldmdami	r2, {r0}^
     efc:	4c000001 	stcmi	0, cr0, [r0], {1}
     f00:	01000001 	tsteq	r0, r1
     f04:	014c5200 	mrseq	r5, SPSR
     f08:	015f0000 	cmpeq	pc, r0
     f0c:	00020000 	andeq	r0, r2, r0
     f10:	00000473 	andeq	r0, r0, r3, ror r4
     f14:	00000000 	andeq	r0, r0, r0
     f18:	01740000 	cmneq	r4, r0
     f1c:	017c0000 	cmneq	ip, r0
     f20:	00010000 	andeq	r0, r1, r0
     f24:	00000050 	andeq	r0, r0, r0, asr r0
     f28:	00000000 	andeq	r0, r0, r0
     f2c:	00019400 	andeq	r9, r1, r0, lsl #8
     f30:	00019c00 	andeq	r9, r1, r0, lsl #24
     f34:	7d000200 	sfmvc	f0, 4, [r0, #-0]
     f38:	00019c00 	andeq	r9, r1, r0, lsl #24
     f3c:	0001dc00 	andeq	sp, r1, r0, lsl #24
     f40:	7d000200 	sfmvc	f0, 4, [r0, #-0]
     f44:	00000008 	andeq	r0, r0, r8
     f48:	00000000 	andeq	r0, r0, r0
     f4c:	00019400 	andeq	r9, r1, r0, lsl #8
     f50:	0001a800 	andeq	sl, r1, r0, lsl #16
     f54:	51000100 	tstpl	r0, r0, lsl #2
	...
     f60:	00000194 	muleq	r0, r4, r1
     f64:	000001ac 	andeq	r0, r0, ip, lsr #3
     f68:	00520001 	subseq	r0, r2, r1
     f6c:	00000000 	andeq	r0, r0, r0
     f70:	94000000 	strls	r0, [r0], #-0
     f74:	b0000001 	andlt	r0, r0, r1
     f78:	01000001 	tsteq	r0, r1
     f7c:	00005300 	andeq	r5, r0, r0, lsl #6
     f80:	00000000 	andeq	r0, r0, r0
     f84:	01b80000 			; <UNDEFINED> instruction: 0x01b80000
     f88:	01bc0000 			; <UNDEFINED> instruction: 0x01bc0000
     f8c:	00010000 	andeq	r0, r1, r0
     f90:	0001bc54 	andeq	fp, r1, r4, asr ip
     f94:	0001c000 	andeq	ip, r1, r0
     f98:	54000100 	strpl	r0, [r0], #-256	; 0xffffff00
     f9c:	000001c0 	andeq	r0, r0, r0, asr #3
     fa0:	000001c4 	andeq	r0, r0, r4, asr #3
     fa4:	c4510001 	ldrbgt	r0, [r1], #-1
     fa8:	c8000001 	stmdagt	r0, {r0}
     fac:	01000001 	tsteq	r0, r1
     fb0:	01c85100 	biceq	r5, r8, r0, lsl #2
     fb4:	01cc0000 	biceq	r0, ip, r0
     fb8:	00010000 	andeq	r0, r1, r0
     fbc:	0001cc52 	andeq	ip, r1, r2, asr ip
     fc0:	0001d000 	andeq	sp, r1, r0
     fc4:	52000100 	andpl	r0, r0, #0, 2
     fc8:	000001d0 	ldrdeq	r0, [r0], -r0	; <UNPREDICTABLE>
     fcc:	000001dc 	ldrdeq	r0, [r0], -ip
     fd0:	00530001 	subseq	r0, r3, r1
     fd4:	00000000 	andeq	r0, r0, r0
     fd8:	dc000000 	stcle	0, cr0, [r0], {-0}
     fdc:	e0000001 	and	r0, r0, r1
     fe0:	02000001 	andeq	r0, r0, #1
     fe4:	e0007d00 	and	r7, r0, r0, lsl #26
     fe8:	0c000001 	stceq	0, cr0, [r0], {1}
     fec:	02000002 	andeq	r0, r0, #2
     ff0:	00087d00 	andeq	r7, r8, r0, lsl #26
     ff4:	00000000 	andeq	r0, r0, r0
     ff8:	ec000000 	stc	0, cr0, [r0], {-0}
     ffc:	f0000001 			; <UNDEFINED> instruction: 0xf0000001
    1000:	01000001 	tsteq	r0, r1
    1004:	01f05300 	mvnseq	r5, r0, lsl #6
    1008:	01f70000 	mvnseq	r0, r0
    100c:	00010000 	andeq	r0, r1, r0
    1010:	0001fc53 	andeq	pc, r1, r3, asr ip	; <UNPREDICTABLE>
    1014:	00020000 	andeq	r0, r2, r0
    1018:	53000100 	movwpl	r0, #256	; 0x100
    101c:	00000200 	andeq	r0, r0, r0, lsl #4
    1020:	0000020c 	andeq	r0, r0, ip, lsl #4
    1024:	00530001 	subseq	r0, r3, r1
    1028:	00000000 	andeq	r0, r0, r0
    102c:	0c000000 	stceq	0, cr0, [r0], {-0}
    1030:	14000002 	strne	r0, [r0], #-2
    1034:	02000002 	andeq	r0, r0, #2
    1038:	14007d00 	strne	r7, [r0], #-3328	; 0xfffff300
    103c:	18000002 	stmdane	r0, {r1}
    1040:	02000002 	andeq	r0, r0, #2
    1044:	18247d00 	stmdane	r4!, {r8, sl, fp, ip, sp, lr}
    1048:	5c000002 	stcpl	0, cr0, [r0], {2}
    104c:	03000003 	movweq	r0, #3
    1050:	00c07d00 	sbceq	r7, r0, r0, lsl #26
	...
    105c:	000002a0 	andeq	r0, r0, r0, lsr #5
    1060:	000002a4 	andeq	r0, r0, r4, lsr #5
    1064:	00720009 	rsbseq	r0, r2, r9
    1068:	0000000c 	andeq	r0, r0, ip
    106c:	ac9f2150 	ldfges	f2, [pc], {80}	; 0x50
    1070:	b0000002 	andlt	r0, r0, r2
    1074:	01000002 	tsteq	r0, r2
    1078:	02b05200 	adcseq	r5, r0, #0, 4
    107c:	02b70000 	adcseq	r0, r7, #0
    1080:	00010000 	andeq	r0, r1, r0
    1084:	00030c53 	andeq	r0, r3, r3, asr ip
    1088:	00031000 	andeq	r1, r3, r0
    108c:	53000100 	movwpl	r0, #256	; 0x100
    1090:	00000310 	andeq	r0, r0, r0, lsl r3
    1094:	00000314 	andeq	r0, r0, r4, lsl r3
    1098:	14530001 	ldrbne	r0, [r3], #-1
    109c:	33000003 	movwcc	r0, #3
    10a0:	02000003 	andeq	r0, r0, #3
    10a4:	00007400 	andeq	r7, r0, r0, lsl #8
    10a8:	00000000 	andeq	r0, r0, r0
    10ac:	40000000 	andmi	r0, r0, r0
    10b0:	43000003 	movwmi	r0, #3
    10b4:	01000003 	tsteq	r0, r3
    10b8:	03435000 	movteq	r5, #12288	; 0x3000
    10bc:	035c0000 	cmpeq	ip, #0
    10c0:	00010000 	andeq	r0, r1, r0
    10c4:	00000054 	andeq	r0, r0, r4, asr r0
    10c8:	00000000 	andeq	r0, r0, r0
    10cc:	00022000 	andeq	r2, r2, r0
    10d0:	00022400 	andeq	r2, r2, r0, lsl #8
    10d4:	52000100 	andpl	r0, r0, #0, 2
    10d8:	00000224 	andeq	r0, r0, r4, lsr #4
    10dc:	0000035c 	andeq	r0, r0, ip, asr r3
    10e0:	007d0002 	rsbseq	r0, sp, r2
	...
    10ec:	00000230 	andeq	r0, r0, r0, lsr r2
    10f0:	00000244 	andeq	r0, r0, r4, asr #4
    10f4:	44520001 	ldrbmi	r0, [r2], #-1
    10f8:	5c000002 	stcpl	0, cr0, [r0], {2}
    10fc:	03000003 	movweq	r0, #3
    1100:	7fbc9100 	svcvc	0x00bc9100
	...
    110c:	0000024c 	andeq	r0, r0, ip, asr #4
    1110:	00000250 	andeq	r0, r0, r0, asr r2
    1114:	50520001 	subspl	r0, r2, r1
    1118:	5c000002 	stcpl	0, cr0, [r0], {2}
    111c:	02000003 	andeq	r0, r0, #3
    1120:	00409100 	subeq	r9, r0, r0, lsl #2
    1124:	00000000 	andeq	r0, r0, r0
    1128:	54000000 	strpl	r0, [r0], #-0
    112c:	58000002 	stmdapl	r0, {r1}
    1130:	01000002 	tsteq	r0, r2
    1134:	02585200 	subseq	r5, r8, #0, 4
    1138:	035c0000 	cmpeq	ip, #0
    113c:	00020000 	andeq	r0, r2, r0
    1140:	00004491 	muleq	r0, r1, r4
    1144:	00000000 	andeq	r0, r0, r0
    1148:	02600000 	rsbeq	r0, r0, #0
    114c:	02640000 	rsbeq	r0, r4, #0
    1150:	00010000 	andeq	r0, r1, r0
    1154:	00026452 	andeq	r6, r2, r2, asr r4
    1158:	00035c00 	andeq	r5, r3, r0, lsl #24
    115c:	91000200 	tstls	r0, r0, lsl #4
    1160:	00000048 	andeq	r0, r0, r8, asr #32
    1164:	00000000 	andeq	r0, r0, r0
    1168:	00026400 	andeq	r6, r2, r0, lsl #8
    116c:	00035c00 	andeq	r5, r3, r0, lsl #24
    1170:	91000200 	tstls	r0, r0, lsl #4
    1174:	0000004c 	andeq	r0, r0, ip, asr #32
    1178:	00000000 	andeq	r0, r0, r0
    117c:	00035c00 	andeq	r5, r3, r0, lsl #24
    1180:	00036000 	andeq	r6, r3, r0
    1184:	7d000200 	sfmvc	f0, 4, [r0, #-0]
    1188:	00036000 	andeq	r6, r3, r0
    118c:	00041400 	andeq	r1, r4, r0, lsl #8
    1190:	7d000200 	sfmvc	f0, 4, [r0, #-0]
    1194:	00000018 	andeq	r0, r0, r8, lsl r0
    1198:	00000000 	andeq	r0, r0, r0
    119c:	00035c00 	andeq	r5, r3, r0, lsl #24
    11a0:	00036400 	andeq	r6, r3, r0, lsl #8
    11a4:	35000200 	strcc	r0, [r0, #-512]	; 0xfffffe00
    11a8:	0003649f 	muleq	r3, pc, r4	; <UNPREDICTABLE>
    11ac:	0003e000 	andeq	lr, r3, r0
    11b0:	55000100 	strpl	r0, [r0, #-256]	; 0xffffff00
    11b4:	000003e0 	andeq	r0, r0, r0, ror #7
    11b8:	000003e4 	andeq	r0, r0, r4, ror #7
    11bc:	7f750003 	svcvc	0x00750003
    11c0:	0003e49f 	muleq	r3, pc, r4	; <UNPREDICTABLE>
    11c4:	0003f400 	andeq	pc, r3, r0, lsl #8
    11c8:	55000100 	strpl	r0, [r0, #-256]	; 0xffffff00
    11cc:	000003f4 	strdeq	r0, [r0], -r4
    11d0:	00000408 	andeq	r0, r0, r8, lsl #8
    11d4:	9f350002 	svcls	0x00350002
    11d8:	00000408 	andeq	r0, r0, r8, lsl #8
    11dc:	0000040c 	andeq	r0, r0, ip, lsl #8
    11e0:	00550001 	subseq	r0, r5, r1
    11e4:	00000000 	andeq	r0, r0, r0
    11e8:	84000000 	strhi	r0, [r0], #-0
    11ec:	d0000003 	andle	r0, r0, r3
    11f0:	01000003 	tsteq	r0, r3
    11f4:	00005600 	andeq	r5, r0, r0, lsl #12
    11f8:	00000000 	andeq	r0, r0, r0
    11fc:	03640000 	cmneq	r4, #0
    1200:	03880000 	orreq	r0, r8, #0
    1204:	00020000 	andeq	r0, r2, r0
    1208:	03886791 	orreq	r6, r8, #38010880	; 0x2440000
    120c:	03a40000 			; <UNDEFINED> instruction: 0x03a40000
    1210:	00020000 	andeq	r0, r2, r0
    1214:	03a47f74 			; <UNDEFINED> instruction: 0x03a47f74
    1218:	04140000 	ldreq	r0, [r4], #-0
    121c:	00020000 	andeq	r0, r2, r0
    1220:	00006791 	muleq	r0, r1, r7
	...
    122c:	00080000 	andeq	r0, r8, r0
    1230:	00020000 	andeq	r0, r2, r0
    1234:	0008007d 	andeq	r0, r8, sp, ror r0
    1238:	00980000 	addseq	r0, r8, r0
    123c:	00020000 	andeq	r0, r2, r0
    1240:	0000147d 	andeq	r1, r0, sp, ror r4
	...
    124c:	004c0000 	subeq	r0, ip, r0
    1250:	00060000 	andeq	r0, r6, r0
    1254:	51049350 	tstpl	r4, r0, asr r3
    1258:	004c0493 	umaaleq	r0, ip, r3, r4
    125c:	00900000 	addseq	r0, r0, r0
    1260:	00060000 	andeq	r0, r6, r0
    1264:	51049350 	tstpl	r4, r0, asr r3
    1268:	00000493 	muleq	r0, r3, r4
	...
    1274:	00040000 	andeq	r0, r4, r0
    1278:	00010000 	andeq	r0, r1, r0
    127c:	00000052 	andeq	r0, r0, r2, asr r0
	...
    1288:	00000c00 	andeq	r0, r0, r0, lsl #24
    128c:	52000100 	andpl	r0, r0, #0, 2
    1290:	00000018 	andeq	r0, r0, r8, lsl r0
    1294:	0000001c 	andeq	r0, r0, ip, lsl r0
    1298:	93520006 	cmpls	r2, #6
    129c:	04935304 	ldreq	r5, [r3], #772	; 0x304
    12a0:	00000024 	andeq	r0, r0, r4, lsr #32
    12a4:	00000070 	andeq	r0, r0, r0, ror r0
    12a8:	93520006 	cmpls	r2, #6
    12ac:	04935304 	ldreq	r5, [r3], #772	; 0x304
    12b0:	00000080 	andeq	r0, r0, r0, lsl #1
    12b4:	00000084 	andeq	r0, r0, r4, lsl #1
    12b8:	93520006 	cmpls	r2, #6
    12bc:	04935304 	ldreq	r5, [r3], #772	; 0x304
	...
    12cc:	00000038 	andeq	r0, r0, r8, lsr r0
    12d0:	089e000a 	ldmeq	lr, {r1, r3}
	...
    12dc:	00000038 	andeq	r0, r0, r8, lsr r0
    12e0:	00000058 	andeq	r0, r0, r8, asr r0
    12e4:	93540006 	cmpls	r4, #6
    12e8:	04935504 	ldreq	r5, [r3], #1284	; 0x504
    12ec:	00000064 	andeq	r0, r0, r4, rrx
    12f0:	0000006c 	andeq	r0, r0, ip, rrx
    12f4:	93540006 	cmpls	r4, #6
    12f8:	04935504 	ldreq	r5, [r3], #1284	; 0x504
    12fc:	00000070 	andeq	r0, r0, r0, ror r0
    1300:	00000084 	andeq	r0, r0, r4, lsl #1
    1304:	93540006 	cmpls	r4, #6
    1308:	04935504 	ldreq	r5, [r3], #1284	; 0x504
    130c:	00000084 	andeq	r0, r0, r4, lsl #1
    1310:	0000008c 	andeq	r0, r0, ip, lsl #1
    1314:	089e000a 	ldmeq	lr, {r1, r3}
	...
    132c:	00000018 	andeq	r0, r0, r8, lsl r0
    1330:	9f300002 	svcls	0x00300002
    1334:	00000018 	andeq	r0, r0, r8, lsl r0
    1338:	00000020 	andeq	r0, r0, r0, lsr #32
    133c:	205c0001 	subscs	r0, ip, r1
    1340:	24000000 	strcs	r0, [r0], #-0
    1344:	03000000 	movweq	r0, #0
    1348:	9f7f7c00 	svcls	0x007f7c00
    134c:	00000024 	andeq	r0, r0, r4, lsr #32
    1350:	00000070 	andeq	r0, r0, r0, ror r0
    1354:	705c0001 	subsvc	r0, ip, r1
    1358:	74000000 	strvc	r0, [r0], #-0
    135c:	03000000 	movweq	r0, #0
    1360:	9f7f7c00 	svcls	0x007f7c00
    1364:	00000074 	andeq	r0, r0, r4, ror r0
    1368:	00000084 	andeq	r0, r0, r4, lsl #1
    136c:	845c0001 	ldrbhi	r0, [ip], #-1
    1370:	8c000000 	stchi	0, cr0, [r0], {-0}
    1374:	02000000 	andeq	r0, r0, #0
    1378:	009f3000 	addseq	r3, pc, r0
    137c:	00000000 	andeq	r0, r0, r0
    1380:	98000000 	stmdals	r0, {}	; <UNPREDICTABLE>
    1384:	9c000000 	stcls	0, cr0, [r0], {-0}
    1388:	02000000 	andeq	r0, r0, #0
    138c:	9c007d00 	stcls	13, cr7, [r0], {-0}
    1390:	c8000000 	stmdagt	r0, {}	; <UNPREDICTABLE>
    1394:	02000000 	andeq	r0, r0, #0
    1398:	00087d00 	andeq	r7, r8, r0, lsl #26
    139c:	00000000 	andeq	r0, r0, r0
    13a0:	a8000000 	stmdage	r0, {}	; <UNPREDICTABLE>
    13a4:	ac000000 	stcge	0, cr0, [r0], {-0}
    13a8:	01000000 	tsteq	r0, r0
    13ac:	00ac5300 	adceq	r5, ip, r0, lsl #6
    13b0:	00b30000 	adcseq	r0, r3, r0
    13b4:	00010000 	andeq	r0, r1, r0
    13b8:	0000b853 	andeq	fp, r0, r3, asr r8
    13bc:	0000bc00 	andeq	fp, r0, r0, lsl #24
    13c0:	53000100 	movwpl	r0, #256	; 0x100
    13c4:	000000bc 	strheq	r0, [r0], -ip
    13c8:	000000c8 	andeq	r0, r0, r8, asr #1
    13cc:	00530001 	subseq	r0, r3, r1
    13d0:	00000000 	andeq	r0, r0, r0
    13d4:	d0000000 	andle	r0, r0, r0
    13d8:	d4000000 	strle	r0, [r0], #-0
    13dc:	07000000 	streq	r0, [r0, -r0]
    13e0:	0a007200 	beq	1dbe8 <__bss_end+0x1a380>
    13e4:	9f216000 	svcls	0x00216000
    13e8:	000000d8 	ldrdeq	r0, [r0], -r8
    13ec:	000000dc 	ldrdeq	r0, [r0], -ip
    13f0:	dc520001 	mrrcle	0, 0, r0, r2, cr1
    13f4:	e8000000 	stmda	r0, {}	; <UNPREDICTABLE>
    13f8:	01000000 	tsteq	r0, r0
    13fc:	00005200 	andeq	r5, r0, r0, lsl #4
    1400:	00000000 	andeq	r0, r0, r0
    1404:	00e80000 	rsceq	r0, r8, r0
    1408:	00f00000 	rscseq	r0, r0, r0
    140c:	00020000 	andeq	r0, r2, r0
    1410:	00f09f30 	rscseq	r9, r0, r0, lsr pc
    1414:	00f40000 	rscseq	r0, r4, r0
    1418:	00010000 	andeq	r0, r1, r0
    141c:	0000f452 	andeq	pc, r0, r2, asr r4	; <UNPREDICTABLE>
    1420:	00010000 	andeq	r0, r1, r0
    1424:	52000100 	andpl	r0, r0, #0, 2
	...
    1430:	00000100 	andeq	r0, r0, r0, lsl #2
    1434:	00000108 	andeq	r0, r0, r8, lsl #2
    1438:	9f300002 	svcls	0x00300002
    143c:	00000108 	andeq	r0, r0, r8, lsl #2
    1440:	0000010c 	andeq	r0, r0, ip, lsl #2
    1444:	0c520001 	mrrceq	0, 0, r0, r2, cr1
    1448:	18000001 	stmdane	r0, {r0}
    144c:	01000001 	tsteq	r0, r1
    1450:	00005200 	andeq	r5, r0, r0, lsl #4
    1454:	00000000 	andeq	r0, r0, r0
    1458:	01180000 	tsteq	r8, r0
    145c:	011c0000 	tsteq	ip, r0
    1460:	00020000 	andeq	r0, r2, r0
    1464:	011c007d 	tsteq	ip, sp, ror r0
    1468:	016c0000 	cmneq	ip, r0
    146c:	00020000 	andeq	r0, r2, r0
    1470:	0000087d 	andeq	r0, r0, sp, ror r8
    1474:	00000000 	andeq	r0, r0, r0
    1478:	016c0000 	cmneq	ip, r0
    147c:	01740000 	cmneq	r4, r0
    1480:	00020000 	andeq	r0, r2, r0
    1484:	0174007d 	cmneq	r4, sp, ror r0
    1488:	022c0000 	eoreq	r0, ip, #0
    148c:	00020000 	andeq	r0, r2, r0
    1490:	0000087d 	andeq	r0, r0, sp, ror r8
    1494:	00000000 	andeq	r0, r0, r0
    1498:	016c0000 	cmneq	ip, r0
    149c:	018c0000 	orreq	r0, ip, r0
    14a0:	00020000 	andeq	r0, r2, r0
    14a4:	01989f30 	orrseq	r9, r8, r0, lsr pc
    14a8:	01bb0000 			; <UNDEFINED> instruction: 0x01bb0000
    14ac:	00010000 	andeq	r0, r1, r0
    14b0:	0001bc53 	andeq	fp, r1, r3, asr ip
    14b4:	0001c000 	andeq	ip, r1, r0
    14b8:	31000200 	tstcc	r0, r0, lsl #4
    14bc:	0001cc9f 	muleq	r1, pc, ip	; <UNPREDICTABLE>
    14c0:	0001eb00 	andeq	lr, r1, r0, lsl #22
    14c4:	53000100 	movwpl	r0, #256	; 0x100
    14c8:	000001ec 	andeq	r0, r0, ip, ror #3
    14cc:	000001f0 	strdeq	r0, [r0], -r0	; <UNPREDICTABLE>
    14d0:	9f310002 	svcls	0x00310002
    14d4:	000001fc 	strdeq	r0, [r0], -ip
    14d8:	00000223 	andeq	r0, r0, r3, lsr #4
    14dc:	00530001 	subseq	r0, r3, r1
    14e0:	00000000 	andeq	r0, r0, r0
    14e4:	78000000 	stmdavc	r0, {}	; <UNPREDICTABLE>
    14e8:	80000001 	andhi	r0, r0, r1
    14ec:	07000001 	streq	r0, [r0, -r1]
    14f0:	36007400 	strcc	r7, [r0], -r0, lsl #8
    14f4:	9f1a3725 	svcls	0x001a3725
	...
    1500:	00000234 	andeq	r0, r0, r4, lsr r2
    1504:	00000238 	andeq	r0, r0, r8, lsr r2
    1508:	38520001 	ldmdacc	r2, {r0}^
    150c:	3c000002 	stccc	0, cr0, [r0], {2}
    1510:	01000002 	tsteq	r0, r2
    1514:	023c5200 	eorseq	r5, ip, #0, 4
    1518:	02440000 	subeq	r0, r4, #0
    151c:	00010000 	andeq	r0, r1, r0
    1520:	00024452 	andeq	r4, r2, r2, asr r4
    1524:	00024800 	andeq	r4, r2, r0, lsl #16
    1528:	52000100 	andpl	r0, r0, #0, 2
    152c:	00000248 	andeq	r0, r0, r8, asr #4
    1530:	0000024c 	andeq	r0, r0, ip, asr #4
    1534:	4c520001 	mrrcmi	0, 0, r0, r2, cr1
    1538:	54000002 	strpl	r0, [r0], #-2
    153c:	01000002 	tsteq	r0, r2
    1540:	02545200 	subseq	r5, r4, #0, 4
    1544:	02580000 	subseq	r0, r8, #0
    1548:	00010000 	andeq	r0, r1, r0
    154c:	00025852 	andeq	r5, r2, r2, asr r8
    1550:	00025c00 	andeq	r5, r2, r0, lsl #24
    1554:	52000100 	andpl	r0, r0, #0, 2
    1558:	0000025c 	andeq	r0, r0, ip, asr r2
    155c:	00000264 	andeq	r0, r0, r4, ror #4
    1560:	64520001 	ldrbvs	r0, [r2], #-1
    1564:	68000002 	stmdavs	r0, {r1}
    1568:	01000002 	tsteq	r0, r2
    156c:	02685200 	rsbeq	r5, r8, #0, 4
    1570:	026c0000 	rsbeq	r0, ip, #0
    1574:	00010000 	andeq	r0, r1, r0
    1578:	00026c52 	andeq	r6, r2, r2, asr ip
    157c:	00027400 	andeq	r7, r2, r0, lsl #8
    1580:	52000100 	andpl	r0, r0, #0, 2
    1584:	00000274 	andeq	r0, r0, r4, ror r2
    1588:	00000278 	andeq	r0, r0, r8, ror r2
    158c:	78520001 	ldmdavc	r2, {r0}^
    1590:	7c000002 	stcvc	0, cr0, [r0], {2}
    1594:	01000002 	tsteq	r0, r2
    1598:	027c5200 	rsbseq	r5, ip, #0, 4
    159c:	02880000 	addeq	r0, r8, #0
    15a0:	00010000 	andeq	r0, r1, r0
    15a4:	00000052 	andeq	r0, r0, r2, asr r0
    15a8:	00000000 	andeq	r0, r0, r0
    15ac:	00028800 	andeq	r8, r2, r0, lsl #16
    15b0:	00029000 	andeq	r9, r2, r0
    15b4:	30000200 	andcc	r0, r0, r0, lsl #4
    15b8:	00029c9f 	muleq	r2, pc, ip	; <UNPREDICTABLE>
    15bc:	0002bc00 	andeq	fp, r2, r0, lsl #24
    15c0:	53000100 	movwpl	r0, #256	; 0x100
	...
    15cc:	000002bc 			; <UNDEFINED> instruction: 0x000002bc
    15d0:	000002c0 	andeq	r0, r0, r0, asr #5
    15d4:	007d0002 	rsbseq	r0, sp, r2
    15d8:	000002c0 	andeq	r0, r0, r0, asr #5
    15dc:	00000348 	andeq	r0, r0, r8, asr #6
    15e0:	107d0002 	rsbsne	r0, sp, r2
	...
    15ec:	000002bc 			; <UNDEFINED> instruction: 0x000002bc
    15f0:	000002cf 	andeq	r0, r0, pc, asr #5
    15f4:	00500001 	subseq	r0, r0, r1
    15f8:	00000000 	andeq	r0, r0, r0
    15fc:	d4000000 	strle	r0, [r0], #-0
    1600:	d8000002 	stmdale	r0, {r1}
    1604:	06000002 	streq	r0, [r0], -r2
    1608:	09007500 	stmdbeq	r0, {r8, sl, ip, sp, lr}
    160c:	d89f1afc 	ldmle	pc, {r2, r3, r4, r5, r6, r7, r9, fp, ip}	; <UNPREDICTABLE>
    1610:	dc000002 	stcle	0, cr0, [r0], {2}
    1614:	05000002 	streq	r0, [r0, #-2]
    1618:	31007500 	tstcc	r0, r0, lsl #10
    161c:	02dc9f21 	sbcseq	r9, ip, #33, 30	; 0x84
    1620:	02e00000 	rsceq	r0, r0, #0
    1624:	00010000 	andeq	r0, r1, r0
    1628:	0002e055 	andeq	lr, r2, r5, asr r0
    162c:	0002ec00 	andeq	lr, r2, r0, lsl #24
    1630:	55000100 	strpl	r0, [r0, #-256]	; 0xffffff00
    1634:	000002ec 	andeq	r0, r0, ip, ror #5
    1638:	000002f0 	strdeq	r0, [r0], -r0	; <UNPREDICTABLE>
    163c:	f0530001 			; <UNDEFINED> instruction: 0xf0530001
    1640:	f4000002 	vst4.8	{d0-d3}, [r0], r2
    1644:	01000002 	tsteq	r0, r2
    1648:	02f45300 	rscseq	r5, r4, #0, 6
    164c:	02f80000 	rscseq	r0, r8, #0
    1650:	00010000 	andeq	r0, r1, r0
    1654:	0002f853 	andeq	pc, r2, r3, asr r8	; <UNPREDICTABLE>
    1658:	0002fc00 	andeq	pc, r2, r0, lsl #24
    165c:	53000100 	movwpl	r0, #256	; 0x100
    1660:	000002fc 	strdeq	r0, [r0], -ip
    1664:	00000303 	andeq	r0, r0, r3, lsl #6
    1668:	08530001 	ldmdaeq	r3, {r0}^
    166c:	10000003 	andne	r0, r0, r3
    1670:	01000003 	tsteq	r0, r3
    1674:	03105300 	tsteq	r0, #0, 6
    1678:	03140000 	tsteq	r4, #0
    167c:	00010000 	andeq	r0, r1, r0
    1680:	00031453 	andeq	r1, r3, r3, asr r4
    1684:	00032000 	andeq	r2, r3, r0
    1688:	9e000600 	cfmadd32ls	mvax0, mvfx0, mvfx0, mvfx0
    168c:	00000104 	andeq	r0, r0, r4, lsl #2
    1690:	00032082 	andeq	r2, r3, r2, lsl #1
    1694:	00032400 	andeq	r2, r3, r0, lsl #8
    1698:	55000100 	strpl	r0, [r0, #-256]	; 0xffffff00
    169c:	00000324 	andeq	r0, r0, r4, lsr #6
    16a0:	00000330 	andeq	r0, r0, r0, lsr r3
    16a4:	30550001 	subscc	r0, r5, r1
    16a8:	48000003 	stmdami	r0, {r0, r1}
    16ac:	01000003 	tsteq	r0, r3
    16b0:	00005500 	andeq	r5, r0, r0, lsl #10
    16b4:	00000000 	andeq	r0, r0, r0
    16b8:	03580000 	cmpeq	r8, #0
    16bc:	035c0000 	cmpeq	ip, #0
    16c0:	00010000 	andeq	r0, r1, r0
    16c4:	00035c52 	andeq	r5, r3, r2, asr ip
    16c8:	00036000 	andeq	r6, r3, r0
    16cc:	52000100 	andpl	r0, r0, #0, 2
    16d0:	00000360 	andeq	r0, r0, r0, ror #6
    16d4:	00000374 	andeq	r0, r0, r4, ror r3
    16d8:	00730002 	rsbseq	r0, r3, r2
    16dc:	00000374 	andeq	r0, r0, r4, ror r3
    16e0:	00000378 	andeq	r0, r0, r8, ror r3
    16e4:	00500001 	subseq	r0, r0, r1
    16e8:	00000000 	andeq	r0, r0, r0
    16ec:	90000000 	andls	r0, r0, r0
    16f0:	94000003 	strls	r0, [r0], #-3
    16f4:	01000003 	tsteq	r0, r3
    16f8:	03945300 	orrseq	r5, r4, #0, 6
    16fc:	03980000 	orrseq	r0, r8, #0
    1700:	00010000 	andeq	r0, r1, r0
    1704:	00039853 	andeq	r9, r3, r3, asr r8
    1708:	0003a400 	andeq	sl, r3, r0, lsl #8
    170c:	53000100 	movwpl	r0, #256	; 0x100
	...
    1718:	000003a4 	andeq	r0, r0, r4, lsr #7
    171c:	000003b4 			; <UNDEFINED> instruction: 0x000003b4
    1720:	83080003 	movwhi	r0, #32771	; 0x8003
    1724:	0003b49f 	muleq	r3, pc, r4	; <UNPREDICTABLE>
    1728:	0003bc00 	andeq	fp, r3, r0, lsl #24
    172c:	73000900 	movwvc	r0, #2304	; 0x900
    1730:	24387eb8 	ldrtcs	r7, [r8], #-3768	; 0xfffff148
    1734:	9f218308 	svcls	0x00218308
    1738:	000003c8 	andeq	r0, r0, r8, asr #7
    173c:	000003d4 	ldrdeq	r0, [r0], -r4
    1740:	00520001 	subseq	r0, r2, r1
    1744:	00000000 	andeq	r0, r0, r0
    1748:	a4000000 	strge	r0, [r0], #-0
    174c:	b4000003 	strlt	r0, [r0], #-3
    1750:	09000003 	stmdbeq	r0, {r0, r1}
    1754:	0a007000 	beq	1d75c <__bss_end+0x19ef4>
    1758:	3a1e1f33 	bcc	78942c <__bss_end+0x785bc4>
    175c:	03b49f25 			; <UNDEFINED> instruction: 0x03b49f25
    1760:	03bc0000 			; <UNDEFINED> instruction: 0x03bc0000
    1764:	00040000 	andeq	r0, r4, r0
    1768:	9f7eb873 	svcls	0x007eb873
    176c:	000003bc 			; <UNDEFINED> instruction: 0x000003bc
    1770:	000003c0 	andeq	r0, r0, r0, asr #7
    1774:	00520001 	subseq	r0, r2, r1
    1778:	00000000 	andeq	r0, r0, r0
    177c:	dc000000 	stcle	0, cr0, [r0], {-0}
    1780:	34000003 	strcc	r0, [r0], #-3
    1784:	01000004 	tsteq	r0, r4
    1788:	00005300 	andeq	r5, r0, r0, lsl #6
    178c:	00000000 	andeq	r0, r0, r0
    1790:	041c0000 	ldreq	r0, [ip], #-0
    1794:	042c0000 	strteq	r0, [ip], #-0
    1798:	00010000 	andeq	r0, r1, r0
    179c:	00042c50 	andeq	r2, r4, r0, asr ip
    17a0:	00043800 	andeq	r3, r4, r0, lsl #16
    17a4:	50000100 	andpl	r0, r0, r0, lsl #2
    17a8:	00000438 	andeq	r0, r0, r8, lsr r4
    17ac:	00000440 	andeq	r0, r0, r0, asr #8
    17b0:	40500001 	subsmi	r0, r0, r1
    17b4:	48000004 	stmdami	r0, {r2}
    17b8:	01000004 	tsteq	r0, r4
    17bc:	00005000 	andeq	r5, r0, r0
    17c0:	00000000 	andeq	r0, r0, r0
    17c4:	03e00000 	mvneq	r0, #0
    17c8:	03e80000 	mvneq	r0, #0
    17cc:	00010000 	andeq	r0, r1, r0
    17d0:	00000050 	andeq	r0, r0, r0, asr r0
    17d4:	00000000 	andeq	r0, r0, r0
    17d8:	00044800 	andeq	r4, r4, r0, lsl #16
    17dc:	00044c00 	andeq	r4, r4, r0, lsl #24
    17e0:	7d000200 	sfmvc	f0, 4, [r0, #-0]
    17e4:	00044c00 	andeq	r4, r4, r0, lsl #24
    17e8:	00061400 	andeq	r1, r6, r0, lsl #8
    17ec:	7d000200 	sfmvc	f0, 4, [r0, #-0]
    17f0:	00000010 	andeq	r0, r0, r0, lsl r0
    17f4:	00000000 	andeq	r0, r0, r0
    17f8:	00044800 	andeq	r4, r4, r0, lsl #16
    17fc:	00045400 	andeq	r5, r4, r0, lsl #8
    1800:	50000100 	andpl	r0, r0, r0, lsl #2
    1804:	00000454 	andeq	r0, r0, r4, asr r4
    1808:	00000614 	andeq	r0, r0, r4, lsl r6
    180c:	00540001 	subseq	r0, r4, r1
    1810:	00000000 	andeq	r0, r0, r0
    1814:	84000000 	strhi	r0, [r0], #-0
    1818:	a0000004 	andge	r0, r0, r4
    181c:	06000004 	streq	r0, [r0], -r4
    1820:	06087400 	streq	r7, [r8], -r0, lsl #8
    1824:	a09f2933 	addsge	r2, pc, r3, lsr r9	; <UNPREDICTABLE>
    1828:	b4000004 	strlt	r0, [r0], #-4
    182c:	01000004 	tsteq	r0, r4
    1830:	05105300 	ldreq	r5, [r0, #-768]	; 0xfffffd00
    1834:	05180000 	ldreq	r0, [r8, #-0]
    1838:	00010000 	andeq	r0, r1, r0
    183c:	00051853 	andeq	r1, r5, r3, asr r8
    1840:	00052000 	andeq	r2, r5, r0
    1844:	76000200 	strvc	r0, [r0], -r0, lsl #4
    1848:	00052004 	andeq	r2, r5, r4
    184c:	00052800 	andeq	r2, r5, r0, lsl #16
    1850:	52000100 	andpl	r0, r0, #0, 2
    1854:	00000528 	andeq	r0, r0, r8, lsr #10
    1858:	0000052c 	andeq	r0, r0, ip, lsr #10
    185c:	2c550001 	mrrccs	0, 0, r0, r5, cr1
    1860:	7c000005 	stcvc	0, cr0, [r0], {5}
    1864:	01000005 	tsteq	r0, r5
    1868:	05845500 	streq	r5, [r4, #1280]	; 0x500
    186c:	05880000 	streq	r0, [r8]
    1870:	00090000 	andeq	r0, r9, r0
    1874:	24340075 	ldrtcs	r0, [r4], #-117	; 0xffffff8b
    1878:	2110000a 	tstcs	r0, sl
    187c:	00058c9f 	muleq	r5, pc, ip	; <UNPREDICTABLE>
    1880:	00059400 	andeq	r9, r5, r0, lsl #8
    1884:	55000100 	strpl	r0, [r0, #-256]	; 0xffffff00
    1888:	00000594 	muleq	r0, r4, r5
    188c:	000005a4 	andeq	r0, r0, r4, lsr #11
    1890:	1c740008 	ldclne	0, cr0, [r4], #-32	; 0xffffffe0
    1894:	32243406 	eorcc	r3, r4, #100663296	; 0x6000000
    1898:	05a49f21 	streq	r9, [r4, #3873]!	; 0xf21
    189c:	05c80000 	strbeq	r0, [r8]
    18a0:	00010000 	andeq	r0, r1, r0
    18a4:	0005c855 	andeq	ip, r5, r5, asr r8
    18a8:	0005cc00 	andeq	ip, r5, r0, lsl #24
    18ac:	52000100 	andpl	r0, r0, #0, 2
    18b0:	000005cc 	andeq	r0, r0, ip, asr #11
    18b4:	000005d0 	ldrdeq	r0, [r0], -r0	; <UNPREDICTABLE>
    18b8:	d0520001 	subsle	r0, r2, r1
    18bc:	d8000005 	stmdale	r0, {r0, r2}
    18c0:	01000005 	tsteq	r0, r5
    18c4:	05d85200 	ldrbeq	r5, [r8, #512]	; 0x200
    18c8:	05dc0000 	ldrbeq	r0, [ip]
    18cc:	00010000 	andeq	r0, r1, r0
    18d0:	0005dc52 	andeq	sp, r5, r2, asr ip
    18d4:	0005e000 	andeq	lr, r5, r0
    18d8:	52000100 	andpl	r0, r0, #0, 2
    18dc:	000005e0 	andeq	r0, r0, r0, ror #11
    18e0:	000005ef 	andeq	r0, r0, pc, ror #11
    18e4:	00760002 	rsbseq	r0, r6, r2
	...
    18f0:	000005f4 	strdeq	r0, [r0], -r4
    18f4:	000005ff 	strdeq	r0, [r0], -pc	; <UNPREDICTABLE>
    18f8:	08500001 	ldmdaeq	r0, {r0}^
    18fc:	0c000006 	stceq	0, cr0, [r0], {6}
    1900:	01000006 	tsteq	r0, r6
    1904:	00005000 	andeq	r5, r0, r0
    1908:	00000000 	andeq	r0, r0, r0
    190c:	061c0000 	ldreq	r0, [ip], -r0
    1910:	06270000 	strteq	r0, [r7], -r0
    1914:	00010000 	andeq	r0, r1, r0
    1918:	00000050 	andeq	r0, r0, r0, asr r0
    191c:	00000000 	andeq	r0, r0, r0
    1920:	00062c00 	andeq	r2, r6, r0, lsl #24
    1924:	00063000 	andeq	r3, r6, r0
    1928:	7d000200 	sfmvc	f0, 4, [r0, #-0]
    192c:	00063000 	andeq	r3, r6, r0
    1930:	00063400 	andeq	r3, r6, r0, lsl #8
    1934:	7d000200 	sfmvc	f0, 4, [r0, #-0]
    1938:	0006340c 	andeq	r3, r6, ip, lsl #8
    193c:	0006a000 	andeq	sl, r6, r0
    1940:	7d000300 	stcvc	3, cr0, [r0, #-0]
    1944:	000000e0 	andeq	r0, r0, r0, ror #1
    1948:	00000000 	andeq	r0, r0, r0
    194c:	06580000 	ldrbeq	r0, [r8], -r0
    1950:	066c0000 	strbteq	r0, [ip], -r0
    1954:	00020000 	andeq	r0, r2, r0
    1958:	066c9f30 	uqasxeq	r9, ip, r0
    195c:	06740000 	ldrbteq	r0, [r4], -r0
    1960:	00010000 	andeq	r0, r1, r0
    1964:	00067455 	andeq	r7, r6, r5, asr r4
    1968:	00067c00 	andeq	r7, r6, r0, lsl #24
    196c:	75000300 	strvc	r0, [r0, #-768]	; 0xfffffd00
    1970:	067c9f7f 	uhsub16eq	r9, ip, pc	; <UNPREDICTABLE>
    1974:	06a00000 	strteq	r0, [r0], r0
    1978:	00010000 	andeq	r0, r1, r0
    197c:	00000055 	andeq	r0, r0, r5, asr r0
    1980:	00000000 	andeq	r0, r0, r0
    1984:	00065800 	andeq	r5, r6, r0, lsl #16
    1988:	00066c00 	andeq	r6, r6, r0, lsl #24
    198c:	30000200 	andcc	r0, r0, r0, lsl #4
    1990:	00066c9f 	muleq	r6, pc, ip	; <UNPREDICTABLE>
    1994:	00067c00 	andeq	r7, r6, r0, lsl #24
    1998:	54000100 	strpl	r0, [r0], #-256	; 0xffffff00
    199c:	0000067c 	andeq	r0, r0, ip, ror r6
    19a0:	000006a0 	andeq	r0, r0, r0, lsr #13
    19a4:	00540001 	subseq	r0, r4, r1
	...
    19b0:	28000000 	stmdacs	r0, {}	; <UNPREDICTABLE>
    19b4:	01000000 	tsteq	r0, r0
    19b8:	00285000 	eoreq	r5, r8, r0
    19bc:	00340000 	eorseq	r0, r4, r0
    19c0:	00010000 	andeq	r0, r1, r0
    19c4:	00003453 	andeq	r3, r0, r3, asr r4
    19c8:	00004800 	andeq	r4, r0, r0, lsl #16
    19cc:	53000100 	movwpl	r0, #256	; 0x100
    19d0:	00000048 	andeq	r0, r0, r8, asr #32
    19d4:	0000004c 	andeq	r0, r0, ip, asr #32
    19d8:	4c500001 	mrrcmi	0, 0, r0, r0, cr1	; <UNPREDICTABLE>
    19dc:	50000000 	andpl	r0, r0, r0
    19e0:	01000000 	tsteq	r0, r0
    19e4:	00005300 	andeq	r5, r0, r0, lsl #6
	...
    19f0:	000c0000 	andeq	r0, ip, r0
    19f4:	00010000 	andeq	r0, r1, r0
    19f8:	00004851 	andeq	r4, r0, r1, asr r8
    19fc:	00005000 	andeq	r5, r0, r0
    1a00:	52000100 	andpl	r0, r0, #0, 2
	...
    1a10:	0000000c 	andeq	r0, r0, ip
    1a14:	0c510001 	mrrceq	0, 0, r0, r1, cr1
    1a18:	18000000 	stmdane	r0, {}	; <UNPREDICTABLE>
    1a1c:	01000000 	tsteq	r0, r0
    1a20:	00185200 	andseq	r5, r8, r0, lsl #4
    1a24:	00380000 	eorseq	r0, r8, r0
    1a28:	00010000 	andeq	r0, r1, r0
    1a2c:	00003852 	andeq	r3, r0, r2, asr r8
    1a30:	00004400 	andeq	r4, r0, r0, lsl #8
    1a34:	72000500 	andvc	r0, r0, #0, 10
    1a38:	9f253100 	svcls	0x00253100
    1a3c:	00000044 	andeq	r0, r0, r4, asr #32
    1a40:	00000050 	andeq	r0, r0, r0, asr r0
    1a44:	00520001 	subseq	r0, r2, r1
	...
    1a50:	28000000 	stmdacs	r0, {}	; <UNPREDICTABLE>
    1a54:	02000000 	andeq	r0, r0, #0
    1a58:	289f3000 	ldmcs	pc, {ip, sp}	; <UNPREDICTABLE>
    1a5c:	30000000 	andcc	r0, r0, r0
    1a60:	01000000 	tsteq	r0, r0
    1a64:	00385000 	eorseq	r5, r8, r0
    1a68:	00480000 	subeq	r0, r8, r0
    1a6c:	00010000 	andeq	r0, r1, r0
    1a70:	00004850 	andeq	r4, r0, r0, asr r8
    1a74:	00005000 	andeq	r5, r0, r0
    1a78:	30000200 	andcc	r0, r0, r0, lsl #4
    1a7c:	0000009f 	muleq	r0, pc, r0	; <UNPREDICTABLE>
	...
    1a88:	00001400 	andeq	r1, r0, r0, lsl #8
    1a8c:	30000200 	andcc	r0, r0, r0, lsl #4
    1a90:	0000149f 	muleq	r0, pc, r4	; <UNPREDICTABLE>
    1a94:	00001c00 	andeq	r1, r0, r0, lsl #24
    1a98:	51000100 	tstpl	r0, r0, lsl #2
    1a9c:	0000001c 	andeq	r0, r0, ip, lsl r0
    1aa0:	00000038 	andeq	r0, r0, r8, lsr r0
    1aa4:	38510001 	ldmdacc	r1, {r0}^
    1aa8:	3c000000 	stccc	0, cr0, [r0], {-0}
    1aac:	03000000 	movweq	r0, #0
    1ab0:	9f7f7100 	svcls	0x007f7100
    1ab4:	0000003c 	andeq	r0, r0, ip, lsr r0
    1ab8:	00000048 	andeq	r0, r0, r8, asr #32
    1abc:	48510001 	ldmdami	r1, {r0}^
    1ac0:	50000000 	andpl	r0, r0, r0
    1ac4:	02000000 	andeq	r0, r0, #0
    1ac8:	009f3000 	addseq	r3, pc, r0
    1acc:	00000000 	andeq	r0, r0, r0
    1ad0:	50000000 	andpl	r0, r0, r0
    1ad4:	54000000 	strpl	r0, [r0], #-0
    1ad8:	02000000 	andeq	r0, r0, #0
    1adc:	54007d00 	strpl	r7, [r0], #-3328	; 0xfffff300
    1ae0:	70000000 	andvc	r0, r0, r0
    1ae4:	02000000 	andeq	r0, r0, #0
    1ae8:	00087d00 	andeq	r7, r8, r0, lsl #26
    1aec:	00000000 	andeq	r0, r0, r0
    1af0:	70000000 	andvc	r0, r0, r0
    1af4:	74000000 	strvc	r0, [r0], #-0
    1af8:	02000000 	andeq	r0, r0, #0
    1afc:	74007d00 	strvc	r7, [r0], #-3328	; 0xfffff300
    1b00:	90000000 	andls	r0, r0, r0
    1b04:	02000000 	andeq	r0, r0, #0
    1b08:	00087d00 	andeq	r7, r8, r0, lsl #26
    1b0c:	00000000 	andeq	r0, r0, r0
    1b10:	98000000 	stmdals	r0, {}	; <UNPREDICTABLE>
    1b14:	9c000000 	stcls	0, cr0, [r0], {-0}
    1b18:	06000000 	streq	r0, [r0], -r0
    1b1c:	09007200 	stmdbeq	r0, {r9, ip, sp, lr}
    1b20:	9c9f1afe 	vldmials	pc, {s2-s255}
    1b24:	a8000000 	stmdage	r0, {}	; <UNPREDICTABLE>
    1b28:	01000000 	tsteq	r0, r0
    1b2c:	00005200 	andeq	r5, r0, r0, lsl #4
    1b30:	00000000 	andeq	r0, r0, r0
    1b34:	00a80000 	adceq	r0, r8, r0
    1b38:	00ac0000 	adceq	r0, ip, r0
    1b3c:	00020000 	andeq	r0, r2, r0
    1b40:	00ac007d 	adceq	r0, ip, sp, ror r0
    1b44:	00b80000 	adcseq	r0, r8, r0
    1b48:	00020000 	andeq	r0, r2, r0
    1b4c:	0000087d 	andeq	r0, r0, sp, ror r8
    1b50:	00000000 	andeq	r0, r0, r0
    1b54:	00c80000 	sbceq	r0, r8, r0
    1b58:	00cc0000 	sbceq	r0, ip, r0
    1b5c:	00020000 	andeq	r0, r2, r0
    1b60:	00cc007d 	sbceq	r0, ip, sp, ror r0
    1b64:	00d80000 	sbcseq	r0, r8, r0
    1b68:	00020000 	andeq	r0, r2, r0
    1b6c:	0000087d 	andeq	r0, r0, sp, ror r8
    1b70:	00000000 	andeq	r0, r0, r0
    1b74:	00d80000 	sbcseq	r0, r8, r0
    1b78:	00dc0000 	sbcseq	r0, ip, r0
    1b7c:	00020000 	andeq	r0, r2, r0
    1b80:	00dc007d 	sbcseq	r0, ip, sp, ror r0
    1b84:	00fc0000 	rscseq	r0, ip, r0
    1b88:	00020000 	andeq	r0, r2, r0
    1b8c:	0000087d 	andeq	r0, r0, sp, ror r8
    1b90:	00000000 	andeq	r0, r0, r0
    1b94:	00d80000 	sbcseq	r0, r8, r0
    1b98:	00e80000 	rsceq	r0, r8, r0
    1b9c:	00010000 	andeq	r0, r1, r0
    1ba0:	0000e850 	andeq	lr, r0, r0, asr r8
    1ba4:	0000fc00 	andeq	pc, r0, r0, lsl #24
    1ba8:	91000200 	tstls	r0, r0, lsl #4
    1bac:	00000074 	andeq	r0, r0, r4, ror r0
    1bb0:	00000000 	andeq	r0, r0, r0
    1bb4:	0000fc00 	andeq	pc, r0, r0, lsl #24
    1bb8:	00010000 	andeq	r0, r1, r0
    1bbc:	7d000200 	sfmvc	f0, 4, [r0, #-0]
    1bc0:	00010000 	andeq	r0, r1, r0
    1bc4:	00012000 	andeq	r2, r1, r0
    1bc8:	7d000200 	sfmvc	f0, 4, [r0, #-0]
    1bcc:	00000008 	andeq	r0, r0, r8
    1bd0:	00000000 	andeq	r0, r0, r0
    1bd4:	0000fc00 	andeq	pc, r0, r0, lsl #24
    1bd8:	00010c00 	andeq	r0, r1, r0, lsl #24
    1bdc:	50000100 	andpl	r0, r0, r0, lsl #2
    1be0:	0000010c 	andeq	r0, r0, ip, lsl #2
    1be4:	00000120 	andeq	r0, r0, r0, lsr #2
    1be8:	74910002 	ldrvc	r0, [r1], #2
	...
    1bf4:	00000144 	andeq	r0, r0, r4, asr #2
    1bf8:	0000014c 	andeq	r0, r0, ip, asr #2
    1bfc:	00500001 	subseq	r0, r0, r1
    1c00:	00000000 	andeq	r0, r0, r0
    1c04:	44000000 	strmi	r0, [r0], #-0
    1c08:	50000001 	andpl	r0, r0, r1
    1c0c:	02000001 	andeq	r0, r0, #1
    1c10:	509f3100 	addspl	r3, pc, r0, lsl #2
    1c14:	58000001 	stmdapl	r0, {r0}
    1c18:	01000001 	tsteq	r0, r1
    1c1c:	01585000 	cmpeq	r8, r0
    1c20:	015c0000 	cmpeq	ip, r0
    1c24:	00050000 	andeq	r0, r5, r0
    1c28:	21400070 	cmpcs	r0, r0, ror r0
    1c2c:	00015c9f 	muleq	r1, pc, ip	; <UNPREDICTABLE>
    1c30:	00016000 	andeq	r6, r1, r0
    1c34:	50000100 	andpl	r0, r0, r0, lsl #2
    1c38:	00000160 	andeq	r0, r0, r0, ror #2
    1c3c:	00000170 	andeq	r0, r0, r0, ror r1
    1c40:	049e0006 	ldreq	r0, [lr], #6
    1c44:	8000000f 	andhi	r0, r0, pc
	...
    1c50:	00000190 	muleq	r0, r0, r1
    1c54:	00000198 	muleq	r0, r8, r1
    1c58:	9f300002 	svcls	0x00300002
    1c5c:	00000198 	muleq	r0, r8, r1
    1c60:	000001a4 	andeq	r0, r0, r4, lsr #3
    1c64:	9f340002 	svcls	0x00340002
	...
    1c70:	000001a4 	andeq	r0, r0, r4, lsr #3
    1c74:	000001a8 	andeq	r0, r0, r8, lsr #3
    1c78:	007d0002 	rsbseq	r0, sp, r2
    1c7c:	000001a8 	andeq	r0, r0, r8, lsr #3
    1c80:	0000028c 	andeq	r0, r0, ip, lsl #5
    1c84:	187d0002 	ldmdane	sp!, {r1}^
	...
    1c90:	000001a4 	andeq	r0, r0, r4, lsr #3
    1c94:	000001c3 	andeq	r0, r0, r3, asr #3
    1c98:	00500001 	subseq	r0, r0, r1
    1c9c:	00000000 	andeq	r0, r0, r0
    1ca0:	a4000000 	strge	r0, [r0], #-0
    1ca4:	4c000001 	stcmi	0, cr0, [r0], {1}
    1ca8:	02000002 	andeq	r0, r0, #2
    1cac:	4c9f3000 	ldcmi	0, cr3, [pc], {0}
    1cb0:	54000002 	strpl	r0, [r0], #-2
    1cb4:	07000002 	streq	r0, [r0, -r2]
    1cb8:	38007200 	stmdacc	r0, {r9, ip, sp, lr}
    1cbc:	9f1a4f25 	svcls	0x001a4f25
	...
    1cc8:	000001a4 	andeq	r0, r0, r4, lsr #3
    1ccc:	00000250 	andeq	r0, r0, r0, asr r2
    1cd0:	9f300002 	svcls	0x00300002
    1cd4:	00000250 	andeq	r0, r0, r0, asr r2
    1cd8:	0000025c 	andeq	r0, r0, ip, asr r2
    1cdc:	00700009 	rsbseq	r0, r0, r9
    1ce0:	1a332534 	bne	ccb1b8 <__bss_end+0xcc7950>
    1ce4:	009f0123 	addseq	r0, pc, r3, lsr #2
    1ce8:	00000000 	andeq	r0, r0, r0
    1cec:	a4000000 	strge	r0, [r0], #-0
    1cf0:	58000001 	stmdapl	r0, {r0}
    1cf4:	02000002 	andeq	r0, r0, #2
    1cf8:	589f3000 	ldmpl	pc, {ip, sp}	; <UNPREDICTABLE>
    1cfc:	64000002 	strvs	r0, [r0], #-2
    1d00:	07000002 	streq	r0, [r0, -r2]
    1d04:	33007100 	movwcc	r7, #256	; 0x100
    1d08:	9f01231a 	svcls	0x0001231a
    1d0c:	0000026c 	andeq	r0, r0, ip, ror #4
    1d10:	00000270 	andeq	r0, r0, r0, ror r2
    1d14:	00510001 	subseq	r0, r1, r1
    1d18:	00000000 	andeq	r0, r0, r0
    1d1c:	a4000000 	strge	r0, [r0], #-0
    1d20:	40000001 	andmi	r0, r0, r1
    1d24:	02000002 	andeq	r0, r0, #2
    1d28:	409f3000 	addsmi	r3, pc, r0
    1d2c:	44000002 	strmi	r0, [r0], #-2
    1d30:	07000002 	streq	r0, [r0, -r2]
    1d34:	40007300 	andmi	r7, r0, r0, lsl #6
    1d38:	9f1a3325 	svcls	0x001a3325
    1d3c:	00000248 	andeq	r0, r0, r8, asr #4
    1d40:	00000277 	andeq	r0, r0, r7, ror r2
    1d44:	00530001 	subseq	r0, r3, r1
    1d48:	00000000 	andeq	r0, r0, r0
    1d4c:	a4000000 	strge	r0, [r0], #-0
    1d50:	cc000001 	stcgt	0, cr0, [r0], {1}
    1d54:	02000001 	andeq	r0, r0, #1
    1d58:	cc9f3000 	ldcgt	0, cr3, [pc], {0}
    1d5c:	cf000001 	svcgt	0x00000001
    1d60:	01000001 	tsteq	r0, r1
    1d64:	01cf5000 	biceq	r5, pc, r0
    1d68:	028c0000 	addeq	r0, ip, #0
    1d6c:	00010000 	andeq	r0, r1, r0
    1d70:	00000056 	andeq	r0, r0, r6, asr r0
    1d74:	00000000 	andeq	r0, r0, r0
    1d78:	0001a400 	andeq	sl, r1, r0, lsl #8
    1d7c:	0001c000 	andeq	ip, r1, r0
    1d80:	30000200 	andcc	r0, r0, r0, lsl #4
    1d84:	0001c09f 	muleq	r1, pc, r0	; <UNPREDICTABLE>
    1d88:	00028c00 	andeq	r8, r2, r0, lsl #24
    1d8c:	55000100 	strpl	r0, [r0, #-256]	; 0xffffff00
	...
    1d98:	000001b0 			; <UNDEFINED> instruction: 0x000001b0
    1d9c:	000001e8 	andeq	r0, r0, r8, ror #3
    1da0:	64910002 	ldrvs	r0, [r1], #2
    1da4:	000001ec 	andeq	r0, r0, ip, ror #3
    1da8:	000001f0 	strdeq	r0, [r0], -r0	; <UNPREDICTABLE>
    1dac:	f0530001 			; <UNDEFINED> instruction: 0xf0530001
    1db0:	f4000001 	vst4.8	{d0-d3}, [r0], r1
    1db4:	02000001 	andeq	r0, r0, #1
    1db8:	f8649100 			; <UNDEFINED> instruction: 0xf8649100
    1dbc:	fc000001 	stc2	0, cr0, [r0], {1}
    1dc0:	01000001 	tsteq	r0, r1
    1dc4:	01fc5300 	mvnseq	r5, r0, lsl #6
    1dc8:	028c0000 	addeq	r0, ip, #0
    1dcc:	00020000 	andeq	r0, r2, r0
    1dd0:	00006491 	muleq	r0, r1, r4
    1dd4:	00000000 	andeq	r0, r0, r0
    1dd8:	028c0000 	addeq	r0, ip, #0
    1ddc:	02900000 	addseq	r0, r0, #0
    1de0:	00020000 	andeq	r0, r2, r0
    1de4:	0290007d 	addseq	r0, r0, #125	; 0x7d
    1de8:	02e00000 	rsceq	r0, r0, #0
    1dec:	00020000 	andeq	r0, r2, r0
    1df0:	0000107d 	andeq	r1, r0, sp, ror r0
    1df4:	00000000 	andeq	r0, r0, r0
    1df8:	028c0000 	addeq	r0, ip, #0
    1dfc:	029c0000 	addseq	r0, ip, #0
    1e00:	00010000 	andeq	r0, r1, r0
    1e04:	00029c50 	andeq	r9, r2, r0, asr ip
    1e08:	0002c400 	andeq	ip, r2, r0, lsl #8
    1e0c:	55000100 	strpl	r0, [r0, #-256]	; 0xffffff00
	...
    1e18:	0000028c 	andeq	r0, r0, ip, lsl #5
    1e1c:	000002b0 			; <UNDEFINED> instruction: 0x000002b0
    1e20:	9f300002 	svcls	0x00300002
    1e24:	000002b0 			; <UNDEFINED> instruction: 0x000002b0
    1e28:	000002b3 			; <UNDEFINED> instruction: 0x000002b3
    1e2c:	01700006 	cmneq	r0, r6
    1e30:	9f1e0075 	svcls	0x001e0075
    1e34:	000002b3 			; <UNDEFINED> instruction: 0x000002b3
    1e38:	000002bc 			; <UNDEFINED> instruction: 0x000002bc
    1e3c:	01760006 	cmneq	r6, r6
    1e40:	9f1e0075 	svcls	0x001e0075
    1e44:	000002bc 			; <UNDEFINED> instruction: 0x000002bc
    1e48:	000002c4 	andeq	r0, r0, r4, asr #5
    1e4c:	00760006 	rsbseq	r0, r6, r6
    1e50:	9f1e0075 	svcls	0x001e0075
	...
    1e5c:	0000028c 	andeq	r0, r0, ip, lsl #5
    1e60:	000002b4 			; <UNDEFINED> instruction: 0x000002b4
    1e64:	9f300002 	svcls	0x00300002
    1e68:	000002b4 			; <UNDEFINED> instruction: 0x000002b4
    1e6c:	000002c8 	andeq	r0, r0, r8, asr #5
    1e70:	cc500001 	mrrcgt	0, 0, r0, r0, cr1	; <UNPREDICTABLE>
    1e74:	d0000002 	andle	r0, r0, r2
    1e78:	01000002 	tsteq	r0, r2
    1e7c:	00005000 	andeq	r5, r0, r0
    1e80:	00000000 	andeq	r0, r0, r0
    1e84:	028c0000 	addeq	r0, ip, #0
    1e88:	02c40000 	sbceq	r0, r4, #0
    1e8c:	00020000 	andeq	r0, r2, r0
    1e90:	02c49f30 	sbceq	r9, r4, #48, 30	; 0xc0
    1e94:	02e00000 	rsceq	r0, r0, #0
    1e98:	00010000 	andeq	r0, r1, r0
    1e9c:	00000055 	andeq	r0, r0, r5, asr r0
    1ea0:	00000000 	andeq	r0, r0, r0
    1ea4:	0002e000 	andeq	lr, r2, r0
    1ea8:	0002e800 	andeq	lr, r2, r0, lsl #16
    1eac:	50000100 	andpl	r0, r0, r0, lsl #2
	...
    1eb8:	0000030c 	andeq	r0, r0, ip, lsl #6
    1ebc:	00000310 	andeq	r0, r0, r0, lsl r3
    1ec0:	10520001 	subsne	r0, r2, r1
    1ec4:	1c000003 	stcne	0, cr0, [r0], {3}
    1ec8:	01000003 	tsteq	r0, r3
    1ecc:	00005200 	andeq	r5, r0, r0, lsl #4
    1ed0:	00000000 	andeq	r0, r0, r0
    1ed4:	03240000 	teqeq	r4, #0
    1ed8:	03280000 	teqeq	r8, #0
    1edc:	00010000 	andeq	r0, r1, r0
    1ee0:	00032852 	andeq	r2, r3, r2, asr r8
    1ee4:	00033400 	andeq	r3, r3, r0, lsl #8
    1ee8:	52000100 	andpl	r0, r0, #0, 2
	...
    1ef4:	00000334 	andeq	r0, r0, r4, lsr r3
    1ef8:	00000338 	andeq	r0, r0, r8, lsr r3
    1efc:	007d0002 	rsbseq	r0, sp, r2
    1f00:	00000338 	andeq	r0, r0, r8, lsr r3
    1f04:	00000368 	andeq	r0, r0, r8, ror #6
    1f08:	107d0002 	rsbsne	r0, sp, r2
	...
    1f14:	00000334 	andeq	r0, r0, r4, lsr r3
    1f18:	00000348 	andeq	r0, r0, r8, asr #6
    1f1c:	00500001 	subseq	r0, r0, r1
    1f20:	00000000 	andeq	r0, r0, r0
    1f24:	4c000000 	stcmi	0, cr0, [r0], {-0}
    1f28:	50000003 	andpl	r0, r0, r3
    1f2c:	01000003 	tsteq	r0, r3
    1f30:	03505600 	cmpeq	r0, #0, 12
    1f34:	035c0000 	cmpeq	ip, #0
    1f38:	00010000 	andeq	r0, r1, r0
    1f3c:	00035c56 	andeq	r5, r3, r6, asr ip
    1f40:	00036800 	andeq	r6, r3, r0, lsl #16
    1f44:	55000100 	strpl	r0, [r0, #-256]	; 0xffffff00
	...
    1f50:	000000a0 	andeq	r0, r0, r0, lsr #1
    1f54:	000000a4 	andeq	r0, r0, r4, lsr #1
    1f58:	9f300002 	svcls	0x00300002
	...
    1f64:	00000934 	andeq	r0, r0, r4, lsr r9
    1f68:	00000938 	andeq	r0, r0, r8, lsr r9
    1f6c:	00720006 	rsbseq	r0, r2, r6
    1f70:	9f1afc09 	svcls	0x001afc09
    1f74:	00000938 	andeq	r0, r0, r8, lsr r9
    1f78:	00000944 	andeq	r0, r0, r4, asr #18
    1f7c:	00520001 	subseq	r0, r2, r1
    1f80:	00000000 	andeq	r0, r0, r0
    1f84:	Address 0x00001f84 is out of bounds.


Disassembly of section .debug_pubnames:

00000000 <.debug_pubnames>:
   0:	00000017 	andeq	r0, r0, r7, lsl r0
   4:	00000002 	andeq	r0, r0, r2
   8:	06c80000 	strbeq	r0, [r8], r0
   c:	05a50000 	streq	r0, [r5, #0]!
  10:	616d0000 	cmnvs	sp, r0
  14:	00006e69 	andeq	r6, r0, r9, ror #28
  18:	1d000000 	stcne	0, cr0, [r0, #-0]
  1c:	02000000 	andeq	r0, r0, #0
  20:	0006c800 	andeq	ip, r6, r0, lsl #16
  24:	0000cf00 	andeq	ip, r0, r0, lsl #30
  28:	00005f00 	andeq	r5, r0, r0, lsl #30
  2c:	6d656d00 	stclvs	13, cr6, [r5, #-0]
  30:	6d656d5f 	stclvs	13, cr6, [r5, #-380]!	; 0xfffffe84
  34:	00797063 	rsbseq	r7, r9, r3, rrx
  38:	00000000 	andeq	r0, r0, r0
  3c:	00000055 	andeq	r0, r0, r5, asr r0
  40:	08040002 	stmdaeq	r4, {r1}
  44:	035a0000 	cmpeq	sl, #0
  48:	023b0000 	eorseq	r0, fp, #0
  4c:	656d0000 	strbvs	r0, [sp, #-0]!
  50:	6e695f6d 	cdpvs	15, 6, cr5, cr9, cr13, {3}
  54:	6e695f74 	mcrvs	15, 3, r5, cr9, cr4, {3}
  58:	53007469 	movwpl	r7, #1129	; 0x469
  5c:	6d000002 	stcvs	0, cr0, [r0, #-8]
  60:	695f6d65 	ldmdbvs	pc, {r0, r2, r5, r6, r8, sl, fp, sp, lr}^	; <UNPREDICTABLE>
  64:	655f746e 	ldrbvs	r7, [pc, #-1134]	; fffffbfe <__bss_end+0xffffc396>
  68:	00746978 	rsbseq	r6, r4, r8, ror r9
  6c:	0000026b 	andeq	r0, r0, fp, ror #4
  70:	5f6d656d 	svcpl	0x006d656d
  74:	62616e65 	rsbvs	r6, r1, #1616	; 0x650
  78:	695f656c 	ldmdbvs	pc, {r2, r3, r5, r6, r8, sl, sp, lr}^	; <UNPREDICTABLE>
  7c:	b600746e 	strlt	r7, [r0], -lr, ror #8
  80:	6d000002 	stcvs	0, cr0, [r0, #-8]
  84:	715f6d65 	cmpvc	pc, r5, ror #26
  88:	79726575 	ldmdbvc	r2!, {r0, r2, r4, r5, r6, r8, sl, sp, lr}^
  8c:	746e695f 	strbtvc	r6, [lr], #-2399	; 0xfffff6a1
  90:	00000000 	andeq	r0, r0, r0
  94:	00003c00 	andeq	r3, r0, r0, lsl #24
  98:	5e000200 	cdppl	2, 0, cr0, cr0, cr0, {0}
  9c:	0900000b 	stmdbeq	r0, {r0, r1, r3}
  a0:	7c000004 	stcvc	0, cr0, [r0], {4}
  a4:	6d000003 	stcvs	0, cr0, [r0, #-12]
  a8:	745f6d65 	ldrbvc	r6, [pc], #-3429	; b0 <__suspend_start+0xb0>
  ac:	695f726d 	ldmdbvs	pc, {r0, r2, r3, r5, r6, r9, ip, sp, lr}^	; <UNPREDICTABLE>
  b0:	0074696e 	rsbseq	r6, r4, lr, ror #18
  b4:	00000390 	muleq	r0, r0, r3
  b8:	5f6d656d 	svcpl	0x006d656d
  bc:	5f726d74 	svcpl	0x00726d74
  c0:	61736964 	cmnvs	r3, r4, ror #18
  c4:	5f656c62 	svcpl	0x00656c62
  c8:	63746177 	cmnvs	r4, #-1073741795	; 0xc000001d
  cc:	676f6468 	strbvs	r6, [pc, -r8, ror #8]!
  d0:	00000000 	andeq	r0, r0, r0
  d4:	0000d200 	andeq	sp, r0, r0, lsl #4
  d8:	67000200 	strvs	r0, [r0, -r0, lsl #4]
  dc:	8500000f 	strhi	r0, [r0, #-15]
  e0:	31000020 	tstcc	r0, r0, lsr #32
  e4:	6d00001f 	stcvs	0, cr0, [r0, #-124]	; 0xffffff84
  e8:	635f6d65 	cmpvs	pc, #6464	; 0x1940
  ec:	695f6b6c 	ldmdbvs	pc, {r2, r3, r5, r6, r8, r9, fp, sp, lr}^	; <UNPREDICTABLE>
  f0:	0074696e 	rsbseq	r6, r4, lr, ror #18
  f4:	00001f49 	andeq	r1, r0, r9, asr #30
  f8:	5f6d656d 	svcpl	0x006d656d
  fc:	5f6b6c63 	svcpl	0x006b6c63
 100:	646c6c70 	strbtvs	r6, [ip], #-3184	; 0xfffff390
 104:	62617369 	rsbvs	r7, r1, #-1543503871	; 0xa4000001
 108:	6100656c 	tstvs	r0, ip, ror #10
 10c:	6d00001f 	stcvs	0, cr0, [r0, #-124]	; 0xffffff84
 110:	635f6d65 	cmpvs	pc, #6464	; 0x1940
 114:	705f6b6c 	subsvc	r6, pc, ip, ror #22
 118:	6e656c6c 	cdpvs	12, 6, cr6, cr5, cr12, {3}
 11c:	656c6261 	strbvs	r6, [ip, #-609]!	; 0xfffffd9f
 120:	001f7900 	andseq	r7, pc, r0, lsl #18
 124:	6d656d00 	stclvs	13, cr6, [r5, #-0]
 128:	6b6c635f 	blvs	1b18eac <__bss_end+0x1b15644>
 12c:	7465735f 	strbtvc	r7, [r5], #-863	; 0xfffffca1
 130:	00766964 	rsbseq	r6, r6, r4, ror #18
 134:	00001fab 	andeq	r1, r0, fp, lsr #31
 138:	5f6d656d 	svcpl	0x006d656d
 13c:	5f6b6c63 	svcpl	0x006b6c63
 140:	64746567 	ldrbtvs	r6, [r4], #-1383	; 0xfffffa99
 144:	d7007669 	strle	r7, [r0, -r9, ror #12]
 148:	6d00001f 	stcvs	0, cr0, [r0, #-124]	; 0xffffff84
 14c:	635f6d65 	cmpvs	pc, #6464	; 0x1940
 150:	735f6b6c 	cmpvc	pc, #108, 22	; 0x1b000
 154:	705f7465 	subsvc	r7, pc, r5, ror #8
 158:	665f6c6c 	ldrbvs	r6, [pc], -ip, ror #24
 15c:	6f746361 	svcvs	0x00746361
 160:	20090072 	andcs	r0, r9, r2, ror r0
 164:	656d0000 	strbvs	r0, [sp, #-0]!
 168:	6c635f6d 	stclvs	15, cr5, [r3], #-436	; 0xfffffe4c
 16c:	65675f6b 	strbvs	r5, [r7, #-3947]!	; 0xfffff095
 170:	6c705f74 	ldclvs	15, cr5, [r0], #-464	; 0xfffffe30
 174:	61665f6c 	cmnvs	r6, ip, ror #30
 178:	726f7463 	rsbvc	r7, pc, #1660944384	; 0x63000000
 17c:	00203500 	eoreq	r3, r0, r0, lsl #10
 180:	6d656d00 	stclvs	13, cr6, [r5, #-0]
 184:	6b6c635f 	blvs	1b18f08 <__bss_end+0x1b156a0>
 188:	6172645f 	cmnvs	r2, pc, asr r4
 18c:	7461676d 	strbtvc	r6, [r1], #-1901	; 0xfffff893
 190:	00676e69 	rsbeq	r6, r7, r9, ror #28
 194:	00002072 	andeq	r2, r0, r2, ror r0
 198:	5f757063 	svcpl	0x00757063
 19c:	6c5f736d 	mrrcvs	3, 6, r7, pc, cr13	; <UNPREDICTABLE>
 1a0:	63706f6f 	cmnvs	r0, #444	; 0x1bc
 1a4:	0000746e 	andeq	r7, r0, lr, ror #8
 1a8:	68000000 	stmdavs	r0, {}	; <UNPREDICTABLE>
 1ac:	02000000 	andeq	r0, r0, #0
 1b0:	002fec00 	eoreq	lr, pc, r0, lsl #24
 1b4:	00219600 	eoreq	r9, r1, r0, lsl #12
 1b8:	001f9400 	andseq	r9, pc, r0, lsl #8
 1bc:	6d656d00 	stclvs	13, cr6, [r5, #-0]
 1c0:	6977745f 	ldmdbvs	r7!, {r0, r1, r2, r3, r4, r6, sl, ip, sp, lr}^
 1c4:	696e695f 	stmdbvs	lr!, {r0, r1, r2, r3, r4, r6, r8, fp, sp, lr}^
 1c8:	1fc00074 	svcne	0x00c00074
 1cc:	656d0000 	strbvs	r0, [sp, #-0]!
 1d0:	77745f6d 	ldrbvc	r5, [r4, -sp, ror #30]!
 1d4:	78655f69 	stmdavc	r5!, {r0, r3, r5, r6, r8, r9, sl, fp, ip, lr}^
 1d8:	d9007469 	stmdble	r0, {r0, r3, r5, r6, sl, ip, sp, lr}
 1dc:	7300001f 	movwvc	r0, #31
 1e0:	70757465 	rsbsvc	r7, r5, r5, ror #8
 1e4:	6977745f 	ldmdbvs	r7!, {r0, r1, r2, r3, r4, r6, sl, ip, sp, lr}^
 1e8:	766e655f 			; <UNDEFINED> instruction: 0x766e655f
 1ec:	001fed00 	andseq	lr, pc, r0, lsl #26
 1f0:	69777400 	ldmdbvs	r7!, {sl, ip, sp, lr}^
 1f4:	7479625f 	ldrbtvc	r6, [r9], #-607	; 0xfffffda1
 1f8:	77725f65 	ldrbvc	r5, [r2, -r5, ror #30]!
 1fc:	00208500 	eoreq	r8, r0, r0, lsl #10
 200:	69777400 	ldmdbvs	r7!, {sl, ip, sp, lr}^
 204:	7479625f 	ldrbtvc	r6, [r9], #-607	; 0xfffffda1
 208:	77725f65 	ldrbvc	r5, [r2, -r5, ror #30]!
 20c:	6d6f6e5f 	stclvs	14, cr6, [pc, #-380]!	; 98 <__suspend_start+0x98>
 210:	0000756d 	andeq	r7, r0, sp, ror #10
 214:	86000000 	strhi	r0, [r0], -r0
 218:	02000000 	andeq	r0, r0, #0
 21c:	0051f500 	subseq	pc, r1, r0, lsl #10
 220:	00042f00 	andeq	r2, r4, r0, lsl #30
 224:	00021600 	andeq	r1, r2, r0, lsl #12
 228:	6d656d00 	stclvs	13, cr6, [r5, #-0]
 22c:	7465735f 	strbtvc	r7, [r5], #-863	; 0xfffffca1
 230:	6c6f765f 	stclvs	6, cr7, [pc], #-380	; bc <__suspend_start+0xbc>
 234:	65676174 	strbvs	r6, [r7, #-372]!	; 0xfffffe8c
 238:	0002b800 	andeq	fp, r2, r0, lsl #16
 23c:	6d656d00 	stclvs	13, cr6, [r5, #-0]
 240:	7465675f 	strbtvc	r6, [r5], #-1887	; 0xfffff8a1
 244:	6c6f765f 	stclvs	6, cr7, [pc], #-380	; d0 <__suspend_start+0xd0>
 248:	65676174 	strbvs	r6, [r7, #-372]!	; 0xfffffe8c
 24c:	00030e00 	andeq	r0, r3, r0, lsl #28
 250:	6d656d00 	stclvs	13, cr6, [r5, #-0]
 254:	776f705f 			; <UNDEFINED> instruction: 0x776f705f
 258:	695f7265 	ldmdbvs	pc, {r0, r2, r5, r6, r9, ip, sp, lr}^	; <UNPREDICTABLE>
 25c:	0074696e 	rsbseq	r6, r4, lr, ror #18
 260:	0000034a 	andeq	r0, r0, sl, asr #6
 264:	5f6d656d 	svcpl	0x006d656d
 268:	65776f70 	ldrbvs	r6, [r7, #-3952]!	; 0xfffff090
 26c:	78655f72 	stmdavc	r5!, {r1, r4, r5, r6, r8, r9, sl, fp, ip, lr}^
 270:	89007469 	stmdbhi	r0, {r0, r3, r5, r6, sl, ip, sp, lr}
 274:	6d000003 	stcvs	0, cr0, [r0, #-12]
 278:	705f6d65 	subsvc	r6, pc, r5, ror #26
 27c:	7265776f 	rsbvc	r7, r5, #29097984	; 0x1bc0000
 280:	66666f5f 	uqsaxvs	r6, r6, pc	; <UNPREDICTABLE>
 284:	0003b800 	andeq	fp, r3, r0, lsl #16
 288:	6d656d00 	stclvs	13, cr6, [r5, #-0]
 28c:	776f705f 			; <UNDEFINED> instruction: 0x776f705f
 290:	6f5f7265 	svcvs	0x005f7265
 294:	6e5f6666 	cdpvs	6, 5, cr6, cr15, cr6, {3}
 298:	756d6d6f 	strbvc	r6, [sp, #-3439]!	; 0xfffff291
 29c:	00000000 	andeq	r0, r0, r0
 2a0:	00021f00 	andeq	r1, r2, r0, lsl #30
 2a4:	24000200 	strcs	r0, [r0], #-512	; 0xfffffe00
 2a8:	f9000056 			; <UNDEFINED> instruction: 0xf9000056
 2ac:	ac000005 	stcge	0, cr0, [r0], {5}
 2b0:	6d000000 	stcvs	0, cr0, [r0, #-0]
 2b4:	5f6c7463 	svcpl	0x006c7463
 2b8:	63657270 	cmnvs	r5, #112, 4
 2bc:	67726168 	ldrbvs	r6, [r2, -r8, ror #2]!
 2c0:	6c615f65 	stclvs	15, cr5, [r1], #-404	; 0xfffffe6c
 2c4:	00dd006c 	sbcseq	r0, sp, ip, rrx
 2c8:	636d0000 	cmnvs	sp, #0
 2cc:	6d5f6c74 	ldclvs	12, cr6, [pc, #-464]	; 104 <__suspend_start+0x104>
 2d0:	5f65646f 	svcpl	0x0065646f
 2d4:	74697865 	strbtvc	r7, [r9], #-2149	; 0xfffff79b
 2d8:	00010e00 	andeq	r0, r1, r0, lsl #28
 2dc:	41524400 	cmpmi	r2, r0, lsl #8
 2e0:	655f434d 	ldrbvs	r4, [pc, #-845]	; ffffff9b <__bss_end+0xffffc733>
 2e4:	7265746e 	rsbvc	r7, r5, #1845493760	; 0x6e000000
 2e8:	776f705f 			; <UNDEFINED> instruction: 0x776f705f
 2ec:	645f7265 	ldrbvs	r7, [pc], #-613	; 2f4 <invalidate_branch_predictor+0x4>
 2f0:	006e776f 	rsbeq	r7, lr, pc, ror #14
 2f4:	0000013f 	andeq	r0, r0, pc, lsr r1
 2f8:	4d415244 	sfmmi	f5, 2, [r1, #-272]	; 0xfffffef0
 2fc:	78655f43 	stmdavc	r5!, {r0, r1, r6, r8, r9, sl, fp, ip, lr}^
 300:	705f7469 	subsvc	r7, pc, r9, ror #8
 304:	7265776f 	rsbvc	r7, r5, #29097984	; 0x1bc0000
 308:	776f645f 			; <UNDEFINED> instruction: 0x776f645f
 30c:	0153006e 	cmpeq	r3, lr, rrx
 310:	52440000 	subpl	r0, r4, #0
 314:	5f434d41 	svcpl	0x00434d41
 318:	74736f68 	ldrbtvc	r6, [r3], #-3944	; 0xfffff098
 31c:	74726f70 	ldrbtvc	r6, [r2], #-3952	; 0xfffff090
 320:	5f6e6f5f 	svcpl	0x006e6f5f
 324:	0066666f 	rsbeq	r6, r6, pc, ror #12
 328:	00000194 	muleq	r0, r4, r1
 32c:	4d415244 	sfmmi	f5, 2, [r1, #-272]	; 0xfffffef0
 330:	78655f43 	stmdavc	r5!, {r0, r1, r6, r8, r9, sl, fp, ip, lr}^
 334:	735f7469 	cmpvc	pc, #1761607680	; 0x69000000
 338:	72666c65 	rsbvc	r6, r6, #25856	; 0x6500
 33c:	65726665 	ldrbvs	r6, [r2, #-1637]!	; 0xfffff99b
 340:	ca006873 	bgt	1a514 <__bss_end+0x16cac>
 344:	44000001 	strmi	r0, [r0], #-1
 348:	434d4152 	movtmi	r4, #53586	; 0xd152
 34c:	746e655f 	strbtvc	r6, [lr], #-1375	; 0xfffffaa1
 350:	735f7265 	cmpvc	pc, #1342177286	; 0x50000006
 354:	72666c65 	rsbvc	r6, r6, #25856	; 0x6500
 358:	65726665 	ldrbvs	r6, [r2, #-1637]!	; 0xfffff99b
 35c:	00006873 	andeq	r6, r0, r3, ror r8
 360:	44000002 	strmi	r0, [r0], #-2
 364:	434d4152 	movtmi	r4, #53586	; 0xd152
 368:	736f685f 	cmnvc	pc, #6225920	; 0x5f0000
 36c:	726f7074 	rsbvc	r7, pc, #116	; 0x74
 370:	68635f74 	stmdavs	r3!, {r2, r4, r5, r6, r8, r9, sl, fp, ip, lr}^
 374:	5f6b6365 	svcpl	0x006b6365
 378:	5f626861 	svcpl	0x00626861
 37c:	6f666966 	svcvs	0x00666966
 380:	6174735f 	cmnvs	r4, pc, asr r3
 384:	00737574 	rsbseq	r7, r3, r4, ror r5
 388:	00000239 	andeq	r0, r0, r9, lsr r2
 38c:	4d415244 	sfmmi	f5, 2, [r1, #-272]	; 0xfffffef0
 390:	6f685f43 	svcvs	0x00685f43
 394:	6f707473 	svcvs	0x00707473
 398:	735f7472 	cmpvc	pc, #1912602624	; 0x72000000
 39c:	70757465 	rsbsvc	r7, r5, r5, ror #8
 3a0:	00029c00 	andeq	r9, r2, r0, lsl #24
 3a4:	74636d00 	strbtvc	r6, [r3], #-3328	; 0xfffff300
 3a8:	68615f6c 	stmdavs	r1!, {r2, r3, r5, r6, r8, r9, sl, fp, ip, lr}^
 3ac:	65725f62 	ldrbvs	r5, [r2, #-3938]!	; 0xfffff09e
 3b0:	00746573 	rsbseq	r6, r4, r3, ror r5
 3b4:	000002d2 	ldrdeq	r0, [r0], -r2
 3b8:	4d415244 	sfmmi	f5, 2, [r1, #-272]	; 0xfffffef0
 3bc:	65725f43 	ldrbvs	r5, [r2, #-3907]!	; 0xfffff0bd
 3c0:	69617274 	stmdbvs	r1!, {r2, r4, r5, r6, r9, ip, sp, lr}^
 3c4:	676e696e 	strbvs	r6, [lr, -lr, ror #18]!
 3c8:	00046e00 	andeq	r6, r4, r0, lsl #28
 3cc:	61726400 	cmnvs	r2, r0, lsl #8
 3d0:	6f705f6d 	svcvs	0x00705f6d
 3d4:	5f726577 	svcpl	0x00726577
 3d8:	65766173 	ldrbvs	r6, [r6, #-371]!	; 0xfffffe8d
 3dc:	6f72705f 	svcvs	0x0072705f
 3e0:	73736563 	cmnvc	r3, #415236096	; 0x18c00000
 3e4:	0004dc00 	andeq	sp, r4, r0, lsl #24
 3e8:	61726400 	cmnvs	r2, r0, lsl #8
 3ec:	6f705f6d 	svcvs	0x00705f6d
 3f0:	5f726577 	svcpl	0x00726577
 3f4:	705f7075 	subsvc	r7, pc, r5, ror r0	; <UNPREDICTABLE>
 3f8:	65636f72 	strbvs	r6, [r3, #-3954]!	; 0xfffff08e
 3fc:	f5007373 			; <UNDEFINED> instruction: 0xf5007373
 400:	64000004 	strvs	r0, [r0], #-4
 404:	5f6d6172 	svcpl	0x006d6172
 408:	65746e65 	ldrbvs	r6, [r4, #-3685]!	; 0xfffff19b
 40c:	65735f72 	ldrbvs	r5, [r3, #-3954]!	; 0xfffff08e
 410:	6572666c 	ldrbvs	r6, [r2, #-1644]!	; 0xfffff994
 414:	73657266 	cmnvc	r5, #1610612742	; 0x60000006
 418:	050a0068 	streq	r0, [sl, #-104]	; 0xffffff98
 41c:	72640000 	rsbvc	r0, r4, #0
 420:	655f6d61 	ldrbvs	r6, [pc, #-3425]	; fffff6c7 <__bss_end+0xffffbe5f>
 424:	5f746978 	svcpl	0x00746978
 428:	666c6573 			; <UNDEFINED> instruction: 0x666c6573
 42c:	72666572 	rsbvc	r6, r6, #478150656	; 0x1c800000
 430:	00687365 	rsbeq	r7, r8, r5, ror #6
 434:	0000051f 	andeq	r0, r0, pc, lsl r5
 438:	6d617264 	sfmvs	f7, 2, [r1, #-400]!	; 0xfffffe70
 43c:	746e655f 	strbtvc	r6, [lr], #-1375	; 0xfffffaa1
 440:	705f7265 	subsvc	r7, pc, r5, ror #4
 444:	7265776f 	rsbvc	r7, r5, #29097984	; 0x1bc0000
 448:	776f645f 			; <UNDEFINED> instruction: 0x776f645f
 44c:	0534006e 	ldreq	r0, [r4, #-110]!	; 0xffffff92
 450:	72640000 	rsbvc	r0, r4, #0
 454:	655f6d61 	ldrbvs	r6, [pc, #-3425]	; fffff6fb <__bss_end+0xffffbe93>
 458:	5f746978 	svcpl	0x00746978
 45c:	65776f70 	ldrbvs	r6, [r7, #-3952]!	; 0xfffff090
 460:	6f645f72 	svcvs	0x00645f72
 464:	49006e77 	stmdbmi	r0, {r0, r1, r2, r4, r5, r6, r9, sl, fp, sp, lr}
 468:	64000005 	strvs	r0, [r0], #-5
 46c:	5f6d6172 	svcpl	0x006d6172
 470:	74736f68 	ldrbtvc	r6, [r3], #-3944	; 0xfffff098
 474:	74726f70 	ldrbtvc	r6, [r2], #-3952	; 0xfffff090
 478:	5f6e6f5f 	svcpl	0x006e6f5f
 47c:	0066666f 	rsbeq	r6, r6, pc, ror #12
 480:	0000057e 	andeq	r0, r0, lr, ror r5
 484:	6d617264 	sfmvs	f7, 2, [r1, #-400]!	; 0xfffffe70
 488:	736f685f 	cmnvc	pc, #6225920	; 0x5f0000
 48c:	726f7074 	rsbvc	r7, pc, #116	; 0x74
 490:	68635f74 	stmdavs	r3!, {r2, r4, r5, r6, r8, r9, sl, fp, ip, lr}^
 494:	5f6b6365 	svcpl	0x006b6365
 498:	5f626861 	svcpl	0x00626861
 49c:	6f666966 	svcvs	0x00666966
 4a0:	6174735f 	cmnvs	r4, pc, asr r3
 4a4:	00737574 	rsbseq	r7, r3, r4, ror r5
 4a8:	000005aa 	andeq	r0, r0, sl, lsr #11
 4ac:	6d617264 	sfmvs	f7, 2, [r1, #-400]!	; 0xfffffe70
 4b0:	736f685f 	cmnvc	pc, #6225920	; 0x5f0000
 4b4:	726f7074 	rsbvc	r7, pc, #116	; 0x74
 4b8:	65735f74 	ldrbvs	r5, [r3, #-3956]!	; 0xfffff08c
 4bc:	00707574 	rsbseq	r7, r0, r4, ror r5
 4c0:	00000000 	andeq	r0, r0, r0
 4c4:	0000021a 	andeq	r0, r0, sl, lsl r2
 4c8:	5c1d0002 	ldcpl	0, cr0, [sp], {2}
 4cc:	06cb0000 	strbeq	r0, [fp], r0
 4d0:	02450000 	subeq	r0, r5, #0
 4d4:	636d0000 	cmnvs	sp, #0
 4d8:	645f6c74 	ldrbvs	r6, [pc], #-3188	; 4e0 <mem_preload_tlb+0xf0>
 4dc:	5f337264 	svcpl	0x00337264
 4e0:	65736572 	ldrbvs	r6, [r3, #-1394]!	; 0xfffffa8e
 4e4:	026e0074 	rsbeq	r0, lr, #116	; 0x74
 4e8:	636d0000 	cmnvs	sp, #0
 4ec:	735f6c74 	cmpvc	pc, #116, 24	; 0x7400
 4f0:	645f7465 	ldrbvs	r7, [pc], #-1125	; 4f8 <mem_preload_tlb_nommu+0x14>
 4f4:	65766972 	ldrbvs	r6, [r6, #-2418]!	; 0xfffff68e
 4f8:	00029600 	andeq	r9, r2, r0, lsl #12
 4fc:	74636d00 	strbtvc	r6, [r3], #-3328	; 0xfffff300
 500:	74695f6c 	strbtvc	r5, [r9], #-3948	; 0xfffff094
 504:	69645f6d 	stmdbvs	r4!, {r0, r2, r3, r5, r6, r8, r9, sl, fp, ip, lr}^
 508:	6c626173 	stfvse	f6, [r2], #-460	; 0xfffffe34
 50c:	02be0065 	adcseq	r0, lr, #101	; 0x65
 510:	636d0000 	cmnvs	sp, #0
 514:	695f6c74 	ldmdbvs	pc, {r2, r4, r5, r6, sl, fp, sp, lr}^	; <UNPREDICTABLE>
 518:	655f6d74 	ldrbvs	r6, [pc, #-3444]	; fffff7ac <__bss_end+0xffffbf44>
 51c:	6c62616e 	stfvse	f6, [r2], #-440	; 0xfffffe48
 520:	02e60065 	rsceq	r0, r6, #101	; 0x65
 524:	636d0000 	cmnvs	sp, #0
 528:	655f6c74 	ldrbvs	r6, [pc, #-3188]	; fffff8bc <__bss_end+0xffffc054>
 52c:	6c62616e 	stfvse	f6, [r2], #-440	; 0xfffffe48
 530:	6c645f65 	stclvs	15, cr5, [r4], #-404	; 0xfffffe6c
 534:	0a00306c 	beq	c6ec <__bss_end+0x8e84>
 538:	6d000003 	stcvs	0, cr0, [r0, #-12]
 53c:	5f6c7463 	svcpl	0x006c7463
 540:	62616e65 	rsbvs	r6, r1, #1616	; 0x650
 544:	645f656c 	ldrbvs	r6, [pc], #-1388	; 54c <mem_preload_tlb_nommu+0x68>
 548:	00786c6c 	rsbseq	r6, r8, ip, ror #24
 54c:	0000034d 	andeq	r0, r0, sp, asr #6
 550:	6c74636d 	ldclvs	3, cr6, [r4], #-436	; 0xfffffe4c
 554:	7369645f 	cmnvc	r9, #1593835520	; 0x5f000000
 558:	656c6261 	strbvs	r6, [ip, #-609]!	; 0xfffffd9f
 55c:	6c6c645f 	cfstrdvs	mvd6, [ip], #-380	; 0xfffffe84
 560:	00037500 	andeq	r7, r3, r0, lsl #10
 564:	74636d00 	strbtvc	r6, [r3], #-3328	; 0xfffff300
 568:	6f635f6c 	svcvs	0x00635f6c
 56c:	6769666e 	strbvs	r6, [r9, -lr, ror #12]!
 570:	5f657275 	svcpl	0x00657275
 574:	74736f68 	ldrbtvc	r6, [r3], #-3944	; 0xfffff098
 578:	74726f70 	ldrbtvc	r6, [r2], #-3952	; 0xfffff090
 57c:	00039d00 	andeq	r9, r3, r0, lsl #26
 580:	74636d00 	strbtvc	r6, [r3], #-3328	; 0xfffff300
 584:	65735f6c 	ldrbvs	r5, [r3, #-3948]!	; 0xfffff094
 588:	5f707574 	svcpl	0x00707574
 58c:	6d617264 	sfmvs	f7, 2, [r1, #-400]!	; 0xfffffe70
 590:	6f6c635f 	svcvs	0x006c635f
 594:	d8006b63 	stmdale	r0, {r0, r1, r5, r6, r8, r9, fp, sp, lr}
 598:	44000003 	strmi	r0, [r0], #-3
 59c:	434d4152 	movtmi	r4, #53586	; 0xd152
 5a0:	6978655f 	ldmdbvs	r8!, {r0, r1, r2, r3, r4, r6, r8, sl, sp, lr}^
 5a4:	03e80074 	mvneq	r0, #116	; 0x74
 5a8:	52440000 	subpl	r0, r4, #0
 5ac:	5f434d41 	svcpl	0x00434d41
 5b0:	6e616373 	mcrvs	3, 3, r6, cr1, cr3, {3}
 5b4:	6165725f 	cmnvs	r5, pc, asr r2
 5b8:	70697064 	rsbvc	r7, r9, r4, rrx
 5bc:	04160065 	ldreq	r0, [r6], #-101	; 0xffffff9b
 5c0:	52440000 	subpl	r0, r4, #0
 5c4:	5f434d41 	svcpl	0x00434d41
 5c8:	636f6c63 	cmnvs	pc, #25344	; 0x6300
 5cc:	756f5f6b 	strbvc	r5, [pc, #-3947]!	; fffff669 <__bss_end+0xffffbe01>
 5d0:	74757074 	ldrbtvc	r7, [r5], #-116	; 0xffffff8c
 5d4:	006e655f 	rsbeq	r6, lr, pc, asr r5
 5d8:	0000044d 	andeq	r0, r0, sp, asr #8
 5dc:	4d415244 	sfmmi	f5, 2, [r1, #-272]	; 0xfffffef0
 5e0:	65735f43 	ldrbvs	r5, [r3, #-3907]!	; 0xfffff0bd
 5e4:	75615f74 	strbvc	r5, [r1, #-3956]!	; 0xfffff08c
 5e8:	65726f74 	ldrbvs	r6, [r2, #-3956]!	; 0xfffff08c
 5ec:	73657266 	cmnvc	r5, #1610612742	; 0x60000006
 5f0:	79635f68 	stmdbvc	r3!, {r3, r5, r6, r8, r9, sl, fp, ip, lr}^
 5f4:	00656c63 	rsbeq	r6, r5, r3, ror #24
 5f8:	00000495 	muleq	r0, r5, r4
 5fc:	4d415244 	sfmmi	f5, 2, [r1, #-272]	; 0xfffffef0
 600:	65675f43 	strbvs	r5, [r7, #-3907]!	; 0xfffff0bd
 604:	72645f74 	rsbvc	r5, r4, #116, 30	; 0x1d0
 608:	735f6d61 	cmpvc	pc, #6208	; 0x1840
 60c:	00657a69 	rsbeq	r7, r5, r9, ror #20
 610:	000004e3 	andeq	r0, r0, r3, ror #9
 614:	4d415244 	sfmmi	f5, 2, [r1, #-272]	; 0xfffffef0
 618:	6e695f43 	cdpvs	15, 6, cr5, cr9, cr3, {2}
 61c:	42007469 	andmi	r7, r0, #1761607680	; 0x69000000
 620:	64000005 	strvs	r0, [r0], #-5
 624:	5f6d6172 	svcpl	0x006d6172
 628:	74696e69 	strbtvc	r6, [r9], #-3689	; 0xfffff197
 62c:	00055b00 	andeq	r5, r5, r0, lsl #22
 630:	74656700 	strbtvc	r6, [r5], #-1792	; 0xfffff900
 634:	6f6f625f 	svcvs	0x006f625f
 638:	645f3074 	ldrbvs	r3, [pc], #-116	; 640 <__turn_mmu_on>
 63c:	5f6d6172 	svcpl	0x006d6172
 640:	61726170 	cmnvs	r2, r0, ror r1
 644:	00058b00 	andeq	r8, r5, r0, lsl #22
 648:	696e6900 	stmdbvs	lr!, {r8, fp, sp, lr}^
 64c:	52445f74 	subpl	r5, r4, #116, 30	; 0x1d0
 650:	d8004d41 	stmdale	r0, {r0, r6, r8, sl, fp, lr}
 654:	64000005 	strvs	r0, [r0], #-5
 658:	5f6d6172 	svcpl	0x006d6172
 65c:	74697865 	strbtvc	r7, [r9], #-2149	; 0xfffff79b
 660:	0005f100 	andeq	pc, r5, r0, lsl #2
 664:	61726400 	cmnvs	r2, r0, lsl #8
 668:	65675f6d 	strbvs	r5, [r7, #-3949]!	; 0xfffff093
 66c:	69735f74 	ldmdbvs	r3!, {r2, r4, r5, r6, r8, r9, sl, fp, ip, lr}^
 670:	0a00657a 	beq	19c60 <__bss_end+0x163f8>
 674:	64000006 	strvs	r0, [r0], #-6
 678:	5f6d6172 	svcpl	0x006d6172
 67c:	5f746573 	svcpl	0x00746573
 680:	636f6c63 	cmnvs	pc, #25344	; 0x6300
 684:	0632006b 	ldrteq	r0, [r2], -fp, rrx
 688:	72640000 	rsbvc	r0, r4, #0
 68c:	735f6d61 	cmpvc	pc, #6208	; 0x1840
 690:	645f7465 	ldrbvs	r7, [pc], #-1125	; 698 <__turn_mmu_on+0x58>
 694:	65766972 	ldrbvs	r6, [r6, #-2418]!	; 0xfffff68e
 698:	00064700 	andeq	r4, r6, r0, lsl #14
 69c:	61726400 	cmnvs	r2, r0, lsl #8
 6a0:	65735f6d 	ldrbvs	r5, [r3, #-3949]!	; 0xfffff093
 6a4:	75615f74 	strbvc	r5, [r1, #-3956]!	; 0xfffff08c
 6a8:	65726f74 	ldrbvs	r6, [r2, #-3956]!	; 0xfffff08c
 6ac:	73657266 	cmnvc	r5, #1610612742	; 0x60000006
 6b0:	79635f68 	stmdbvc	r3!, {r3, r5, r6, r8, r9, sl, fp, ip, lr}^
 6b4:	00656c63 	rsbeq	r6, r5, r3, ror #24
 6b8:	0000066f 	andeq	r0, r0, pc, ror #12
 6bc:	6d617264 	sfmvs	f7, 2, [r1, #-400]!	; 0xfffffe70
 6c0:	6163735f 	cmnvs	r3, pc, asr r3
 6c4:	65725f6e 	ldrbvs	r5, [r2, #-3950]!	; 0xfffff092
 6c8:	69706461 	ldmdbvs	r0!, {r0, r5, r6, sl, sp, lr}^
 6cc:	b7006570 	smlsdxlt	r0, r0, r5, r6
 6d0:	68000006 	stmdavs	r0, {r1, r2}
 6d4:	5f726370 	svcpl	0x00726370
 6d8:	756c6176 	strbvc	r6, [ip, #-374]!	; 0xfffffe8a
 6dc:	00000065 	andeq	r0, r0, r5, rrx
 6e0:	01960000 	orrseq	r0, r6, r0
 6e4:	00020000 	andeq	r0, r2, r0
 6e8:	000062e8 	andeq	r6, r0, r8, ror #5
 6ec:	000004e8 	andeq	r0, r0, r8, ror #9
 6f0:	000000da 	ldrdeq	r0, [r0], -sl
 6f4:	79737562 	ldmdbvc	r3!, {r1, r5, r6, r8, sl, ip, sp, lr}^
 6f8:	6961775f 	stmdbvs	r1!, {r0, r1, r2, r3, r4, r6, r8, r9, sl, ip, sp, lr}^
 6fc:	676e6974 			; <UNDEFINED> instruction: 0x676e6974
 700:	00010700 	andeq	r0, r1, r0, lsl #14
 704:	6b616600 	blvs	1859f0c <__bss_end+0x18566a4>
 708:	75625f65 	strbvc	r5, [r2, #-3941]!	; 0xfffff09b
 70c:	775f7973 			; <UNDEFINED> instruction: 0x775f7973
 710:	69746961 	ldmdbvs	r4!, {r0, r5, r6, r8, fp, sp, lr}^
 714:	2f00676e 	svccs	0x0000676e
 718:	73000001 	movwvc	r0, #1
 71c:	5f657661 	svcpl	0x00657661
 720:	5f6d656d 	svcpl	0x006d656d
 724:	67616c66 	strbvs	r6, [r1, -r6, ror #24]!
 728:	00015700 	andeq	r5, r1, r0, lsl #14
 72c:	76617300 	strbtvc	r7, [r1], -r0, lsl #6
 730:	656d5f65 	strbvs	r5, [sp, #-3941]!	; 0xfffff09b
 734:	74735f6d 	ldrbtvc	r5, [r3], #-3949	; 0xfffff093
 738:	73757461 	cmnvc	r5, #1627389952	; 0x61000000
 73c:	00017e00 	andeq	r7, r1, r0, lsl #28
 740:	74656700 	strbtvc	r6, [r5], #-1792	; 0xfffff900
 744:	6d656d5f 	stclvs	13, cr6, [r5, #-380]!	; 0xfffffe84
 748:	6174735f 	cmnvs	r4, pc, asr r3
 74c:	00737574 	rsbseq	r7, r3, r4, ror r5
 750:	00000196 	muleq	r0, r6, r1
 754:	65766173 	ldrbvs	r6, [r6, #-371]!	; 0xfffffe8d
 758:	6d656d5f 	stclvs	13, cr6, [r5, #-380]!	; 0xfffffe84
 75c:	6174735f 	cmnvs	r4, pc, asr r3
 760:	5f737574 	svcpl	0x00737574
 764:	6d6d6f6e 	stclvs	15, cr6, [sp, #-440]!	; 0xfffffe48
 768:	01bd0075 			; <UNDEFINED> instruction: 0x01bd0075
 76c:	61730000 	cmnvs	r3, r0
 770:	735f6576 	cmpvc	pc, #494927872	; 0x1d800000
 774:	69356e75 	ldmdbvs	r5!, {r0, r2, r4, r5, r6, r9, sl, fp, sp, lr}
 778:	6d656d5f 	stclvs	13, cr6, [r5, #-380]!	; 0xfffffe84
 77c:	6174735f 	cmnvs	r4, pc, asr r3
 780:	00737574 	rsbseq	r7, r3, r4, ror r5
 784:	000001f7 	strdeq	r0, [r0], -r7
 788:	65766173 	ldrbvs	r6, [r6, #-371]!	; 0xfffffe8d
 78c:	6e75735f 	mrcvs	3, 3, r7, cr5, cr15, {2}
 790:	6d5f6935 	ldclvs	9, cr6, [pc, #-212]	; 6c4 <__turn_mmu_on+0x84>
 794:	735f6d65 	cmpvc	pc, #6464	; 0x1940
 798:	75746174 	ldrbvc	r6, [r4, #-372]!	; 0xfffffe8c
 79c:	6f6e5f73 	svcvs	0x006e5f73
 7a0:	00756d6d 	rsbseq	r6, r5, sp, ror #26
 7a4:	00000231 	andeq	r0, r0, r1, lsr r2
 7a8:	5f746567 	svcpl	0x00746567
 7ac:	6c637963 	stclvs	9, cr7, [r3], #-396	; 0xfffffe74
 7b0:	756f6365 	strbvc	r6, [pc, #-869]!	; 453 <mem_preload_tlb+0x63>
 7b4:	5b00746e 	blpl	1d974 <__bss_end+0x1a10c>
 7b8:	62000002 	andvs	r0, r0, #2
 7bc:	756b6361 	strbvc	r6, [fp, #-865]!	; 0xfffffc9f
 7c0:	65705f70 	ldrbvs	r5, [r0, #-3952]!	; 0xfffff090
 7c4:	6f636672 	svcvs	0x00636672
 7c8:	65746e75 	ldrbvs	r6, [r4, #-3701]!	; 0xfffff18b
 7cc:	026f0072 	rsbeq	r0, pc, #114	; 0x72
 7d0:	6e690000 	cdpvs	0, 6, cr0, cr9, cr0, {0}
 7d4:	705f7469 	subsvc	r7, pc, r9, ror #8
 7d8:	63667265 	cmnvs	r6, #1342177286	; 0x50000006
 7dc:	746e756f 	strbtvc	r7, [lr], #-1391	; 0xfffffa91
 7e0:	00737265 	rsbseq	r7, r3, r5, ror #4
 7e4:	000002b3 			; <UNDEFINED> instruction: 0x000002b3
 7e8:	74736572 	ldrbtvc	r6, [r3], #-1394	; 0xfffffa8e
 7ec:	5f65726f 	svcpl	0x0065726f
 7f0:	66726570 			; <UNDEFINED> instruction: 0x66726570
 7f4:	6e756f63 	cdpvs	15, 7, cr6, cr5, cr3, {3}
 7f8:	00726574 	rsbseq	r6, r2, r4, ror r5
 7fc:	000002c7 	andeq	r0, r0, r7, asr #5
 800:	65736572 	ldrbvs	r6, [r3, #-1394]!	; 0xfffffa8e
 804:	6f635f74 	svcvs	0x00635f74
 808:	65746e75 	ldrbvs	r6, [r4, #-3701]!	; 0xfffff18b
 80c:	02ef0072 	rsceq	r0, pc, #114	; 0x72
 810:	68630000 	stmdavs	r3!, {}^	; <UNPREDICTABLE>
 814:	65676e61 	strbvs	r6, [r7, #-3681]!	; 0xfffff19f
 818:	6e75725f 	mrcvs	2, 3, r7, cr5, cr15, {2}
 81c:	656d6974 	strbvs	r6, [sp, #-2420]!	; 0xfffff68c
 820:	766e655f 			; <UNDEFINED> instruction: 0x766e655f
 824:	00038100 	andeq	r8, r3, r0, lsl #2
 828:	6c656400 	cfstrdvs	mvd6, [r5], #-0
 82c:	755f7961 	ldrbvc	r7, [pc, #-2401]	; fffffed3 <__bss_end+0xffffc66b>
 830:	03d60073 	bicseq	r0, r6, #115	; 0x73
 834:	65640000 	strbvs	r0, [r4, #-0]!
 838:	5f79616c 	svcpl	0x0079616c
 83c:	ff00736d 			; <UNDEFINED> instruction: 0xff00736d
 840:	69000003 	stmdbvs	r0, {r0, r1}
 844:	6e695f6f 	cdpvs	15, 6, cr5, cr9, cr15, {3}
 848:	14007469 	strne	r7, [r0], #-1129	; 0xfffffb97
 84c:	69000004 	stmdbvs	r0, {r2}
 850:	6e695f6f 	cdpvs	15, 6, cr5, cr9, cr15, {3}
 854:	685f7469 	ldmdavs	pc, {r0, r3, r5, r6, sl, ip, sp, lr}^	; <UNPREDICTABLE>
 858:	00686769 	rsbeq	r6, r8, r9, ror #14
 85c:	0000043e 	andeq	r0, r0, lr, lsr r4
 860:	695f6f69 	ldmdbvs	pc, {r0, r3, r5, r6, r8, r9, sl, fp, sp, lr}^	; <UNPREDICTABLE>
 864:	5f74696e 	svcpl	0x0074696e
 868:	00776f6c 	rsbseq	r6, r7, ip, ror #30
 86c:	00000468 	andeq	r0, r0, r8, ror #8
 870:	685f6f69 	ldmdavs	pc, {r0, r3, r5, r6, r8, r9, sl, fp, sp, lr}^	; <UNPREDICTABLE>
 874:	00686769 	rsbeq	r6, r8, r9, ror #14
 878:	00000000 	andeq	r0, r0, r0
 87c:	00000045 	andeq	r0, r0, r5, asr #32
 880:	68430002 	stmdavs	r3, {r1}^
 884:	01690000 	cmneq	r9, r0
 888:	00f20000 	rscseq	r0, r2, r0
 88c:	61730000 	cmnvs	r3, r0
 890:	6d5f6576 	cfldr64vs	mvdx6, [pc, #-472]	; 6c0 <__turn_mmu_on+0x80>
 894:	735f756d 	cmpvc	pc, #457179136	; 0x1b400000
 898:	65746174 	ldrbvs	r6, [r4, #-372]!	; 0xfffffe8c
 89c:	00011e00 	andeq	r1, r1, r0, lsl #28
 8a0:	73657200 	cmnvc	r5, #0, 4
 8a4:	65726f74 	ldrbvs	r6, [r2, #-3956]!	; 0xfffff08c
 8a8:	756d6d5f 	strbvc	r6, [sp, #-3423]!	; 0xfffff2a1
 8ac:	6174735f 	cmnvs	r4, pc, asr r3
 8b0:	44006574 	strmi	r6, [r0], #-1396	; 0xfffffa8c
 8b4:	73000001 	movwvc	r0, #1
 8b8:	745f7465 	ldrbvc	r7, [pc], #-1125	; 8c0 <mem_clk_plldisable+0x1c>
 8bc:	30726274 	rsbscc	r6, r2, r4, ror r2
 8c0:	00000000 	andeq	r0, r0, r0
 8c4:	00009a00 	andeq	r9, r0, r0, lsl #20
 8c8:	ac000200 	sfmge	f0, 4, [r0], {-0}
 8cc:	0e000069 	cdpeq	0, 0, cr0, cr0, cr9, {3}
 8d0:	33000004 	movwcc	r0, #4
 8d4:	5f000003 	svcpl	0x00000003
 8d8:	7661735f 			; <UNDEFINED> instruction: 0x7661735f
 8dc:	72705f65 	rsbsvc	r5, r0, #404	; 0x194
 8e0:	7365636f 	cmnvc	r5, #-1140850687	; 0xbc000001
 8e4:	5f726f73 	svcpl	0x00726f73
 8e8:	74617473 	strbtvc	r7, [r1], #-1139	; 0xfffffb8d
 8ec:	035f0065 	cmpeq	pc, #101	; 0x65
 8f0:	5f5f0000 	svcpl	0x005f0000
 8f4:	74736572 	ldrbtvc	r6, [r3], #-1394	; 0xfffffa8e
 8f8:	5f65726f 	svcpl	0x0065726f
 8fc:	636f7270 	cmnvs	pc, #112, 4
 900:	6f737365 	svcvs	0x00737365
 904:	74735f72 	ldrbtvc	r5, [r3], #-3954	; 0xfffff08e
 908:	00657461 	rsbeq	r7, r5, r1, ror #8
 90c:	00000385 	andeq	r0, r0, r5, lsl #7
 910:	5f6d656d 	svcpl	0x006d656d
 914:	74736572 	ldrbtvc	r6, [r3], #-1394	; 0xfffffa8e
 918:	5f65726f 	svcpl	0x0065726f
 91c:	636f7270 	cmnvs	pc, #112, 4
 920:	6f737365 	svcvs	0x00737365
 924:	74735f72 	ldrbtvc	r5, [r3], #-3954	; 0xfffff08e
 928:	00657461 	rsbeq	r7, r5, r1, ror #8
 92c:	000003ad 	andeq	r0, r0, sp, lsr #7
 930:	61736964 	cmnvs	r3, r4, ror #18
 934:	5f656c62 	svcpl	0x00656c62
 938:	68636163 	stmdavs	r3!, {r0, r1, r5, r6, r8, sp, lr}^
 93c:	6e695f65 	cdpvs	15, 6, cr5, cr9, cr5, {3}
 940:	696c6176 	stmdbvs	ip!, {r1, r2, r4, r5, r6, r8, sp, lr}^
 944:	65746164 	ldrbvs	r6, [r4, #-356]!	; 0xfffffe9c
 948:	0003d700 	andeq	sp, r3, r0, lsl #14
 94c:	74657300 	strbtvc	r7, [r5], #-768	; 0xfffffd00
 950:	706f635f 	rsbvc	r6, pc, pc, asr r3	; <UNPREDICTABLE>
 954:	645f6f72 	ldrbvs	r6, [pc], #-3954	; 95c <mem_clk_setdiv>
 958:	75616665 	strbvc	r6, [r1, #-1637]!	; 0xfffff99b
 95c:	0000746c 	andeq	r7, r0, ip, ror #8
 960:	Address 0x00000960 is out of bounds.


Disassembly of section .debug_pubtypes:

00000000 <.debug_pubtypes>:
       0:	0000007a 	andeq	r0, r0, sl, ror r0
       4:	00000002 	andeq	r0, r0, r2
       8:	06c80000 	strbeq	r0, [r8], r0
       c:	002c0000 	eoreq	r0, ip, r0
      10:	5f5f0000 	svcpl	0x005f0000
      14:	4c003875 	stcmi	8, cr3, [r0], {117}	; 0x75
      18:	5f000000 	svcpl	0x00000000
      1c:	3233735f 	eorscc	r7, r3, #2080374785	; 0x7c000001
      20:	00005e00 	andeq	r5, r0, r0, lsl #28
      24:	755f5f00 	ldrbvc	r5, [pc, #-3840]	; fffff12c <__bss_end+0xffffb8c4>
      28:	7e003233 	mcrvc	2, 0, r3, cr0, cr3, {1}
      2c:	73000000 	movwvc	r0, #0
      30:	64657661 	strbtvs	r7, [r5], #-1633	; 0xfffff99f
      34:	6e6f635f 	mcrvs	3, 3, r6, cr15, cr15, {2}
      38:	74786574 	ldrbtvc	r6, [r8], #-1396	; 0xfffffa8c
      3c:	00034900 	andeq	r4, r3, r0, lsl #18
      40:	6b6c6300 	blvs	1b18c48 <__bss_end+0x1b153e0>
      44:	7669645f 			; <UNDEFINED> instruction: 0x7669645f
      48:	ab00745f 	blge	1d1cc <__bss_end+0x19964>
      4c:	70000003 	andvc	r0, r0, r3
      50:	665f6c6c 	ldrbvs	r6, [pc], -ip, ror #24
      54:	6f746361 	svcvs	0x00746361
      58:	00745f72 	rsbseq	r5, r4, r2, ror pc
      5c:	000003fe 	strdeq	r0, [r0], -lr
      60:	5f756d6d 	svcpl	0x00756d6d
      64:	74617473 	strbtvc	r7, [r1], #-1139	; 0xfffffb8d
      68:	04880065 	streq	r0, [r8], #101	; 0x65
      6c:	77610000 	strbvc	r0, [r1, -r0]!
      70:	6d656d5f 	stclvs	13, cr6, [r5, #-380]!	; 0xfffffe84
      74:	7261705f 	rsbvc	r7, r1, #95	; 0x5f
      78:	00000061 	andeq	r0, r0, r1, rrx
      7c:	000e0000 	andeq	r0, lr, r0
      80:	00020000 	andeq	r0, r2, r0
      84:	000006c8 	andeq	r0, r0, r8, asr #13
      88:	000000cf 	andeq	r0, r0, pc, asr #1
      8c:	00000000 	andeq	r0, r0, r0
      90:	0000004b 	andeq	r0, r0, fp, asr #32
      94:	08040002 	stmdaeq	r4, {r1}
      98:	035a0000 	cmpeq	sl, #0
      9c:	00410000 	subeq	r0, r1, r0
      a0:	5f5f0000 	svcpl	0x005f0000
      a4:	00323373 	eorseq	r3, r2, r3, ror r3
      a8:	00000053 	andeq	r0, r0, r3, asr r0
      ac:	33755f5f 	cmncc	r5, #380	; 0x17c
      b0:	00880032 	addeq	r0, r8, r2, lsr r0
      b4:	6e690000 	cdpvs	0, 6, cr0, cr9, cr0, {0}
      b8:	72726574 	rsbsvc	r6, r2, #116, 10	; 0x1d000000
      bc:	5f747075 	svcpl	0x00747075
      c0:	72756f73 	rsbsvc	r6, r5, #460	; 0x1cc
      c4:	655f6563 	ldrbvs	r6, [pc, #-1379]	; fffffb69 <__bss_end+0xffffc301>
      c8:	0000eb00 	andeq	lr, r0, r0, lsl #22
      cc:	6d656d00 	stclvs	13, cr6, [r5, #-0]
      d0:	746e695f 	strbtvc	r6, [lr], #-2399	; 0xfffff6a1
      d4:	6765725f 			; <UNDEFINED> instruction: 0x6765725f
      d8:	0000745f 	andeq	r7, r0, pc, asr r4
      dc:	42000000 	andmi	r0, r0, #0
      e0:	02000000 	andeq	r0, r0, #0
      e4:	000b5e00 	andeq	r5, fp, r0, lsl #28
      e8:	00040900 	andeq	r0, r4, r0, lsl #18
      ec:	00004800 	andeq	r4, r0, r0, lsl #16
      f0:	755f5f00 	ldrbvc	r5, [pc, #-3840]	; fffff1f8 <__bss_end+0xffffb990>
      f4:	7d003233 	sfmvc	f3, 4, [r0, #-204]	; 0xffffff34
      f8:	5f000000 	svcpl	0x00000000
      fc:	4154535f 	cmpmi	r4, pc, asr r3
     100:	5942444e 	stmdbpl	r2, {r1, r2, r3, r6, sl, lr}^
     104:	524d545f 	subpl	r5, sp, #1593835520	; 0x5f000000
     108:	4745525f 	smlsldmi	r5, r5, pc, r2	; <UNPREDICTABLE>
     10c:	00037100 	andeq	r7, r3, r0, lsl #2
     110:	6d5f5f00 	ldclvs	15, cr5, [pc, #-0]	; 118 <__suspend_start+0x118>
     114:	745f6d65 	ldrbvc	r6, [pc], #-3429	; 11c <__suspend_start+0x11c>
     118:	725f726d 	subsvc	r7, pc, #-805306362	; 0xd0000006
     11c:	745f6765 	ldrbvc	r6, [pc], #-1893	; 124 <__suspend_start+0x124>
     120:	00000000 	andeq	r0, r0, r0
     124:	00092e00 	andeq	r2, r9, r0, lsl #28
     128:	67000200 	strvs	r0, [r0, -r0, lsl #4]
     12c:	8500000f 	strhi	r0, [r0, #-15]
     130:	2c000020 	stccs	0, cr0, [r0], {32}
     134:	5f000000 	svcpl	0x00000000
     138:	0038755f 	eorseq	r7, r8, pc, asr r5
     13c:	0000004c 	andeq	r0, r0, ip, asr #32
     140:	33735f5f 	cmncc	r3, #380	; 0x17c
     144:	005e0032 	subseq	r0, lr, r2, lsr r0
     148:	5f5f0000 	svcpl	0x005f0000
     14c:	00323375 	eorseq	r3, r2, r5, ror r3
     150:	0000007e 	andeq	r0, r0, lr, ror r0
     154:	5f6b6c63 	svcpl	0x006b6c63
     158:	5f766964 	svcpl	0x00766964
     15c:	00e00074 	rsceq	r0, r0, r4, ror r0
     160:	6c700000 	ldclvs	0, cr0, [r0], #-0
     164:	61665f6c 	cmnvs	r6, ip, ror #30
     168:	726f7463 	rsbvc	r7, pc, #1660944384	; 0x63000000
     16c:	3300745f 	movwcc	r7, #1119	; 0x45f
     170:	5f000001 	svcpl	0x00000001
     174:	43435f5f 	movtmi	r5, #16223	; 0x3f5f
     178:	505f554d 	subspl	r5, pc, sp, asr #10
     17c:	5f314c4c 	svcpl	0x00314c4c
     180:	45524f43 	ldrbmi	r4, [r2, #-3907]	; 0xfffff0bd
     184:	4745525f 	smlsldmi	r5, r5, pc, r2	; <UNPREDICTABLE>
     188:	30303030 	eorscc	r3, r0, r0, lsr r0
     18c:	00022e00 	andeq	r2, r2, r0, lsl #28
     190:	635f5f00 	cmpvs	pc, #0, 30
     194:	5f756d63 	svcpl	0x00756d63
     198:	316c6c70 	smccc	50880	; 0xc6c0
     19c:	726f635f 	rsbvc	r6, pc, #2080374785	; 0x7c000001
     1a0:	65725f65 	ldrbvs	r5, [r2, #-3941]!	; 0xfffff09b
     1a4:	30303067 	eorscc	r3, r0, r7, rrx
     1a8:	00745f30 	rsbseq	r5, r4, r0, lsr pc
     1ac:	00000239 	andeq	r0, r0, r9, lsr r2
     1b0:	43435f5f 	movtmi	r5, #16223	; 0x3f5f
     1b4:	505f554d 	subspl	r5, pc, sp, asr #10
     1b8:	5f314c4c 	svcpl	0x00314c4c
     1bc:	494e5554 	stmdbmi	lr, {r2, r4, r6, r8, sl, ip, lr}^
     1c0:	525f474e 	subspl	r4, pc, #20447232	; 0x1380000
     1c4:	30304745 	eorscc	r4, r0, r5, asr #14
     1c8:	ac003430 	cfstrsge	mvf3, [r0], {48}	; 0x30
     1cc:	5f000002 	svcpl	0x00000002
     1d0:	6d63635f 	stclvs	3, cr6, [r3, #-380]!	; 0xfffffe84
     1d4:	6c705f75 	ldclvs	15, cr5, [r0], #-468	; 0xfffffe2c
     1d8:	745f316c 	ldrbvc	r3, [pc], #-364	; 1e0 <save_sp>
     1dc:	6e696e75 	mcrvs	14, 3, r6, cr9, cr5, {3}
     1e0:	65725f67 	ldrbvs	r5, [r2, #-3943]!	; 0xfffff099
     1e4:	30303067 	eorscc	r3, r0, r7, rrx
     1e8:	00745f34 	rsbseq	r5, r4, r4, lsr pc
     1ec:	000002b7 			; <UNDEFINED> instruction: 0x000002b7
     1f0:	43435f5f 	movtmi	r5, #16223	; 0x3f5f
     1f4:	505f554d 	subspl	r5, pc, sp, asr #10
     1f8:	5f324c4c 	svcpl	0x00324c4c
     1fc:	49445541 	stmdbmi	r4, {r0, r6, r8, sl, ip, lr}^
     200:	45525f4f 	ldrbmi	r5, [r2, #-3919]	; 0xfffff0b1
     204:	30303047 	eorscc	r3, r0, r7, asr #32
     208:	035d0038 	cmpeq	sp, #56	; 0x38
     20c:	5f5f0000 	svcpl	0x005f0000
     210:	756d6363 	strbvc	r6, [sp, #-867]!	; 0xfffffc9d
     214:	6c6c705f 	stclvs	0, cr7, [ip], #-380	; 0xfffffe84
     218:	75615f32 	strbvc	r5, [r1, #-3890]!	; 0xfffff0ce
     21c:	5f6f6964 	svcpl	0x006f6964
     220:	30676572 	rsbcc	r6, r7, r2, ror r5
     224:	5f383030 	svcpl	0x00383030
     228:	03680074 	cmneq	r8, #116	; 0x74
     22c:	5f5f0000 	svcpl	0x005f0000
     230:	554d4343 	strbpl	r4, [sp, #-835]	; 0xfffffcbd
     234:	4c4c505f 	mcrrmi	0, 5, r5, ip, cr15
     238:	55545f32 	ldrbpl	r5, [r4, #-3890]	; 0xfffff0ce
     23c:	474e494e 	strbmi	r4, [lr, -lr, asr #18]
     240:	4745525f 	smlsldmi	r5, r5, pc, r2	; <UNPREDICTABLE>
     244:	43303030 	teqmi	r0, #48	; 0x30
     248:	0003db00 	andeq	sp, r3, r0, lsl #22
     24c:	635f5f00 	cmpvs	pc, #0, 30
     250:	5f756d63 	svcpl	0x00756d63
     254:	326c6c70 	rsbcc	r6, ip, #112, 24	; 0x7000
     258:	6e75745f 	mrcvs	4, 3, r7, cr5, cr15, {2}
     25c:	5f676e69 	svcpl	0x00676e69
     260:	30676572 	rsbcc	r6, r7, r2, ror r5
     264:	5f633030 	svcpl	0x00633030
     268:	03e60074 	mvneq	r0, #116	; 0x74
     26c:	5f5f0000 	svcpl	0x005f0000
     270:	554d4343 	strbpl	r4, [sp, #-835]	; 0xfffffcbd
     274:	4c4c505f 	mcrrmi	0, 5, r5, ip, cr15
     278:	49565f33 	ldmdbmi	r6, {r0, r1, r4, r5, r8, r9, sl, fp, ip, lr}^
     27c:	5f4f4544 	svcpl	0x004f4544
     280:	30474552 	subcc	r4, r7, r2, asr r5
     284:	00303130 	eorseq	r3, r0, r0, lsr r1
     288:	000004ae 	andeq	r0, r0, lr, lsr #9
     28c:	63635f5f 	cmnvs	r3, #380	; 0x17c
     290:	705f756d 	subsvc	r7, pc, sp, ror #10
     294:	5f336c6c 	svcpl	0x00336c6c
     298:	65646976 	strbvs	r6, [r4, #-2422]!	; 0xfffff68a
     29c:	65725f6f 	ldrbvs	r5, [r2, #-3951]!	; 0xfffff091
     2a0:	31303067 	teqcc	r0, r7, rrx
     2a4:	00745f30 	rsbseq	r5, r4, r0, lsr pc
     2a8:	000004b9 			; <UNDEFINED> instruction: 0x000004b9
     2ac:	43435f5f 	movtmi	r5, #16223	; 0x3f5f
     2b0:	505f554d 	subspl	r5, pc, sp, asr #10
     2b4:	5f344c4c 	svcpl	0x00344c4c
     2b8:	525f4556 	subspl	r4, pc, #360710144	; 0x15800000
     2bc:	30304745 	eorscc	r4, r0, r5, asr #14
     2c0:	b4003831 	strlt	r3, [r0], #-2097	; 0xfffff7cf
     2c4:	5f000005 	svcpl	0x00000005
     2c8:	6d63635f 	stclvs	3, cr6, [r3, #-380]!	; 0xfffffe84
     2cc:	6c705f75 	ldclvs	15, cr5, [r0], #-468	; 0xfffffe2c
     2d0:	765f346c 	ldrbvc	r3, [pc], -ip, ror #8
     2d4:	65725f65 	ldrbvs	r5, [r2, #-3941]!	; 0xfffff09b
     2d8:	31303067 	teqcc	r0, r7, rrx
     2dc:	00745f38 	rsbseq	r5, r4, r8, lsr pc
     2e0:	000005bf 			; <UNDEFINED> instruction: 0x000005bf
     2e4:	43435f5f 	movtmi	r5, #16223	; 0x3f5f
     2e8:	505f554d 	subspl	r5, pc, sp, asr #10
     2ec:	5f354c4c 	svcpl	0x00354c4c
     2f0:	5f524444 	svcpl	0x00524444
     2f4:	30474552 	subcc	r4, r7, r2, asr r5
     2f8:	00303230 	eorseq	r3, r0, r0, lsr r2
     2fc:	000006cb 	andeq	r0, r0, fp, asr #13
     300:	63635f5f 	cmnvs	r3, #380	; 0x17c
     304:	705f756d 	subsvc	r7, pc, sp, ror #10
     308:	5f356c6c 	svcpl	0x00356c6c
     30c:	5f726464 	svcpl	0x00726464
     310:	30676572 	rsbcc	r6, r7, r2, ror r5
     314:	5f303230 	svcpl	0x00303230
     318:	06d60074 			; <UNDEFINED> instruction: 0x06d60074
     31c:	5f5f0000 	svcpl	0x005f0000
     320:	554d4343 	strbpl	r4, [sp, #-835]	; 0xfffffcbd
     324:	4c4c505f 	mcrrmi	0, 5, r5, ip, cr15
     328:	55545f35 	ldrbpl	r5, [r4, #-3893]	; 0xfffff0cb
     32c:	474e494e 	strbmi	r4, [lr, -lr, asr #18]
     330:	4745525f 	smlsldmi	r5, r5, pc, r2	; <UNPREDICTABLE>
     334:	34323030 	ldrtcc	r3, [r2], #-48	; 0xffffffd0
     338:	00075a00 	andeq	r5, r7, r0, lsl #20
     33c:	635f5f00 	cmpvs	pc, #0, 30
     340:	5f756d63 	svcpl	0x00756d63
     344:	356c6c70 	strbcc	r6, [ip, #-3184]!	; 0xfffff390
     348:	6e75745f 	mrcvs	4, 3, r7, cr5, cr15, {2}
     34c:	5f676e69 	svcpl	0x00676e69
     350:	30676572 	rsbcc	r6, r7, r2, ror r5
     354:	5f343230 	svcpl	0x00343230
     358:	07650074 			; <UNDEFINED> instruction: 0x07650074
     35c:	5f5f0000 	svcpl	0x005f0000
     360:	554d4343 	strbpl	r4, [sp, #-835]	; 0xfffffcbd
     364:	4c4c505f 	mcrrmi	0, 5, r5, ip, cr15
     368:	41535f36 	cmpmi	r3, r6, lsr pc
     36c:	525f4154 	subspl	r4, pc, #84, 2
     370:	30304745 	eorscc	r4, r0, r5, asr #14
     374:	3e003832 	mcrcc	8, 0, r3, cr0, cr2, {1}
     378:	5f000008 	svcpl	0x00000008
     37c:	6d63635f 	stclvs	3, cr6, [r3, #-380]!	; 0xfffffe84
     380:	6c705f75 	ldclvs	15, cr5, [r0], #-468	; 0xfffffe2c
     384:	735f366c 	cmpvc	pc, #108, 12	; 0x6c00000
     388:	5f617461 	svcpl	0x00617461
     38c:	30676572 	rsbcc	r6, r7, r2, ror r5
     390:	5f383230 	svcpl	0x00383230
     394:	08490074 	stmdaeq	r9, {r2, r4, r5, r6}^
     398:	5f5f0000 	svcpl	0x005f0000
     39c:	554d4343 	strbpl	r4, [sp, #-835]	; 0xfffffcbd
     3a0:	4c4c505f 	mcrrmi	0, 5, r5, ip, cr15
     3a4:	49565f37 	ldmdbmi	r6, {r0, r1, r2, r4, r5, r8, r9, sl, fp, ip, lr}^
     3a8:	314f4544 	mrscc	r4, SPSR
     3ac:	4745525f 	smlsldmi	r5, r5, pc, r2	; <UNPREDICTABLE>
     3b0:	30333030 	eorscc	r3, r3, r0, lsr r0
     3b4:	00091100 	andeq	r1, r9, r0, lsl #2
     3b8:	635f5f00 	cmpvs	pc, #0, 30
     3bc:	5f756d63 	svcpl	0x00756d63
     3c0:	376c6c70 			; <UNDEFINED> instruction: 0x376c6c70
     3c4:	6469765f 	strbtvs	r7, [r9], #-1631	; 0xfffff9a1
     3c8:	5f316f65 	svcpl	0x00316f65
     3cc:	30676572 	rsbcc	r6, r7, r2, ror r5
     3d0:	5f303330 	svcpl	0x00303330
     3d4:	091c0074 	ldmdbeq	ip, {r2, r4, r5, r6}
     3d8:	5f5f0000 	svcpl	0x005f0000
     3dc:	554d4343 	strbpl	r4, [sp, #-835]	; 0xfffffcbd
     3e0:	4c4c505f 	mcrrmi	0, 5, r5, ip, cr15
     3e4:	55545f31 	ldrbpl	r5, [r4, #-3889]	; 0xfffff0cf
     3e8:	474e494e 	strbmi	r4, [lr, -lr, asr #18]
     3ec:	45525f32 	ldrbmi	r5, [r2, #-3890]	; 0xfffff0ce
     3f0:	33303047 	teqcc	r0, #71	; 0x47
     3f4:	098f0038 	stmibeq	pc, {r3, r4, r5}	; <UNPREDICTABLE>
     3f8:	5f5f0000 	svcpl	0x005f0000
     3fc:	756d6363 	strbvc	r6, [sp, #-867]!	; 0xfffffc9d
     400:	6c6c705f 	stclvs	0, cr7, [ip], #-380	; 0xfffffe84
     404:	75745f31 	ldrbvc	r5, [r4, #-3889]!	; 0xfffff0cf
     408:	676e696e 	strbvs	r6, [lr, -lr, ror #18]!
     40c:	65725f32 	ldrbvs	r5, [r2, #-3890]!	; 0xfffff0ce
     410:	33303067 	teqcc	r0, #103	; 0x67
     414:	00745f38 	rsbseq	r5, r4, r8, lsr pc
     418:	0000099a 	muleq	r0, sl, r9
     41c:	43435f5f 	movtmi	r5, #16223	; 0x3f5f
     420:	505f554d 	subspl	r5, pc, sp, asr #10
     424:	5f354c4c 	svcpl	0x00354c4c
     428:	494e5554 	stmdbmi	lr, {r2, r4, r6, r8, sl, ip, lr}^
     42c:	5f32474e 	svcpl	0x0032474e
     430:	30474552 	subcc	r4, r7, r2, asr r5
     434:	00433330 	subeq	r3, r3, r0, lsr r3
     438:	00000a0d 	andeq	r0, r0, sp, lsl #20
     43c:	63635f5f 	cmnvs	r3, #380	; 0x17c
     440:	705f756d 	subsvc	r7, pc, sp, ror #10
     444:	5f356c6c 	svcpl	0x00356c6c
     448:	696e7574 	stmdbvs	lr!, {r2, r4, r5, r6, r8, sl, ip, sp, lr}^
     44c:	5f32676e 	svcpl	0x0032676e
     450:	30676572 	rsbcc	r6, r7, r2, ror r5
     454:	5f633330 	svcpl	0x00633330
     458:	0a180074 	beq	600630 <__bss_end+0x5fcdc8>
     45c:	5f5f0000 	svcpl	0x005f0000
     460:	554d4343 	strbpl	r4, [sp, #-835]	; 0xfffffcbd
     464:	43534f5f 	cmpmi	r3, #380	; 0x17c
     468:	5f4d3432 	svcpl	0x004d3432
     46c:	30474552 	subcc	r4, r7, r2, asr r5
     470:	00303530 	eorseq	r3, r0, r0, lsr r5
     474:	00000acf 	andeq	r0, r0, pc, asr #21
     478:	63635f5f 	cmnvs	r3, #380	; 0x17c
     47c:	6f5f756d 	svcvs	0x005f756d
     480:	34326373 	ldrtcc	r6, [r2], #-883	; 0xfffffc8d
     484:	65725f6d 	ldrbvs	r5, [r2, #-3949]!	; 0xfffff093
     488:	35303067 	ldrcc	r3, [r0, #-103]!	; 0xffffff99
     48c:	00745f30 	rsbseq	r5, r4, r0, lsr pc
     490:	00000ada 	ldrdeq	r0, [r0], -sl
     494:	43435f5f 	movtmi	r5, #16223	; 0x3f5f
     498:	535f554d 	cmppl	pc, #322961408	; 0x13400000
     49c:	4c435359 	mcrrmi	3, 5, r5, r3, cr9
     4a0:	41525f4b 	cmpmi	r2, fp, asr #30
     4a4:	5f4f4954 	svcpl	0x004f4954
     4a8:	30474552 	subcc	r4, r7, r2, asr r5
     4ac:	00343530 	eorseq	r3, r4, r0, lsr r5
     4b0:	00000b6f 	andeq	r0, r0, pc, ror #22
     4b4:	63635f5f 	cmnvs	r3, #380	; 0x17c
     4b8:	735f756d 	cmpvc	pc, #457179136	; 0x1b400000
     4bc:	6c637379 	stclvs	3, cr7, [r3], #-484	; 0xfffffe1c
     4c0:	725f6c6b 	subsvc	r6, pc, #27392	; 0x6b00
     4c4:	6f697461 	svcvs	0x00697461
     4c8:	6765725f 			; <UNDEFINED> instruction: 0x6765725f
     4cc:	34353030 	ldrtcc	r3, [r5], #-48	; 0xffffffd0
     4d0:	7a00745f 	bvc	1d654 <__bss_end+0x19dec>
     4d4:	5f00000b 	svcpl	0x0000000b
     4d8:	4d43435f 	stclmi	3, cr4, [r3, #-380]	; 0xfffffe84
     4dc:	50415f55 	subpl	r5, r1, r5, asr pc
     4e0:	4c433142 	stfmie	f3, [r3], {66}	; 0x42
     4e4:	41525f4b 	cmpmi	r2, fp, asr #30
     4e8:	5f4f4954 	svcpl	0x004f4954
     4ec:	30474552 	subcc	r4, r7, r2, asr r5
     4f0:	00383530 	eorseq	r3, r8, r0, lsr r5
     4f4:	00000bed 	andeq	r0, r0, sp, ror #23
     4f8:	63635f5f 	cmnvs	r3, #380	; 0x17c
     4fc:	615f756d 	cmpvs	pc, sp, ror #10
     500:	63316270 	teqvs	r1, #112, 4
     504:	725f6b6c 	subsvc	r6, pc, #108, 22	; 0x1b000
     508:	6f697461 	svcvs	0x00697461
     50c:	6765725f 			; <UNDEFINED> instruction: 0x6765725f
     510:	38353030 	ldmdacc	r5!, {r4, r5, ip, sp}
     514:	f800745f 			; <UNDEFINED> instruction: 0xf800745f
     518:	5f00000b 	svcpl	0x0000000b
     51c:	4d43435f 	stclmi	3, cr4, [r3, #-380]	; 0xfffffe84
     520:	58415f55 	stmdapl	r1, {r0, r2, r4, r6, r8, r9, sl, fp, ip, lr}^
     524:	4b4c4349 	blmi	1311250 <__bss_end+0x130d9e8>
     528:	5441475f 	strbpl	r4, [r1], #-1887	; 0xfffff8a1
     52c:	45525f45 	ldrbmi	r5, [r2, #-3909]	; 0xfffff0bb
     530:	35303047 	ldrcc	r3, [r0, #-71]!	; 0xffffffb9
     534:	0c270063 	stceq	0, cr0, [r7], #-396	; 0xfffffe74
     538:	5f5f0000 	svcpl	0x005f0000
     53c:	756d6363 	strbvc	r6, [sp, #-867]!	; 0xfffffc9d
     540:	6978615f 	ldmdbvs	r8!, {r0, r1, r2, r3, r4, r6, r8, sp, lr}^
     544:	5f6b6c63 	svcpl	0x006b6c63
     548:	65746167 	ldrbvs	r6, [r4, #-359]!	; 0xfffffe99
     54c:	6765725f 			; <UNDEFINED> instruction: 0x6765725f
     550:	63353030 	teqvs	r5, #48	; 0x30
     554:	3200745f 	andcc	r7, r0, #1593835520	; 0x5f000000
     558:	5f00000c 	svcpl	0x0000000c
     55c:	4d43435f 	stclmi	3, cr4, [r3, #-380]	; 0xfffffe84
     560:	48415f55 	stmdami	r1, {r0, r2, r4, r6, r8, r9, sl, fp, ip, lr}^
     564:	4b4c4342 	blmi	1311274 <__bss_end+0x130da0c>
     568:	5441475f 	strbpl	r4, [r1], #-1887	; 0xfffff8a1
     56c:	525f3045 	subspl	r3, pc, #69	; 0x45
     570:	30304745 	eorscc	r4, r0, r5, asr #14
     574:	0b003036 	bleq	c654 <__bss_end+0x8dec>
     578:	5f00000e 	svcpl	0x0000000e
     57c:	6d63635f 	stclvs	3, cr6, [r3, #-380]!	; 0xfffffe84
     580:	68615f75 	stmdavs	r1!, {r0, r2, r4, r5, r6, r8, r9, sl, fp, ip, lr}^
     584:	6b6c6362 	blvs	1b19314 <__bss_end+0x1b15aac>
     588:	7461675f 	strbtvc	r6, [r1], #-1887	; 0xfffff8a1
     58c:	725f3065 	subsvc	r3, pc, #101	; 0x65
     590:	30306765 	eorscc	r6, r0, r5, ror #14
     594:	745f3036 	ldrbvc	r3, [pc], #-54	; 59c <mem_preload_tlb_nommu+0xb8>
     598:	000e1700 	andeq	r1, lr, r0, lsl #14
     59c:	435f5f00 	cmpmi	pc, #0, 30
     5a0:	5f554d43 	svcpl	0x00554d43
     5a4:	43424841 	movtmi	r4, #10305	; 0x2841
     5a8:	475f4b4c 	ldrbmi	r4, [pc, -ip, asr #22]
     5ac:	31455441 	mrscc	r5, SPSR
     5b0:	4745525f 	smlsldmi	r5, r5, pc, r2	; <UNPREDICTABLE>
     5b4:	34363030 	ldrtcc	r3, [r6], #-48	; 0xffffffd0
     5b8:	000f4500 	andeq	r4, pc, r0, lsl #10
     5bc:	635f5f00 	cmpvs	pc, #0, 30
     5c0:	5f756d63 	svcpl	0x00756d63
     5c4:	63626861 	cmnvs	r2, #6356992	; 0x610000
     5c8:	675f6b6c 	ldrbvs	r6, [pc, -ip, ror #22]
     5cc:	31657461 	cmncc	r5, r1, ror #8
     5d0:	6765725f 			; <UNDEFINED> instruction: 0x6765725f
     5d4:	34363030 	ldrtcc	r3, [r6], #-48	; 0xffffffd0
     5d8:	5100745f 	tstpl	r0, pc, asr r4
     5dc:	5f00000f 	svcpl	0x0000000f
     5e0:	4d43435f 	stclmi	3, cr4, [r3, #-380]	; 0xfffffe84
     5e4:	50415f55 	subpl	r5, r1, r5, asr pc
     5e8:	4c433042 	mcrrmi	0, 4, r3, r3, cr2
     5ec:	41475f4b 	mrsmi	r5, SPSR
     5f0:	525f4554 	subspl	r4, pc, #84, 10	; 0x15000000
     5f4:	30304745 	eorscc	r4, r0, r5, asr #14
     5f8:	13003836 	movwne	r3, #2102	; 0x836
     5fc:	5f000010 	svcpl	0x00000010
     600:	6d63635f 	stclvs	3, cr6, [r3, #-380]!	; 0xfffffe84
     604:	70615f75 	rsbvc	r5, r1, r5, ror pc
     608:	6c633062 	stclvs	0, cr3, [r3], #-392	; 0xfffffe78
     60c:	61675f6b 	cmnvs	r7, fp, ror #30
     610:	725f6574 	subsvc	r6, pc, #116, 10	; 0x1d000000
     614:	30306765 	eorscc	r6, r0, r5, ror #14
     618:	745f3836 	ldrbvc	r3, [pc], #-2102	; 620 <enable_mmu+0xc>
     61c:	00101f00 	andseq	r1, r0, r0, lsl #30
     620:	435f5f00 	cmpmi	pc, #0, 30
     624:	5f554d43 	svcpl	0x00554d43
     628:	31425041 	mrscc	r5, SPSR
     62c:	5f4b4c43 	svcpl	0x004b4c43
     630:	45544147 	ldrbmi	r4, [r4, #-327]	; 0xfffffeb9
     634:	4745525f 	smlsldmi	r5, r5, pc, r2	; <UNPREDICTABLE>
     638:	43363030 	teqmi	r6, #48	; 0x30
     63c:	0010cf00 	andseq	ip, r0, r0, lsl #30
     640:	635f5f00 	cmpvs	pc, #0, 30
     644:	5f756d63 	svcpl	0x00756d63
     648:	31627061 	cmncc	r2, r1, rrx
     64c:	5f6b6c63 	svcpl	0x006b6c63
     650:	65746167 	ldrbvs	r6, [r4, #-359]!	; 0xfffffe99
     654:	6765725f 			; <UNDEFINED> instruction: 0x6765725f
     658:	63363030 	teqvs	r6, #48	; 0x30
     65c:	db00745f 	blle	1d7e0 <__bss_end+0x19f78>
     660:	5f000010 	svcpl	0x00000010
     664:	4d43435f 	stclmi	3, cr4, [r3, #-380]	; 0xfffffe84
     668:	4f4d5f55 	svcmi	0x004d5f55
     66c:	454c5544 	strbmi	r5, [ip, #-1348]	; 0xfffffabc
     670:	4c435f30 	mcrrmi	15, 3, r5, r3, cr0
     674:	1167004b 	cmnne	r7, fp, asr #32
     678:	5f5f0000 	svcpl	0x005f0000
     67c:	756d6363 	strbvc	r6, [sp, #-867]!	; 0xfffffc9d
     680:	646f6d5f 	strbtvs	r6, [pc], #-3423	; 688 <__turn_mmu_on+0x48>
     684:	30656c75 	rsbcc	r6, r5, r5, ror ip
     688:	6b6c635f 	blvs	1b1940c <__bss_end+0x1b15ba4>
     68c:	7300745f 	movwvc	r7, #1119	; 0x45f
     690:	5f000011 	svcpl	0x00000011
     694:	4d43435f 	stclmi	3, cr4, [r3, #-380]	; 0xfffffe84
     698:	4f4d5f55 	svcmi	0x004d5f55
     69c:	454c5544 	strbmi	r5, [ip, #-1348]	; 0xfffffabc
     6a0:	4c435f31 	mcrrmi	15, 3, r5, r3, cr1
     6a4:	11c9004b 	bicne	r0, r9, fp, asr #32
     6a8:	5f5f0000 	svcpl	0x005f0000
     6ac:	756d6363 	strbvc	r6, [sp, #-867]!	; 0xfffffc9d
     6b0:	646f6d5f 	strbtvs	r6, [pc], #-3423	; 6b8 <__turn_mmu_on+0x78>
     6b4:	31656c75 	smccc	22213	; 0x56c5
     6b8:	6b6c635f 	blvs	1b1943c <__bss_end+0x1b15bd4>
     6bc:	d500745f 	strle	r7, [r0, #-1119]	; 0xfffffba1
     6c0:	5f000011 	svcpl	0x00000011
     6c4:	4d43435f 	stclmi	3, cr4, [r3, #-380]	; 0xfffffe84
     6c8:	454b5f55 	strbmi	r5, [fp, #-3925]	; 0xfffff0ab
     6cc:	44415059 	strbmi	r5, [r1], #-89	; 0xffffffa7
     6d0:	4b4c435f 	blmi	1311454 <__bss_end+0x130dbec>
     6d4:	4745525f 	smlsldmi	r5, r5, pc, r2	; <UNPREDICTABLE>
     6d8:	34433030 	strbcc	r3, [r3], #-48	; 0xffffffd0
     6dc:	00126100 	andseq	r6, r2, r0, lsl #2
     6e0:	635f5f00 	cmpvs	pc, #0, 30
     6e4:	5f756d63 	svcpl	0x00756d63
     6e8:	7079656b 	rsbsvc	r6, r9, fp, ror #10
     6ec:	635f6461 	cmpvs	pc, #1627389952	; 0x61000000
     6f0:	725f6b6c 	subsvc	r6, pc, #108, 22	; 0x1b000
     6f4:	30306765 	eorscc	r6, r0, r5, ror #14
     6f8:	745f3463 	ldrbvc	r3, [pc], #-1123	; 700 <mem_int_init+0x20>
     6fc:	00126d00 	andseq	r6, r2, r0, lsl #26
     700:	435f5f00 	cmpmi	pc, #0, 30
     704:	5f554d43 	svcpl	0x00554d43
     708:	5f425355 	svcpl	0x00425355
     70c:	5f4b4c43 	svcpl	0x004b4c43
     710:	30474552 	subcc	r4, r7, r2, asr r5
     714:	00434330 	subeq	r4, r3, r0, lsr r3
     718:	000012f9 	strdeq	r1, [r0], -r9
     71c:	63635f5f 	cmnvs	r3, #380	; 0x17c
     720:	755f756d 	ldrbvc	r7, [pc, #-1389]	; 1bb <__suspend_start+0x1bb>
     724:	635f6273 	cmpvs	pc, #805306375	; 0x30000007
     728:	725f6b6c 	subsvc	r6, pc, #108, 22	; 0x1b000
     72c:	30306765 	eorscc	r6, r0, r5, ror #14
     730:	745f6363 	ldrbvc	r6, [pc], #-867	; 738 <mem_int_init+0x58>
     734:	00130500 	andseq	r0, r3, r0, lsl #10
     738:	435f5f00 	cmpmi	pc, #0, 30
     73c:	5f554d43 	svcpl	0x00554d43
     740:	5f535047 	svcpl	0x00535047
     744:	5f4b4c43 	svcpl	0x004b4c43
     748:	30474552 	subcc	r4, r7, r2, asr r5
     74c:	00304430 	eorseq	r4, r0, r0, lsr r4
     750:	0000137f 	andeq	r1, r0, pc, ror r3
     754:	63635f5f 	cmnvs	r3, #380	; 0x17c
     758:	675f756d 	ldrbvs	r7, [pc, -sp, ror #10]
     75c:	635f7370 	cmpvs	pc, #112, 6	; 0xc0000001
     760:	725f6b6c 	subsvc	r6, pc, #108, 22	; 0x1b000
     764:	30306765 	eorscc	r6, r0, r5, ror #14
     768:	745f3064 	ldrbvc	r3, [pc], #-100	; 770 <mem_int_init+0x90>
     76c:	00138b00 	andseq	r8, r3, r0, lsl #22
     770:	435f5f00 	cmpmi	pc, #0, 30
     774:	5f554d43 	svcpl	0x00554d43
     778:	4d415244 	sfmmi	f5, 2, [r1, #-272]	; 0xfffffef0
     77c:	5441475f 	strbpl	r4, [r1], #-1887	; 0xfffff8a1
     780:	45525f45 	ldrbmi	r5, [r2, #-3909]	; 0xfffff0bb
     784:	30313047 	eorscc	r3, r1, r7, asr #32
     788:	145f0030 	ldrbne	r0, [pc], #-48	; 790 <mem_int_exit+0x1c>
     78c:	5f5f0000 	svcpl	0x005f0000
     790:	756d6363 	strbvc	r6, [sp, #-867]!	; 0xfffffc9d
     794:	6172645f 	cmnvs	r2, pc, asr r4
     798:	61675f6d 	cmnvs	r7, sp, ror #30
     79c:	725f6574 	subsvc	r6, pc, #116, 10	; 0x1d000000
     7a0:	31306765 	teqcc	r0, r5, ror #14
     7a4:	745f3030 	ldrbvc	r3, [pc], #-48	; 7ac <mem_int_exit+0x38>
     7a8:	00146b00 	andseq	r6, r4, r0, lsl #22
     7ac:	435f5f00 	cmpmi	pc, #0, 30
     7b0:	5f554d43 	svcpl	0x00554d43
     7b4:	45444546 	strbmi	r4, [r4, #-1350]	; 0xfffffaba
     7b8:	435f504d 	cmpmi	pc, #77	; 0x4d
     7bc:	e5004b4c 	str	r4, [r0, #-2892]	; 0xfffff4b4
     7c0:	5f000014 	svcpl	0x00000014
     7c4:	6d63635f 	stclvs	3, cr6, [r3, #-380]!	; 0xfffffe84
     7c8:	65665f75 	strbvs	r5, [r6, #-3957]!	; 0xfffff08b
     7cc:	706d6564 	rsbvc	r6, sp, r4, ror #10
     7d0:	6b6c635f 	blvs	1b19554 <__bss_end+0x1b15cec>
     7d4:	f100745f 			; <UNDEFINED> instruction: 0xf100745f
     7d8:	5f000014 	svcpl	0x00000014
     7dc:	4d43435f 	stclmi	3, cr4, [r3, #-380]	; 0xfffffe84
     7e0:	434c5f55 	movtmi	r5, #53077	; 0xcf55
     7e4:	30484344 	subcc	r4, r8, r4, asr #6
     7e8:	4b4c435f 	blmi	131156c <__bss_end+0x130dd04>
     7ec:	00156b00 	andseq	r6, r5, r0, lsl #22
     7f0:	635f5f00 	cmpvs	pc, #0, 30
     7f4:	5f756d63 	svcpl	0x00756d63
     7f8:	6364636c 	cmnvs	r4, #108, 6	; 0xb0000001
     7fc:	635f3068 	cmpvs	pc, #104	; 0x68
     800:	745f6b6c 	ldrbvc	r6, [pc], #-2924	; 808 <mem_enable_int+0x38>
     804:	00157700 	andseq	r7, r5, r0, lsl #14
     808:	435f5f00 	cmpmi	pc, #0, 30
     80c:	5f554d43 	svcpl	0x00554d43
     810:	4344434c 	movtmi	r4, #17228	; 0x434c
     814:	435f3148 	cmpmi	pc, #72, 2
     818:	27004b4c 	strcs	r4, [r0, -ip, asr #22]
     81c:	5f000016 	svcpl	0x00000016
     820:	6d63635f 	stclvs	3, cr6, [r3, #-380]!	; 0xfffffe84
     824:	636c5f75 	cmnvs	ip, #468	; 0x1d4
     828:	31686364 	cmncc	r8, r4, ror #6
     82c:	6b6c635f 	blvs	1b195b0 <__bss_end+0x1b15d48>
     830:	3300745f 	movwcc	r7, #1119	; 0x45f
     834:	5f000016 	svcpl	0x00000016
     838:	4d43435f 	stclmi	3, cr4, [r3, #-380]	; 0xfffffe84
     83c:	53435f55 	movtpl	r5, #16213	; 0x3f55
     840:	4c435f49 	mcrrmi	15, 4, r5, r3, cr9
     844:	16ad004b 	strtne	r0, [sp], fp, asr #32
     848:	5f5f0000 	svcpl	0x005f0000
     84c:	756d6363 	strbvc	r6, [sp, #-867]!	; 0xfffffc9d
     850:	6973635f 	ldmdbvs	r3!, {r0, r1, r2, r3, r4, r6, r8, r9, sp, lr}^
     854:	6b6c635f 	blvs	1b195d8 <__bss_end+0x1b15d70>
     858:	b900745f 	stmdblt	r0, {r0, r1, r2, r3, r4, r6, sl, ip, sp, lr}
     85c:	5f000016 	svcpl	0x00000016
     860:	4d43435f 	stclmi	3, cr4, [r3, #-380]	; 0xfffffe84
     864:	45565f55 	ldrbmi	r5, [r6, #-3925]	; 0xfffff0ab
     868:	4b4c435f 	blmi	13115ec <__bss_end+0x130dd84>
     86c:	4745525f 	smlsldmi	r5, r5, pc, r2	; <UNPREDICTABLE>
     870:	43333130 	teqmi	r3, #48, 2
     874:	00172100 	andseq	r2, r7, r0, lsl #2
     878:	635f5f00 	cmpvs	pc, #0, 30
     87c:	5f756d63 	svcpl	0x00756d63
     880:	635f6576 	cmpvs	pc, #494927872	; 0x1d800000
     884:	725f6b6c 	subsvc	r6, pc, #108, 22	; 0x1b000
     888:	31306765 	teqcc	r0, r5, ror #14
     88c:	745f6333 	ldrbvc	r6, [pc], #-819	; 894 <mem_clk_init+0xc>
     890:	00172d00 	andseq	r2, r7, r0, lsl #26
     894:	435f5f00 	cmpmi	pc, #0, 30
     898:	5f554d43 	svcpl	0x00554d43
     89c:	41444441 	mrsmi	r4, SPSR
     8a0:	4b4c435f 	blmi	1311624 <__bss_end+0x130ddbc>
     8a4:	4745525f 	smlsldmi	r5, r5, pc, r2	; <UNPREDICTABLE>
     8a8:	30343130 	eorscc	r3, r4, r0, lsr r1
     8ac:	00175f00 	andseq	r5, r7, r0, lsl #30
     8b0:	635f5f00 	cmpvs	pc, #0, 30
     8b4:	5f756d63 	svcpl	0x00756d63
     8b8:	61646461 	cmnvs	r4, r1, ror #8
     8bc:	6b6c635f 	blvs	1b19640 <__bss_end+0x1b15dd8>
     8c0:	6765725f 			; <UNDEFINED> instruction: 0x6765725f
     8c4:	30343130 	eorscc	r3, r4, r0, lsr r1
     8c8:	6b00745f 	blvs	1da4c <__bss_end+0x1a1e4>
     8cc:	5f000017 	svcpl	0x00000017
     8d0:	4d43435f 	stclmi	3, cr4, [r3, #-380]	; 0xfffffe84
     8d4:	56415f55 			; <UNDEFINED> instruction: 0x56415f55
     8d8:	4c435f53 	mcrrmi	15, 5, r5, r3, cr3
     8dc:	45525f4b 	ldrbmi	r5, [r2, #-3915]	; 0xfffff0b5
     8e0:	34313047 	ldrtcc	r3, [r1], #-71	; 0xffffffb9
     8e4:	179d0034 			; <UNDEFINED> instruction: 0x179d0034
     8e8:	5f5f0000 	svcpl	0x005f0000
     8ec:	756d6363 	strbvc	r6, [sp, #-867]!	; 0xfffffc9d
     8f0:	7376615f 	cmnvc	r6, #-1073741801	; 0xc0000017
     8f4:	6b6c635f 	blvs	1b19678 <__bss_end+0x1b15e10>
     8f8:	6765725f 			; <UNDEFINED> instruction: 0x6765725f
     8fc:	34343130 	ldrtcc	r3, [r4], #-304	; 0xfffffed0
     900:	a900745f 	stmdbge	r0, {r0, r1, r2, r3, r4, r6, sl, ip, sp, lr}
     904:	5f000017 	svcpl	0x00000017
     908:	4d43435f 	stclmi	3, cr4, [r3, #-380]	; 0xfffffe84
     90c:	564c5f55 			; <UNDEFINED> instruction: 0x564c5f55
     910:	435f5344 	cmpmi	pc, #68, 6	; 0x10000001
     914:	525f4b4c 	subspl	r4, pc, #76, 22	; 0x13000
     918:	31304745 	teqcc	r0, r5, asr #14
     91c:	db004334 	blle	115f4 <__bss_end+0xdd8c>
     920:	5f000017 	svcpl	0x00000017
     924:	6d63635f 	stclvs	3, cr6, [r3, #-380]!	; 0xfffffe84
     928:	766c5f75 	uqsub16vc	r5, ip, r5
     92c:	635f7364 	cmpvs	pc, #100, 6	; 0x90000001
     930:	725f6b6c 	subsvc	r6, pc, #108, 22	; 0x1b000
     934:	31306765 	teqcc	r0, r5, ror #14
     938:	745f6334 	ldrbvc	r6, [pc], #-820	; 940 <mem_clk_pllenable+0x40>
     93c:	0017e700 	andseq	lr, r7, r0, lsl #14
     940:	435f5f00 	cmpmi	pc, #0, 30
     944:	5f554d43 	svcpl	0x00554d43
     948:	494d4448 	stmdbmi	sp, {r3, r6, sl, lr}^
     94c:	4b4c435f 	blmi	13116d0 <__bss_end+0x130de68>
     950:	4745525f 	smlsldmi	r5, r5, pc, r2	; <UNPREDICTABLE>
     954:	30353130 	eorscc	r3, r5, r0, lsr r1
     958:	00184f00 	andseq	r4, r8, r0, lsl #30
     95c:	635f5f00 	cmpvs	pc, #0, 30
     960:	5f756d63 	svcpl	0x00756d63
     964:	696d6468 	stmdbvs	sp!, {r3, r5, r6, sl, sp, lr}^
     968:	6b6c635f 	blvs	1b196ec <__bss_end+0x1b15e84>
     96c:	6765725f 			; <UNDEFINED> instruction: 0x6765725f
     970:	30353130 	eorscc	r3, r5, r0, lsr r1
     974:	5b00745f 	blpl	1daf8 <__bss_end+0x1a290>
     978:	5f000018 	svcpl	0x00000018
     97c:	4d43435f 	stclmi	3, cr4, [r3, #-380]	; 0xfffffe84
     980:	414d5f55 	cmpmi	sp, r5, asr pc
     984:	3034494c 	eorscc	r4, r4, ip, asr #18
     988:	4c435f30 	mcrrmi	15, 3, r5, r3, cr0
     98c:	45525f4b 	ldrbmi	r5, [r2, #-3915]	; 0xfffff0b5
     990:	35313047 	ldrcc	r3, [r1, #-71]!	; 0xffffffb9
     994:	18d50034 	ldmne	r5, {r2, r4, r5}^
     998:	5f5f0000 	svcpl	0x005f0000
     99c:	756d6363 	strbvc	r6, [sp, #-867]!	; 0xfffffc9d
     9a0:	6c616d5f 	stclvs	13, cr6, [r1], #-380	; 0xfffffe84
     9a4:	30303469 	eorscc	r3, r0, r9, ror #8
     9a8:	6b6c635f 	blvs	1b1972c <__bss_end+0x1b15ec4>
     9ac:	6765725f 			; <UNDEFINED> instruction: 0x6765725f
     9b0:	34353130 	ldrtcc	r3, [r5], #-304	; 0xfffffed0
     9b4:	e100745f 	tst	r0, pc, asr r4
     9b8:	5f000018 	svcpl	0x00000018
     9bc:	4d43435f 	stclmi	3, cr4, [r3, #-380]	; 0xfffffe84
     9c0:	424d5f55 	submi	r5, sp, #340	; 0x154
     9c4:	435f5355 	cmpmi	pc, #1409286145	; 0x54000001
     9c8:	525f4b4c 	subspl	r4, pc, #76, 22	; 0x13000
     9cc:	31304745 	teqcc	r0, r5, asr #14
     9d0:	6d004335 	stcvs	3, cr4, [r0, #-212]	; 0xffffff2c
     9d4:	5f000019 	svcpl	0x00000019
     9d8:	6d63635f 	stclvs	3, cr6, [r3, #-380]!	; 0xfffffe84
     9dc:	626d5f75 	rsbvs	r5, sp, #468	; 0x1d4
     9e0:	635f7375 	cmpvs	pc, #-738197503	; 0xd4000001
     9e4:	725f6b6c 	subsvc	r6, pc, #108, 22	; 0x1b000
     9e8:	31306765 	teqcc	r0, r5, ror #14
     9ec:	745f6335 	ldrbvc	r6, [pc], #-821	; 9f4 <mem_clk_getdiv+0x30>
     9f0:	00197900 	andseq	r7, r9, r0, lsl #18
     9f4:	435f5f00 	cmpmi	pc, #0, 30
     9f8:	5f554d43 	svcpl	0x00554d43
     9fc:	5f504549 	svcpl	0x00504549
     a00:	5f4b4c43 	svcpl	0x004b4c43
     a04:	30474552 	subcc	r4, r7, r2, asr r5
     a08:	00303631 	eorseq	r3, r0, r1, lsr r6
     a0c:	000019bd 			; <UNDEFINED> instruction: 0x000019bd
     a10:	63635f5f 	cmnvs	r3, #380	; 0x17c
     a14:	695f756d 	ldmdbvs	pc, {r0, r2, r3, r5, r6, r8, sl, ip, sp, lr}^	; <UNPREDICTABLE>
     a18:	635f7065 	cmpvs	pc, #101	; 0x65
     a1c:	725f6b6c 	subsvc	r6, pc, #108, 22	; 0x1b000
     a20:	31306765 	teqcc	r0, r5, ror #14
     a24:	745f3036 	ldrbvc	r3, [pc], #-54	; a2c <mem_clk_set_pll_factor+0x8>
     a28:	0019c900 	andseq	ip, r9, r0, lsl #18
     a2c:	435f5f00 	cmpmi	pc, #0, 30
     a30:	5f554d43 	svcpl	0x00554d43
     a34:	5f474552 	svcpl	0x00474552
     a38:	5453494c 	ldrbpl	r4, [r3], #-2380	; 0xfffff6b4
     a3c:	001f2500 	andseq	r2, pc, r0, lsl #10
     a40:	635f5f00 	cmpvs	pc, #0, 30
     a44:	5f756d63 	svcpl	0x00756d63
     a48:	5f676572 	svcpl	0x00676572
     a4c:	7473696c 	ldrbtvc	r6, [r3], #-2412	; 0xfffff694
     a50:	0000745f 	andeq	r7, r0, pc, asr r4
     a54:	43000000 	movwmi	r0, #0
     a58:	02000009 	andeq	r0, r0, #9
     a5c:	002fec00 	eoreq	lr, pc, r0, lsl #24
     a60:	00219600 	eoreq	r9, r1, r0, lsl #12
     a64:	00002c00 	andeq	r2, r0, r0, lsl #24
     a68:	755f5f00 	ldrbvc	r5, [pc, #-3840]	; fffffb70 <__bss_end+0xffffc308>
     a6c:	004c0038 	subeq	r0, ip, r8, lsr r0
     a70:	5f5f0000 	svcpl	0x005f0000
     a74:	00323373 	eorseq	r3, r2, r3, ror r3
     a78:	0000005e 	andeq	r0, r0, lr, asr r0
     a7c:	33755f5f 	cmncc	r5, #380	; 0x17c
     a80:	007e0032 	rsbseq	r0, lr, r2, lsr r0
     a84:	5f5f0000 	svcpl	0x005f0000
     a88:	4d43435f 	stclmi	3, cr4, [r3, #-380]	; 0xfffffe84
     a8c:	4c505f55 	mrrcmi	15, 5, r5, r0, cr5
     a90:	435f314c 	cmpmi	pc, #76, 2
     a94:	5f45524f 	svcpl	0x0045524f
     a98:	30474552 	subcc	r4, r7, r2, asr r5
     a9c:	00303030 	eorseq	r3, r0, r0, lsr r0
     aa0:	00000179 	andeq	r0, r0, r9, ror r1
     aa4:	63635f5f 	cmnvs	r3, #380	; 0x17c
     aa8:	705f756d 	subsvc	r7, pc, sp, ror #10
     aac:	5f316c6c 	svcpl	0x00316c6c
     ab0:	65726f63 	ldrbvs	r6, [r2, #-3939]!	; 0xfffff09d
     ab4:	6765725f 			; <UNDEFINED> instruction: 0x6765725f
     ab8:	30303030 	eorscc	r3, r0, r0, lsr r0
     abc:	8400745f 	strhi	r7, [r0], #-1119	; 0xfffffba1
     ac0:	5f000001 	svcpl	0x00000001
     ac4:	4d43435f 	stclmi	3, cr4, [r3, #-380]	; 0xfffffe84
     ac8:	4c505f55 	mrrcmi	15, 5, r5, r0, cr5
     acc:	545f314c 	ldrbpl	r3, [pc], #-332	; ad4 <mem_clk_dramgating+0x8>
     ad0:	4e494e55 	mcrmi	14, 2, r4, cr9, cr5, {2}
     ad4:	45525f47 	ldrbmi	r5, [r2, #-3911]	; 0xfffff0b9
     ad8:	30303047 	eorscc	r3, r0, r7, asr #32
     adc:	01f70034 	mvnseq	r0, r4, lsr r0
     ae0:	5f5f0000 	svcpl	0x005f0000
     ae4:	756d6363 	strbvc	r6, [sp, #-867]!	; 0xfffffc9d
     ae8:	6c6c705f 	stclvs	0, cr7, [ip], #-380	; 0xfffffe84
     aec:	75745f31 	ldrbvc	r5, [r4, #-3889]!	; 0xfffff0cf
     af0:	676e696e 	strbvs	r6, [lr, -lr, ror #18]!
     af4:	6765725f 			; <UNDEFINED> instruction: 0x6765725f
     af8:	34303030 	ldrtcc	r3, [r0], #-48	; 0xffffffd0
     afc:	0200745f 	andeq	r7, r0, #1593835520	; 0x5f000000
     b00:	5f000002 	svcpl	0x00000002
     b04:	4d43435f 	stclmi	3, cr4, [r3, #-380]	; 0xfffffe84
     b08:	4c505f55 	mrrcmi	15, 5, r5, r0, cr5
     b0c:	415f324c 	cmpmi	pc, ip, asr #4
     b10:	4f494455 	svcmi	0x00494455
     b14:	4745525f 	smlsldmi	r5, r5, pc, r2	; <UNPREDICTABLE>
     b18:	38303030 	ldmdacc	r0!, {r4, r5, ip, sp}
     b1c:	0002a800 	andeq	sl, r2, r0, lsl #16
     b20:	635f5f00 	cmpvs	pc, #0, 30
     b24:	5f756d63 	svcpl	0x00756d63
     b28:	326c6c70 	rsbcc	r6, ip, #112, 24	; 0x7000
     b2c:	6475615f 	ldrbtvs	r6, [r5], #-351	; 0xfffffea1
     b30:	725f6f69 	subsvc	r6, pc, #420	; 0x1a4
     b34:	30306765 	eorscc	r6, r0, r5, ror #14
     b38:	745f3830 	ldrbvc	r3, [pc], #-2096	; b40 <_mem_twi_soft_reset+0x44>
     b3c:	0002b300 	andeq	fp, r2, r0, lsl #6
     b40:	435f5f00 	cmpmi	pc, #0, 30
     b44:	5f554d43 	svcpl	0x00554d43
     b48:	324c4c50 	subcc	r4, ip, #80, 24	; 0x5000
     b4c:	4e55545f 	mrcmi	4, 2, r5, cr5, cr15, {2}
     b50:	5f474e49 	svcpl	0x00474e49
     b54:	30474552 	subcc	r4, r7, r2, asr r5
     b58:	00433030 	subeq	r3, r3, r0, lsr r0
     b5c:	00000326 	andeq	r0, r0, r6, lsr #6
     b60:	63635f5f 	cmnvs	r3, #380	; 0x17c
     b64:	705f756d 	subsvc	r7, pc, sp, ror #10
     b68:	5f326c6c 	svcpl	0x00326c6c
     b6c:	696e7574 	stmdbvs	lr!, {r2, r4, r5, r6, r8, sl, ip, sp, lr}^
     b70:	725f676e 	subsvc	r6, pc, #28835840	; 0x1b80000
     b74:	30306765 	eorscc	r6, r0, r5, ror #14
     b78:	745f6330 	ldrbvc	r6, [pc], #-816	; b80 <_mem_twi_soft_reset_nommu+0x30>
     b7c:	00033100 	andeq	r3, r3, r0, lsl #2
     b80:	435f5f00 	cmpmi	pc, #0, 30
     b84:	5f554d43 	svcpl	0x00554d43
     b88:	334c4c50 	movtcc	r4, #52304	; 0xcc50
     b8c:	4449565f 	strbmi	r5, [r9], #-1631	; 0xfffff9a1
     b90:	525f4f45 	subspl	r4, pc, #276	; 0x114
     b94:	30304745 	eorscc	r4, r0, r5, asr #14
     b98:	f9003031 			; <UNDEFINED> instruction: 0xf9003031
     b9c:	5f000003 	svcpl	0x00000003
     ba0:	6d63635f 	stclvs	3, cr6, [r3, #-380]!	; 0xfffffe84
     ba4:	6c705f75 	ldclvs	15, cr5, [r0], #-468	; 0xfffffe2c
     ba8:	765f336c 	ldrbvc	r3, [pc], -ip, ror #6
     bac:	6f656469 	svcvs	0x00656469
     bb0:	6765725f 			; <UNDEFINED> instruction: 0x6765725f
     bb4:	30313030 	eorscc	r3, r1, r0, lsr r0
     bb8:	0400745f 	streq	r7, [r0], #-1119	; 0xfffffba1
     bbc:	5f000004 	svcpl	0x00000004
     bc0:	4d43435f 	stclmi	3, cr4, [r3, #-380]	; 0xfffffe84
     bc4:	4c505f55 	mrrcmi	15, 5, r5, r0, cr5
     bc8:	565f344c 	ldrbpl	r3, [pc], -ip, asr #8
     bcc:	45525f45 	ldrbmi	r5, [r2, #-3909]	; 0xfffff0bb
     bd0:	31303047 	teqcc	r0, r7, asr #32
     bd4:	04ff0038 	ldrbteq	r0, [pc], #56	; bdc <_mem_twi_stop+0x38>
     bd8:	5f5f0000 	svcpl	0x005f0000
     bdc:	756d6363 	strbvc	r6, [sp, #-867]!	; 0xfffffc9d
     be0:	6c6c705f 	stclvs	0, cr7, [ip], #-380	; 0xfffffe84
     be4:	65765f34 	ldrbvs	r5, [r6, #-3892]!	; 0xfffff0cc
     be8:	6765725f 			; <UNDEFINED> instruction: 0x6765725f
     bec:	38313030 	ldmdacc	r1!, {r4, r5, ip, sp}
     bf0:	0a00745f 	beq	1dd74 <__bss_end+0x1a50c>
     bf4:	5f000005 	svcpl	0x00000005
     bf8:	4d43435f 	stclmi	3, cr4, [r3, #-380]	; 0xfffffe84
     bfc:	4c505f55 	mrrcmi	15, 5, r5, r0, cr5
     c00:	445f354c 	ldrbmi	r3, [pc], #-1356	; c08 <_mem_twi_stop+0x64>
     c04:	525f5244 	subspl	r5, pc, #68, 4	; 0x40000004
     c08:	30304745 	eorscc	r4, r0, r5, asr #14
     c0c:	16003032 			; <UNDEFINED> instruction: 0x16003032
     c10:	5f000006 	svcpl	0x00000006
     c14:	6d63635f 	stclvs	3, cr6, [r3, #-380]!	; 0xfffffe84
     c18:	6c705f75 	ldclvs	15, cr5, [r0], #-468	; 0xfffffe2c
     c1c:	645f356c 	ldrbvs	r3, [pc], #-1388	; c24 <_mem_twi_stop+0x80>
     c20:	725f7264 	subsvc	r7, pc, #100, 4	; 0x40000006
     c24:	30306765 	eorscc	r6, r0, r5, ror #14
     c28:	745f3032 	ldrbvc	r3, [pc], #-50	; c30 <_mem_twi_stop+0x8c>
     c2c:	00062100 	andeq	r2, r6, r0, lsl #2
     c30:	435f5f00 	cmpmi	pc, #0, 30
     c34:	5f554d43 	svcpl	0x00554d43
     c38:	354c4c50 	strbcc	r4, [ip, #-3152]	; 0xfffff3b0
     c3c:	4e55545f 	mrcmi	4, 2, r5, cr5, cr15, {2}
     c40:	5f474e49 	svcpl	0x00474e49
     c44:	30474552 	subcc	r4, r7, r2, asr r5
     c48:	00343230 	eorseq	r3, r4, r0, lsr r2
     c4c:	000006a5 	andeq	r0, r0, r5, lsr #13
     c50:	63635f5f 	cmnvs	r3, #380	; 0x17c
     c54:	705f756d 	subsvc	r7, pc, sp, ror #10
     c58:	5f356c6c 	svcpl	0x00356c6c
     c5c:	696e7574 	stmdbvs	lr!, {r2, r4, r5, r6, r8, sl, ip, sp, lr}^
     c60:	725f676e 	subsvc	r6, pc, #28835840	; 0x1b80000
     c64:	30306765 	eorscc	r6, r0, r5, ror #14
     c68:	745f3432 	ldrbvc	r3, [pc], #-1074	; c70 <mem_twi_init+0x28>
     c6c:	0006b000 	andeq	fp, r6, r0
     c70:	435f5f00 	cmpmi	pc, #0, 30
     c74:	5f554d43 	svcpl	0x00554d43
     c78:	364c4c50 			; <UNDEFINED> instruction: 0x364c4c50
     c7c:	5441535f 	strbpl	r5, [r1], #-863	; 0xfffffca1
     c80:	45525f41 	ldrbmi	r5, [r2, #-3905]	; 0xfffff0bf
     c84:	32303047 	eorscc	r3, r0, #71	; 0x47
     c88:	07890038 			; <UNDEFINED> instruction: 0x07890038
     c8c:	5f5f0000 	svcpl	0x005f0000
     c90:	756d6363 	strbvc	r6, [sp, #-867]!	; 0xfffffc9d
     c94:	6c6c705f 	stclvs	0, cr7, [ip], #-380	; 0xfffffe84
     c98:	61735f36 	cmnvs	r3, r6, lsr pc
     c9c:	725f6174 	subsvc	r6, pc, #116, 2
     ca0:	30306765 	eorscc	r6, r0, r5, ror #14
     ca4:	745f3832 	ldrbvc	r3, [pc], #-2098	; cac <mem_twi_exit+0x14>
     ca8:	00079400 	andeq	r9, r7, r0, lsl #8
     cac:	435f5f00 	cmpmi	pc, #0, 30
     cb0:	5f554d43 	svcpl	0x00554d43
     cb4:	374c4c50 	smlsldcc	r4, ip, r0, ip
     cb8:	4449565f 	strbmi	r5, [r9], #-1631	; 0xfffff9a1
     cbc:	5f314f45 	svcpl	0x00314f45
     cc0:	30474552 	subcc	r4, r7, r2, asr r5
     cc4:	00303330 	eorseq	r3, r0, r0, lsr r3
     cc8:	0000085c 	andeq	r0, r0, ip, asr r8
     ccc:	63635f5f 	cmnvs	r3, #380	; 0x17c
     cd0:	705f756d 	subsvc	r7, pc, sp, ror #10
     cd4:	5f376c6c 	svcpl	0x00376c6c
     cd8:	65646976 	strbvs	r6, [r4, #-2422]!	; 0xfffff68a
     cdc:	725f316f 	subsvc	r3, pc, #-1073741797	; 0xc000001b
     ce0:	30306765 	eorscc	r6, r0, r5, ror #14
     ce4:	745f3033 	ldrbvc	r3, [pc], #-51	; cec <setup_twi_env+0x4>
     ce8:	00086700 	andeq	r6, r8, r0, lsl #14
     cec:	435f5f00 	cmpmi	pc, #0, 30
     cf0:	5f554d43 	svcpl	0x00554d43
     cf4:	314c4c50 	cmpcc	ip, r0, asr ip
     cf8:	4e55545f 	mrcmi	4, 2, r5, cr5, cr15, {2}
     cfc:	32474e49 	subcc	r4, r7, #1168	; 0x490
     d00:	4745525f 	smlsldmi	r5, r5, pc, r2	; <UNPREDICTABLE>
     d04:	38333030 	ldmdacc	r3!, {r4, r5, ip, sp}
     d08:	0008da00 	andeq	sp, r8, r0, lsl #20
     d0c:	635f5f00 	cmpvs	pc, #0, 30
     d10:	5f756d63 	svcpl	0x00756d63
     d14:	316c6c70 	smccc	50880	; 0xc6c0
     d18:	6e75745f 	mrcvs	4, 3, r7, cr5, cr15, {2}
     d1c:	32676e69 	rsbcc	r6, r7, #1680	; 0x690
     d20:	6765725f 			; <UNDEFINED> instruction: 0x6765725f
     d24:	38333030 	ldmdacc	r3!, {r4, r5, ip, sp}
     d28:	e500745f 	str	r7, [r0, #-1119]	; 0xfffffba1
     d2c:	5f000008 	svcpl	0x00000008
     d30:	4d43435f 	stclmi	3, cr4, [r3, #-380]	; 0xfffffe84
     d34:	4c505f55 	mrrcmi	15, 5, r5, r0, cr5
     d38:	545f354c 	ldrbpl	r3, [pc], #-1356	; d40 <twi_byte_rw+0x8>
     d3c:	4e494e55 	mcrmi	14, 2, r4, cr9, cr5, {2}
     d40:	525f3247 	subspl	r3, pc, #1879048196	; 0x70000004
     d44:	30304745 	eorscc	r4, r0, r5, asr #14
     d48:	58004333 	stmdapl	r0, {r0, r1, r4, r5, r8, r9, lr}
     d4c:	5f000009 	svcpl	0x00000009
     d50:	6d63635f 	stclvs	3, cr6, [r3, #-380]!	; 0xfffffe84
     d54:	6c705f75 	ldclvs	15, cr5, [r0], #-468	; 0xfffffe2c
     d58:	745f356c 	ldrbvc	r3, [pc], #-1388	; d60 <twi_byte_rw+0x28>
     d5c:	6e696e75 	mcrvs	14, 3, r6, cr9, cr5, {3}
     d60:	725f3267 	subsvc	r3, pc, #1879048198	; 0x70000006
     d64:	30306765 	eorscc	r6, r0, r5, ror #14
     d68:	745f6333 	ldrbvc	r6, [pc], #-819	; d70 <twi_byte_rw+0x38>
     d6c:	00096300 	andeq	r6, r9, r0, lsl #6
     d70:	435f5f00 	cmpmi	pc, #0, 30
     d74:	5f554d43 	svcpl	0x00554d43
     d78:	3243534f 	subcc	r5, r3, #1006632961	; 0x3c000001
     d7c:	525f4d34 	subspl	r4, pc, #52, 26	; 0xd00
     d80:	30304745 	eorscc	r4, r0, r5, asr #14
     d84:	1a003035 	bne	ce60 <__bss_end+0x95f8>
     d88:	5f00000a 	svcpl	0x0000000a
     d8c:	6d63635f 	stclvs	3, cr6, [r3, #-380]!	; 0xfffffe84
     d90:	736f5f75 	cmnvc	pc, #468	; 0x1d4
     d94:	6d343263 	lfmvs	f3, 4, [r4, #-396]!	; 0xfffffe74
     d98:	6765725f 			; <UNDEFINED> instruction: 0x6765725f
     d9c:	30353030 	eorscc	r3, r5, r0, lsr r0
     da0:	2500745f 	strcs	r7, [r0, #-1119]	; 0xfffffba1
     da4:	5f00000a 	svcpl	0x0000000a
     da8:	4d43435f 	stclmi	3, cr4, [r3, #-380]	; 0xfffffe84
     dac:	59535f55 	ldmdbpl	r3, {r0, r2, r4, r6, r8, r9, sl, fp, ip, lr}^
     db0:	4b4c4353 	blmi	1311b04 <__bss_end+0x130e29c>
     db4:	5441525f 	strbpl	r5, [r1], #-607	; 0xfffffda1
     db8:	525f4f49 	subspl	r4, pc, #292	; 0x124
     dbc:	30304745 	eorscc	r4, r0, r5, asr #14
     dc0:	ba003435 	blt	de9c <__bss_end+0xa634>
     dc4:	5f00000a 	svcpl	0x0000000a
     dc8:	6d63635f 	stclvs	3, cr6, [r3, #-380]!	; 0xfffffe84
     dcc:	79735f75 	ldmdbvc	r3!, {r0, r2, r4, r5, r6, r8, r9, sl, fp, ip, lr}^
     dd0:	6b6c6373 	blvs	1b19ba4 <__bss_end+0x1b1633c>
     dd4:	61725f6c 	cmnvs	r2, ip, ror #30
     dd8:	5f6f6974 	svcpl	0x006f6974
     ddc:	30676572 	rsbcc	r6, r7, r2, ror r5
     de0:	5f343530 	svcpl	0x00343530
     de4:	0ac50074 	beq	ff140fbc <__bss_end+0xff13d754>
     de8:	5f5f0000 	svcpl	0x005f0000
     dec:	554d4343 	strbpl	r4, [sp, #-835]	; 0xfffffcbd
     df0:	4250415f 	subsmi	r4, r0, #-1073741801	; 0xc0000017
     df4:	4b4c4331 	blmi	1311ac0 <__bss_end+0x130e258>
     df8:	5441525f 	strbpl	r5, [r1], #-607	; 0xfffffda1
     dfc:	525f4f49 	subspl	r4, pc, #292	; 0x124
     e00:	30304745 	eorscc	r4, r0, r5, asr #14
     e04:	38003835 	stmdacc	r0, {r0, r2, r4, r5, fp, ip, sp}
     e08:	5f00000b 	svcpl	0x0000000b
     e0c:	6d63635f 	stclvs	3, cr6, [r3, #-380]!	; 0xfffffe84
     e10:	70615f75 	rsbvc	r5, r1, r5, ror pc
     e14:	6c633162 	stfvse	f3, [r3], #-392	; 0xfffffe78
     e18:	61725f6b 	cmnvs	r2, fp, ror #30
     e1c:	5f6f6974 	svcpl	0x006f6974
     e20:	30676572 	rsbcc	r6, r7, r2, ror r5
     e24:	5f383530 	svcpl	0x00383530
     e28:	0b430074 	bleq	10c1000 <__bss_end+0x10bd798>
     e2c:	5f5f0000 	svcpl	0x005f0000
     e30:	554d4343 	strbpl	r4, [sp, #-835]	; 0xfffffcbd
     e34:	4958415f 	ldmdbmi	r8, {r0, r1, r2, r3, r4, r6, r8, lr}^
     e38:	5f4b4c43 	svcpl	0x004b4c43
     e3c:	45544147 	ldrbmi	r4, [r4, #-327]	; 0xfffffeb9
     e40:	4745525f 	smlsldmi	r5, r5, pc, r2	; <UNPREDICTABLE>
     e44:	63353030 	teqvs	r5, #48	; 0x30
     e48:	000b7200 	andeq	r7, fp, r0, lsl #4
     e4c:	635f5f00 	cmpvs	pc, #0, 30
     e50:	5f756d63 	svcpl	0x00756d63
     e54:	63697861 	cmnvs	r9, #6356992	; 0x610000
     e58:	675f6b6c 	ldrbvs	r6, [pc, -ip, ror #22]
     e5c:	5f657461 	svcpl	0x00657461
     e60:	30676572 	rsbcc	r6, r7, r2, ror r5
     e64:	5f633530 	svcpl	0x00633530
     e68:	0b7d0074 	bleq	1f41040 <__bss_end+0x1f3d7d8>
     e6c:	5f5f0000 	svcpl	0x005f0000
     e70:	554d4343 	strbpl	r4, [sp, #-835]	; 0xfffffcbd
     e74:	4248415f 	submi	r4, r8, #-1073741801	; 0xc0000017
     e78:	5f4b4c43 	svcpl	0x004b4c43
     e7c:	45544147 	ldrbmi	r4, [r4, #-327]	; 0xfffffeb9
     e80:	45525f30 	ldrbmi	r5, [r2, #-3888]	; 0xfffff0d0
     e84:	36303047 	ldrtcc	r3, [r0], -r7, asr #32
     e88:	0d560030 	ldcleq	0, cr0, [r6, #-192]	; 0xffffff40
     e8c:	5f5f0000 	svcpl	0x005f0000
     e90:	756d6363 	strbvc	r6, [sp, #-867]!	; 0xfffffc9d
     e94:	6268615f 	rsbvs	r6, r8, #-1073741801	; 0xc0000017
     e98:	5f6b6c63 	svcpl	0x006b6c63
     e9c:	65746167 	ldrbvs	r6, [r4, #-359]!	; 0xfffffe99
     ea0:	65725f30 	ldrbvs	r5, [r2, #-3888]!	; 0xfffff0d0
     ea4:	36303067 	ldrtcc	r3, [r0], -r7, rrx
     ea8:	00745f30 	rsbseq	r5, r4, r0, lsr pc
     eac:	00000d62 	andeq	r0, r0, r2, ror #26
     eb0:	43435f5f 	movtmi	r5, #16223	; 0x3f5f
     eb4:	415f554d 	cmpmi	pc, sp, asr #10
     eb8:	4c434248 	sfmmi	f4, 2, [r3], {72}	; 0x48
     ebc:	41475f4b 	mrsmi	r5, SPSR
     ec0:	5f314554 	svcpl	0x00314554
     ec4:	30474552 	subcc	r4, r7, r2, asr r5
     ec8:	00343630 	eorseq	r3, r4, r0, lsr r6
     ecc:	00000e90 	muleq	r0, r0, lr
     ed0:	63635f5f 	cmnvs	r3, #380	; 0x17c
     ed4:	615f756d 	cmpvs	pc, sp, ror #10
     ed8:	6c636268 	sfmvs	f6, 2, [r3], #-416	; 0xfffffe60
     edc:	61675f6b 	cmnvs	r7, fp, ror #30
     ee0:	5f316574 	svcpl	0x00316574
     ee4:	30676572 	rsbcc	r6, r7, r2, ror r5
     ee8:	5f343630 	svcpl	0x00343630
     eec:	0e9c0074 	mrceq	0, 4, r0, cr12, cr4, {3}
     ef0:	5f5f0000 	svcpl	0x005f0000
     ef4:	554d4343 	strbpl	r4, [sp, #-835]	; 0xfffffcbd
     ef8:	4250415f 	subsmi	r4, r0, #-1073741801	; 0xc0000017
     efc:	4b4c4330 	blmi	1311bc4 <__bss_end+0x130e35c>
     f00:	5441475f 	strbpl	r4, [r1], #-1887	; 0xfffff8a1
     f04:	45525f45 	ldrbmi	r5, [r2, #-3909]	; 0xfffff0bb
     f08:	36303047 	ldrtcc	r3, [r0], -r7, asr #32
     f0c:	0f5e0038 	svceq	0x005e0038
     f10:	5f5f0000 	svcpl	0x005f0000
     f14:	756d6363 	strbvc	r6, [sp, #-867]!	; 0xfffffc9d
     f18:	6270615f 	rsbsvs	r6, r0, #-1073741801	; 0xc0000017
     f1c:	6b6c6330 	blvs	1b19be4 <__bss_end+0x1b1637c>
     f20:	7461675f 	strbtvc	r6, [r1], #-1887	; 0xfffff8a1
     f24:	65725f65 	ldrbvs	r5, [r2, #-3941]!	; 0xfffff09b
     f28:	36303067 	ldrtcc	r3, [r0], -r7, rrx
     f2c:	00745f38 	rsbseq	r5, r4, r8, lsr pc
     f30:	00000f6a 	andeq	r0, r0, sl, ror #30
     f34:	43435f5f 	movtmi	r5, #16223	; 0x3f5f
     f38:	415f554d 	cmpmi	pc, sp, asr #10
     f3c:	43314250 	teqmi	r1, #80, 4
     f40:	475f4b4c 	ldrbmi	r4, [pc, -ip, asr #22]
     f44:	5f455441 	svcpl	0x00455441
     f48:	30474552 	subcc	r4, r7, r2, asr r5
     f4c:	00433630 	subeq	r3, r3, r0, lsr r6
     f50:	0000101a 	andeq	r1, r0, sl, lsl r0
     f54:	63635f5f 	cmnvs	r3, #380	; 0x17c
     f58:	615f756d 	cmpvs	pc, sp, ror #10
     f5c:	63316270 	teqvs	r1, #112, 4
     f60:	675f6b6c 	ldrbvs	r6, [pc, -ip, ror #22]
     f64:	5f657461 	svcpl	0x00657461
     f68:	30676572 	rsbcc	r6, r7, r2, ror r5
     f6c:	5f633630 	svcpl	0x00633630
     f70:	10260074 	eorne	r0, r6, r4, ror r0
     f74:	5f5f0000 	svcpl	0x005f0000
     f78:	554d4343 	strbpl	r4, [sp, #-835]	; 0xfffffcbd
     f7c:	444f4d5f 	strbmi	r4, [pc], #-3423	; f84 <twi_byte_rw_nommu+0x4>
     f80:	30454c55 	subcc	r4, r5, r5, asr ip
     f84:	4b4c435f 	blmi	1311d08 <__bss_end+0x130e4a0>
     f88:	0010b200 	andseq	fp, r0, r0, lsl #4
     f8c:	635f5f00 	cmpvs	pc, #0, 30
     f90:	5f756d63 	svcpl	0x00756d63
     f94:	75646f6d 	strbvc	r6, [r4, #-3949]!	; 0xfffff093
     f98:	5f30656c 	svcpl	0x0030656c
     f9c:	5f6b6c63 	svcpl	0x006b6c63
     fa0:	10be0074 	adcsne	r0, lr, r4, ror r0
     fa4:	5f5f0000 	svcpl	0x005f0000
     fa8:	554d4343 	strbpl	r4, [sp, #-835]	; 0xfffffcbd
     fac:	444f4d5f 	strbmi	r4, [pc], #-3423	; fb4 <twi_byte_rw_nommu+0x34>
     fb0:	31454c55 	cmpcc	r5, r5, asr ip
     fb4:	4b4c435f 	blmi	1311d38 <__bss_end+0x130e4d0>
     fb8:	00111400 	andseq	r1, r1, r0, lsl #8
     fbc:	635f5f00 	cmpvs	pc, #0, 30
     fc0:	5f756d63 	svcpl	0x00756d63
     fc4:	75646f6d 	strbvc	r6, [r4, #-3949]!	; 0xfffff093
     fc8:	5f31656c 	svcpl	0x0031656c
     fcc:	5f6b6c63 	svcpl	0x006b6c63
     fd0:	11200074 	teqne	r0, r4, ror r0
     fd4:	5f5f0000 	svcpl	0x005f0000
     fd8:	554d4343 	strbpl	r4, [sp, #-835]	; 0xfffffcbd
     fdc:	59454b5f 	stmdbpl	r5, {r0, r1, r2, r3, r4, r6, r8, r9, fp, lr}^
     fe0:	5f444150 	svcpl	0x00444150
     fe4:	5f4b4c43 	svcpl	0x004b4c43
     fe8:	30474552 	subcc	r4, r7, r2, asr r5
     fec:	00344330 	eorseq	r4, r4, r0, lsr r3
     ff0:	000011ac 	andeq	r1, r0, ip, lsr #3
     ff4:	63635f5f 	cmnvs	r3, #380	; 0x17c
     ff8:	6b5f756d 	blvs	17de5b4 <__bss_end+0x17dad4c>
     ffc:	61707965 	cmnvs	r0, r5, ror #18
    1000:	6c635f64 	stclvs	15, cr5, [r3], #-400	; 0xfffffe70
    1004:	65725f6b 	ldrbvs	r5, [r2, #-3947]!	; 0xfffff095
    1008:	63303067 	teqvs	r0, #103	; 0x67
    100c:	00745f34 	rsbseq	r5, r4, r4, lsr pc
    1010:	000011b8 			; <UNDEFINED> instruction: 0x000011b8
    1014:	43435f5f 	movtmi	r5, #16223	; 0x3f5f
    1018:	555f554d 	ldrbpl	r5, [pc, #-1357]	; ad3 <mem_clk_dramgating+0x7>
    101c:	435f4253 	cmpmi	pc, #805306373	; 0x30000005
    1020:	525f4b4c 	subspl	r4, pc, #76, 22	; 0x13000
    1024:	30304745 	eorscc	r4, r0, r5, asr #14
    1028:	44004343 	strmi	r4, [r0], #-835	; 0xfffffcbd
    102c:	5f000012 	svcpl	0x00000012
    1030:	6d63635f 	stclvs	3, cr6, [r3, #-380]!	; 0xfffffe84
    1034:	73755f75 	cmnvc	r5, #468	; 0x1d4
    1038:	6c635f62 	stclvs	15, cr5, [r3], #-392	; 0xfffffe78
    103c:	65725f6b 	ldrbvs	r5, [r2, #-3947]!	; 0xfffff095
    1040:	63303067 	teqvs	r0, #103	; 0x67
    1044:	00745f63 	rsbseq	r5, r4, r3, ror #30
    1048:	00001250 	andeq	r1, r0, r0, asr r2
    104c:	43435f5f 	movtmi	r5, #16223	; 0x3f5f
    1050:	475f554d 	ldrbmi	r5, [pc, -sp, asr #10]
    1054:	435f5350 	cmpmi	pc, #80, 6	; 0x40000001
    1058:	525f4b4c 	subspl	r4, pc, #76, 22	; 0x13000
    105c:	30304745 	eorscc	r4, r0, r5, asr #14
    1060:	ca003044 	bgt	d178 <__bss_end+0x9910>
    1064:	5f000012 	svcpl	0x00000012
    1068:	6d63635f 	stclvs	3, cr6, [r3, #-380]!	; 0xfffffe84
    106c:	70675f75 	rsbvc	r5, r7, r5, ror pc
    1070:	6c635f73 	stclvs	15, cr5, [r3], #-460	; 0xfffffe34
    1074:	65725f6b 	ldrbvs	r5, [r2, #-3947]!	; 0xfffff095
    1078:	64303067 	ldrtvs	r3, [r0], #-103	; 0xffffff99
    107c:	00745f30 	rsbseq	r5, r4, r0, lsr pc
    1080:	000012d6 	ldrdeq	r1, [r0], -r6
    1084:	43435f5f 	movtmi	r5, #16223	; 0x3f5f
    1088:	445f554d 	ldrbmi	r5, [pc], #-1357	; 1090 <twi_byte_rw_nommu+0x110>
    108c:	5f4d4152 	svcpl	0x004d4152
    1090:	45544147 	ldrbmi	r4, [r4, #-327]	; 0xfffffeb9
    1094:	4745525f 	smlsldmi	r5, r5, pc, r2	; <UNPREDICTABLE>
    1098:	30303130 	eorscc	r3, r0, r0, lsr r1
    109c:	0013aa00 	andseq	sl, r3, r0, lsl #20
    10a0:	635f5f00 	cmpvs	pc, #0, 30
    10a4:	5f756d63 	svcpl	0x00756d63
    10a8:	6d617264 	sfmvs	f7, 2, [r1, #-400]!	; 0xfffffe70
    10ac:	7461675f 	strbtvc	r6, [r1], #-1887	; 0xfffff8a1
    10b0:	65725f65 	ldrbvs	r5, [r2, #-3941]!	; 0xfffff09b
    10b4:	30313067 	eorscc	r3, r1, r7, rrx
    10b8:	00745f30 	rsbseq	r5, r4, r0, lsr pc
    10bc:	000013b6 			; <UNDEFINED> instruction: 0x000013b6
    10c0:	43435f5f 	movtmi	r5, #16223	; 0x3f5f
    10c4:	465f554d 	ldrbmi	r5, [pc], -sp, asr #10
    10c8:	4d454445 	cfstrdmi	mvd4, [r5, #-276]	; 0xfffffeec
    10cc:	4c435f50 	mcrrmi	15, 5, r5, r3, cr0
    10d0:	1430004b 	ldrtne	r0, [r0], #-75	; 0xffffffb5
    10d4:	5f5f0000 	svcpl	0x005f0000
    10d8:	756d6363 	strbvc	r6, [sp, #-867]!	; 0xfffffc9d
    10dc:	6465665f 	strbtvs	r6, [r5], #-1631	; 0xfffff9a1
    10e0:	5f706d65 	svcpl	0x00706d65
    10e4:	5f6b6c63 	svcpl	0x006b6c63
    10e8:	143c0074 	ldrtne	r0, [ip], #-116	; 0xffffff8c
    10ec:	5f5f0000 	svcpl	0x005f0000
    10f0:	554d4343 	strbpl	r4, [sp, #-835]	; 0xfffffcbd
    10f4:	44434c5f 	strbmi	r4, [r3], #-3167	; 0xfffff3a1
    10f8:	5f304843 	svcpl	0x00304843
    10fc:	004b4c43 	subeq	r4, fp, r3, asr #24
    1100:	000014b6 			; <UNDEFINED> instruction: 0x000014b6
    1104:	63635f5f 	cmnvs	r3, #380	; 0x17c
    1108:	6c5f756d 	cfldr64vs	mvdx7, [pc], {109}	; 0x6d
    110c:	68636463 	stmdavs	r3!, {r0, r1, r5, r6, sl, sp, lr}^
    1110:	6c635f30 	stclvs	15, cr5, [r3], #-192	; 0xffffff40
    1114:	00745f6b 	rsbseq	r5, r4, fp, ror #30
    1118:	000014c2 	andeq	r1, r0, r2, asr #9
    111c:	43435f5f 	movtmi	r5, #16223	; 0x3f5f
    1120:	4c5f554d 	cfldr64mi	mvdx5, [pc], {77}	; 0x4d
    1124:	48434443 	stmdami	r3, {r0, r1, r6, sl, lr}^
    1128:	4c435f31 	mcrrmi	15, 3, r5, r3, cr1
    112c:	1572004b 	ldrbne	r0, [r2, #-75]!	; 0xffffffb5
    1130:	5f5f0000 	svcpl	0x005f0000
    1134:	756d6363 	strbvc	r6, [sp, #-867]!	; 0xfffffc9d
    1138:	64636c5f 	strbtvs	r6, [r3], #-3167	; 0xfffff3a1
    113c:	5f316863 	svcpl	0x00316863
    1140:	5f6b6c63 	svcpl	0x006b6c63
    1144:	157e0074 	ldrbne	r0, [lr, #-116]!	; 0xffffff8c
    1148:	5f5f0000 	svcpl	0x005f0000
    114c:	554d4343 	strbpl	r4, [sp, #-835]	; 0xfffffcbd
    1150:	4953435f 	ldmdbmi	r3, {r0, r1, r2, r3, r4, r6, r8, r9, lr}^
    1154:	4b4c435f 	blmi	1311ed8 <__bss_end+0x130e670>
    1158:	0015f800 	andseq	pc, r5, r0, lsl #16
    115c:	635f5f00 	cmpvs	pc, #0, 30
    1160:	5f756d63 	svcpl	0x00756d63
    1164:	5f697363 	svcpl	0x00697363
    1168:	5f6b6c63 	svcpl	0x006b6c63
    116c:	16040074 			; <UNDEFINED> instruction: 0x16040074
    1170:	5f5f0000 	svcpl	0x005f0000
    1174:	554d4343 	strbpl	r4, [sp, #-835]	; 0xfffffcbd
    1178:	5f45565f 	svcpl	0x0045565f
    117c:	5f4b4c43 	svcpl	0x004b4c43
    1180:	30474552 	subcc	r4, r7, r2, asr r5
    1184:	00433331 	subeq	r3, r3, r1, lsr r3
    1188:	0000166c 	andeq	r1, r0, ip, ror #12
    118c:	63635f5f 	cmnvs	r3, #380	; 0x17c
    1190:	765f756d 	ldrbvc	r7, [pc], -sp, ror #10
    1194:	6c635f65 	stclvs	15, cr5, [r3], #-404	; 0xfffffe6c
    1198:	65725f6b 	ldrbvs	r5, [r2, #-3947]!	; 0xfffff095
    119c:	33313067 	teqcc	r1, #103	; 0x67
    11a0:	00745f63 	rsbseq	r5, r4, r3, ror #30
    11a4:	00001678 	andeq	r1, r0, r8, ror r6
    11a8:	43435f5f 	movtmi	r5, #16223	; 0x3f5f
    11ac:	415f554d 	cmpmi	pc, sp, asr #10
    11b0:	5f414444 	svcpl	0x00414444
    11b4:	5f4b4c43 	svcpl	0x004b4c43
    11b8:	30474552 	subcc	r4, r7, r2, asr r5
    11bc:	00303431 	eorseq	r3, r0, r1, lsr r4
    11c0:	000016aa 	andeq	r1, r0, sl, lsr #13
    11c4:	63635f5f 	cmnvs	r3, #380	; 0x17c
    11c8:	615f756d 	cmpvs	pc, sp, ror #10
    11cc:	5f616464 	svcpl	0x00616464
    11d0:	5f6b6c63 	svcpl	0x006b6c63
    11d4:	30676572 	rsbcc	r6, r7, r2, ror r5
    11d8:	5f303431 	svcpl	0x00303431
    11dc:	16b60074 	sxtahne	r0, r6, r4
    11e0:	5f5f0000 	svcpl	0x005f0000
    11e4:	554d4343 	strbpl	r4, [sp, #-835]	; 0xfffffcbd
    11e8:	5356415f 	cmppl	r6, #-1073741801	; 0xc0000017
    11ec:	4b4c435f 	blmi	1311f70 <__bss_end+0x130e708>
    11f0:	4745525f 	smlsldmi	r5, r5, pc, r2	; <UNPREDICTABLE>
    11f4:	34343130 	ldrtcc	r3, [r4], #-304	; 0xfffffed0
    11f8:	0016e800 	andseq	lr, r6, r0, lsl #16
    11fc:	635f5f00 	cmpvs	pc, #0, 30
    1200:	5f756d63 	svcpl	0x00756d63
    1204:	5f737661 	svcpl	0x00737661
    1208:	5f6b6c63 	svcpl	0x006b6c63
    120c:	30676572 	rsbcc	r6, r7, r2, ror r5
    1210:	5f343431 	svcpl	0x00343431
    1214:	16f40074 	uxtahne	r0, r4, r4
    1218:	5f5f0000 	svcpl	0x005f0000
    121c:	554d4343 	strbpl	r4, [sp, #-835]	; 0xfffffcbd
    1220:	44564c5f 	ldrbmi	r4, [r6], #-3167	; 0xfffff3a1
    1224:	4c435f53 	mcrrmi	15, 5, r5, r3, cr3
    1228:	45525f4b 	ldrbmi	r5, [r2, #-3915]	; 0xfffff0b5
    122c:	34313047 	ldrtcc	r3, [r1], #-71	; 0xffffffb9
    1230:	17260043 	strne	r0, [r6, -r3, asr #32]!
    1234:	5f5f0000 	svcpl	0x005f0000
    1238:	756d6363 	strbvc	r6, [sp, #-867]!	; 0xfffffc9d
    123c:	64766c5f 	ldrbtvs	r6, [r6], #-3167	; 0xfffff3a1
    1240:	6c635f73 	stclvs	15, cr5, [r3], #-460	; 0xfffffe34
    1244:	65725f6b 	ldrbvs	r5, [r2, #-3947]!	; 0xfffff095
    1248:	34313067 	ldrtcc	r3, [r1], #-103	; 0xffffff99
    124c:	00745f63 	rsbseq	r5, r4, r3, ror #30
    1250:	00001732 	andeq	r1, r0, r2, lsr r7
    1254:	43435f5f 	movtmi	r5, #16223	; 0x3f5f
    1258:	485f554d 	ldmdami	pc, {r0, r2, r3, r6, r8, sl, ip, lr}^	; <UNPREDICTABLE>
    125c:	5f494d44 	svcpl	0x00494d44
    1260:	5f4b4c43 	svcpl	0x004b4c43
    1264:	30474552 	subcc	r4, r7, r2, asr r5
    1268:	00303531 	eorseq	r3, r0, r1, lsr r5
    126c:	0000179a 	muleq	r0, sl, r7
    1270:	63635f5f 	cmnvs	r3, #380	; 0x17c
    1274:	685f756d 	ldmdavs	pc, {r0, r2, r3, r5, r6, r8, sl, ip, sp, lr}^	; <UNPREDICTABLE>
    1278:	5f696d64 	svcpl	0x00696d64
    127c:	5f6b6c63 	svcpl	0x006b6c63
    1280:	30676572 	rsbcc	r6, r7, r2, ror r5
    1284:	5f303531 	svcpl	0x00303531
    1288:	17a60074 			; <UNDEFINED> instruction: 0x17a60074
    128c:	5f5f0000 	svcpl	0x005f0000
    1290:	554d4343 	strbpl	r4, [sp, #-835]	; 0xfffffcbd
    1294:	4c414d5f 	mcrrmi	13, 5, r4, r1, cr15
    1298:	30303449 	eorscc	r3, r0, r9, asr #8
    129c:	4b4c435f 	blmi	1312020 <__bss_end+0x130e7b8>
    12a0:	4745525f 	smlsldmi	r5, r5, pc, r2	; <UNPREDICTABLE>
    12a4:	34353130 	ldrtcc	r3, [r5], #-304	; 0xfffffed0
    12a8:	00182000 	andseq	r2, r8, r0
    12ac:	635f5f00 	cmpvs	pc, #0, 30
    12b0:	5f756d63 	svcpl	0x00756d63
    12b4:	696c616d 	stmdbvs	ip!, {r0, r2, r3, r5, r6, r8, sp, lr}^
    12b8:	5f303034 	svcpl	0x00303034
    12bc:	5f6b6c63 	svcpl	0x006b6c63
    12c0:	30676572 	rsbcc	r6, r7, r2, ror r5
    12c4:	5f343531 	svcpl	0x00343531
    12c8:	182c0074 	stmdane	ip!, {r2, r4, r5, r6}
    12cc:	5f5f0000 	svcpl	0x005f0000
    12d0:	554d4343 	strbpl	r4, [sp, #-835]	; 0xfffffcbd
    12d4:	55424d5f 	strbpl	r4, [r2, #-3423]	; 0xfffff2a1
    12d8:	4c435f53 	mcrrmi	15, 5, r5, r3, cr3
    12dc:	45525f4b 	ldrbmi	r5, [r2, #-3915]	; 0xfffff0b5
    12e0:	35313047 	ldrcc	r3, [r1, #-71]!	; 0xffffffb9
    12e4:	18b80043 	ldmne	r8!, {r0, r1, r6}
    12e8:	5f5f0000 	svcpl	0x005f0000
    12ec:	756d6363 	strbvc	r6, [sp, #-867]!	; 0xfffffc9d
    12f0:	75626d5f 	strbvc	r6, [r2, #-3423]!	; 0xfffff2a1
    12f4:	6c635f73 	stclvs	15, cr5, [r3], #-460	; 0xfffffe34
    12f8:	65725f6b 	ldrbvs	r5, [r2, #-3947]!	; 0xfffff095
    12fc:	35313067 	ldrcc	r3, [r1, #-103]!	; 0xffffff99
    1300:	00745f63 	rsbseq	r5, r4, r3, ror #30
    1304:	000018c4 	andeq	r1, r0, r4, asr #17
    1308:	43435f5f 	movtmi	r5, #16223	; 0x3f5f
    130c:	495f554d 	ldmdbmi	pc, {r0, r2, r3, r6, r8, sl, ip, lr}^	; <UNPREDICTABLE>
    1310:	435f5045 	cmpmi	pc, #69	; 0x45
    1314:	525f4b4c 	subspl	r4, pc, #76, 22	; 0x13000
    1318:	31304745 	teqcc	r0, r5, asr #14
    131c:	08003036 	stmdaeq	r0, {r1, r2, r4, r5, ip, sp}
    1320:	5f000019 	svcpl	0x00000019
    1324:	6d63635f 	stclvs	3, cr6, [r3, #-380]!	; 0xfffffe84
    1328:	65695f75 	strbvs	r5, [r9, #-3957]!	; 0xfffff08b
    132c:	6c635f70 	stclvs	15, cr5, [r3], #-448	; 0xfffffe40
    1330:	65725f6b 	ldrbvs	r5, [r2, #-3947]!	; 0xfffff095
    1334:	36313067 	ldrtcc	r3, [r1], -r7, rrx
    1338:	00745f30 	rsbseq	r5, r4, r0, lsr pc
    133c:	00001914 	andeq	r1, r0, r4, lsl r9
    1340:	43435f5f 	movtmi	r5, #16223	; 0x3f5f
    1344:	525f554d 	subspl	r5, pc, #322961408	; 0x13400000
    1348:	4c5f4745 	mrrcmi	7, 4, r4, pc, cr5	; <UNPREDICTABLE>
    134c:	00545349 	subseq	r5, r4, r9, asr #6
    1350:	00001e70 	andeq	r1, r0, r0, ror lr
    1354:	63635f5f 	cmnvs	r3, #380	; 0x17c
    1358:	725f756d 	subsvc	r7, pc, #457179136	; 0x1b400000
    135c:	6c5f6765 	mrrcvs	7, 6, r6, pc, cr5	; <UNPREDICTABLE>
    1360:	5f747369 	svcpl	0x00747369
    1364:	1e7c0074 	mrcne	0, 3, r0, cr12, cr4, {3}
    1368:	61740000 	cmnvs	r4, r0
    136c:	77745f67 	ldrbvc	r5, [r4, -r7, ror #30]!
    1370:	725f6369 	subsvc	r6, pc, #-1543503871	; 0xa4000001
    1374:	0c006765 	stceq	7, cr6, [r0], {101}	; 0x65
    1378:	5f00001f 	svcpl	0x0000001f
    137c:	6977745f 	ldmdbvs	r7!, {r0, r1, r2, r3, r4, r6, sl, ip, sp, lr}^
    1380:	65725f63 	ldrbvs	r5, [r2, #-3939]!	; 0xfffff09d
    1384:	00745f67 	rsbseq	r5, r4, r7, ror #30
    1388:	00001f17 	andeq	r1, r0, r7, lsl pc
    138c:	5f697774 	svcpl	0x00697774
    1390:	745f706f 	ldrbvc	r7, [pc], #-111	; 1398 <mem_set_voltage+0xf8>
    1394:	5f657079 	svcpl	0x00657079
    1398:	00000065 	andeq	r0, r0, r5, rrx
    139c:	005f0000 	subseq	r0, pc, r0
    13a0:	00020000 	andeq	r0, r2, r0
    13a4:	000051f5 	strdeq	r5, [r0], -r5	; <UNPREDICTABLE>
    13a8:	0000042f 	andeq	r0, r0, pc, lsr #8
    13ac:	0000002c 	andeq	r0, r0, ip, lsr #32
    13b0:	38755f5f 	ldmdacc	r5!, {r0, r1, r2, r3, r4, r6, r8, r9, sl, fp, ip, lr}^
    13b4:	00004c00 	andeq	r4, r0, r0, lsl #24
    13b8:	735f5f00 	cmpvc	pc, #0, 30
    13bc:	5e003233 	mcrpl	2, 0, r3, cr0, cr3, {1}
    13c0:	5f000000 	svcpl	0x00000000
    13c4:	3233755f 	eorscc	r7, r3, #398458880	; 0x17c00000
    13c8:	00007e00 	andeq	r7, r0, r0, lsl #28
    13cc:	776f7000 	strbvc	r7, [pc, -r0]!
    13d0:	765f7265 	ldrbvc	r7, [pc], -r5, ror #4
    13d4:	745f6c6f 	ldrbvc	r6, [pc], #-3183	; 13dc <mem_set_voltage+0x13c>
    13d8:	5f657079 	svcpl	0x00657079
    13dc:	00b50065 	adcseq	r0, r5, r5, rrx
    13e0:	78610000 	stmdavc	r1!, {}^	; <UNPREDICTABLE>
    13e4:	6e695f70 	mcrvs	15, 3, r5, cr9, cr0, {3}
    13e8:	23006f66 	movwcs	r6, #3942	; 0xf66
    13ec:	74000001 	strvc	r0, [r0], #-1
    13f0:	6f5f6977 	svcvs	0x005f6977
    13f4:	79745f70 	ldmdbvc	r4!, {r4, r5, r6, r8, r9, sl, fp, ip, lr}^
    13f8:	655f6570 	ldrbvs	r6, [pc, #-1392]	; e90 <twi_byte_rw+0x158>
    13fc:	00000000 	andeq	r0, r0, r0
    1400:	00003d00 	andeq	r3, r0, r0, lsl #26
    1404:	24000200 	strcs	r0, [r0], #-512	; 0xfffffe00
    1408:	f9000056 			; <UNDEFINED> instruction: 0xf9000056
    140c:	4f000005 	svcmi	0x00000005
    1410:	5f000000 	svcpl	0x00000000
    1414:	0038755f 	eorseq	r7, r8, pc, asr r5
    1418:	00000068 	andeq	r0, r0, r8, rrx
    141c:	33735f5f 	cmncc	r3, #380	; 0x17c
    1420:	007a0032 	rsbseq	r0, sl, r2, lsr r0
    1424:	5f5f0000 	svcpl	0x005f0000
    1428:	00323375 	eorseq	r3, r2, r5, ror r3
    142c:	00000093 	muleq	r0, r3, r0
    1430:	5f697774 	svcpl	0x00697774
    1434:	745f706f 	ldrbvc	r7, [pc], #-111	; 143c <mem_get_voltage+0x5c>
    1438:	5f657079 	svcpl	0x00657079
    143c:	00000065 	andeq	r0, r0, r5, rrx
    1440:	00690000 	rsbeq	r0, r9, r0
    1444:	00020000 	andeq	r0, r2, r0
    1448:	00005c1d 	andeq	r5, r0, sp, lsl ip
    144c:	000006cb 	andeq	r0, r0, fp, asr #13
    1450:	0000005d 	andeq	r0, r0, sp, asr r0
    1454:	33735f5f 	cmncc	r3, #380	; 0x17c
    1458:	006f0032 	rsbeq	r0, pc, r2, lsr r0	; <UNPREDICTABLE>
    145c:	5f5f0000 	svcpl	0x005f0000
    1460:	00323375 	eorseq	r3, r2, r5, ror r3
    1464:	00000081 	andeq	r0, r0, r1, lsl #1
    1468:	36755f5f 	uhsaxcc	r5, r5, pc	; <UNPREDICTABLE>
    146c:	00930034 	addseq	r0, r3, r4, lsr r0
    1470:	625f0000 	subsvs	r0, pc, #0
    1474:	5f746f6f 	svcpl	0x00746f6f
    1478:	6d617264 	sfmvs	f7, 2, [r1, #-400]!	; 0xfffffe70
    147c:	7261705f 	rsbvc	r7, r1, #95	; 0x5f
    1480:	00745f61 	rsbseq	r5, r4, r1, ror #30
    1484:	000001b8 			; <UNDEFINED> instruction: 0x000001b8
    1488:	746f6f62 	strbtvc	r6, [pc], #-3938	; 1490 <mem_power_init+0x30>
    148c:	6172645f 	cmnvs	r2, pc, asr r4
    1490:	61705f6d 	cmnvs	r0, sp, ror #30
    1494:	745f6172 	ldrbvc	r6, [pc], #-370	; 149c <mem_power_init+0x3c>
    1498:	0001c300 	andeq	ip, r1, r0, lsl #6
    149c:	645f5f00 	ldrbvs	r5, [pc], #-3840	; 14a4 <mem_power_init+0x44>
    14a0:	5f6d6172 	svcpl	0x006d6172
    14a4:	61726170 	cmnvs	r2, r0, ror r1
    14a8:	0000745f 	andeq	r7, r0, pc, asr r4
    14ac:	22000000 	andcs	r0, r0, #0
    14b0:	02000000 	andeq	r0, r0, #0
    14b4:	0062e800 	rsbeq	lr, r2, r0, lsl #16
    14b8:	0004e800 	andeq	lr, r4, r0, lsl #16
    14bc:	00004100 	andeq	r4, r0, r0, lsl #2
    14c0:	735f5f00 	cmpvc	pc, #0, 30
    14c4:	53003233 	movwpl	r3, #563	; 0x233
    14c8:	5f000000 	svcpl	0x00000000
    14cc:	3233755f 	eorscc	r7, r3, #398458880	; 0x17c00000
    14d0:	00000000 	andeq	r0, r0, r0
    14d4:	00002600 	andeq	r2, r0, r0, lsl #12
    14d8:	43000200 	movwmi	r0, #512	; 0x200
    14dc:	69000068 	stmdbvs	r0, {r3, r5, r6}
    14e0:	4f000001 	svcmi	0x00000001
    14e4:	5f000000 	svcpl	0x00000000
    14e8:	3233755f 	eorscc	r7, r3, #398458880	; 0x17c00000
    14ec:	00006800 	andeq	r6, r0, r0, lsl #16
    14f0:	756d6d00 	strbvc	r6, [sp, #-3328]!	; 0xfffff300
    14f4:	6174735f 	cmnvs	r4, pc, asr r3
    14f8:	00006574 	andeq	r6, r0, r4, ror r5
    14fc:	2a000000 	bcs	1504 <mem_power_init+0xa4>
    1500:	02000000 	andeq	r0, r0, #0
    1504:	0069ac00 	rsbeq	sl, r9, r0, lsl #24
    1508:	00040e00 	andeq	r0, r4, r0, lsl #28
    150c:	00004800 	andeq	r4, r0, r0, lsl #16
    1510:	755f5f00 	ldrbvc	r5, [pc, #-3840]	; 618 <enable_mmu+0x4>
    1514:	68003233 	stmdavs	r0, {r0, r1, r4, r5, r9, ip, sp}
    1518:	73000000 	movwvc	r0, #0
    151c:	64657661 	strbtvs	r7, [r5], #-1633	; 0xfffff99f
    1520:	6e6f635f 	mcrvs	3, 3, r6, cr15, cr15, {2}
    1524:	74786574 	ldrbtvc	r6, [r8], #-1396	; 0xfffffa8c
    1528:	00000000 	andeq	r0, r0, r0
	...

Disassembly of section .debug_aranges:

00000000 <.debug_aranges>:
   0:	0000001c 	andeq	r0, r0, ip, lsl r0
   4:	00000002 	andeq	r0, r0, r2
   8:	00040000 	andeq	r0, r4, r0
	...
  14:	000001bc 			; <UNDEFINED> instruction: 0x000001bc
	...
  20:	0000001c 	andeq	r0, r0, ip, lsl r0
  24:	06c80002 	strbeq	r0, [r8], r2
  28:	00040000 	andeq	r0, r4, r0
  2c:	00000000 	andeq	r0, r0, r0
  30:	000001bc 			; <UNDEFINED> instruction: 0x000001bc
  34:	0000001c 	andeq	r0, r0, ip, lsl r0
	...
  40:	0000001c 	andeq	r0, r0, ip, lsl r0
  44:	07970002 	ldreq	r0, [r7, r2]
  48:	00040000 	andeq	r0, r4, r0
  4c:	00000000 	andeq	r0, r0, r0
  50:	000001e0 	andeq	r0, r0, r0, ror #3
  54:	000004e4 	andeq	r0, r0, r4, ror #9
	...
  60:	0000001c 	andeq	r0, r0, ip, lsl r0
  64:	08040002 	stmdaeq	r4, {r1}
  68:	00040000 	andeq	r0, r4, r0
  6c:	00000000 	andeq	r0, r0, r0
  70:	000006e0 	andeq	r0, r0, r0, ror #13
  74:	00000168 	andeq	r0, r0, r8, ror #2
	...
  80:	0000001c 	andeq	r0, r0, ip, lsl r0
  84:	0b5e0002 	bleq	1780094 <__bss_end+0x177c82c>
  88:	00040000 	andeq	r0, r4, r0
  8c:	00000000 	andeq	r0, r0, r0
  90:	00000848 	andeq	r0, r0, r8, asr #16
  94:	00000040 	andeq	r0, r0, r0, asr #32
	...
  a0:	0000001c 	andeq	r0, r0, ip, lsl r0
  a4:	0f670002 	svceq	0x00670002
  a8:	00040000 	andeq	r0, r4, r0
  ac:	00000000 	andeq	r0, r0, r0
  b0:	00000888 	andeq	r0, r0, r8, lsl #17
  b4:	00000274 	andeq	r0, r0, r4, ror r2
	...
  c0:	0000001c 	andeq	r0, r0, ip, lsl r0
  c4:	2fec0002 	svccs	0x00ec0002
  c8:	00040000 	andeq	r0, r4, r0
  cc:	00000000 	andeq	r0, r0, r0
  d0:	00000afc 	strdeq	r0, [r0], -ip
  d4:	000006e8 	andeq	r0, r0, r8, ror #13
	...
  e0:	0000001c 	andeq	r0, r0, ip, lsl r0
  e4:	51820002 	orrpl	r0, r2, r2
  e8:	00040000 	andeq	r0, r4, r0
  ec:	00000000 	andeq	r0, r0, r0
  f0:	000011e4 	andeq	r1, r0, r4, ror #3
  f4:	00000028 	andeq	r0, r0, r8, lsr #32
	...
 100:	0000001c 	andeq	r0, r0, ip, lsl r0
 104:	51f50002 	mvnspl	r0, r2
 108:	00040000 	andeq	r0, r4, r0
 10c:	00000000 	andeq	r0, r0, r0
 110:	0000120c 	andeq	r1, r0, ip, lsl #4
 114:	00000770 	andeq	r0, r0, r0, ror r7
	...
 120:	0000001c 	andeq	r0, r0, ip, lsl r0
 124:	56240002 	strtpl	r0, [r4], -r2
 128:	00040000 	andeq	r0, r4, r0
 12c:	00000000 	andeq	r0, r0, r0
 130:	0000197c 	andeq	r1, r0, ip, ror r9
 134:	00000434 	andeq	r0, r0, r4, lsr r4
	...
 140:	0000001c 	andeq	r0, r0, ip, lsl r0
 144:	5c1d0002 	ldcpl	0, cr0, [sp], {2}
 148:	00040000 	andeq	r0, r4, r0
 14c:	00000000 	andeq	r0, r0, r0
 150:	00001db0 			; <UNDEFINED> instruction: 0x00001db0
 154:	000006bc 			; <UNDEFINED> instruction: 0x000006bc
	...
 160:	0000001c 	andeq	r0, r0, ip, lsl r0
 164:	62e80002 	rscvs	r0, r8, #2
 168:	00040000 	andeq	r0, r4, r0
 16c:	00000000 	andeq	r0, r0, r0
 170:	0000246c 	andeq	r2, r0, ip, ror #8
 174:	00000368 	andeq	r0, r0, r8, ror #6
	...
 180:	0000001c 	andeq	r0, r0, ip, lsl r0
 184:	67d00002 	ldrbvs	r0, [r0, r2]
 188:	00040000 	andeq	r0, r4, r0
 18c:	00000000 	andeq	r0, r0, r0
 190:	000027e0 	andeq	r2, r0, r0, ror #15
 194:	00000150 	andeq	r0, r0, r0, asr r1
	...
 1a0:	0000001c 	andeq	r0, r0, ip, lsl r0
 1a4:	68430002 	stmdavs	r3, {r1}^
 1a8:	00040000 	andeq	r0, r4, r0
 1ac:	00000000 	andeq	r0, r0, r0
 1b0:	00002940 	andeq	r2, r0, r0, asr #18
 1b4:	000000b0 	strheq	r0, [r0], -r0	; <UNPREDICTABLE>
	...
 1c0:	0000001c 	andeq	r0, r0, ip, lsl r0
 1c4:	69ac0002 	stmibvs	ip!, {r1}
 1c8:	00040000 	andeq	r0, r4, r0
 1cc:	00000000 	andeq	r0, r0, r0
 1d0:	00002a00 	andeq	r2, r0, r0, lsl #20
 1d4:	00000a18 	andeq	r0, r0, r8, lsl sl
	...

Disassembly of section .debug_str:

00000000 <.debug_str>:
       0:	6d5f7761 	ldclvs	7, cr7, [pc, #-388]	; fffffe84 <__bss_end+0xffffc61c>
       4:	705f6d65 	subsvc	r6, pc, r5, ror #26
       8:	00617261 	rsbeq	r7, r1, r1, ror #4
       c:	74636146 	strbtvc	r6, [r3], #-326	; 0xfffffeba
      10:	004d726f 	subeq	r7, sp, pc, ror #4
      14:	74636146 	strbtvc	r6, [r3], #-326	; 0xfffffeba
      18:	004e726f 	subeq	r7, lr, pc, ror #4
      1c:	74636146 	strbtvc	r6, [r3], #-326	; 0xfffffeba
      20:	0050726f 	subseq	r7, r0, pc, ror #4
      24:	61665f69 	cmnvs	r6, r9, ror #30
      28:	70630072 	rsbvc	r0, r3, r2, ror r0
      2c:	69645f75 	stmdbvs	r4!, {r0, r2, r4, r5, r6, r8, r9, sl, fp, ip, lr}^
      30:	73630076 	cmnvc	r3, #118	; 0x76
      34:	73007273 	movwvc	r7, #627	; 0x273
      38:	67666363 	strbvs	r6, [r6, -r3, ror #6]!
      3c:	6c630072 	stclvs	0, cr0, [r3], #-456	; 0xfffffe38
      40:	69645f6b 	stmdbvs	r4!, {r0, r1, r3, r5, r6, r8, r9, sl, fp, ip, lr}^
      44:	61730076 	cmnvs	r3, r6, ror r0
      48:	5f646576 	svcpl	0x00646576
      4c:	746e7572 	strbtvc	r7, [lr], #-1394	; 0xfffffa8e
      50:	5f656d69 	svcpl	0x00656d69
      54:	746e6f63 	strbtvc	r6, [lr], #-3939	; 0xfffff09d
      58:	5f747865 	svcpl	0x00747865
      5c:	00637673 	rsbeq	r7, r3, r3, ror r6
      60:	73665f64 	cmnvc	r6, #100, 30	; 0x190
      64:	5f5f0072 	svcpl	0x005f0072
      68:	5f737362 	svcpl	0x00737362
      6c:	00646e65 	rsbeq	r6, r4, r5, ror #28
      70:	726f6873 	rsbvc	r6, pc, #7536640	; 0x730000
      74:	6e692074 	mcrvs	0, 3, r2, cr9, cr4, {3}
      78:	61730074 	cmnvs	r3, r4, ror r0
      7c:	5f646576 	svcpl	0x00646576
      80:	5f756d6d 	svcpl	0x00756d6d
      84:	74617473 	strbtvc	r7, [r1], #-1139	; 0xfffffb8d
      88:	6f6d0065 	svcvs	0x006d0065
      8c:	6365766e 	cmnvs	r5, #115343360	; 0x6e00000
      90:	00726162 	rsbseq	r6, r2, r2, ror #2
      94:	5f6b6c63 	svcpl	0x006b6c63
      98:	5f766964 	svcpl	0x00766964
      9c:	616d0074 	smcvs	53252	; 0xd004
      a0:	69006e69 	stmdbvs	r0, {r0, r3, r5, r6, r9, sl, fp, sp, lr}
      a4:	5f74696e 	svcpl	0x0074696e
      a8:	4d415244 	sfmmi	f5, 2, [r1, #-272]	; 0xfffffef0
      ac:	6d656d00 	stclvs	13, cr6, [r5, #-0]
      b0:	776f705f 			; <UNDEFINED> instruction: 0x776f705f
      b4:	695f7265 	ldmdbvs	pc, {r0, r2, r5, r6, r9, ip, sp, lr}^	; <UNPREDICTABLE>
      b8:	5f74696e 	svcpl	0x0074696e
      bc:	00727265 	rsbseq	r7, r2, r5, ror #4
      c0:	62646373 	rsbvs	r6, r4, #-872415231	; 0xcc000001
      c4:	626e6567 	rsbvs	r6, lr, #432013312	; 0x19c00000
      c8:	6100726c 	tstvs	r0, ip, ror #4
      cc:	645f6978 	ldrbvs	r6, [pc], #-2424	; d4 <__suspend_start+0xd4>
      d0:	72007669 	andvc	r7, r0, #110100480	; 0x6900000
      d4:	79727465 	ldmdbvc	r2!, {r0, r2, r5, r6, sl, ip, sp, lr}^
      d8:	656c7000 	strbvs	r7, [ip, #-0]!
      dc:	72617369 	rsbvc	r7, r1, #-1543503871	; 0xa4000001
      e0:	63326c00 	teqvs	r2, #0, 24
      e4:	63787561 	cmnvs	r8, #406847488	; 0x18400000
      e8:	726c7274 	rsbvc	r7, ip, #116, 4	; 0x40000007
      ec:	63616400 	cmnvs	r1, #0, 8
      f0:	656d0072 	strbvs	r0, [sp, #-114]!	; 0xffffff8e
      f4:	6f705f6d 	svcvs	0x00705f6d
      f8:	5f726577 	svcpl	0x00726577
      fc:	5f66666f 	svcpl	0x0066666f
     100:	6d6d6f6e 	stclvs	15, cr6, [sp, #-440]!	; 0xfffffe48
     104:	72655f75 	rsbvc	r5, r5, #468	; 0x1d4
     108:	5f5f0072 	svcpl	0x005f0072
     10c:	00323375 	eorseq	r3, r2, r5, ror r3
     110:	6d617264 	sfmvs	f7, 2, [r1, #-400]!	; 0xfffffe70
     114:	776f705f 			; <UNDEFINED> instruction: 0x776f705f
     118:	735f7265 	cmpvc	pc, #1342177286	; 0x50000006
     11c:	5f657661 	svcpl	0x00657661
     120:	636f7270 	cmnvs	pc, #112, 4
     124:	00737365 	rsbseq	r7, r3, r5, ror #6
     128:	61665f64 	cmnvs	r6, r4, ror #30
     12c:	70610072 	rsbvc	r0, r1, r2, ror r0
     130:	69645f62 	stmdbvs	r4!, {r1, r5, r6, r8, r9, sl, fp, ip, lr}^
     134:	6f6c0076 	svcvs	0x006c0076
     138:	6c20676e 	stcvs	7, cr6, [r0], #-440	; 0xfffffe48
     13c:	20676e6f 	rsbcs	r6, r7, pc, ror #28
     140:	00746e69 	rsbseq	r6, r4, r9, ror #28
     144:	72736569 	rsbsvc	r6, r3, #440401920	; 0x1a400000
     148:	62686100 	rsbvs	r6, r8, #0, 2
     14c:	7669645f 			; <UNDEFINED> instruction: 0x7669645f
     150:	73657200 	cmnvc	r5, #0, 4
     154:	65767265 	ldrbvs	r7, [r6, #-613]!	; 0xfffffd9b
     158:	74740064 	ldrbtvc	r0, [r4], #-100	; 0xffffff9c
     15c:	72305f62 	eorsvc	r5, r0, #392	; 0x188
     160:	73637000 	cmnvc	r3, #0
     164:	61730072 	cmnvs	r3, r2, ror r0
     168:	5f646576 	svcpl	0x00646576
     16c:	5f757063 	svcpl	0x00757063
     170:	746e6f63 	strbtvc	r6, [lr], #-3939	; 0xfffff09d
     174:	00747865 	rsbseq	r7, r4, r5, ror #16
     178:	75656c70 	strbvc	r6, [r5, #-3184]!	; 0xfffff390
     17c:	75007261 	strvc	r7, [r0, #-609]	; 0xfffffd9f
     180:	70747772 	rsbsvc	r7, r4, r2, ror r7
     184:	74006469 	strvc	r6, [r0], #-1129	; 0xfffffb97
     188:	7450706d 	ldrbvc	r7, [r0], #-109	; 0xffffff93
     18c:	5f640072 	svcpl	0x00640072
     190:	72736661 	rsbsvc	r6, r3, #101711872	; 0x6100000
     194:	76617300 	strbtvc	r7, [r1], -r0, lsl #6
     198:	635f6465 	cmpvs	pc, #1694498816	; 0x65000000
     19c:	65746e6f 	ldrbvs	r6, [r4, #-3695]!	; 0xfffff191
     1a0:	75007478 	strvc	r7, [r0, #-1144]	; 0xfffffb88
     1a4:	6769736e 	strbvs	r7, [r9, -lr, ror #6]!
     1a8:	2064656e 	rsbcs	r6, r4, lr, ror #10
     1ac:	72616863 	rsbvc	r6, r1, #6488064	; 0x630000
     1b0:	72727000 	rsbsvc	r7, r2, #0
     1b4:	61730072 	cmnvs	r3, r2, ror r0
     1b8:	5f646576 	svcpl	0x00646576
     1bc:	6d617264 	sfmvs	f7, 2, [r1, #-400]!	; 0xfffffe70
     1c0:	6172745f 	cmnvs	r2, pc, asr r4
     1c4:	6e696e69 	cdpvs	14, 6, cr6, cr9, cr9, {3}
     1c8:	72615f67 	rsbvc	r5, r1, #412	; 0x19c
     1cc:	69006165 	stmdbvs	r0, {r0, r2, r5, r6, r8, sp, lr}
     1d0:	626c745f 	rsbvs	r7, ip, #1593835520	; 0x5f000000
     1d4:	5f00726c 	svcpl	0x0000726c
     1d8:	7373625f 	cmnvc	r3, #-268435451	; 0xf0000005
     1dc:	6174735f 	cmnvs	r4, pc, asr r3
     1e0:	73007472 	movwvc	r7, #1138	; 0x472
     1e4:	655f7379 	ldrbvs	r7, [pc, #-889]	; fffffe73 <__bss_end+0xffffc60b>
     1e8:	746e6576 	strbtvc	r6, [lr], #-1398	; 0xfffffa8a
     1ec:	73757300 	cmnvc	r5, #0, 6
     1f0:	646e6570 	strbtvs	r6, [lr], #-1392	; 0xfffffa90
     1f4:	7469775f 	strbtvc	r7, [r9], #-1887	; 0xfffff8a1
     1f8:	6f6e5f68 	svcvs	0x006e5f68
     1fc:	00756d6d 	rsbseq	r6, r5, sp, ror #26
     200:	736e6f6e 	cmnvc	lr, #440	; 0x1b8
     204:	63636163 	cmnvs	r3, #-1073741800	; 0xc0000018
     208:	726c7274 	rsbvc	r7, ip, #116, 4	; 0x40000007
     20c:	735f5f00 	cmpvc	pc, #0, 30
     210:	70003233 	andvc	r3, r0, r3, lsr r2
     214:	7263656c 	rsbvc	r6, r3, #108, 10	; 0x1b000000
     218:	73757300 	cmnvc	r5, #0, 6
     21c:	646e6570 	strbtvs	r6, [lr], #-1392	; 0xfffffa90
     220:	6463645f 	strbtvs	r6, [r3], #-1119	; 0xfffffba1
     224:	73003263 	movwvc	r3, #611	; 0x263
     228:	65707375 	ldrbvs	r7, [r0, #-885]!	; 0xfffffc8b
     22c:	645f646e 	ldrbvs	r6, [pc], #-1134	; 234 <mem_flush_tlb+0x34>
     230:	33636463 	cmncc	r3, #1660944384	; 0x63000000
     234:	63656300 	cmnvs	r5, #0, 6
     238:	6f6c0072 	svcvs	0x006c0072
     23c:	6c20676e 	stcvs	7, cr6, [r0], #-440	; 0xfffffe48
     240:	20676e6f 	rsbcs	r6, r7, pc, ror #28
     244:	69736e75 	ldmdbvs	r3!, {r0, r2, r4, r5, r6, r9, sl, fp, sp, lr}^
     248:	64656e67 	strbtvs	r6, [r5], #-3687	; 0xfffff199
     24c:	746e6920 	strbtvc	r6, [lr], #-2336	; 0xfffff6e0
     250:	63656900 	cmnvs	r5, #0, 18
     254:	6e730072 	mrcvs	0, 3, r0, cr3, cr2, {3}
     258:	61627673 	smcvs	10083	; 0x2763
     25c:	70730072 	rsbsvc	r0, r3, r2, ror r0
     260:	6361625f 	cmnvs	r1, #-268435451	; 0xf0000005
     264:	0070756b 	rsbseq	r7, r0, fp, ror #10
     268:	70737573 	rsbsvc	r7, r3, r3, ror r5
     26c:	5f646e65 	svcpl	0x00646e65
     270:	00727265 	rsbseq	r7, r2, r5, ror #4
     274:	5f707861 	svcpl	0x00707861
     278:	6e657665 	cdpvs	6, 6, cr7, cr5, cr5, {3}
     27c:	68730074 	ldmdavs	r3!, {r2, r4, r5, r6}^
     280:	2074726f 	rsbscs	r7, r4, pc, ror #4
     284:	69736e75 	ldmdbvs	r3!, {r0, r2, r4, r5, r6, r9, sl, fp, sp, lr}^
     288:	64656e67 	strbtvs	r6, [r5], #-3687	; 0xfffff199
     28c:	746e6920 	strbtvc	r6, [lr], #-2336	; 0xfffff6e0
     290:	656c7000 	strbvs	r7, [ip, #-0]!
     294:	72646963 	rsbvc	r6, r4, #1622016	; 0x18c000
     298:	76617300 	strbtvc	r7, [r1], -r0, lsl #6
     29c:	70735f65 	rsbsvc	r5, r3, r5, ror #30
     2a0:	6d6f6e5f 	stclvs	14, cr6, [pc, #-380]!	; 12c <__suspend_start+0x12c>
     2a4:	7500756d 	strvc	r7, [r0, #-1389]	; 0xfffffa93
     2a8:	70746f72 	rsbsvc	r6, r4, r2, ror pc
     2ac:	2f006469 	svccs	0x00006469
     2b0:	656d6f68 	strbvs	r6, [sp, #-3944]!	; 0xfffff098
     2b4:	646e612f 	strbtvs	r6, [lr], #-303	; 0xfffffed1
     2b8:	64696f72 	strbtvs	r6, [r9], #-3954	; 0xfffff08e
     2bc:	72656b2f 	rsbvc	r6, r5, #48128	; 0xbc00
     2c0:	2f6c656e 	svccs	0x006c656e
     2c4:	68637261 	stmdavs	r3!, {r0, r5, r6, r9, ip, sp, lr}^
     2c8:	6d72612f 	ldfvse	f6, [r2, #-188]!	; 0xffffff44
     2cc:	63616d2f 	cmnvs	r1, #3008	; 0xbc0
     2d0:	75732d68 	ldrbvc	r2, [r3, #-3432]!	; 0xfffff298
     2d4:	2f69356e 	svccs	0x0069356e
     2d8:	732f6d70 	teqvc	pc, #112, 26	; 0x1c00
     2dc:	646e6174 	strbtvs	r6, [lr], #-372	; 0xfffffe8c
     2e0:	2e007962 	cdpcs	9, 0, cr7, cr0, cr2, {3}
     2e4:	7075732f 	rsbsvc	r7, r5, pc, lsr #6
     2e8:	732f7265 	teqvc	pc, #1342177286	; 0x50000006
     2ec:	65707375 	ldrbvs	r7, [r0, #-885]!	; 0xfffffc8b
     2f0:	732f646e 	teqvc	pc, #1845493760	; 0x6e000000
     2f4:	65707375 	ldrbvs	r7, [r0, #-885]!	; 0xfffffc8b
     2f8:	632e646e 	teqvs	lr, #1845493760	; 0x6e000000
     2fc:	745f6400 	ldrbvc	r6, [pc], #-1024	; 304 <invalidate_branch_predictor+0x14>
     300:	726c626c 	rsbvc	r6, ip, #108, 4	; 0xc0000006
     304:	6c6c7000 	stclvs	0, cr7, [ip], #-0
     308:	6361665f 	cmnvs	r1, #99614720	; 0x5f00000
     30c:	5f726f74 	svcpl	0x00726f74
     310:	63660074 	cmnvs	r6, #116	; 0x74
     314:	5f006573 	svcpl	0x00006573
     318:	0038755f 	eorseq	r7, r8, pc, asr r5
     31c:	7273666f 	rsbsvc	r6, r3, #116391936	; 0x6f00000
     320:	636d7000 	cmnvs	sp, #0
     324:	72746e6f 	rsbsvc	r6, r4, #1776	; 0x6f0
     328:	00726c6f 	rsbseq	r6, r2, pc, ror #24
     32c:	72736563 	rsbsvc	r6, r3, #415236096	; 0x18c00000
     330:	554e4700 	strbpl	r4, [lr, #-1792]	; 0xfffff900
     334:	34204320 	strtcc	r4, [r0], #-800	; 0xfffffce0
     338:	312e352e 	teqcc	lr, lr, lsr #10
     33c:	73757300 	cmnvc	r5, #0, 6
     340:	646e6570 	strbtvs	r6, [lr], #-1392	; 0xfffffa90
     344:	6572665f 	ldrbvs	r6, [r2, #-1631]!	; 0xfffff9a1
     348:	74740071 	ldrbtvc	r0, [r4], #-113	; 0xffffff8f
     34c:	72315f62 	eorsvc	r5, r1, #392	; 0x188
     350:	6d656d00 	stclvs	13, cr6, [r5, #-0]
     354:	7261705f 	rsbvc	r7, r1, #95	; 0x5f
     358:	6e695f61 	cdpvs	15, 6, cr5, cr9, cr1, {3}
     35c:	70006f66 	andvc	r6, r0, r6, ror #30
     360:	6569656c 	strbvs	r6, [r9, #-1388]!	; 0xfffffa94
     364:	69007261 	stmdbvs	r0, {r0, r5, r6, r9, ip, sp, lr}
     368:	7273665f 	rsbsvc	r6, r3, #99614720	; 0x5f00000
     36c:	72726e00 	rsbsvc	r6, r2, #0, 28
     370:	74740072 	ldrbtvc	r0, [r4], #-114	; 0xffffff8e
     374:	00726362 	rsbseq	r6, r2, r2, ror #6
     378:	6f636d70 	svcvs	0x00636d70
     37c:	72746e75 	rsbsvc	r6, r4, #1872	; 0x750
     380:	615f6900 	cmpvs	pc, r0, lsl #18
     384:	00727366 	rsbseq	r7, r2, r6, ror #6
     388:	5f6d656d 	svcpl	0x006d656d
     38c:	6c657270 	sfmvs	f7, 2, [r5], #-448	; 0xfffffe40
     390:	5f64616f 	svcpl	0x0064616f
     394:	5f626c74 	svcpl	0x00626c74
     398:	6d6d6f6e 	stclvs	15, cr6, [sp, #-440]!	; 0xfffffe48
     39c:	75730075 	ldrbvc	r0, [r3, #-117]!	; 0xffffff8b
     3a0:	6e657073 	mcrvs	0, 3, r7, cr5, cr3, {3}
     3a4:	72645f64 	rsbvc	r5, r4, #100, 30	; 0x190
     3a8:	655f6d61 	ldrbvs	r6, [pc, #-3425]	; fffff64f <__bss_end+0xffffbde7>
     3ac:	72007272 	andvc	r7, r0, #536870919	; 0x20000007
     3b0:	6d757365 	ldclvs	3, cr7, [r5, #-404]!	; 0xfffffe6c
     3b4:	6f705f65 	svcvs	0x00705f65
     3b8:	65746e69 	ldrbvs	r6, [r4, #-3689]!	; 0xfffff197
     3bc:	6c700072 	ldclvs	0, cr0, [r0], #-456	; 0xfffffe38
     3c0:	726e6365 	rsbvc	r6, lr, #-1811939327	; 0x94000001
     3c4:	746f7000 	strbtvc	r7, [pc], #-0	; 3cc <enable_cache+0x18>
     3c8:	00646970 	rsbeq	r6, r4, r0, ror r9
     3cc:	6c63326c 	sfmvs	f3, 2, [r3], #-432	; 0xfffffe50
     3d0:	61630072 	smcvs	12290	; 0x3002
     3d4:	46007263 	strmi	r7, [r0], -r3, ror #4
     3d8:	6f746361 	svcvs	0x00746361
     3dc:	64004b72 	strvs	r4, [r0], #-2930	; 0xfffff48e
     3e0:	00747365 	rsbseq	r7, r4, r5, ror #6
     3e4:	5f706d74 	svcpl	0x00706d74
     3e8:	00747364 	rsbseq	r7, r4, r4, ror #6
     3ec:	75732f2e 	ldrbvc	r2, [r3, #-3886]!	; 0xfffff0d2
     3f0:	2f726570 	svccs	0x00726570
     3f4:	6d6d6f63 	stclvs	15, cr6, [sp, #-396]!	; 0xfffffe74
     3f8:	632e6e6f 	teqvs	lr, #1776	; 0x6f0
     3fc:	706d7400 	rsbvc	r7, sp, r0, lsl #8
     400:	6372735f 	cmnvs	r2, #2080374785	; 0x7c000001
     404:	6d656d00 	stclvs	13, cr6, [r5, #-0]
     408:	6d656d5f 	stclvs	13, cr6, [r5, #-380]!	; 0xfffffe84
     40c:	00797063 	rsbseq	r7, r9, r3, rrx
     410:	50716946 	rsbspl	r6, r1, r6, asr #18
     414:	00646e65 	rsbeq	r6, r4, r5, ror #28
     418:	5f6d656d 	svcpl	0x006d656d
     41c:	5f746e69 	svcpl	0x00746e69
     420:	74697865 	strbtvc	r7, [r9], #-2149	; 0xfffff79b
     424:	746e6900 	strbtvc	r6, [lr], #-2304	; 0xfffff700
     428:	75727265 	ldrbvc	r7, [r2, #-613]!	; 0xfffffd9b
     42c:	735f7470 	cmpvc	pc, #112, 8	; 0x70000000
     430:	6372756f 	cmnvs	r2, #465567744	; 0x1bc00000
     434:	00655f65 	rsbeq	r5, r5, r5, ror #30
     438:	50717249 	rsbspl	r7, r1, r9, asr #4
     43c:	006f6972 	rsbeq	r6, pc, r2, ror r9	; <UNPREDICTABLE>
     440:	5f6d656d 	svcpl	0x006d656d
     444:	72657571 	rsbvc	r7, r5, #473956352	; 0x1c400000
     448:	6e695f79 	mcrvs	15, 3, r5, cr9, cr9, {3}
     44c:	72490074 	subvc	r0, r9, #116	; 0x74
     450:	6e655071 	mcrvs	0, 3, r5, cr5, cr1, {3}
     454:	72490064 	subvc	r0, r9, #100	; 0x64
     458:	726f4671 	rsbvc	r4, pc, #118489088	; 0x7100000
     45c:	49006563 	stmdbmi	r0, {r0, r1, r5, r6, r8, sl, sp, lr}
     460:	6e457172 	mcrvs	1, 2, r7, cr5, cr2, {3}
     464:	00676552 	rsbeq	r6, r7, r2, asr r5
     468:	5f544e49 	svcpl	0x00544e49
     46c:	52554f53 	subspl	r4, r5, #332	; 0x14c
     470:	4b5f4543 	blmi	17d1984 <__bss_end+0x17ce11c>
     474:	41505945 	cmpmi	r0, r5, asr #18
     478:	4e490044 	cdpmi	0, 4, cr0, cr9, cr4, {2}
     47c:	4f535f54 	svcmi	0x00535f54
     480:	45435255 	strbmi	r5, [r3, #-597]	; 0xfffffdab
     484:	414c415f 	cmpmi	ip, pc, asr r1
     488:	49004d52 	stmdbmi	r0, {r1, r4, r6, r8, sl, fp, lr}
     48c:	65527172 	ldrbvs	r7, [r2, #-370]	; 0xfffffe8e
     490:	49007073 	stmdbmi	r0, {r0, r1, r4, r5, r6, ip, sp, lr}
     494:	535f544e 	cmppl	pc, #1308622848	; 0x4e000000
     498:	4352554f 	cmpmi	r2, #331350016	; 0x13c00000
     49c:	4f545f45 	svcmi	0x00545f45
     4a0:	50484355 	subpl	r4, r8, r5, asr r3
     4a4:	49004c4e 	stmdbmi	r0, {r1, r2, r3, r6, sl, fp, lr}
     4a8:	535f544e 	cmppl	pc, #1308622848	; 0x4e000000
     4ac:	4352554f 	cmpmi	r2, #331350016	; 0x13c00000
     4b0:	52495f45 	subpl	r5, r9, #276	; 0x114
     4b4:	4e490030 	mcrmi	0, 2, r0, cr9, cr0, {1}
     4b8:	4f535f54 	svcmi	0x00535f54
     4bc:	45435255 	strbmi	r5, [r3, #-597]	; 0xfffffdab
     4c0:	3152495f 	cmpcc	r2, pc, asr r9
     4c4:	6d656d00 	stclvs	13, cr6, [r5, #-0]
     4c8:	746e695f 	strbtvc	r6, [lr], #-2399	; 0xfffff6a1
     4cc:	696e695f 	stmdbvs	lr!, {r0, r1, r2, r3, r4, r6, r8, fp, sp, lr}^
     4d0:	4e490074 	mcrmi	0, 2, r0, cr9, cr4, {3}
     4d4:	4f535f54 	svcmi	0x00535f54
     4d8:	45435255 	strbmi	r5, [r3, #-597]	; 0xfffffdab
     4dc:	4d49545f 	cfstrdmi	mvd5, [r9, #-380]	; 0xfffffe84
     4e0:	00305245 	eorseq	r5, r0, r5, asr #4
     4e4:	5f544e49 	svcpl	0x00544e49
     4e8:	52554f53 	subspl	r4, r5, #332	; 0x14c
     4ec:	545f4543 	ldrbpl	r4, [pc], #-1347	; 4f4 <mem_preload_tlb_nommu+0x10>
     4f0:	52454d49 	subpl	r4, r5, #4672	; 0x1240
     4f4:	4e490031 	mcrmi	0, 2, r0, cr9, cr1, {1}
     4f8:	4f535f54 	svcmi	0x00535f54
     4fc:	45435255 	strbmi	r5, [r3, #-597]	; 0xfffffdab
     500:	4253555f 	subsmi	r5, r3, #398458880	; 0x17c00000
     504:	4e490030 	mcrmi	0, 2, r0, cr9, cr0, {1}
     508:	4f535f54 	svcmi	0x00535f54
     50c:	45435255 	strbmi	r5, [r3, #-597]	; 0xfffffdab
     510:	4253555f 	subsmi	r5, r3, #398458880	; 0x17c00000
     514:	4e490031 	mcrmi	0, 2, r0, cr9, cr1, {1}
     518:	4f535f54 	svcmi	0x00535f54
     51c:	45435255 	strbmi	r5, [r3, #-597]	; 0xfffffdab
     520:	4253555f 	subsmi	r5, r3, #398458880	; 0x17c00000
     524:	4e490032 	mcrmi	0, 2, r0, cr9, cr2, {1}
     528:	4f535f54 	svcmi	0x00535f54
     52c:	45435255 	strbmi	r5, [r3, #-597]	; 0xfffffdab
     530:	4253555f 	subsmi	r5, r3, #398458880	; 0x17c00000
     534:	4e490033 	mcrmi	0, 2, r0, cr9, cr3, {1}
     538:	4f535f54 	svcmi	0x00535f54
     53c:	45435255 	strbmi	r5, [r3, #-597]	; 0xfffffdab
     540:	4253555f 	subsmi	r5, r3, #398458880	; 0x17c00000
     544:	79540034 	ldmdbvc	r4, {r2, r4, r5}^
     548:	65536570 	ldrbvs	r6, [r3, #-1392]	; 0xfffffa90
     54c:	4e49006c 	cdpmi	0, 4, cr0, cr9, cr12, {3}
     550:	4f535f54 	svcmi	0x00535f54
     554:	45435255 	strbmi	r5, [r3, #-597]	; 0xfffffdab
     558:	5458455f 	ldrbpl	r4, [r8], #-1375	; 0xfffffaa1
     55c:	00494d4e 	subeq	r4, r9, lr, asr #26
     560:	43696d4e 	cmnmi	r9, #4992	; 0x1380
     564:	006c7274 	rsbeq	r7, ip, r4, ror r2
     568:	5f6d656d 	svcpl	0x006d656d
     56c:	5f746e69 	svcpl	0x00746e69
     570:	5f676572 	svcpl	0x00676572
     574:	65720074 	ldrbvs	r0, [r2, #-116]!	; 0xffffff8c
     578:	746c7573 	strbtvc	r7, [ip], #-1395	; 0xfffffa8d
     57c:	63655600 	cmnvs	r5, #0, 12
     580:	00726f74 	rsbseq	r6, r2, r4, ror pc
     584:	5f544e49 	svcpl	0x00544e49
     588:	52554f53 	subspl	r4, r5, #332	; 0x14c
     58c:	4c5f4543 	cfldr64mi	mvdx4, [pc], {67}	; 0x43
     590:	43444152 	movtmi	r4, #16722	; 0x4152
     594:	73614200 	cmnvc	r1, #0, 4
     598:	64644165 	strbtvs	r4, [r4], #-357	; 0xfffffe9b
     59c:	656d0072 	strbvs	r0, [sp, #-114]!	; 0xffffff8e
     5a0:	6e655f6d 	cdpvs	15, 6, cr5, cr5, cr13, {3}
     5a4:	656c6261 	strbvs	r6, [ip, #-609]!	; 0xfffffd9f
     5a8:	746e695f 	strbtvc	r6, [lr], #-2399	; 0xfffff6a1
     5ac:	71724900 	cmnvc	r2, r0, lsl #18
     5b0:	6b73614d 	blvs	1cd8aec <__bss_end+0x1cd5284>
     5b4:	732f2e00 	teqvc	pc, #0, 28
     5b8:	72657075 	rsbvc	r7, r5, #117	; 0x75
     5bc:	7075732f 	rsbsvc	r7, r5, pc, lsr #6
     5c0:	695f7265 	ldmdbvs	pc, {r0, r2, r5, r6, r9, ip, sp, lr}^	; <UNPREDICTABLE>
     5c4:	632e746e 	teqvs	lr, #1845493760	; 0x6e000000
     5c8:	706d7400 	rsbvc	r7, sp, r0, lsl #8
     5cc:	00707247 	rsbseq	r7, r0, r7, asr #4
     5d0:	4d717249 	lfmmi	f7, 2, [r1, #-292]!	; 0xfffffedc
     5d4:	526b7361 	rsbpl	r7, fp, #-2080374783	; 0x84000001
     5d8:	49006765 	stmdbmi	r0, {r0, r2, r5, r6, r8, r9, sl, sp, lr}
     5dc:	5263746e 	rsbpl	r7, r3, #1845493760	; 0x6e000000
     5e0:	49006765 	stmdbmi	r0, {r0, r2, r5, r6, r8, r9, sl, sp, lr}
     5e4:	65537172 	ldrbvs	r7, [r3, #-370]	; 0xfffffe8e
     5e8:	6765526c 	strbvs	r5, [r5, -ip, ror #4]!
     5ec:	706d7400 	rsbvc	r7, sp, r0, lsl #8
     5f0:	00637253 	rsbeq	r7, r3, r3, asr r2
     5f4:	65736572 	ldrbvs	r6, [r3, #-1394]!	; 0xfffffa8e
     5f8:	64657672 	strbtvs	r7, [r5], #-1650	; 0xfffff98e
     5fc:	65720030 	ldrbvs	r0, [r2, #-48]!	; 0xffffffd0
     600:	76726573 			; <UNDEFINED> instruction: 0x76726573
     604:	00316465 	eorseq	r6, r1, r5, ror #8
     608:	65736572 	ldrbvs	r6, [r3, #-1394]!	; 0xfffffa8e
     60c:	64657672 	strbtvs	r7, [r5], #-1650	; 0xfffff98e
     610:	65720032 	ldrbvs	r0, [r2, #-50]!	; 0xffffffce
     614:	76726573 			; <UNDEFINED> instruction: 0x76726573
     618:	00336465 	eorseq	r6, r3, r5, ror #8
     61c:	65736572 	ldrbvs	r6, [r3, #-1394]!	; 0xfffffa8e
     620:	64657672 	strbtvs	r7, [r5], #-1650	; 0xfffff98e
     624:	65720034 	ldrbvs	r0, [r2, #-52]!	; 0xffffffcc
     628:	76726573 			; <UNDEFINED> instruction: 0x76726573
     62c:	00356465 	eorseq	r6, r5, r5, ror #8
     630:	65736572 	ldrbvs	r6, [r3, #-1394]!	; 0xfffffa8e
     634:	64657672 	strbtvs	r7, [r5], #-1650	; 0xfffff98e
     638:	65720036 	ldrbvs	r0, [r2, #-54]!	; 0xffffffca
     63c:	76726573 			; <UNDEFINED> instruction: 0x76726573
     640:	00376465 	eorseq	r6, r7, r5, ror #8
     644:	72616c41 	rsbvc	r6, r1, #16640	; 0x4100
     648:	4d48576d 	stclmi	7, cr5, [r8, #-436]	; 0xfffffe4c
     64c:	6c410053 	mcrrvs	0, 5, r0, r1, cr3
     650:	496d7261 	stmdbmi	sp!, {r0, r5, r6, r9, ip, sp, lr}^
     654:	74537172 	ldrbvc	r7, [r3], #-370	; 0xfffffe8e
     658:	76410061 	strbvc	r0, [r1], -r1, rrx
     65c:	6e433173 	mcrvs	1, 2, r3, cr3, cr3, {3}
     660:	6c410074 	mcrrvs	0, 7, r0, r1, cr4
     664:	496d7261 	stmdbmi	sp!, {r0, r5, r6, r9, ip, sp, lr}^
     668:	6e457172 	mcrvs	1, 2, r7, cr5, cr2, {3}
     66c:	63745200 	cmnvs	r4, #0, 4
     670:	534d4844 	movtpl	r4, #55364	; 0xd844
     674:	676f4400 	strbvs	r4, [pc, -r0, lsl #8]!
     678:	006c7443 	rsbeq	r7, ip, r3, asr #8
     67c:	59637452 	stmdbpl	r3!, {r1, r4, r6, sl, ip, sp, lr}^
     680:	5400444d 	strpl	r4, [r0], #-1101	; 0xfffffbb3
     684:	4930726d 	ldmdbmi	r0!, {r0, r2, r3, r5, r6, r9, ip, sp, lr}
     688:	6156746e 	cmpvs	r6, lr, ror #8
     68c:	7452006c 	ldrbvc	r0, [r2], #-108	; 0xffffff94
     690:	534d4863 	movtpl	r4, #55395	; 0xd863
     694:	726d5400 	rsbvc	r5, sp, #0, 8
     698:	6c744331 	ldclvs	3, cr4, [r4], #-196	; 0xffffff3c
     69c:	726d5400 	rsbvc	r5, sp, #0, 8
     6a0:	746e4330 	strbtvc	r4, [lr], #-816	; 0xfffffcd0
     6a4:	006c6156 	rsbeq	r6, ip, r6, asr r1
     6a8:	35726d54 	ldrbcc	r6, [r2, #-3412]!	; 0xfffff2ac
     6ac:	006c7443 	rsbeq	r7, ip, r3, asr #8
     6b0:	32726d54 	rsbscc	r6, r2, #84, 26	; 0x1500
     6b4:	56746e49 	ldrbtpl	r6, [r4], -r9, asr #28
     6b8:	5f006c61 	svcpl	0x00006c61
     6bc:	6d656d5f 	stclvs	13, cr6, [r5, #-380]!	; 0xfffffe84
     6c0:	726d745f 	rsbvc	r7, sp, #1593835520	; 0x5f000000
     6c4:	6765725f 			; <UNDEFINED> instruction: 0x6765725f
     6c8:	5f00745f 	svcpl	0x0000745f
     6cc:	4154535f 	cmpmi	r4, pc, asr r3
     6d0:	5942444e 	stmdbpl	r2, {r1, r2, r3, r6, sl, lr}^
     6d4:	524d545f 	subpl	r5, sp, #1593835520	; 0x5f000000
     6d8:	4745525f 	smlsldmi	r5, r5, pc, r2	; <UNPREDICTABLE>
     6dc:	726d5400 	rsbvc	r5, sp, #0, 8
     6e0:	746e4332 	strbtvc	r4, [lr], #-818	; 0xfffffcce
     6e4:	006c6156 	rsbeq	r6, ip, r6, asr r1
     6e8:	34726d54 	ldrbtcc	r6, [r2], #-3412	; 0xfffff2ac
     6ec:	56746e49 	ldrbtpl	r6, [r4], -r9, asr #28
     6f0:	54006c61 	strpl	r6, [r0], #-3169	; 0xfffff39f
     6f4:	4334726d 	teqmi	r4, #-805306362	; 0xd0000006
     6f8:	6156746e 	cmpvs	r6, lr, ror #8
     6fc:	7641006c 	strbvc	r0, [r1], -ip, rrx
     700:	6c744373 	ldclvs	3, cr4, [r4], #-460	; 0xfffffe34
     704:	616c4100 	cmnvs	ip, r0, lsl #2
     708:	6e456d72 	mcrvs	13, 2, r6, cr5, cr2, {3}
     70c:	73657200 	cmnvc	r5, #0, 4
     710:	65767265 	ldrbvs	r7, [r6, #-613]!	; 0xfffffd9b
     714:	43003864 	movwmi	r3, #2148	; 0x864
     718:	3436746e 	ldrtcc	r7, [r6], #-1134	; 0xfffffb92
     71c:	54006948 	strpl	r6, [r0], #-2376	; 0xfffff6b8
     720:	4332726d 	teqmi	r2, #-805306362	; 0xd0000006
     724:	6d006c74 	stcvs	12, cr6, [r0, #-464]	; 0xfffffe30
     728:	745f6d65 	ldrbvc	r6, [pc], #-3429	; 730 <mem_int_init+0x50>
     72c:	695f726d 	ldmdbvs	pc, {r0, r2, r3, r5, r6, r9, ip, sp, lr}^	; <UNPREDICTABLE>
     730:	0074696e 	rsbseq	r6, r4, lr, ror #18
     734:	4d676f44 	stclmi	15, cr6, [r7, #-272]!	; 0xfffffef0
     738:	0065646f 	rsbeq	r6, r5, pc, ror #8
     73c:	36746e43 	ldrbtcc	r6, [r4], -r3, asr #28
     740:	006f4c34 	rsbeq	r4, pc, r4, lsr ip	; <UNPREDICTABLE>
     744:	5f6d656d 	svcpl	0x006d656d
     748:	5f726d74 	svcpl	0x00726d74
     74c:	61736964 	cmnvs	r3, r4, ror #18
     750:	5f656c62 	svcpl	0x00656c62
     754:	63746177 	cmnvs	r4, #-1073741795	; 0xc000001d
     758:	676f6468 	strbvs	r6, [pc, -r8, ror #8]!
     75c:	736f4c00 	cmnvc	pc, #0, 24
     760:	6c744363 	ldclvs	3, cr4, [r4], #-396	; 0xfffffe74
     764:	746e4300 	strbtvc	r4, [lr], #-768	; 0xfffffd00
     768:	74433436 	strbvc	r3, [r3], #-1078	; 0xfffffbca
     76c:	6d54006c 	ldclvs	0, cr0, [r4, #-432]	; 0xfffffe50
     770:	6e493172 	mcrvs	1, 2, r3, cr9, cr2, {3}
     774:	6c615674 	stclvs	6, cr5, [r1], #-464	; 0xfffffe30
     778:	73764100 	cmnvc	r6, #0, 2
     77c:	00766944 	rsbseq	r6, r6, r4, asr #18
     780:	33726d54 	cmncc	r2, #84, 26	; 0x1500
     784:	006c7443 	rsbeq	r7, ip, r3, asr #8
     788:	53746e49 	cmnpl	r4, #1168	; 0x490
     78c:	54006174 	strpl	r6, [r0], #-372	; 0xfffffe8c
     790:	7047726d 	subvc	r7, r7, sp, ror #4
     794:	00676552 	rsbeq	r6, r7, r2, asr r5
     798:	31726d54 	cmncc	r2, r4, asr sp
     79c:	56746e43 	ldrbtpl	r6, [r4], -r3, asr #28
     7a0:	54006c61 	strpl	r6, [r0], #-3169	; 0xfffff39f
     7a4:	6e49726d 	cdpvs	2, 4, cr7, cr9, cr13, {3}
     7a8:	6c744374 	ldclvs	3, cr4, [r4], #-464	; 0xfffffe30
     7ac:	726d5400 	rsbvc	r5, sp, #0, 8
     7b0:	746e4933 	strbtvc	r4, [lr], #-2355	; 0xfffff6cd
     7b4:	006c6156 	rsbeq	r6, ip, r6, asr r1
     7b8:	75732f2e 	ldrbvc	r2, [r3, #-3886]!	; 0xfffff0d2
     7bc:	2f726570 	svccs	0x00726570
     7c0:	65707573 	ldrbvs	r7, [r0, #-1395]!	; 0xfffffa8d
     7c4:	6d745f72 	ldclvs	15, cr5, [r4, #-456]!	; 0xfffffe38
     7c8:	00632e72 	rsbeq	r2, r3, r2, ror lr
     7cc:	30737641 	rsbscc	r7, r3, r1, asr #12
     7d0:	00746e43 	rsbseq	r6, r4, r3, asr #28
     7d4:	35726d54 	ldrbcc	r6, [r2, #-3412]!	; 0xfffff2ac
     7d8:	56746e49 	ldrbtpl	r6, [r4], -r9, asr #28
     7dc:	54006c61 	strpl	r6, [r0], #-3169	; 0xfffff39f
     7e0:	4335726d 	teqmi	r5, #-805306362	; 0xd0000006
     7e4:	6156746e 	cmpvs	r6, lr, ror #8
     7e8:	6d54006c 	ldclvs	0, cr0, [r4, #-432]	; 0xfffffe50
     7ec:	67655272 			; <UNDEFINED> instruction: 0x67655272
     7f0:	726d5400 	rsbvc	r5, sp, #0, 8
     7f4:	6c744330 	ldclvs	3, cr4, [r4], #-192	; 0xffffff40
     7f8:	726d5400 	rsbvc	r5, sp, #0, 8
     7fc:	6c744334 	ldclvs	3, cr4, [r4], #-208	; 0xffffff30
     800:	6c6c5000 	stclvs	0, cr5, [ip], #-0
     804:	6e755435 	mrcvs	4, 3, r5, cr5, cr5, {1}
     808:	61570065 	cmpvs	r7, r5, rrx
     80c:	74536576 	ldrbvc	r6, [r3], #-1398	; 0xfffffa8a
     810:	5f007065 	svcpl	0x00007065
     814:	6d63635f 	stclvs	3, cr6, [r3, #-380]!	; 0xfffffe84
     818:	68615f75 	stmdavs	r1!, {r0, r2, r4, r5, r6, r8, r9, sl, fp, ip, lr}^
     81c:	6b6c6362 	blvs	1b195ac <__bss_end+0x1b15d44>
     820:	7461675f 	strbtvc	r6, [r1], #-1887	; 0xfffff8a1
     824:	725f3065 	subsvc	r3, pc, #101	; 0x65
     828:	30306765 	eorscc	r6, r0, r5, ror #14
     82c:	745f3036 	ldrbvc	r3, [pc], #-54	; 834 <mem_query_int+0x1c>
     830:	6c6c5000 	stclvs	0, cr5, [ip], #-0
     834:	6e755435 	mrcvs	4, 3, r5, cr5, cr5, {1}
     838:	56003265 	strpl	r3, [r0], -r5, ror #4
     83c:	6b6c4365 	blvs	1b115d8 <__bss_end+0x1b0dd70>
     840:	65765400 	ldrbvs	r5, [r6, #-1024]!	; 0xfffffc00
     844:	65736552 	ldrbvs	r6, [r3, #-1362]!	; 0xfffffaae
     848:	5f5f0074 	svcpl	0x005f0074
     84c:	756d6363 	strbvc	r6, [sp, #-867]!	; 0xfffffc9d
     850:	6d64685f 	stclvs	8, cr6, [r4, #-380]!	; 0xfffffe84
     854:	6c635f69 	stclvs	15, cr5, [r3], #-420	; 0xfffffe5c
     858:	65725f6b 	ldrbvs	r5, [r2, #-3947]!	; 0xfffff095
     85c:	35313067 	ldrcc	r3, [r1, #-103]!	; 0xffffff99
     860:	00745f30 	rsbseq	r5, r4, r0, lsr pc
     864:	43435f5f 	movtmi	r5, #16223	; 0x3f5f
     868:	415f554d 	cmpmi	pc, sp, asr #10
     86c:	4c434248 	sfmmi	f4, 2, [r3], {72}	; 0x48
     870:	41475f4b 	mrsmi	r5, SPSR
     874:	5f304554 	svcpl	0x00304554
     878:	30474552 	subcc	r4, r7, r2, asr r5
     87c:	00303630 	eorseq	r3, r0, r0, lsr r6
     880:	7375624d 	cmnvc	r5, #-805306364	; 0xd0000004
     884:	006b6c43 	rsbeq	r6, fp, r3, asr #24
     888:	61477354 	cmpvs	r7, r4, asr r3
     88c:	53006574 	movwpl	r6, #1396	; 0x574
     890:	43316970 	teqmi	r1, #112, 18	; 0x1c0000
     894:	4c006b6c 	stcmi	11, cr6, [r0], {108}	; 0x6c
     898:	43306463 	teqmi	r0, #1660944384	; 0x63000000
     89c:	6c433068 	mcrrvs	0, 6, r3, r3, cr8
     8a0:	5f5f006b 	svcpl	0x005f006b
     8a4:	554d4343 	strbpl	r4, [sp, #-835]	; 0xfffffcbd
     8a8:	4c4c505f 	mcrrmi	0, 5, r5, ip, cr15
     8ac:	55545f32 	ldrbpl	r5, [r4, #-3890]	; 0xfffff0ce
     8b0:	474e494e 	strbmi	r4, [lr, -lr, asr #18]
     8b4:	4745525f 	smlsldmi	r5, r5, pc, r2	; <UNPREDICTABLE>
     8b8:	43303030 	teqmi	r0, #48	; 0x30
     8bc:	4f435600 	svcmi	0x00435600
     8c0:	6e696147 	powvsem	f6, f1, f7
     8c4:	006c7443 	rsbeq	r7, ip, r3, asr #8
     8c8:	43435f5f 	movtmi	r5, #16223	; 0x3f5f
     8cc:	465f554d 	ldrbmi	r5, [pc], -sp, asr #10
     8d0:	4d454445 	cfstrdmi	mvd4, [r5, #-276]	; 0xfffffeec
     8d4:	4c435f50 	mcrrmi	15, 5, r5, r3, cr0
     8d8:	5f5f004b 	svcpl	0x005f004b
     8dc:	554d4343 	strbpl	r4, [sp, #-835]	; 0xfffffcbd
     8e0:	4152445f 	cmpmi	r2, pc, asr r4
     8e4:	41475f4d 	mrsmi	r5, SPSR
     8e8:	525f4554 	subspl	r4, pc, #84, 10	; 0x15000000
     8ec:	31304745 	teqcc	r0, r5, asr #14
     8f0:	5f003030 	svcpl	0x00003030
     8f4:	6d63635f 	stclvs	3, cr6, [r3, #-380]!	; 0xfffffe84
     8f8:	64615f75 	strbtvs	r5, [r1], #-3957	; 0xfffff08b
     8fc:	635f6164 	cmpvs	pc, #100, 2
     900:	725f6b6c 	subsvc	r6, pc, #108, 22	; 0x1b000
     904:	31306765 	teqcc	r0, r5, ror #14
     908:	745f3034 	ldrbvc	r3, [pc], #-52	; 910 <mem_clk_pllenable+0x10>
     90c:	635f5f00 	cmpvs	pc, #0, 30
     910:	5f756d63 	svcpl	0x00756d63
     914:	6d617264 	sfmvs	f7, 2, [r1, #-400]!	; 0xfffffe70
     918:	7461675f 	strbtvc	r6, [r1], #-1887	; 0xfffff8a1
     91c:	65725f65 	ldrbvs	r5, [r2, #-3941]!	; 0xfffff09b
     920:	30313067 	eorscc	r3, r1, r7, rrx
     924:	00745f30 	rsbseq	r5, r4, r0, lsr pc
     928:	74736f50 	ldrbtvc	r6, [r3], #-3920	; 0xfffff0b0
     92c:	00766944 	rsbseq	r6, r6, r4, asr #18
     930:	30697053 	rsbcc	r7, r9, r3, asr r0
     934:	65746147 	ldrbvs	r6, [r4, #-327]!	; 0xfffffeb9
     938:	4d645300 	stclmi	3, cr5, [r4, #-0]
     93c:	4330636d 	teqmi	r0, #-1275068415	; 0xb4000001
     940:	43006b6c 	movwmi	r6, #2924	; 0xb6c
     944:	72506b6c 	subsvc	r6, r0, #108, 22	; 0x1b000
     948:	76694465 	strbtvc	r4, [r9], -r5, ror #8
     94c:	4f435600 	svcmi	0x00435600
     950:	6e696147 	powvsem	f6, f1, f7
     954:	50006e45 	andpl	r6, r0, r5, asr #28
     958:	6e494c4c 	cdpvs	12, 4, cr4, cr9, cr12, {2}
     95c:	65776f50 	ldrbvs	r6, [r7, #-3920]!	; 0xfffff0b0
     960:	5f5f0072 	svcpl	0x005f0072
     964:	554d4343 	strbpl	r4, [sp, #-835]	; 0xfffffcbd
     968:	44564c5f 	ldrbmi	r4, [r6], #-3167	; 0xfffff3a1
     96c:	4c435f53 	mcrrmi	15, 5, r5, r3, cr3
     970:	45525f4b 	ldrbmi	r5, [r2, #-3915]	; 0xfffff0b5
     974:	34313047 	ldrtcc	r3, [r1], #-71	; 0xffffffb9
     978:	69500043 	ldmdbvs	r0, {r0, r1, r6}^
     97c:	7461476f 	strbtvc	r4, [r1], #-1903	; 0xfffff891
     980:	6c500065 	mrrcvs	0, 6, r0, r0, cr5	; <UNPREDICTABLE>
     984:	7443346c 	strbvc	r3, [r3], #-1132	; 0xfffffb94
     988:	5f5f006c 	svcpl	0x005f006c
     98c:	756d6363 	strbvc	r6, [sp, #-867]!	; 0xfffffc9d
     990:	6c6c705f 	stclvs	0, cr7, [ip], #-380	; 0xfffffe84
     994:	75745f31 	ldrbvc	r5, [r4, #-3889]!	; 0xfffff0cf
     998:	676e696e 	strbvs	r6, [lr, -lr, ror #18]!
     99c:	65725f32 	ldrbvs	r5, [r2, #-3890]!	; 0xfffff0ce
     9a0:	33303067 	teqcc	r0, #103	; 0x67
     9a4:	00745f38 	rsbseq	r5, r4, r8, lsr pc
     9a8:	43435f5f 	movtmi	r5, #16223	; 0x3f5f
     9ac:	4d5f554d 	cfldr64mi	mvdx5, [pc, #-308]	; 880 <mem_tmr_disable_watchdog+0x20>
     9b0:	4c55444f 	cfldrdmi	mvd4, [r5], {79}	; 0x4f
     9b4:	435f3145 	cmpmi	pc, #1073741841	; 0x40000011
     9b8:	4c004b4c 	stcmi	11, cr4, [r0], {76}	; 0x4c
     9bc:	6e454f44 	cdpvs	15, 4, cr4, cr5, cr4, {2}
     9c0:	635f5f00 	cmpvs	pc, #0, 30
     9c4:	5f756d63 	svcpl	0x00756d63
     9c8:	366c6c70 			; <UNDEFINED> instruction: 0x366c6c70
     9cc:	7461735f 	strbtvc	r7, [r1], #-863	; 0xfffffca1
     9d0:	65725f61 	ldrbvs	r5, [r2, #-3937]!	; 0xfffff09f
     9d4:	32303067 	eorscc	r3, r0, #103	; 0x67
     9d8:	00745f38 	rsbseq	r5, r4, r8, lsr pc
     9dc:	646e6142 	strbtvs	r6, [lr], #-322	; 0xfffffebe
     9e0:	74646957 	strbtvc	r6, [r4], #-2391	; 0xfffff6a9
     9e4:	73530068 	cmpvc	r3, #104	; 0x68
     9e8:	006b6c43 	rsbeq	r6, fp, r3, asr #24
     9ec:	43627355 	cmnmi	r2, #1409286145	; 0x54000001
     9f0:	5f006b6c 	svcpl	0x00006b6c
     9f4:	6d63635f 	stclvs	3, cr6, [r3, #-380]!	; 0xfffffe84
     9f8:	636c5f75 	cmnvs	ip, #468	; 0x1d4
     9fc:	30686364 	rsbcc	r6, r8, r4, ror #6
     a00:	6b6c635f 	blvs	1b19784 <__bss_end+0x1b15f1c>
     a04:	4c00745f 	cfstrsmi	mvf7, [r0], {95}	; 0x5f
     a08:	43306463 	teqmi	r0, #1660944384	; 0x63000000
     a0c:	6c433168 	stfvse	f3, [r3], {104}	; 0x68
     a10:	5f5f006b 	svcpl	0x005f006b
     a14:	756d6363 	strbvc	r6, [sp, #-867]!	; 0xfffffc9d
     a18:	75626d5f 	strbvc	r6, [r2, #-3423]!	; 0xfffff2a1
     a1c:	6c635f73 	stclvs	15, cr5, [r3], #-460	; 0xfffffe34
     a20:	65725f6b 	ldrbvs	r5, [r2, #-3947]!	; 0xfffff095
     a24:	35313067 	ldrcc	r3, [r1, #-103]!	; 0xffffff99
     a28:	00745f63 	rsbseq	r5, r4, r3, ror #30
     a2c:	43435f5f 	movtmi	r5, #16223	; 0x3f5f
     a30:	485f554d 	ldmdami	pc, {r0, r2, r3, r6, r8, sl, ip, lr}^	; <UNPREDICTABLE>
     a34:	5f494d44 	svcpl	0x00494d44
     a38:	5f4b4c43 	svcpl	0x004b4c43
     a3c:	30474552 	subcc	r4, r7, r2, asr r5
     a40:	00303531 	eorseq	r3, r0, r1, lsr r5
     a44:	30627041 	rsbcc	r7, r2, r1, asr #32
     a48:	65746147 	ldrbvs	r6, [r4, #-327]!	; 0xfffffeb9
     a4c:	65705300 	ldrbvs	r5, [r0, #-768]!	; 0xfffffd00
     a50:	6b6c4363 	blvs	1b117e4 <__bss_end+0x1b0df7c>
     a54:	63725331 	cmnvs	r2, #-1006632960	; 0xc4000000
     a58:	435f5f00 	cmpmi	pc, #0, 30
     a5c:	5f554d43 	svcpl	0x00554d43
     a60:	354c4c50 	strbcc	r4, [ip, #-3152]	; 0xfffff3b0
     a64:	5244445f 	subpl	r4, r4, #1593835520	; 0x5f000000
     a68:	4745525f 	smlsldmi	r5, r5, pc, r2	; <UNPREDICTABLE>
     a6c:	30323030 	eorscc	r3, r2, r0, lsr r0
     a70:	736f4800 	cmnvc	pc, #0, 16
     a74:	6c744363 	ldclvs	3, cr4, [r4], #-396	; 0xfffffe74
     a78:	635f5f00 	cmpvs	pc, #0, 30
     a7c:	5f756d63 	svcpl	0x00756d63
     a80:	316c6c70 	smccc	50880	; 0xc6c0
     a84:	6e75745f 	mrcvs	4, 3, r7, cr5, cr15, {2}
     a88:	5f676e69 	svcpl	0x00676e69
     a8c:	30676572 	rsbcc	r6, r7, r2, ror r5
     a90:	5f343030 	svcpl	0x00343030
     a94:	5f5f0074 	svcpl	0x005f0074
     a98:	554d4343 	strbpl	r4, [sp, #-835]	; 0xfffffcbd
     a9c:	4c4c505f 	mcrrmi	0, 5, r5, ip, cr15
     aa0:	45565f34 	ldrbmi	r5, [r6, #-3892]	; 0xfffff0cc
     aa4:	4745525f 	smlsldmi	r5, r5, pc, r2	; <UNPREDICTABLE>
     aa8:	38313030 	ldmdacc	r1!, {r4, r5, ip, sp}
     aac:	635f5f00 	cmpvs	pc, #0, 30
     ab0:	5f756d63 	svcpl	0x00756d63
     ab4:	31627061 	cmncc	r2, r1, rrx
     ab8:	5f6b6c63 	svcpl	0x006b6c63
     abc:	69746172 	ldmdbvs	r4!, {r1, r4, r5, r6, r8, sp, lr}^
     ac0:	65725f6f 	ldrbvs	r5, [r2, #-3951]!	; 0xfffff091
     ac4:	35303067 	ldrcc	r3, [r0, #-103]!	; 0xffffff99
     ac8:	00745f38 	rsbseq	r5, r4, r8, lsr pc
     acc:	5f6d656d 	svcpl	0x006d656d
     ad0:	5f6b6c63 	svcpl	0x006b6c63
     ad4:	5f746573 	svcpl	0x00746573
     ad8:	5f6c6c70 	svcpl	0x006c6c70
     adc:	74636166 	strbtvc	r6, [r3], #-358	; 0xfffffe9a
     ae0:	4c00726f 	sfmmi	f7, 4, [r0], {111}	; 0x6f
     ae4:	754f4f44 	strbvc	r4, [pc, #-3908]	; fffffba8 <__bss_end+0xffffc340>
     ae8:	74757074 	ldrbtvc	r7, [r5], #-116	; 0xffffff8c
     aec:	635f5f00 	cmpvs	pc, #0, 30
     af0:	5f756d63 	svcpl	0x00756d63
     af4:	5f627375 	svcpl	0x00627375
     af8:	5f6b6c63 	svcpl	0x006b6c63
     afc:	30676572 	rsbcc	r6, r7, r2, ror r5
     b00:	5f636330 	svcpl	0x00636330
     b04:	734d0074 	movtvc	r0, #53364	; 0xd074
     b08:	65746147 	ldrbvs	r6, [r4, #-327]!	; 0xfffffeb9
     b0c:	6d656d00 	stclvs	13, cr6, [r5, #-0]
     b10:	6b6c635f 	blvs	1b19894 <__bss_end+0x1b1602c>
     b14:	7465675f 	strbtvc	r6, [r5], #-1887	; 0xfffff8a1
     b18:	00766964 	rsbseq	r6, r6, r4, ror #18
     b1c:	43435f5f 	movtmi	r5, #16223	; 0x3f5f
     b20:	505f554d 	subspl	r5, pc, sp, asr #10
     b24:	5f364c4c 	svcpl	0x00364c4c
     b28:	41544153 	cmpmi	r4, r3, asr r1
     b2c:	4745525f 	smlsldmi	r5, r5, pc, r2	; <UNPREDICTABLE>
     b30:	38323030 	ldmdacc	r2!, {r4, r5, ip, sp}
     b34:	72615500 	rsbvc	r5, r1, #0, 10
     b38:	61473274 	cmpvs	r7, r4, ror r2
     b3c:	4d006574 	cfstr32mi	mvfx6, [r0, #-464]	; 0xfffffe30
     b40:	6b6c4373 	blvs	1b11914 <__bss_end+0x1b0e0ac>
     b44:	635f5f00 	cmpvs	pc, #0, 30
     b48:	5f756d63 	svcpl	0x00756d63
     b4c:	75646f6d 	strbvc	r6, [r4, #-3949]!	; 0xfffff093
     b50:	5f31656c 	svcpl	0x0031656c
     b54:	5f6b6c63 	svcpl	0x006b6c63
     b58:	5f5f0074 	svcpl	0x005f0074
     b5c:	756d6363 	strbvc	r6, [sp, #-867]!	; 0xfffffc9d
     b60:	6765725f 			; <UNDEFINED> instruction: 0x6765725f
     b64:	73696c5f 	cmnvc	r9, #24320	; 0x5f00
     b68:	00745f74 	rsbseq	r5, r4, r4, ror pc
     b6c:	63635f5f 	cmnvs	r3, #380	; 0x17c
     b70:	6f5f756d 	svcvs	0x005f756d
     b74:	34326373 	ldrtcc	r6, [r2], #-883	; 0xfffffc8d
     b78:	65725f6d 	ldrbvs	r5, [r2, #-3949]!	; 0xfffff093
     b7c:	35303067 	ldrcc	r3, [r0, #-103]!	; 0xffffff99
     b80:	00745f30 	rsbseq	r5, r4, r0, lsr pc
     b84:	6d4d6453 	cfstrdvs	mvd6, [sp, #-332]	; 0xfffffeb4
     b88:	6c433263 	sfmvs	f3, 2, [r3], {99}	; 0x63
     b8c:	5f5f006b 	svcpl	0x005f006b
     b90:	554d4343 	strbpl	r4, [sp, #-835]	; 0xfffffcbd
     b94:	55424d5f 	strbpl	r4, [r2, #-3423]	; 0xfffff2a1
     b98:	4c435f53 	mcrrmi	15, 5, r5, r3, cr3
     b9c:	45525f4b 	ldrbmi	r5, [r2, #-3915]	; 0xfffff0b5
     ba0:	35313047 	ldrcc	r3, [r1, #-71]!	; 0xffffffb9
     ba4:	634c0043 	movtvs	r0, #49219	; 0xc043
     ba8:	61473064 	mrsvs	r3, SPSR
     bac:	44006574 	strmi	r6, [r0], #-1396	; 0xfffffa8c
     bb0:	004d7669 	subeq	r7, sp, r9, ror #12
     bb4:	30627355 	rsbcc	r7, r2, r5, asr r3
     bb8:	65746147 	ldrbvs	r6, [r4, #-327]!	; 0xfffffeb9
     bbc:	635f5f00 	cmpvs	pc, #0, 30
     bc0:	5f756d63 	svcpl	0x00756d63
     bc4:	356c6c70 	strbcc	r6, [ip, #-3184]!	; 0xfffff390
     bc8:	7264645f 	rsbvc	r6, r4, #1593835520	; 0x5f000000
     bcc:	6765725f 			; <UNDEFINED> instruction: 0x6765725f
     bd0:	30323030 	eorscc	r3, r2, r0, lsr r0
     bd4:	5f00745f 	svcpl	0x0000745f
     bd8:	6d63635f 	stclvs	3, cr6, [r3, #-380]!	; 0xfffffe84
     bdc:	6c705f75 	ldclvs	15, cr5, [r0], #-468	; 0xfffffe2c
     be0:	615f326c 	cmpvs	pc, ip, ror #4
     be4:	6f696475 	svcvs	0x00696475
     be8:	6765725f 			; <UNDEFINED> instruction: 0x6765725f
     bec:	38303030 	ldmdacc	r0!, {r4, r5, ip, sp}
     bf0:	5f00745f 	svcpl	0x0000745f
     bf4:	4d43435f 	stclmi	3, cr4, [r3, #-380]	; 0xfffffe84
     bf8:	56415f55 			; <UNDEFINED> instruction: 0x56415f55
     bfc:	4c435f53 	mcrrmi	15, 5, r5, r3, cr3
     c00:	45525f4b 	ldrbmi	r5, [r2, #-3915]	; 0xfffff0b5
     c04:	34313047 	ldrtcc	r3, [r1], #-71	; 0xffffffb9
     c08:	72460034 	subvc	r0, r6, #52	; 0x34
     c0c:	6f4d7165 	svcvs	0x004d7165
     c10:	50006564 	andpl	r6, r0, r4, ror #10
     c14:	69444c4c 	stmdbvs	r4, {r2, r3, r6, sl, fp, lr}^
     c18:	54005076 	strpl	r5, [r0], #-118	; 0xffffff8a
     c1c:	47306977 			; <UNDEFINED> instruction: 0x47306977
     c20:	00657461 	rsbeq	r7, r5, r1, ror #8
     c24:	316c6c50 	cmncc	ip, r0, asr ip
     c28:	656e7554 	strbvs	r7, [lr, #-1364]!	; 0xfffffaac
     c2c:	435f5f00 	cmpmi	pc, #0, 30
     c30:	5f554d43 	svcpl	0x00554d43
     c34:	43424841 	movtmi	r4, #10305	; 0x2841
     c38:	475f4b4c 	ldrbmi	r4, [pc, -ip, asr #22]
     c3c:	31455441 	mrscc	r5, SPSR
     c40:	4745525f 	smlsldmi	r5, r5, pc, r2	; <UNPREDICTABLE>
     c44:	34363030 	ldrtcc	r3, [r6], #-48	; 0xffffffd0
     c48:	69705300 	ldmdbvs	r0!, {r8, r9, ip, lr}^
     c4c:	74614731 	strbtvc	r4, [r1], #-1841	; 0xfffff8cf
     c50:	656d0065 	strbvs	r0, [sp, #-101]!	; 0xffffff9b
     c54:	6c635f6d 	stclvs	15, cr5, [r3], #-436	; 0xfffffe4c
     c58:	65675f6b 	strbvs	r5, [r7, #-3947]!	; 0xfffff095
     c5c:	6c705f74 	ldclvs	15, cr5, [r0], #-464	; 0xfffffe30
     c60:	61665f6c 	cmnvs	r6, ip, ror #30
     c64:	726f7463 	rsbvc	r7, pc, #1660944384	; 0x63000000
     c68:	73694200 	cmnvc	r9, #0, 4
     c6c:	74614774 	strbtvc	r4, [r1], #-1908	; 0xfffff88c
     c70:	5f5f0065 	svcpl	0x005f0065
     c74:	756d6363 	strbvc	r6, [sp, #-867]!	; 0xfffffc9d
     c78:	6973635f 	ldmdbvs	r3!, {r0, r1, r2, r3, r4, r6, r8, r9, sp, lr}^
     c7c:	6b6c635f 	blvs	1b19a00 <__bss_end+0x1b16198>
     c80:	4100745f 	tstmi	r0, pc, asr r4
     c84:	6c434248 	sfmvs	f4, 2, [r3], {72}	; 0x48
     c88:	7669446b 	strbtvc	r4, [r9], -fp, ror #8
     c8c:	6d645300 	stclvs	3, cr5, [r4, #-0]
     c90:	4730636d 	ldrmi	r6, [r0, -sp, ror #6]!
     c94:	00657461 	rsbeq	r7, r5, r1, ror #8
     c98:	63635f5f 	cmnvs	r3, #380	; 0x17c
     c9c:	615f756d 	cmpvs	pc, sp, ror #10
     ca0:	6c636268 	sfmvs	f6, 2, [r3], #-416	; 0xfffffe60
     ca4:	61675f6b 	cmnvs	r7, fp, ror #30
     ca8:	5f316574 	svcpl	0x00316574
     cac:	30676572 	rsbcc	r6, r7, r2, ror r5
     cb0:	5f343630 	svcpl	0x00343630
     cb4:	5f5f0074 	svcpl	0x005f0074
     cb8:	756d6363 	strbvc	r6, [sp, #-867]!	; 0xfffffc9d
     cbc:	6c616d5f 	stclvs	13, cr6, [r1], #-380	; 0xfffffe84
     cc0:	30303469 	eorscc	r3, r0, r9, ror #8
     cc4:	6b6c635f 	blvs	1b19a48 <__bss_end+0x1b161e0>
     cc8:	6765725f 			; <UNDEFINED> instruction: 0x6765725f
     ccc:	34353130 	ldrtcc	r3, [r5], #-304	; 0xfffffed0
     cd0:	4300745f 	movwmi	r7, #1119	; 0x45f
     cd4:	43306973 	teqmi	r0, #1884160	; 0x1cc000
     cd8:	56006b6c 	strpl	r6, [r0], -ip, ror #22
     cdc:	4f676572 	svcmi	0x00676572
     ce0:	6e457475 	mcrvs	4, 2, r7, cr5, cr5, {3}
     ce4:	635f5f00 	cmpvs	pc, #0, 30
     ce8:	5f756d63 	svcpl	0x00756d63
     cec:	5f737067 	svcpl	0x00737067
     cf0:	5f6b6c63 	svcpl	0x006b6c63
     cf4:	30676572 	rsbcc	r6, r7, r2, ror r5
     cf8:	5f306430 	svcpl	0x00306430
     cfc:	68410074 	stmdavs	r1, {r2, r4, r5, r6}^
     d00:	74614762 	strbtvc	r4, [r1], #-1890	; 0xfffff89e
     d04:	41003065 	tstmi	r0, r5, rrx
     d08:	61476268 	mrsvs	r6, SPSR
     d0c:	00316574 	eorseq	r6, r1, r4, ror r5
     d10:	50627355 	rsbpl	r7, r2, r5, asr r3
     d14:	52317968 	eorspl	r7, r1, #104, 18	; 0x1a0000
     d18:	49007473 	stmdbmi	r0, {r0, r1, r4, r5, r6, sl, ip, sp, lr}
     d1c:	6c437332 	mcrrvs	3, 3, r7, r3, cr2
     d20:	5f5f006b 	svcpl	0x005f006b
     d24:	554d4343 	strbpl	r4, [sp, #-835]	; 0xfffffcbd
     d28:	4953435f 	ldmdbmi	r3, {r0, r1, r2, r3, r4, r6, r8, r9, lr}^
     d2c:	4b4c435f 	blmi	1311ab0 <__bss_end+0x130e248>
     d30:	635f5f00 	cmpvs	pc, #0, 30
     d34:	5f756d63 	svcpl	0x00756d63
     d38:	7079656b 	rsbsvc	r6, r9, fp, ror #10
     d3c:	635f6461 	cmpvs	pc, #1627389952	; 0x61000000
     d40:	725f6b6c 	subsvc	r6, pc, #108, 22	; 0x1b000
     d44:	30306765 	eorscc	r6, r0, r5, ror #14
     d48:	745f3463 	ldrbvc	r3, [pc], #-1123	; d50 <twi_byte_rw+0x18>
     d4c:	6c6c5000 	stclvs	0, cr5, [ip], #-0
     d50:	6c744331 	ldclvs	3, cr4, [r4], #-196	; 0xffffff3c
     d54:	6d614400 	cfstrdvs	mvd4, [r1, #-0]
     d58:	63614670 	cmnvs	r1, #112, 12	; 0x7000000
     d5c:	00726f74 	rsbseq	r6, r2, r4, ror pc
     d60:	7079654b 	rsbsvc	r6, r9, fp, asr #10
     d64:	61476461 	mrsvs	r6, SPSR
     d68:	53006574 	movwpl	r6, #1396	; 0x574
     d6c:	47326970 			; <UNDEFINED> instruction: 0x47326970
     d70:	00657461 	rsbeq	r7, r5, r1, ror #8
     d74:	65466544 	strbvs	r6, [r6, #-1348]	; 0xfffffabc
     d78:	6b6c4330 	blvs	1b11a40 <__bss_end+0x1b0e1d8>
     d7c:	6c6c5000 	stclvs	0, cr5, [ip], #-0
     d80:	74697753 	strbtvc	r7, [r9], #-1875	; 0xfffff8ad
     d84:	54006863 	strpl	r6, [r0], #-2147	; 0xfffff79d
     d88:	47306576 			; <UNDEFINED> instruction: 0x47306576
     d8c:	00657461 	rsbeq	r7, r5, r1, ror #8
     d90:	63635f5f 	cmnvs	r3, #380	; 0x17c
     d94:	705f756d 	subsvc	r7, pc, sp, ror #10
     d98:	5f316c6c 	svcpl	0x00316c6c
     d9c:	65726f63 	ldrbvs	r6, [r2, #-3939]!	; 0xfffff09d
     da0:	6765725f 			; <UNDEFINED> instruction: 0x6765725f
     da4:	30303030 	eorscc	r3, r0, r0, lsr r0
     da8:	5300745f 	movwpl	r7, #1119	; 0x45f
     dac:	43636570 	cmnmi	r3, #112, 10	; 0x1c000000
     db0:	47326b6c 	ldrmi	r6, [r2, -ip, ror #22]!
     db4:	00657461 	rsbeq	r7, r5, r1, ror #8
     db8:	43307249 	teqmi	r0, #-1879048188	; 0x90000004
     dbc:	41006b6c 	tstmi	r0, ip, ror #22
     dc0:	43316270 	teqmi	r1, #112, 4
     dc4:	69446b6c 	stmdbvs	r4, {r2, r3, r5, r6, r8, r9, fp, sp, lr}^
     dc8:	5f5f0076 	svcpl	0x005f0076
     dcc:	554d4343 	strbpl	r4, [sp, #-835]	; 0xfffffcbd
     dd0:	4c414d5f 	mcrrmi	13, 5, r4, r1, cr15
     dd4:	30303449 	eorscc	r3, r0, r9, asr #8
     dd8:	4b4c435f 	blmi	1311b5c <__bss_end+0x130e2f4>
     ddc:	4745525f 	smlsldmi	r5, r5, pc, r2	; <UNPREDICTABLE>
     de0:	34353130 	ldrtcc	r3, [r5], #-304	; 0xfffffed0
     de4:	73657200 	cmnvc	r5, #0, 4
     de8:	65767265 	ldrbvs	r7, [r6, #-613]!	; 0xfffffd9b
     dec:	00313164 	eorseq	r3, r1, r4, ror #2
     df0:	65736572 	ldrbvs	r6, [r3, #-1394]!	; 0xfffffa8e
     df4:	64657672 	strbtvs	r7, [r5], #-1650	; 0xfffff98e
     df8:	72003231 	andvc	r3, r0, #268435459	; 0x10000003
     dfc:	72657365 	rsbvc	r7, r5, #-1811939327	; 0x94000001
     e00:	31646576 	smccc	18006	; 0x4656
     e04:	5f5f0033 	svcpl	0x005f0033
     e08:	554d4343 	strbpl	r4, [sp, #-835]	; 0xfffffcbd
     e0c:	4253555f 	subsmi	r5, r3, #398458880	; 0x17c00000
     e10:	4b4c435f 	blmi	1311b94 <__bss_end+0x130e32c>
     e14:	4745525f 	smlsldmi	r5, r5, pc, r2	; <UNPREDICTABLE>
     e18:	43433030 	movtmi	r3, #12336	; 0x3030
     e1c:	73657200 	cmnvc	r5, #0, 4
     e20:	65767265 	ldrbvs	r7, [r6, #-613]!	; 0xfffffd9b
     e24:	00353164 	eorseq	r3, r5, r4, ror #2
     e28:	65736572 	ldrbvs	r6, [r3, #-1394]!	; 0xfffffa8e
     e2c:	64657672 	strbtvs	r7, [r5], #-1650	; 0xfffff98e
     e30:	72003631 	andvc	r3, r0, #51380224	; 0x3100000
     e34:	72657365 	rsbvc	r7, r5, #-1811939327	; 0x94000001
     e38:	31646576 	smccc	18006	; 0x4656
     e3c:	65720037 	ldrbvs	r0, [r2, #-55]!	; 0xffffffc9
     e40:	76726573 			; <UNDEFINED> instruction: 0x76726573
     e44:	38316465 	ldmdacc	r1!, {r0, r2, r5, r6, sl, sp, lr}
     e48:	73657200 	cmnvc	r5, #0, 4
     e4c:	65767265 	ldrbvs	r7, [r6, #-613]!	; 0xfffffd9b
     e50:	00393164 	eorseq	r3, r9, r4, ror #2
     e54:	53796850 	cmnpl	r9, #80, 16	; 0x500000
     e58:	43636570 	cmnmi	r3, #112, 10	; 0x1c000000
     e5c:	61476b6c 	mrsvs	r6, SPSR
     e60:	53006574 	movwpl	r6, #1396	; 0x574
     e64:	66696470 			; <UNDEFINED> instruction: 0x66696470
     e68:	65746147 	ldrbvs	r6, [r4, #-327]!	; 0xfffffeb9
     e6c:	76615700 	strbtvc	r5, [r1], -r0, lsl #14
     e70:	746f4265 	strbtvc	r4, [pc], #-613	; e78 <twi_byte_rw+0x140>
     e74:	006d6f74 	rsbeq	r6, sp, r4, ror pc
     e78:	5f6d656d 	svcpl	0x006d656d
     e7c:	5f6b6c63 	svcpl	0x006b6c63
     e80:	64746573 	ldrbtvs	r6, [r4], #-1395	; 0xfffffa8d
     e84:	53007669 	movwpl	r7, #1641	; 0x669
     e88:	43306970 	teqmi	r0, #112, 18	; 0x1c0000
     e8c:	5f006b6c 	svcpl	0x00006b6c
     e90:	4d43435f 	stclmi	3, cr4, [r3, #-380]	; 0xfffffe84
     e94:	4f4d5f55 	svcmi	0x004d5f55
     e98:	454c5544 	strbmi	r5, [ip, #-1348]	; 0xfffffabc
     e9c:	4c435f30 	mcrrmi	15, 3, r5, r3, cr0
     ea0:	6549004b 	strbvs	r0, [r9, #-75]	; 0xffffffb5
     ea4:	74614770 	strbtvc	r4, [r1], #-1904	; 0xfffff890
     ea8:	5f5f0065 	svcpl	0x005f0065
     eac:	756d6363 	strbvc	r6, [sp, #-867]!	; 0xfffffc9d
     eb0:	7065695f 	rsbvc	r6, r5, pc, asr r9
     eb4:	6b6c635f 	blvs	1b19c38 <__bss_end+0x1b163d0>
     eb8:	6765725f 			; <UNDEFINED> instruction: 0x6765725f
     ebc:	30363130 	eorscc	r3, r6, r0, lsr r1
     ec0:	7200745f 	andvc	r7, r0, #1593835520	; 0x5f000000
     ec4:	72657365 	rsbvc	r7, r5, #-1811939327	; 0x94000001
     ec8:	32646576 	rsbcc	r6, r4, #494927872	; 0x1d800000
     ecc:	65720030 	ldrbvs	r0, [r2, #-48]!	; 0xffffffd0
     ed0:	76726573 			; <UNDEFINED> instruction: 0x76726573
     ed4:	31326465 	teqcc	r2, r5, ror #8
     ed8:	47655600 	strbmi	r5, [r5, -r0, lsl #12]!
     edc:	00657461 	rsbeq	r7, r5, r1, ror #8
     ee0:	696d6448 	stmdbvs	sp!, {r3, r6, sl, sp, lr}^
     ee4:	006b6c43 	rsbeq	r6, fp, r3, asr #24
     ee8:	424c4c50 	submi	r4, ip, #80, 24	; 0x5000
     eec:	73617079 	cmnvc	r1, #121	; 0x79
     ef0:	65720073 	ldrbvs	r0, [r2, #-115]!	; 0xffffff8d
     ef4:	76726573 			; <UNDEFINED> instruction: 0x76726573
     ef8:	34316465 	ldrtcc	r6, [r1], #-1125	; 0xfffffb9b
     efc:	61724600 	cmnvs	r2, r0, lsl #12
     f00:	74655363 	strbtvc	r5, [r5], #-867	; 0xfffffc9d
     f04:	635f5f00 	cmpvs	pc, #0, 30
     f08:	5f756d63 	svcpl	0x00756d63
     f0c:	31627061 	cmncc	r2, r1, rrx
     f10:	5f6b6c63 	svcpl	0x006b6c63
     f14:	65746167 	ldrbvs	r6, [r4, #-359]!	; 0xfffffe99
     f18:	6765725f 			; <UNDEFINED> instruction: 0x6765725f
     f1c:	63363030 	teqvs	r6, #48	; 0x30
     f20:	5000745f 	andpl	r7, r0, pc, asr r4
     f24:	69424c4c 	stmdbvs	r2, {r2, r3, r6, sl, fp, lr}^
     f28:	6e457361 	cdpvs	3, 4, cr7, cr5, cr1, {3}
     f2c:	64764c00 	ldrbtvs	r4, [r6], #-3072	; 0xfffff400
     f30:	6b6c4373 	blvs	1b11d04 <__bss_end+0x1b0e49c>
     f34:	4f435600 	svcmi	0x00435600
     f38:	49747352 	ldmdbmi	r4!, {r1, r4, r6, r8, r9, ip, sp, lr}^
     f3c:	5f5f006e 	svcpl	0x005f006e
     f40:	554d4343 	strbpl	r4, [sp, #-835]	; 0xfffffcbd
     f44:	4958415f 	ldmdbmi	r8, {r0, r1, r2, r3, r4, r6, r8, lr}^
     f48:	5f4b4c43 	svcpl	0x004b4c43
     f4c:	45544147 	ldrbmi	r4, [r4, #-327]	; 0xfffffeb9
     f50:	4745525f 	smlsldmi	r5, r5, pc, r2	; <UNPREDICTABLE>
     f54:	63353030 	teqvs	r5, #48	; 0x30
     f58:	73795300 	cmnvc	r9, #0, 6
     f5c:	446b6c43 	strbtmi	r6, [fp], #-3139	; 0xfffff3bd
     f60:	6f007669 	svcvs	0x00007669
     f64:	66666f6e 	strbtvs	r6, [r6], -lr, ror #30
     f68:	732f2e00 	teqvc	pc, #0, 28
     f6c:	72657075 	rsbvc	r7, r5, #117	; 0x75
     f70:	7075732f 	rsbsvc	r7, r5, pc, lsr #6
     f74:	635f7265 	cmpvs	pc, #1342177286	; 0x50000006
     f78:	6b636f6c 	blvs	18dcd30 <__bss_end+0x18d94c8>
     f7c:	5f00632e 	svcpl	0x0000632e
     f80:	4d43435f 	stclmi	3, cr4, [r3, #-380]	; 0xfffffe84
     f84:	4c505f55 	mrrcmi	15, 5, r5, r0, cr5
     f88:	415f324c 	cmpmi	pc, ip, asr #4
     f8c:	4f494455 	svcmi	0x00494455
     f90:	4745525f 	smlsldmi	r5, r5, pc, r2	; <UNPREDICTABLE>
     f94:	38303030 	ldmdacc	r0!, {r4, r5, ip, sp}
     f98:	435f5f00 	cmpmi	pc, #0, 30
     f9c:	5f554d43 	svcpl	0x00554d43
     fa0:	4344434c 	movtmi	r4, #17228	; 0x434c
     fa4:	435f3148 	cmpmi	pc, #72, 2
     fa8:	5f004b4c 	svcpl	0x00004b4c
     fac:	6d63635f 	stclvs	3, cr6, [r3, #-380]!	; 0xfffffe84
     fb0:	6c705f75 	ldclvs	15, cr5, [r0], #-468	; 0xfffffe2c
     fb4:	745f356c 	ldrbvc	r3, [pc], #-1388	; fbc <twi_byte_rw_nommu+0x3c>
     fb8:	6e696e75 	mcrvs	14, 3, r6, cr9, cr5, {3}
     fbc:	65725f67 	ldrbvs	r5, [r2, #-3943]!	; 0xfffff099
     fc0:	32303067 	eorscc	r3, r0, #103	; 0x67
     fc4:	00745f34 	rsbseq	r5, r4, r4, lsr pc
     fc8:	435f5f5f 	cmpmi	pc, #380	; 0x17c
     fcc:	5f554d43 	svcpl	0x00554d43
     fd0:	314c4c50 	cmpcc	ip, r0, asr ip
     fd4:	524f435f 	subpl	r4, pc, #2080374785	; 0x7c000001
     fd8:	45525f45 	ldrbmi	r5, [r2, #-3909]	; 0xfffff0bb
     fdc:	30303047 	eorscc	r3, r0, r7, asr #32
     fe0:	61550030 	cmpvs	r5, r0, lsr r0
     fe4:	47317472 			; <UNDEFINED> instruction: 0x47317472
     fe8:	00657461 	rsbeq	r7, r5, r1, ror #8
     fec:	43737047 	cmnmi	r3, #71	; 0x47
     ff0:	5f006b6c 	svcpl	0x00006b6c
     ff4:	4d43435f 	stclmi	3, cr4, [r3, #-380]	; 0xfffffe84
     ff8:	44415f55 	strbmi	r5, [r1], #-3925	; 0xfffff0ab
     ffc:	435f4144 	cmpmi	pc, #68, 2
    1000:	525f4b4c 	subspl	r4, pc, #76, 22	; 0x13000
    1004:	31304745 	teqcc	r0, r5, asr #14
    1008:	53003034 	movwpl	r3, #52	; 0x34
    100c:	66696470 			; <UNDEFINED> instruction: 0x66696470
    1010:	006b6c43 	rsbeq	r6, fp, r3, asr #24
    1014:	63635f5f 	cmnvs	r3, #380	; 0x17c
    1018:	705f756d 	subsvc	r7, pc, sp, ror #10
    101c:	5f336c6c 	svcpl	0x00336c6c
    1020:	65646976 	strbvs	r6, [r4, #-2422]!	; 0xfffff68a
    1024:	65725f6f 	ldrbvs	r5, [r2, #-3951]!	; 0xfffff091
    1028:	31303067 	teqcc	r0, r7, rrx
    102c:	00745f30 	rsbseq	r5, r4, r0, lsr pc
    1030:	61726453 	cmnvs	r2, r3, asr r4
    1034:	7461476d 	strbtvc	r4, [r1], #-1901	; 0xfffff893
    1038:	77540065 	ldrbvc	r0, [r4, -r5, rrx]
    103c:	61473269 	mrsvs	r3, SPSR
    1040:	5f006574 	svcpl	0x00006574
    1044:	6d63635f 	stclvs	3, cr6, [r3, #-380]!	; 0xfffffe84
    1048:	70615f75 	rsbvc	r5, r1, r5, ror pc
    104c:	6c633062 	stclvs	0, cr3, [r3], #-392	; 0xfffffe78
    1050:	61675f6b 	cmnvs	r7, fp, ror #30
    1054:	725f6574 	subsvc	r6, pc, #116, 10	; 0x1d000000
    1058:	30306765 	eorscc	r6, r0, r5, ror #14
    105c:	745f3836 	ldrbvc	r3, [pc], #-2102	; 1064 <twi_byte_rw_nommu+0xe4>
    1060:	69705300 	ldmdbvs	r0!, {r8, r9, ip, lr}^
    1064:	6b6c4332 	blvs	1b11d34 <__bss_end+0x1b0e4cc>
    1068:	6c614d00 	stclvs	13, cr4, [r1], #-0
    106c:	74614769 	strbtvc	r4, [r1], #-1897	; 0xfffff897
    1070:	656d0065 	strbvs	r0, [sp, #-101]!	; 0xffffff9b
    1074:	6c635f6d 	stclvs	15, cr5, [r3], #-436	; 0xfffffe4c
    1078:	6c705f6b 	ldclvs	15, cr5, [r0], #-428	; 0xfffffe54
    107c:	616e656c 	cmnvs	lr, ip, ror #10
    1080:	00656c62 	rsbeq	r6, r5, r2, ror #24
    1084:	65426544 	strbvs	r6, [r2, #-1348]	; 0xfffffabc
    1088:	6b6c4330 	blvs	1b11d50 <__bss_end+0x1b0e4e8>
    108c:	43534f00 	cmpmi	r3, #0, 30
    1090:	474d3432 	smlaldxmi	r3, sp, r2, r4
    1094:	44006d73 	strmi	r6, [r0], #-3443	; 0xfffff28d
    1098:	476d6172 			; <UNDEFINED> instruction: 0x476d6172
    109c:	00657461 	rsbeq	r7, r5, r1, ror #8
    10a0:	50627355 	rsbpl	r7, r2, r5, asr r3
    10a4:	52307968 	eorspl	r7, r0, #104, 18	; 0x1a0000
    10a8:	53007473 	movwpl	r7, #1139	; 0x473
    10ac:	636d6d64 	cmnvs	sp, #100, 26	; 0x1900
    10b0:	74614732 	strbtvc	r4, [r1], #-1842	; 0xfffff8ce
    10b4:	5f5f0065 	svcpl	0x005f0065
    10b8:	756d6363 	strbvc	r6, [sp, #-867]!	; 0xfffffc9d
    10bc:	6c6c705f 	stclvs	0, cr7, [ip], #-380	; 0xfffffe84
    10c0:	69765f37 	ldmdbvs	r6!, {r0, r1, r2, r4, r5, r8, r9, sl, fp, ip, lr}^
    10c4:	316f6564 	cmncc	pc, r4, ror #10
    10c8:	6765725f 			; <UNDEFINED> instruction: 0x6765725f
    10cc:	30333030 	eorscc	r3, r3, r0, lsr r0
    10d0:	5f00745f 	svcpl	0x0000745f
    10d4:	4d43435f 	stclmi	3, cr4, [r3, #-380]	; 0xfffffe84
    10d8:	50415f55 	subpl	r5, r1, r5, asr pc
    10dc:	4c433142 	stfmie	f3, [r3], {66}	; 0x42
    10e0:	41475f4b 	mrsmi	r5, SPSR
    10e4:	525f4554 	subspl	r4, pc, #84, 10	; 0x15000000
    10e8:	30304745 	eorscc	r4, r0, r5, asr #14
    10ec:	4d004336 	stcmi	3, cr4, [r0, #-216]	; 0xffffff28
    10f0:	5365646f 	cmnpl	r5, #1862270976	; 0x6f000000
    10f4:	5f006c65 	svcpl	0x00006c65
    10f8:	4d43435f 	stclmi	3, cr4, [r3, #-380]	; 0xfffffe84
    10fc:	4c505f55 	mrrcmi	15, 5, r5, r0, cr5
    1100:	565f374c 	ldrbpl	r3, [pc], -ip, asr #14
    1104:	4f454449 	svcmi	0x00454449
    1108:	45525f31 	ldrbmi	r5, [r2, #-3889]	; 0xfffff0cf
    110c:	33303047 	teqcc	r0, #71	; 0x47
    1110:	684f0030 	stmdavs	pc, {r4, r5}^	; <UNPREDICTABLE>
    1114:	47306963 	ldrmi	r6, [r0, -r3, ror #18]!
    1118:	00657461 	rsbeq	r7, r5, r1, ror #8
    111c:	47307249 	ldrmi	r7, [r0, -r9, asr #4]!
    1120:	00657461 	rsbeq	r7, r5, r1, ror #8
    1124:	43435f5f 	movtmi	r5, #16223	; 0x3f5f
    1128:	475f554d 	ldrbmi	r5, [pc, -sp, asr #10]
    112c:	435f5350 	cmpmi	pc, #80, 6	; 0x40000001
    1130:	525f4b4c 	subspl	r4, pc, #76, 22	; 0x13000
    1134:	30304745 	eorscc	r4, r0, r5, asr #14
    1138:	5f003044 	svcpl	0x00003044
    113c:	6d63635f 	stclvs	3, cr6, [r3, #-380]!	; 0xfffffe84
    1140:	6f6d5f75 	svcvs	0x006d5f75
    1144:	656c7564 	strbvs	r7, [ip, #-1380]!	; 0xfffffa9c
    1148:	6c635f30 	stclvs	15, cr5, [r3], #-192	; 0xffffff40
    114c:	00745f6b 	rsbseq	r5, r4, fp, ror #30
    1150:	43435f5f 	movtmi	r5, #16223	; 0x3f5f
    1154:	4f5f554d 	svcmi	0x005f554d
    1158:	34324353 	ldrtcc	r4, [r2], #-851	; 0xfffffcad
    115c:	45525f4d 	ldrbmi	r5, [r2, #-3917]	; 0xfffff0b3
    1160:	35303047 	ldrcc	r3, [r0, #-71]!	; 0xffffffb9
    1164:	6c500030 	mrrcvs	0, 3, r0, r0, cr0	; <UNPREDICTABLE>
    1168:	7554316c 	ldrbvc	r3, [r4, #-364]	; 0xfffffe94
    116c:	0032656e 	eorseq	r6, r2, lr, ror #10
    1170:	726d7453 	rsbvc	r7, sp, #1392508928	; 0x53000000
    1174:	65746147 	ldrbvs	r6, [r4, #-327]!	; 0xfffffeb9
    1178:	616d4500 	cmnvs	sp, r0, lsl #10
    117c:	74614763 	strbtvc	r4, [r1], #-1891	; 0xfffff89d
    1180:	654b0065 	strbvs	r0, [fp, #-101]	; 0xffffff9b
    1184:	65694679 	strbvs	r4, [r9, #-1657]!	; 0xfffff987
    1188:	5f00646c 	svcpl	0x0000646c
    118c:	6d63635f 	stclvs	3, cr6, [r3, #-380]!	; 0xfffffe84
    1190:	766c5f75 	uqsub16vc	r5, ip, r5
    1194:	635f7364 	cmpvs	pc, #100, 6	; 0x90000001
    1198:	725f6b6c 	subsvc	r6, pc, #108, 22	; 0x1b000
    119c:	31306765 	teqcc	r0, r5, ror #14
    11a0:	745f6334 	ldrbvc	r6, [pc], #-820	; 11a8 <twi_byte_rw_nommu+0x228>
    11a4:	6c6c5000 	stclvs	0, cr5, [ip], #-0
    11a8:	6c744335 	ldclvs	3, cr4, [r4], #-212	; 0xffffff2c
    11ac:	635f5f00 	cmpvs	pc, #0, 30
    11b0:	5f756d63 	svcpl	0x00756d63
    11b4:	635f6576 	cmpvs	pc, #494927872	; 0x1d800000
    11b8:	725f6b6c 	subsvc	r6, pc, #108, 22	; 0x1b000
    11bc:	31306765 	teqcc	r0, r5, ror #14
    11c0:	745f6333 	ldrbvc	r6, [pc], #-819	; 11c8 <twi_byte_rw_nommu+0x248>
    11c4:	635f5f00 	cmpvs	pc, #0, 30
    11c8:	5f756d63 	svcpl	0x00756d63
    11cc:	326c6c70 	rsbcc	r6, ip, #112, 24	; 0x7000
    11d0:	6e75745f 	mrcvs	4, 3, r7, cr5, cr15, {2}
    11d4:	5f676e69 	svcpl	0x00676e69
    11d8:	30676572 	rsbcc	r6, r7, r2, ror r5
    11dc:	5f633030 	svcpl	0x00633030
    11e0:	69530074 	ldmdbvs	r3, {r2, r4, r5, r6}^
    11e4:	49616d67 	stmdbmi	r1!, {r0, r1, r2, r5, r6, r8, sl, fp, sp, lr}^
    11e8:	754f006e 	strbvc	r0, [pc, #-110]	; 1182 <twi_byte_rw_nommu+0x202>
    11ec:	74757074 	ldrbtvc	r7, [r5], #-116	; 0xffffff8c
    11f0:	5f006e45 	svcpl	0x00006e45
    11f4:	4d43435f 	stclmi	3, cr4, [r3, #-380]	; 0xfffffe84
    11f8:	4c505f55 	mrrcmi	15, 5, r5, r0, cr5
    11fc:	565f334c 	ldrbpl	r3, [pc], -ip, asr #6
    1200:	4f454449 	svcmi	0x00454449
    1204:	4745525f 	smlsldmi	r5, r5, pc, r2	; <UNPREDICTABLE>
    1208:	30313030 	eorscc	r3, r1, r0, lsr r0
    120c:	435f5f00 	cmpmi	pc, #0, 30
    1210:	5f554d43 	svcpl	0x00554d43
    1214:	354c4c50 	strbcc	r4, [ip, #-3152]	; 0xfffff3b0
    1218:	4e55545f 	mrcmi	4, 2, r5, cr5, cr15, {2}
    121c:	32474e49 	subcc	r4, r7, #1168	; 0x490
    1220:	4745525f 	smlsldmi	r5, r5, pc, r2	; <UNPREDICTABLE>
    1224:	43333030 	teqmi	r3, #48	; 0x30
    1228:	64644100 	strbtvs	r4, [r4], #-256	; 0xffffff00
    122c:	74614761 	strbtvc	r4, [r1], #-1889	; 0xfffff89f
    1230:	43560065 	cmpmi	r6, #101	; 0x65
    1234:	6169424f 	cmnvs	r9, pc, asr #4
    1238:	5f5f0073 	svcpl	0x005f0073
    123c:	756d6363 	strbvc	r6, [sp, #-867]!	; 0xfffffc9d
    1240:	64636c5f 	strbtvs	r6, [r3], #-3167	; 0xfffff3a1
    1244:	5f316863 	svcpl	0x00316863
    1248:	5f6b6c63 	svcpl	0x006b6c63
    124c:	65440074 	strbvs	r0, [r4, #-116]	; 0xffffff8c
    1250:	47306542 	ldrmi	r6, [r0, -r2, asr #10]!
    1254:	00657461 	rsbeq	r7, r5, r1, ror #8
    1258:	6d4d6453 	cfstrdvs	mvd6, [sp, #-332]	; 0xfffffeb4
    125c:	6c433163 	stfvse	f3, [r3], {99}	; 0x63
    1260:	5f5f006b 	svcpl	0x005f006b
    1264:	554d4343 	strbpl	r4, [sp, #-835]	; 0xfffffcbd
    1268:	5045495f 	subpl	r4, r5, pc, asr r9
    126c:	4b4c435f 	blmi	1311ff0 <__bss_end+0x130e788>
    1270:	4745525f 	smlsldmi	r5, r5, pc, r2	; <UNPREDICTABLE>
    1274:	30363130 	eorscc	r3, r6, r0, lsr r1
    1278:	435f5f00 	cmpmi	pc, #0, 30
    127c:	5f554d43 	svcpl	0x00554d43
    1280:	31425041 	mrscc	r5, SPSR
    1284:	5f4b4c43 	svcpl	0x004b4c43
    1288:	49544152 	ldmdbmi	r4, {r1, r4, r6, r8, lr}^
    128c:	45525f4f 	ldrbmi	r5, [r2, #-3919]	; 0xfffff0b1
    1290:	35303047 	ldrcc	r3, [r0, #-71]!	; 0xffffffb9
    1294:	656d0038 	strbvs	r0, [sp, #-56]!	; 0xffffffc8
    1298:	6c635f6d 	stclvs	15, cr5, [r3], #-436	; 0xfffffe4c
    129c:	72645f6b 	rsbvc	r5, r4, #428	; 0x1ac
    12a0:	61676d61 	cmnvs	r7, r1, ror #26
    12a4:	676e6974 			; <UNDEFINED> instruction: 0x676e6974
    12a8:	435f5f00 	cmpmi	pc, #0, 30
    12ac:	5f554d43 	svcpl	0x00554d43
    12b0:	314c4c50 	cmpcc	ip, r0, asr ip
    12b4:	4e55545f 	mrcmi	4, 2, r5, cr5, cr15, {2}
    12b8:	32474e49 	subcc	r4, r7, #1168	; 0x490
    12bc:	4745525f 	smlsldmi	r5, r5, pc, r2	; <UNPREDICTABLE>
    12c0:	38333030 	ldmdacc	r3!, {r4, r5, ip, sp}
    12c4:	65705300 	ldrbvs	r5, [r0, #-768]!	; 0xfffffd00
    12c8:	6b6c4363 	blvs	1b1205c <__bss_end+0x1b0e7f4>
    12cc:	74614731 	strbtvc	r4, [r1], #-1841	; 0xfffff8cf
    12d0:	65720065 	ldrbvs	r0, [r2, #-101]!	; 0xffffff9b
    12d4:	76726573 			; <UNDEFINED> instruction: 0x76726573
    12d8:	00396465 	eorseq	r6, r9, r5, ror #8
    12dc:	63657053 	cmnvs	r5, #83	; 0x53
    12e0:	326b6c43 	rsbcc	r6, fp, #17152	; 0x4300
    12e4:	00637253 	rsbeq	r7, r3, r3, asr r2
    12e8:	47736949 	ldrbmi	r6, [r3, -r9, asr #18]!
    12ec:	00657461 	rsbeq	r7, r5, r1, ror #8
    12f0:	3243534f 	subcc	r5, r3, #1006632961	; 0x3c000001
    12f4:	6e454d34 	mcrvs	13, 2, r4, cr5, cr4, {1}
    12f8:	75706300 	ldrbvc	r6, [r0, #-768]!	; 0xfffffd00
    12fc:	5f736d5f 	svcpl	0x00736d5f
    1300:	706f6f6c 	rsbvc	r6, pc, ip, ror #30
    1304:	00746e63 	rsbseq	r6, r4, r3, ror #28
    1308:	47616d44 	strbmi	r6, [r1, -r4, asr #26]!
    130c:	00657461 	rsbeq	r7, r5, r1, ror #8
    1310:	454c4c50 	strbmi	r4, [ip, #-3152]	; 0xfffff3b0
    1314:	5f5f006e 	svcpl	0x005f006e
    1318:	554d4343 	strbpl	r4, [sp, #-835]	; 0xfffffcbd
    131c:	59454b5f 	stmdbpl	r5, {r0, r1, r2, r3, r4, r6, r8, r9, fp, lr}^
    1320:	5f444150 	svcpl	0x00444150
    1324:	5f4b4c43 	svcpl	0x004b4c43
    1328:	30474552 	subcc	r4, r7, r2, asr r5
    132c:	00344330 	eorseq	r4, r4, r0, lsr r3
    1330:	43435f5f 	movtmi	r5, #16223	; 0x3f5f
    1334:	535f554d 	cmppl	pc, #322961408	; 0x13400000
    1338:	4c435359 	mcrrmi	3, 5, r5, r3, cr9
    133c:	41525f4b 	cmpmi	r2, fp, asr #30
    1340:	5f4f4954 	svcpl	0x004f4954
    1344:	30474552 	subcc	r4, r7, r2, asr r5
    1348:	00343530 	eorseq	r3, r4, r0, lsr r5
    134c:	61646441 	cmnvs	r4, r1, asr #8
    1350:	006b6c43 	rsbeq	r6, fp, r3, asr #24
    1354:	6c437354 	mcrrvs	3, 5, r7, r3, cr4
    1358:	6845006b 	stmdavs	r5, {r0, r1, r3, r5, r6}^
    135c:	47306963 	ldrmi	r6, [r0, -r3, ror #18]!
    1360:	00657461 	rsbeq	r7, r5, r1, ror #8
    1364:	74696e49 	strbtvc	r6, [r9], #-3657	; 0xfffff1b7
    1368:	71657246 	cmnvc	r5, r6, asr #4
    136c:	79654b00 	stmdbvc	r5!, {r8, r9, fp, lr}^
    1370:	43646150 	cmnmi	r4, #80, 2
    1374:	50006b6c 	andpl	r6, r0, ip, ror #22
    1378:	69424c4c 	stmdbvs	r2, {r2, r3, r6, sl, fp, lr}^
    137c:	4e007361 	cdpmi	3, 0, cr7, cr0, cr1, {3}
    1380:	47646e61 	strbmi	r6, [r4, -r1, ror #28]!
    1384:	00657461 	rsbeq	r7, r5, r1, ror #8
    1388:	61477353 	cmpvs	r7, r3, asr r3
    138c:	5f006574 	svcpl	0x00006574
    1390:	6d63635f 	stclvs	3, cr6, [r3, #-380]!	; 0xfffffe84
    1394:	65665f75 	strbvs	r5, [r6, #-3957]!	; 0xfffff08b
    1398:	706d6564 	rsbvc	r6, sp, r4, ror #10
    139c:	6b6c635f 	blvs	1b1a120 <__bss_end+0x1b168b8>
    13a0:	6d00745f 	cfstrsvs	mvf7, [r0, #-380]	; 0xfffffe84
    13a4:	635f6d65 	cmpvs	pc, #6464	; 0x1940
    13a8:	695f6b6c 	ldmdbvs	pc, {r2, r3, r5, r6, r8, r9, fp, sp, lr}^	; <UNPREDICTABLE>
    13ac:	0074696e 	rsbseq	r6, r4, lr, ror #18
    13b0:	52756d43 	rsbspl	r6, r5, #4288	; 0x10c0
    13b4:	48006765 	stmdami	r0, {r0, r2, r5, r6, r8, r9, sl, sp, lr}
    13b8:	44696d64 	strbtmi	r6, [r9], #-3428	; 0xfffff29c
    13bc:	65746147 	ldrbvs	r6, [r4, #-327]!	; 0xfffffeb9
    13c0:	6d656d00 	stclvs	13, cr6, [r5, #-0]
    13c4:	6b6c635f 	blvs	1b1a148 <__bss_end+0x1b168e0>
    13c8:	6c6c705f 	stclvs	0, cr7, [ip], #-380	; 0xfffffe84
    13cc:	61736964 	cmnvs	r3, r4, ror #18
    13d0:	00656c62 	rsbeq	r6, r5, r2, ror #24
    13d4:	67657256 			; <UNDEFINED> instruction: 0x67657256
    13d8:	74754f31 	ldrbtvc	r4, [r5], #-3889	; 0xfffff0cf
    13dc:	5f006e45 	svcpl	0x00006e45
    13e0:	6d63635f 	stclvs	3, cr6, [r3, #-380]!	; 0xfffffe84
    13e4:	6c705f75 	ldclvs	15, cr5, [r0], #-468	; 0xfffffe2c
    13e8:	745f356c 	ldrbvc	r3, [pc], #-1388	; 13f0 <mem_get_voltage+0x10>
    13ec:	6e696e75 	mcrvs	14, 3, r6, cr9, cr5, {3}
    13f0:	725f3267 	subsvc	r3, pc, #1879048198	; 0x70000006
    13f4:	30306765 	eorscc	r6, r0, r5, ror #14
    13f8:	745f6333 	ldrbvc	r6, [pc], #-819	; 1400 <mem_get_voltage+0x20>
    13fc:	6c6c5000 	stclvs	0, cr5, [ip], #-0
    1400:	6e755432 	mrcvs	4, 3, r5, cr5, cr2, {1}
    1404:	5f5f0065 	svcpl	0x005f0065
    1408:	756d6363 	strbvc	r6, [sp, #-867]!	; 0xfffffc9d
    140c:	6978615f 	ldmdbvs	r8!, {r0, r1, r2, r3, r4, r6, r8, sp, lr}^
    1410:	5f6b6c63 	svcpl	0x006b6c63
    1414:	65746167 	ldrbvs	r6, [r4, #-359]!	; 0xfffffe99
    1418:	6765725f 			; <UNDEFINED> instruction: 0x6765725f
    141c:	63353030 	teqvs	r5, #48	; 0x30
    1420:	4c00745f 	cfstrsmi	mvf7, [r0], {95}	; 0x5f
    1424:	45324f44 	ldrmi	r4, [r2, #-3908]!	; 0xfffff0bc
    1428:	6146006e 	mrsvs	r0, SPSR
    142c:	726f7463 	rsbvc	r7, pc, #1660944384	; 0x63000000
    1430:	5000314d 	andpl	r3, r0, sp, asr #2
    1434:	43376c6c 	teqmi	r7, #108, 24	; 0x6c00
    1438:	4e006c74 	mcrmi	12, 0, r6, cr0, cr4, {3}
    143c:	43646e61 	cmnmi	r4, #1552	; 0x610
    1440:	4f006b6c 	svcmi	0x00006b6c
    1444:	30494348 	subcc	r4, r9, r8, asr #6
    1448:	63657053 	cmnvs	r5, #83	; 0x53
    144c:	476b6c43 	strbmi	r6, [fp, -r3, asr #24]!
    1450:	00657461 	rsbeq	r7, r5, r1, ror #8
    1454:	43435f5f 	movtmi	r5, #16223	; 0x3f5f
    1458:	505f554d 	subspl	r5, pc, sp, asr #10
    145c:	5f314c4c 	svcpl	0x00314c4c
    1460:	494e5554 	stmdbmi	lr, {r2, r4, r6, r8, sl, ip, lr}^
    1464:	525f474e 	subspl	r4, pc, #20447232	; 0x1380000
    1468:	30304745 	eorscc	r4, r0, r5, asr #14
    146c:	49003430 	stmdbmi	r0, {r4, r5, sl, ip, sp}
    1470:	6c437065 	mcrrvs	0, 6, r7, r3, cr5
    1474:	5f5f006b 	svcpl	0x005f006b
    1478:	756d6363 	strbvc	r6, [sp, #-867]!	; 0xfffffc9d
    147c:	7376615f 	cmnvc	r6, #-1073741801	; 0xc0000017
    1480:	6b6c635f 	blvs	1b1a204 <__bss_end+0x1b1699c>
    1484:	6765725f 			; <UNDEFINED> instruction: 0x6765725f
    1488:	34343130 	ldrtcc	r3, [r4], #-304	; 0xfffffed0
    148c:	4d00745f 	cfstrsmi	mvf7, [r0, #-380]	; 0xfffffe84
    1490:	43696c61 	cmnmi	r9, #24832	; 0x6100
    1494:	41006b6c 	tstmi	r0, ip, ror #22
    1498:	6c437376 	mcrrvs	3, 7, r7, r3, cr6
    149c:	634c006b 	movtvs	r0, #49259	; 0xc06b
    14a0:	73655264 	cmnvc	r5, #100, 4	; 0x40000006
    14a4:	53007465 	movwpl	r7, #1125	; 0x465
    14a8:	616d6769 	cmnvs	sp, r9, ror #14
    14ac:	5f006e45 	svcpl	0x00006e45
    14b0:	6d63635f 	stclvs	3, cr6, [r3, #-380]!	; 0xfffffe84
    14b4:	79735f75 	ldmdbvc	r3!, {r0, r2, r4, r5, r6, r8, r9, sl, fp, ip, lr}^
    14b8:	6b6c6373 	blvs	1b1a28c <__bss_end+0x1b16a24>
    14bc:	61725f6c 	cmnvs	r2, ip, ror #30
    14c0:	5f6f6974 	svcpl	0x006f6974
    14c4:	30676572 	rsbcc	r6, r7, r2, ror r5
    14c8:	5f343530 	svcpl	0x00343530
    14cc:	61550074 	cmpvs	r5, r4, ror r0
    14d0:	47337472 			; <UNDEFINED> instruction: 0x47337472
    14d4:	00657461 	rsbeq	r7, r5, r1, ror #8
    14d8:	65466544 	strbvs	r6, [r6, #-1348]	; 0xfffffabc
    14dc:	74614730 	strbtvc	r4, [r1], #-1840	; 0xfffff8d0
    14e0:	6c500065 	mrrcvs	0, 6, r0, r0, cr5	; <UNPREDICTABLE>
    14e4:	7443336c 	strbvc	r3, [r3], #-876	; 0xfffffc94
    14e8:	7841006c 	stmdavc	r1, {r2, r3, r5, r6}^
    14ec:	74614769 	strbtvc	r4, [r1], #-1897	; 0xfffff897
    14f0:	70470065 	subvc	r0, r7, r5, rrx
    14f4:	74614773 	strbtvc	r4, [r1], #-1907	; 0xfffff88d
    14f8:	6c500065 	mrrcvs	0, 6, r0, r0, cr5	; <UNPREDICTABLE>
    14fc:	7443366c 	strbvc	r3, [r3], #-1644	; 0xfffff994
    1500:	5f5f006c 	svcpl	0x005f006c
    1504:	554d4343 	strbpl	r4, [sp, #-835]	; 0xfffffcbd
    1508:	44434c5f 	strbmi	r4, [r3], #-3167	; 0xfffff3a1
    150c:	5f304843 	svcpl	0x00304843
    1510:	004b4c43 	subeq	r4, fp, r3, asr #24
    1514:	6b636f4c 	blvs	18dd24c <__bss_end+0x18d99e4>
    1518:	656d6954 	strbvs	r6, [sp, #-2388]!	; 0xfffff6ac
    151c:	435f5f00 	cmpmi	pc, #0, 30
    1520:	5f554d43 	svcpl	0x00554d43
    1524:	435f4556 	cmpmi	pc, #360710144	; 0x15800000
    1528:	525f4b4c 	subspl	r4, pc, #76, 22	; 0x13000
    152c:	31304745 	teqcc	r0, r5, asr #14
    1530:	55004333 	strpl	r4, [r0, #-819]	; 0xfffffccd
    1534:	30747261 	rsbscc	r7, r4, r1, ror #4
    1538:	65746147 	ldrbvs	r6, [r4, #-327]!	; 0xfffffeb9
    153c:	6f635600 	svcvs	0x00635600
    1540:	73616942 	cmnvc	r1, #1081344	; 0x108000
    1544:	65725000 	ldrbvs	r5, [r2, #-0]!
    1548:	76694476 			; <UNDEFINED> instruction: 0x76694476
    154c:	49584100 	ldmdbmi	r8, {r8, lr}^
    1550:	446b6c43 	strbtmi	r6, [fp], #-3139	; 0xfffff3bd
    1554:	41007669 	tstmi	r0, r9, ror #12
    1558:	47316270 			; <UNDEFINED> instruction: 0x47316270
    155c:	00657461 	rsbeq	r7, r5, r1, ror #8
    1560:	43435f5f 	movtmi	r5, #16223	; 0x3f5f
    1564:	505f554d 	subspl	r5, pc, sp, asr #10
    1568:	5f354c4c 	svcpl	0x00354c4c
    156c:	494e5554 	stmdbmi	lr, {r2, r4, r6, r8, sl, ip, lr}^
    1570:	525f474e 	subspl	r4, pc, #20447232	; 0x1380000
    1574:	30304745 	eorscc	r4, r0, r5, asr #14
    1578:	56003432 			; <UNDEFINED> instruction: 0x56003432
    157c:	61474f43 	mrsvs	r4, SPSR
    1580:	41006e69 	tstmi	r0, r9, ror #28
    1584:	38323343 	ldmdacc	r2!, {r0, r1, r6, r8, r9, ip, sp}
    1588:	536b6c43 	cmnpl	fp, #17152	; 0x4300
    158c:	46006372 			; <UNDEFINED> instruction: 0x46006372
    1590:	75716572 	ldrbvc	r6, [r1, #-1394]!	; 0xfffffa8e
    1594:	79636e65 	stmdbvc	r3!, {r0, r2, r5, r6, r9, sl, fp, sp, lr}^
    1598:	69775400 	ldmdbvs	r7!, {sl, ip, lr}^
    159c:	74614731 	strbtvc	r4, [r1], #-1841	; 0xfffff8cf
    15a0:	6c500065 	mrrcvs	0, 6, r0, r0, cr5	; <UNPREDICTABLE>
    15a4:	7443326c 	strbvc	r3, [r3], #-620	; 0xfffffd94
    15a8:	5f5f006c 	svcpl	0x005f006c
    15ac:	554d4343 	strbpl	r4, [sp, #-835]	; 0xfffffcbd
    15b0:	4745525f 	smlsldmi	r5, r5, pc, r2	; <UNPREDICTABLE>
    15b4:	53494c5f 	movtpl	r4, #40031	; 0x9c5f
    15b8:	5f5f0054 	svcpl	0x005f0054
    15bc:	756d6363 	strbvc	r6, [sp, #-867]!	; 0xfffffc9d
    15c0:	6c6c705f 	stclvs	0, cr7, [ip], #-380	; 0xfffffe84
    15c4:	65765f34 	ldrbvs	r5, [r6, #-3892]!	; 0xfffff0cc
    15c8:	6765725f 			; <UNDEFINED> instruction: 0x6765725f
    15cc:	38313030 	ldmdacc	r1!, {r4, r5, ip, sp}
    15d0:	4100745f 	tstmi	r0, pc, asr r4
    15d4:	43304250 	teqmi	r0, #80, 4
    15d8:	69446b6c 	stmdbvs	r4, {r2, r3, r5, r6, r8, r9, fp, sp, lr}^
    15dc:	48410076 	stmdami	r1, {r1, r2, r4, r5, r6}^
    15e0:	6b6c4342 	blvs	1b122f0 <__bss_end+0x1b0ea88>
    15e4:	006c6553 	rsbeq	r6, ip, r3, asr r5
    15e8:	30697343 	rsbcc	r7, r9, r3, asr #6
    15ec:	65746147 	ldrbvs	r6, [r4, #-327]!	; 0xfffffeb9
    15f0:	6d645300 	stclvs	3, cr5, [r4, #-0]
    15f4:	4731636d 	ldrmi	r6, [r1, -sp, ror #6]!
    15f8:	00657461 	rsbeq	r7, r5, r1, ror #8
    15fc:	43435f5f 	movtmi	r5, #16223	; 0x3f5f
    1600:	415f554d 	cmpmi	pc, sp, asr #10
    1604:	43304250 	teqmi	r0, #80, 4
    1608:	475f4b4c 	ldrbmi	r4, [pc, -ip, asr #22]
    160c:	5f455441 	svcpl	0x00455441
    1610:	30474552 	subcc	r4, r7, r2, asr r5
    1614:	00383630 	eorseq	r3, r8, r0, lsr r6
    1618:	756f7267 	strbvc	r7, [pc, #-615]!	; 13b9 <mem_set_voltage+0x119>
    161c:	65720070 	ldrbvs	r0, [r2, #-112]!	; 0xffffff90
    1620:	74635f67 	strbtvc	r5, [r3], #-3943	; 0xfffff099
    1624:	5754006c 	ldrbpl	r0, [r4, -ip, rrx]
    1628:	504f5f49 	subpl	r5, pc, r9, asr #30
    162c:	0052575f 	subseq	r5, r2, pc, asr r7
    1630:	6d656d5f 	stclvs	13, cr6, [r5, #-380]!	; 0xfffffe84
    1634:	6977745f 	ldmdbvs	r7!, {r0, r1, r2, r3, r4, r6, sl, ip, sp, lr}^
    1638:	666f735f 			; <UNDEFINED> instruction: 0x666f735f
    163c:	65725f74 	ldrbvs	r5, [r2, #-3956]!	; 0xfffff08c
    1640:	00746573 	rsbseq	r6, r4, r3, ror r5
    1644:	706f7473 	rsbvc	r7, pc, r3, ror r4	; <UNPREDICTABLE>
    1648:	74756f5f 	ldrbtvc	r6, [r5], #-3935	; 0xfffff0a1
    164c:	64616200 	strbtvs	r6, [r1], #-512	; 0xfffffe00
    1650:	6d007264 	sfmvs	f7, 4, [r0, #-400]	; 0xfffffe70
    1654:	745f6d65 	ldrbvc	r6, [pc], #-3429	; 165c <mem_power_init+0x1fc>
    1658:	695f6977 	ldmdbvs	pc, {r0, r1, r2, r4, r5, r6, r8, fp, sp, lr}^	; <UNPREDICTABLE>
    165c:	0074696e 	rsbseq	r6, r4, lr, ror #18
    1660:	75732f2e 	ldrbvc	r2, [r3, #-3886]!	; 0xfffff0d2
    1664:	2f726570 	svccs	0x00726570
    1668:	65707573 	ldrbvs	r7, [r0, #-1395]!	; 0xfffffa8d
    166c:	77745f72 			; <UNDEFINED> instruction: 0x77745f72
    1670:	00632e69 	rsbeq	r2, r3, r9, ror #28
    1674:	5f676572 	svcpl	0x00676572
    1678:	65736572 	ldrbvs	r6, [r3, #-1394]!	; 0xfffffa8e
    167c:	65720074 	ldrbvs	r0, [r2, #-116]!	; 0xffffff8c
    1680:	61645f67 	cmnvs	r4, r7, ror #30
    1684:	5f006174 	svcpl	0x00006174
    1688:	6977745f 	ldmdbvs	r7!, {r0, r1, r2, r3, r4, r6, sl, ip, sp, lr}^
    168c:	65725f63 	ldrbvs	r5, [r2, #-3939]!	; 0xfffff09d
    1690:	00745f67 	rsbseq	r5, r4, r7, ror #30
    1694:	5f697774 	svcpl	0x00697774
    1698:	745f706f 	ldrbvc	r7, [pc], #-111	; 16a0 <mem_power_exit+0x38>
    169c:	5f657079 	svcpl	0x00657079
    16a0:	74730065 	ldrbtvc	r0, [r3], #-101	; 0xffffff9b
    16a4:	5f657461 	svcpl	0x00657461
    16a8:	00706d74 	rsbseq	r6, r0, r4, ror sp
    16ac:	5f697774 	svcpl	0x00697774
    16b0:	00676572 	rsbeq	r6, r7, r2, ror r5
    16b4:	5f706f6e 	svcpl	0x00706f6e
    16b8:	64616572 	strbtvs	r6, [r1], #-1394	; 0xfffffa8e
    16bc:	67617400 	strbvs	r7, [r1, -r0, lsl #8]!
    16c0:	6977745f 	ldmdbvs	r7!, {r0, r1, r2, r3, r4, r6, sl, ip, sp, lr}^
    16c4:	65725f63 	ldrbvs	r5, [r2, #-3939]!	; 0xfffff09d
    16c8:	77540067 	ldrbvc	r0, [r4, -r7, rrx]
    16cc:	6b6c4369 	blvs	1b12478 <__bss_end+0x1b0ec10>
    16d0:	42676552 	rsbmi	r6, r7, #343932928	; 0x14800000
    16d4:	73006b61 	movwvc	r6, #2913	; 0xb61
    16d8:	70757465 	rsbsvc	r7, r5, r5, ror #8
    16dc:	6977745f 	ldmdbvs	r7!, {r0, r1, r2, r3, r4, r6, sl, ip, sp, lr}^
    16e0:	766e655f 			; <UNDEFINED> instruction: 0x766e655f
    16e4:	67657200 	strbvs	r7, [r5, -r0, lsl #4]!
    16e8:	6b6c635f 	blvs	1b1a46c <__bss_end+0x1b16c04>
    16ec:	65720072 	ldrbvs	r0, [r2, #-114]!	; 0xffffff8e
    16f0:	73785f67 	cmnvc	r8, #412	; 0x19c
    16f4:	72646461 	rsbvc	r6, r4, #1627389952	; 0x61000000
    16f8:	67657200 	strbvs	r7, [r5, -r0, lsl #4]!
    16fc:	6174735f 	cmnvs	r4, pc, asr r3
    1700:	00737574 	rsbseq	r7, r3, r4, ror r5
    1704:	5f676572 	svcpl	0x00676572
    1708:	64646173 	strbtvs	r6, [r4], #-371	; 0xfffffe8d
    170c:	77740072 			; <UNDEFINED> instruction: 0x77740072
    1710:	79625f69 	stmdbvc	r2!, {r0, r3, r5, r6, r8, r9, sl, fp, ip, lr}^
    1714:	725f6574 	subsvc	r6, pc, #116, 10	; 0x1d000000
    1718:	57540077 			; <UNDEFINED> instruction: 0x57540077
    171c:	45525f49 	ldrbmi	r5, [r2, #-3913]	; 0xfffff0b7
    1720:	41425f47 	mrsmi	r5, SPSR
    1724:	54004553 	strpl	r4, [r0], #-1363	; 0xfffffaad
    1728:	4f5f4957 	svcmi	0x005f4957
    172c:	44525f50 	ldrbmi	r5, [r2], #-3920	; 0xfffff0b0
    1730:	67657200 	strbvs	r7, [r5, -r0, lsl #4]!
    1734:	74636c5f 	strbtvc	r6, [r3], #-3167	; 0xfffff3a1
    1738:	7774006c 	ldrbvc	r0, [r4, -ip, rrx]!
    173c:	79625f69 	stmdbvc	r2!, {r0, r3, r5, r6, r8, r9, sl, fp, ip, lr}^
    1740:	725f6574 	subsvc	r6, pc, #116, 10	; 0x1d000000
    1744:	6f6e5f77 	svcvs	0x006e5f77
    1748:	00756d6d 	rsbseq	r6, r5, sp, ror #26
    174c:	6d656d5f 	stclvs	13, cr6, [r5, #-380]!	; 0xfffffe84
    1750:	6977745f 	ldmdbvs	r7!, {r0, r1, r2, r3, r4, r6, sl, ip, sp, lr}^
    1754:	6f74735f 	svcvs	0x0074735f
    1758:	656d0070 	strbvs	r0, [sp, #-112]!	; 0xffffff90
    175c:	77745f6d 	ldrbvc	r5, [r4, -sp, ror #30]!
    1760:	78655f69 	stmdavc	r5!, {r0, r3, r5, r6, r8, r9, sl, fp, ip, lr}^
    1764:	74007469 	strvc	r7, [r0], #-1129	; 0xfffffb97
    1768:	6f656d69 	svcvs	0x00656d69
    176c:	72007475 	andvc	r7, r0, #1962934272	; 0x75000000
    1770:	655f6765 	ldrbvs	r6, [pc, #-1893]	; 1013 <twi_byte_rw_nommu+0x93>
    1774:	54007266 	strpl	r7, [r0], #-614	; 0xfffffd9a
    1778:	74436977 	strbvc	r6, [r3], #-2423	; 0xfffff689
    177c:	6765526c 	strbvs	r5, [r5, -ip, ror #4]!
    1780:	006b6142 	rsbeq	r6, fp, r2, asr #2
    1784:	6d656d5f 	stclvs	13, cr6, [r5, #-380]!	; 0xfffffe84
    1788:	6977745f 	ldmdbvs	r7!, {r0, r1, r2, r3, r4, r6, sl, ip, sp, lr}^
    178c:	666f735f 			; <UNDEFINED> instruction: 0x666f735f
    1790:	65725f74 	ldrbvs	r5, [r2, #-3956]!	; 0xfffff08c
    1794:	5f746573 	svcpl	0x00746573
    1798:	6d6d6f6e 	stclvs	15, cr6, [sp, #-440]!	; 0xfffffe48
    179c:	69640075 	stmdbvs	r4!, {r0, r2, r4, r5, r6}^
    17a0:	69736976 	ldmdbvs	r3!, {r1, r2, r4, r5, r6, r8, fp, sp, lr}^
    17a4:	6600726f 	strvs	r7, [r0], -pc, ror #4
    17a8:	5f646e69 	svcpl	0x00646e69
    17ac:	6f666e69 	svcvs	0x00666e69
    17b0:	78616d00 	stmdavc	r1!, {r8, sl, fp, sp, lr}^
    17b4:	0056755f 	subseq	r7, r6, pc, asr r5
    17b8:	44706d74 	ldrbtmi	r6, [r0], #-3444	; 0xfffff28c
    17bc:	73007669 	movwvc	r7, #1641	; 0x669
    17c0:	5f706574 	svcpl	0x00706574
    17c4:	76005675 			; <UNDEFINED> instruction: 0x76005675
    17c8:	6e5f6c6f 	cdpvs	12, 5, cr6, cr15, cr15, {3}
    17cc:	73746962 	cmnvc	r4, #1605632	; 0x188000
    17d0:	6c6f7600 	stclvs	6, cr7, [pc], #-0	; 17d8 <mem_power_exit+0x170>
    17d4:	6765725f 			; <UNDEFINED> instruction: 0x6765725f
    17d8:	6d656d00 	stclvs	13, cr6, [r5, #-0]
    17dc:	776f705f 			; <UNDEFINED> instruction: 0x776f705f
    17e0:	655f7265 	ldrbvs	r7, [pc, #-613]	; 1583 <mem_power_init+0x123>
    17e4:	00746978 	rsbseq	r6, r4, r8, ror r9
    17e8:	5f6c6f76 	svcpl	0x006c6f76
    17ec:	66696873 			; <UNDEFINED> instruction: 0x66696873
    17f0:	656d0074 	strbvs	r0, [sp, #-116]!	; 0xffffff8c
    17f4:	6f705f6d 	svcvs	0x00705f6d
    17f8:	5f726577 	svcpl	0x00726577
    17fc:	0066666f 	rsbeq	r6, r6, pc, ror #12
    1800:	32707861 	rsbscc	r7, r0, #6356992	; 0x610000
    1804:	6e695f30 	mcrvs	15, 3, r5, cr9, cr0, {1}
    1808:	61006f66 	tstvs	r0, r6, ror #30
    180c:	695f7078 	ldmdbvs	pc, {r3, r4, r5, r6, ip, sp, lr}^	; <UNPREDICTABLE>
    1810:	006f666e 	rsbeq	r6, pc, lr, ror #12
    1814:	656b6177 	strbvs	r6, [fp, #-375]!	; 0xfffffe89
    1818:	735f7075 	cmpvc	pc, #117	; 0x75
    181c:	6d006372 	stcvs	3, cr6, [r0, #-456]	; 0xfffffe38
    1820:	705f6d65 	subsvc	r6, pc, r5, ror #26
    1824:	7265776f 	rsbvc	r7, r5, #29097984	; 0x1bc0000
    1828:	66666f5f 	uqsaxvs	r6, r6, pc	; <UNPREDICTABLE>
    182c:	6d6f6e5f 	stclvs	14, cr6, [pc, #-380]!	; 16b8 <mem_power_exit+0x50>
    1830:	5000756d 	andpl	r7, r0, sp, ror #10
    1834:	5245574f 	subpl	r5, r5, #20709376	; 0x13c0000
    1838:	4c4f565f 	mcrrmi	6, 5, r5, pc, cr15
    183c:	4f444c5f 	svcmi	0x00444c5f
    1840:	65720033 	ldrbvs	r0, [r2, #-51]!	; 0xffffffcd
    1844:	61765f67 	cmnvs	r6, r7, ror #30
    1848:	4f50006c 	svcmi	0x0050006c
    184c:	5f524557 	svcpl	0x00524557
    1850:	5f4c4f56 	svcpl	0x004c4f56
    1854:	43444344 	movtmi	r4, #17220	; 0x4344
    1858:	4f500031 	svcmi	0x00500031
    185c:	5f524557 	svcpl	0x00524557
    1860:	5f4c4f56 	svcpl	0x004c4f56
    1864:	43444344 	movtmi	r4, #17220	; 0x4344
    1868:	4f500032 	svcmi	0x00500032
    186c:	5f524557 	svcpl	0x00524557
    1870:	5f4c4f56 	svcpl	0x004c4f56
    1874:	43444344 	movtmi	r4, #17220	; 0x4344
    1878:	656d0033 	strbvs	r0, [sp, #-51]!	; 0xffffffcd
    187c:	6f705f6d 	svcvs	0x00705f6d
    1880:	5f726577 	svcpl	0x00726577
    1884:	74696e69 	strbtvc	r6, [r9], #-3689	; 0xfffff197
    1888:	732f2e00 	teqvc	pc, #0, 28
    188c:	72657075 	rsbvc	r7, r5, #117	; 0x75
    1890:	7075732f 	rsbsvc	r7, r5, pc, lsr #6
    1894:	705f7265 	subsvc	r7, pc, r5, ror #4
    1898:	7265776f 	rsbvc	r7, r5, #29097984	; 0x1bc0000
    189c:	6d00632e 	stcvs	3, cr6, [r0, #-184]	; 0xffffff48
    18a0:	755f6e69 	ldrbvc	r6, [pc, #-3689]	; a3f <mem_clk_set_pll_factor+0x1b>
    18a4:	6f700056 	svcvs	0x00700056
    18a8:	5f726577 	svcpl	0x00726577
    18ac:	5f6c6f76 	svcpl	0x006c6f76
    18b0:	65707974 	ldrbvs	r7, [r0, #-2420]!	; 0xfffff68c
    18b4:	6d00655f 	cfstr32vs	mvfx6, [r0, #-380]	; 0xfffffe84
    18b8:	675f6d65 	ldrbvs	r6, [pc, -r5, ror #26]
    18bc:	765f7465 	ldrbvc	r7, [pc], -r5, ror #8
    18c0:	61746c6f 	cmnvs	r4, pc, ror #24
    18c4:	61006567 	tstvs	r0, r7, ror #10
    18c8:	30327078 	eorscc	r7, r2, r8, ror r0
    18cc:	6f646c5f 	svcvs	0x00646c5f
    18d0:	61645f34 	cmnvs	r4, r4, lsr pc
    18d4:	6d006174 	stfvss	f6, [r0, #-464]	; 0xfffffe30
    18d8:	006b7361 	rsbeq	r7, fp, r1, ror #6
    18dc:	5f6d656d 	svcpl	0x006d656d
    18e0:	5f746573 	svcpl	0x00746573
    18e4:	746c6f76 	strbtvc	r6, [ip], #-3958	; 0xfffff08a
    18e8:	00656761 	rsbeq	r6, r5, r1, ror #14
    18ec:	45574f50 	ldrbmi	r4, [r7, #-3920]	; 0xfffff0b0
    18f0:	4f565f52 	svcmi	0x00565f52
    18f4:	444c5f4c 	strbmi	r5, [ip], #-3916	; 0xfffff0b4
    18f8:	5000314f 	andpl	r3, r0, pc, asr #2
    18fc:	5245574f 	subpl	r5, r5, #20709376	; 0x13c0000
    1900:	4c4f565f 	mcrrmi	6, 5, r5, pc, cr15
    1904:	4f444c5f 	svcmi	0x00444c5f
    1908:	69640032 	stmdbvs	r4!, {r1, r4, r5}^
    190c:	65646976 	strbvs	r6, [r4, #-2422]!	; 0xfffff68a
    1910:	5000646e 	andpl	r6, r0, lr, ror #8
    1914:	5245574f 	subpl	r5, r5, #20709376	; 0x13c0000
    1918:	4c4f565f 	mcrrmi	6, 5, r5, pc, cr15
    191c:	4f444c5f 	svcmi	0x00444c5f
    1920:	68630034 	stmdavs	r3!, {r2, r4, r5}^
    1924:	5f6b6365 	svcpl	0x006b6365
    1928:	676e6172 			; <UNDEFINED> instruction: 0x676e6172
    192c:	6d740065 	ldclvs	0, cr0, [r4, #-404]!	; 0xfffffe6c
    1930:	6f755170 	svcvs	0x00755170
    1934:	61720074 	cmnvs	r2, r4, ror r0
    1938:	696c5f77 	stmdbvs	ip!, {r0, r1, r2, r4, r5, r6, r8, r9, sl, fp, ip, lr}^
    193c:	64755f62 	ldrbtvs	r5, [r5], #-3938	; 0xfffff09e
    1940:	72007669 	andvc	r7, r0, #110100480	; 0x6900000
    1944:	695f6765 	ldmdbvs	pc, {r0, r2, r5, r6, r8, r9, sl, sp, lr}^	; <UNPREDICTABLE>
    1948:	0072636f 	rsbseq	r6, r2, pc, ror #6
    194c:	4d415244 	sfmmi	f5, 2, [r1, #-272]	; 0xfffffef0
    1950:	6f685f43 	svcvs	0x00685f43
    1954:	6f707473 	svcvs	0x00707473
    1958:	735f7472 	cmpvc	pc, #1912602624	; 0x72000000
    195c:	70757465 	rsbsvc	r7, r5, r5, ror #8
    1960:	74636d00 	strbtvc	r6, [r3], #-3328	; 0xfffff300
    1964:	6f6d5f6c 	svcvs	0x006d5f6c
    1968:	655f6564 	ldrbvs	r6, [pc, #-1380]	; 140c <mem_get_voltage+0x2c>
    196c:	00746978 	rsbseq	r6, r4, r8, ror r9
    1970:	6c74636d 	ldclvs	3, cr6, [r4], #-436	; 0xfffffe4c
    1974:	6e6f635f 	mcrvs	3, 3, r6, cr15, cr15, {2}
    1978:	75676966 	strbvc	r6, [r7, #-2406]!	; 0xfffff69a
    197c:	685f6572 	ldmdavs	pc, {r1, r4, r5, r6, r8, sl, sp, lr}^	; <UNPREDICTABLE>
    1980:	7074736f 	rsbsvc	r7, r4, pc, ror #6
    1984:	0074726f 	rsbseq	r7, r4, pc, ror #4
    1988:	5f646d63 	svcpl	0x00646d63
    198c:	006d756e 	rsbeq	r7, sp, lr, ror #10
    1990:	74726f70 	ldrbtvc	r6, [r2], #-3952	; 0xfffff090
    1994:	6972705f 	ldmdbvs	r2!, {r0, r1, r2, r3, r4, r6, ip, sp, lr}^
    1998:	76656c5f 			; <UNDEFINED> instruction: 0x76656c5f
    199c:	64006c65 	strvs	r6, [r0], #-3173	; 0xfffff39b
    19a0:	5f6d6172 	svcpl	0x006d6172
    19a4:	65776f70 	ldrbvs	r6, [r7, #-3952]!	; 0xfffff090
    19a8:	70755f72 	rsbsvc	r5, r5, r2, ror pc
    19ac:	6f72705f 	svcvs	0x0072705f
    19b0:	73736563 	cmnvc	r3, #415236096	; 0x18c00000
    19b4:	67657200 	strbvs	r7, [r5, -r0, lsl #4]!
    19b8:	73717a5f 	cmnvc	r1, #389120	; 0x5f000
    19bc:	65720072 	ldrbvs	r0, [r2, #-114]!	; 0xffffff8e
    19c0:	64615f67 	strbtvs	r5, [r1], #-3943	; 0xfffff099
    19c4:	315f7264 	cmpcc	pc, r4, ror #4
    19c8:	44007473 	strmi	r7, [r0], #-1139	; 0xfffffb8d
    19cc:	434d4152 	movtmi	r4, #53586	; 0xd152
    19d0:	6978655f 	ldmdbvs	r8!, {r0, r1, r2, r3, r4, r6, r8, sl, sp, lr}^
    19d4:	65735f74 	ldrbvs	r5, [r3, #-3956]!	; 0xfffff08c
    19d8:	6572666c 	ldrbvs	r6, [r2, #-1644]!	; 0xfffff994
    19dc:	73657266 	cmnvc	r5, #1610612742	; 0x60000006
    19e0:	65720068 	ldrbvs	r0, [r2, #-104]!	; 0xffffff98
    19e4:	63645f67 	cmnvs	r4, #412	; 0x19c
    19e8:	65720072 	ldrbvs	r0, [r2, #-114]!	; 0xffffff8e
    19ec:	72645f67 	rsbvc	r5, r4, #412	; 0x19c
    19f0:	52440072 	subpl	r0, r4, #114	; 0x72
    19f4:	5f434d41 	svcpl	0x00434d41
    19f8:	72746572 	rsbsvc	r6, r4, #478150656	; 0x1c800000
    19fc:	696e6961 	stmdbvs	lr!, {r0, r5, r6, r8, fp, sp, lr}^
    1a00:	4400676e 	strmi	r6, [r0], #-1902	; 0xfffff892
    1a04:	434d4152 	movtmi	r4, #53586	; 0xd152
    1a08:	746e655f 	strbtvc	r6, [lr], #-1375	; 0xfffffaa1
    1a0c:	735f7265 	cmpvc	pc, #1342177286	; 0x50000006
    1a10:	72666c65 	rsbvc	r6, r6, #25856	; 0x6500
    1a14:	65726665 	ldrbvs	r6, [r2, #-1637]!	; 0xfffff99b
    1a18:	64006873 	strvs	r6, [r0], #-2163	; 0xfffff78d
    1a1c:	5f6d6172 	svcpl	0x006d6172
    1a20:	74736f68 	ldrbtvc	r6, [r3], #-3944	; 0xfffff098
    1a24:	74726f70 	ldrbtvc	r6, [r2], #-3952	; 0xfffff090
    1a28:	7465735f 	strbtvc	r7, [r5], #-863	; 0xfffffca1
    1a2c:	72007075 	andvc	r7, r0, #117	; 0x75
    1a30:	635f6765 	cmpvs	pc, #26476544	; 0x1940000
    1a34:	64007263 	strvs	r7, [r0], #-611	; 0xfffffd9d
    1a38:	5f6d6172 	svcpl	0x006d6172
    1a3c:	74736f68 	ldrbtvc	r6, [r3], #-3944	; 0xfffff098
    1a40:	74726f70 	ldrbtvc	r6, [r2], #-3952	; 0xfffff090
    1a44:	5f6e6f5f 	svcpl	0x006e6f5f
    1a48:	0066666f 	rsbeq	r6, r6, pc, ror #12
    1a4c:	5f676572 	svcpl	0x00676572
    1a50:	7263717a 	rsbvc	r7, r3, #-2147483618	; 0x8000001e
    1a54:	52440030 	subpl	r0, r4, #48	; 0x30
    1a58:	5f434d41 	svcpl	0x00434d41
    1a5c:	74736f68 	ldrbtvc	r6, [r3], #-3944	; 0xfffff098
    1a60:	74726f70 	ldrbtvc	r6, [r2], #-3952	; 0xfffff090
    1a64:	6568635f 	strbvs	r6, [r8, #-863]!	; 0xfffffca1
    1a68:	615f6b63 	cmpvs	pc, r3, ror #22
    1a6c:	665f6268 	ldrbvs	r6, [pc], -r8, ror #4
    1a70:	5f6f6669 	svcpl	0x006f6669
    1a74:	74617473 	strbtvc	r7, [r1], #-1139	; 0xfffffb8d
    1a78:	44007375 	strmi	r7, [r0], #-885	; 0xfffffc8b
    1a7c:	434d4152 	movtmi	r4, #53586	; 0xd152
    1a80:	736f685f 	cmnvc	pc, #6225920	; 0x5f0000
    1a84:	726f7074 	rsbvc	r7, pc, #116	; 0x74
    1a88:	6e6f5f74 	mcrvs	15, 3, r5, cr15, cr4, {3}
    1a8c:	66666f5f 	uqsaxvs	r6, r6, pc	; <UNPREDICTABLE>
    1a90:	74636d00 	strbtvc	r6, [r3], #-3328	; 0xfffff300
    1a94:	72705f6c 	rsbsvc	r5, r0, #108, 30	; 0x1b0
    1a98:	61686365 	cmnvs	r8, r5, ror #6
    1a9c:	5f656772 	svcpl	0x00656772
    1aa0:	006c6c61 	rsbeq	r6, ip, r1, ror #24
    1aa4:	4d415244 	sfmmi	f5, 2, [r1, #-272]	; 0xfffffef0
    1aa8:	78655f43 	stmdavc	r5!, {r0, r1, r6, r8, r9, sl, fp, ip, lr}^
    1aac:	705f7469 	subsvc	r7, pc, r9, ror #8
    1ab0:	7265776f 	rsbvc	r7, r5, #29097984	; 0x1bc0000
    1ab4:	776f645f 			; <UNDEFINED> instruction: 0x776f645f
    1ab8:	6572006e 	ldrbvs	r0, [r2, #-110]!	; 0xffffff92
    1abc:	70745f67 	rsbsvc	r5, r4, r7, ror #30
    1ac0:	72003072 	andvc	r3, r0, #114	; 0x72
    1ac4:	745f6765 	ldrbvc	r6, [pc], #-1893	; 1acc <DRAMC_enter_selfrefresh+0x3c>
    1ac8:	00317270 	eorseq	r7, r1, r0, ror r2
    1acc:	5f676572 	svcpl	0x00676572
    1ad0:	32727074 	rsbscc	r7, r2, #116	; 0x74
    1ad4:	61726400 	cmnvs	r2, r0, lsl #8
    1ad8:	6f685f6d 	svcvs	0x00685f6d
    1adc:	6f707473 	svcvs	0x00707473
    1ae0:	635f7472 	cmpvs	pc, #1912602624	; 0x72000000
    1ae4:	6b636568 	blvs	18db08c <__bss_end+0x18d7824>
    1ae8:	6268615f 	rsbvs	r6, r8, #-1073741801	; 0xc0000017
    1aec:	6669665f 			; <UNDEFINED> instruction: 0x6669665f
    1af0:	74735f6f 	ldrbtvc	r5, [r3], #-3951	; 0xfffff091
    1af4:	73757461 	cmnvc	r5, #1627389952	; 0x61000000
    1af8:	61726400 	cmnvs	r2, r0, lsl #8
    1afc:	78655f6d 	stmdavc	r5!, {r0, r2, r3, r5, r6, r8, r9, sl, fp, ip, lr}^
    1b00:	735f7469 	cmpvc	pc, #1761607680	; 0x69000000
    1b04:	72666c65 	rsbvc	r6, r6, #25856	; 0x6500
    1b08:	65726665 	ldrbvs	r6, [r2, #-1637]!	; 0xfffff99b
    1b0c:	64006873 	strvs	r6, [r0], #-2163	; 0xfffff78d
    1b10:	5f6d6172 	svcpl	0x006d6172
    1b14:	65746e65 	ldrbvs	r6, [r4, #-3685]!	; 0xfffff19b
    1b18:	6f705f72 	svcvs	0x00705f72
    1b1c:	5f726577 	svcpl	0x00726577
    1b20:	6e776f64 	cdpvs	15, 7, cr6, cr7, cr4, {3}
    1b24:	67657200 	strbvs	r7, [r5, -r0, lsl #4]!
    1b28:	6464615f 	strbtvs	r6, [r4], #-351	; 0xfffffea1
    1b2c:	72335f72 	eorsvc	r5, r3, #456	; 0x1c8
    1b30:	65720064 	ldrbvs	r0, [r2, #-100]!	; 0xffffff9c
    1b34:	64615f67 	strbtvs	r5, [r1], #-3943	; 0xfffff099
    1b38:	325f7264 	subscc	r7, pc, #100, 4	; 0x40000006
    1b3c:	7200646e 	andvc	r6, r0, #1845493760	; 0x6e000000
    1b40:	6d5f6765 	ldclvs	7, cr6, [pc, #-404]	; 19b4 <mctl_mode_exit+0xc>
    1b44:	52440072 	subpl	r0, r4, #114	; 0x72
    1b48:	5f434d41 	svcpl	0x00434d41
    1b4c:	65746e65 	ldrbvs	r6, [r4, #-3685]!	; 0xfffff19b
    1b50:	6f705f72 	svcvs	0x00705f72
    1b54:	5f726577 	svcpl	0x00726577
    1b58:	6e776f64 	cdpvs	15, 7, cr6, cr7, cr4, {3}
    1b5c:	732f2e00 	teqvc	pc, #0, 28
    1b60:	72657075 	rsbvc	r7, r5, #117	; 0x75
    1b64:	6172642f 	cmnvs	r2, pc, lsr #8
    1b68:	72642f6d 	rsbvc	r2, r4, #436	; 0x1b4
    1b6c:	632e6d61 	teqvs	lr, #6208	; 0x1840
    1b70:	67657200 	strbvs	r7, [r5, -r0, lsl #4]!
    1b74:	726d655f 	rsbvc	r6, sp, #398458880	; 0x17c00000
    1b78:	63616200 	cmnvs	r1, #0, 4
    1b7c:	5f70756b 	svcpl	0x0070756b
    1b80:	6d617264 	sfmvs	f7, 2, [r1, #-400]!	; 0xfffffe70
    1b84:	6c61635f 	stclvs	3, cr6, [r1], #-380	; 0xfffffe84
    1b88:	6c61765f 	stclvs	6, cr7, [r1], #-380	; 0xfffffe84
    1b8c:	74636d00 	strbtvc	r6, [r3], #-3328	; 0xfffff300
    1b90:	65735f6c 	ldrbvs	r5, [r3, #-3948]!	; 0xfffff094
    1b94:	72645f74 	rsbvc	r5, r4, #116, 30	; 0x1d0
    1b98:	00657669 	rsbeq	r7, r5, r9, ror #12
    1b9c:	6c74636d 	ldclvs	3, cr6, [r4], #-436	; 0xfffffe4c
    1ba0:	6268615f 	rsbvs	r6, r8, #-1073741801	; 0xc0000017
    1ba4:	7365725f 	cmnvc	r5, #-268435451	; 0xf0000005
    1ba8:	6d007465 	cfstrsvs	mvf7, [r0, #-404]	; 0xfffffe6c
    1bac:	5f6c7463 	svcpl	0x006c7463
    1bb0:	33726464 	cmncc	r2, #100, 8	; 0x64000000
    1bb4:	7365725f 	cmnvc	r5, #-268435451	; 0xf0000005
    1bb8:	70007465 	andvc	r7, r0, r5, ror #8
    1bbc:	5f74726f 	svcpl	0x0074726f
    1bc0:	74696177 	strbtvc	r6, [r9], #-375	; 0xfffffe89
    1bc4:	6379635f 	cmnvs	r9, #2080374785	; 0x7c000001
    1bc8:	7200656c 	andvc	r6, r0, #108, 10	; 0x1b000000
    1bcc:	765f7465 	ldrbvc	r7, [pc], -r5, ror #8
    1bd0:	64006c61 	strvs	r6, [r0], #-3169	; 0xfffff39f
    1bd4:	5f6d6172 	svcpl	0x006d6172
    1bd8:	65746e65 	ldrbvs	r6, [r4, #-3685]!	; 0xfffff19b
    1bdc:	65735f72 	ldrbvs	r5, [r3, #-3954]!	; 0xfffff08e
    1be0:	6572666c 	ldrbvs	r6, [r2, #-1644]!	; 0xfffff994
    1be4:	73657266 	cmnvc	r5, #1610612742	; 0x60000006
    1be8:	6f700068 	svcvs	0x00700068
    1bec:	695f7472 	ldmdbvs	pc, {r1, r4, r5, r6, sl, ip, sp, lr}^	; <UNPREDICTABLE>
    1bf0:	64007864 	strvs	r7, [r0], #-2148	; 0xfffff79c
    1bf4:	5f6d6172 	svcpl	0x006d6172
    1bf8:	74697865 	strbtvc	r7, [r9], #-2149	; 0xfffff79b
    1bfc:	776f705f 			; <UNDEFINED> instruction: 0x776f705f
    1c00:	645f7265 	ldrbvs	r7, [pc], #-613	; 1c08 <DRAMC_retraining+0x80>
    1c04:	006e776f 	rsbeq	r7, lr, pc, ror #14
    1c08:	5f676572 	svcpl	0x00676572
    1c0c:	32726d65 	rsbscc	r6, r2, #6464	; 0x1940
    1c10:	67657200 	strbvs	r7, [r5, -r0, lsl #4]!
    1c14:	726d655f 	rsbvc	r6, sp, #398458880	; 0x17c00000
    1c18:	72700033 	rsbsvc	r0, r0, #51	; 0x33
    1c1c:	6d006f69 	stcvs	15, cr6, [r0, #-420]	; 0xfffffe5c
    1c20:	5f6c7463 	svcpl	0x006c7463
    1c24:	75746573 	ldrbvc	r6, [r4, #-1395]!	; 0xfffffa8d
    1c28:	72645f70 	rsbvc	r5, r4, #112, 30	; 0x1c0
    1c2c:	635f6d61 	cmpvs	pc, #6208	; 0x1840
    1c30:	6b636f6c 	blvs	18dd9e8 <__bss_end+0x18da180>
    1c34:	755f5f00 	ldrbvc	r5, [pc, #-3840]	; d3c <twi_byte_rw+0x4>
    1c38:	63003436 	movwvs	r3, #1078	; 0x436
    1c3c:	5f706968 	svcpl	0x00706968
    1c40:	006e6564 	rsbeq	r6, lr, r4, ror #10
    1c44:	5f6d656d 	svcpl	0x006d656d
    1c48:	69646c75 	stmdbvs	r4!, {r0, r2, r4, r5, r6, sl, fp, sp, lr}^
    1c4c:	636d0076 	cmnvs	sp, #118	; 0x76
    1c50:	655f6c74 	ldrbvs	r6, [pc, #-3188]	; fe4 <twi_byte_rw_nommu+0x64>
    1c54:	6c62616e 	stfvse	f6, [r2], #-440	; 0xfffffe48
    1c58:	6c645f65 	stclvs	15, cr5, [r4], #-404	; 0xfffffe6c
    1c5c:	4400786c 	strmi	r7, [r0], #-2156	; 0xfffff794
    1c60:	434d4152 	movtmi	r4, #53586	; 0xd152
    1c64:	7465675f 	strbtvc	r6, [r5], #-1887	; 0xfffff8a1
    1c68:	6172645f 	cmnvs	r2, pc, asr r4
    1c6c:	69735f6d 	ldmdbvs	r3!, {r0, r2, r3, r5, r6, r8, r9, sl, fp, ip, lr}^
    1c70:	6400657a 	strvs	r6, [r0], #-1402	; 0xfffffa86
    1c74:	5f6d6172 	svcpl	0x006d6172
    1c78:	5f746573 	svcpl	0x00746573
    1c7c:	636f6c63 	cmnvs	pc, #25344	; 0x6300
    1c80:	5f5f006b 	svcpl	0x005f006b
    1c84:	6d617264 	sfmvs	f7, 2, [r1, #-400]!	; 0xfffffe70
    1c88:	7261705f 	rsbvc	r7, r1, #95	; 0x5f
    1c8c:	00745f61 	rsbseq	r5, r4, r1, ror #30
    1c90:	6d617264 	sfmvs	f7, 2, [r1, #-400]!	; 0xfffffe70
    1c94:	7465735f 	strbtvc	r7, [r5], #-863	; 0xfffffca1
    1c98:	7475615f 	ldrbtvc	r6, [r5], #-351	; 0xfffffea1
    1c9c:	6665726f 	strbtvs	r7, [r5], -pc, ror #4
    1ca0:	68736572 	ldmdavs	r3!, {r1, r4, r5, r6, r8, sl, sp, lr}^
    1ca4:	6379635f 	cmnvs	r9, #2080374785	; 0x7c000001
    1ca8:	6200656c 	andvs	r6, r0, #108, 10	; 0x1b000000
    1cac:	30746f6f 	rsbscc	r6, r4, pc, ror #30
    1cb0:	7261705f 	rsbvc	r7, r1, #95	; 0x5f
    1cb4:	65670061 	strbvs	r0, [r7, #-97]!	; 0xffffff9f
    1cb8:	6f625f74 	svcvs	0x00625f74
    1cbc:	5f30746f 	svcpl	0x0030746f
    1cc0:	6d617264 	sfmvs	f7, 2, [r1, #-400]!	; 0xfffffe70
    1cc4:	7261705f 	rsbvc	r7, r1, #95	; 0x5f
    1cc8:	72640061 	rsbvc	r0, r4, #97	; 0x61
    1ccc:	745f6d61 	ldrbvc	r6, [pc], #-3425	; 1cd4 <DRAMC_retraining+0x14c>
    1cd0:	00307270 	eorseq	r7, r0, r0, ror r2
    1cd4:	6d617264 	sfmvs	f7, 2, [r1, #-400]!	; 0xfffffe70
    1cd8:	7270745f 	rsbsvc	r7, r0, #1593835520	; 0x5f000000
    1cdc:	72640031 	rsbvc	r0, r4, #49	; 0x31
    1ce0:	745f6d61 	ldrbvc	r6, [pc], #-3425	; 1ce8 <dram_power_save_process+0x10>
    1ce4:	00327270 	eorseq	r7, r2, r0, ror r2
    1ce8:	6d617264 	sfmvs	f7, 2, [r1, #-400]!	; 0xfffffe70
    1cec:	7270745f 	rsbsvc	r7, r0, #1593835520	; 0x5f000000
    1cf0:	72640033 	rsbvc	r0, r4, #51	; 0x33
    1cf4:	745f6d61 	ldrbvc	r6, [pc], #-3425	; 1cfc <dram_power_save_process+0x24>
    1cf8:	00347270 	eorseq	r7, r4, r0, ror r2
    1cfc:	6d617264 	sfmvs	f7, 2, [r1, #-400]!	; 0xfffffe70
    1d00:	7270745f 	rsbsvc	r7, r0, #1593835520	; 0x5f000000
    1d04:	72640035 	rsbvc	r0, r4, #53	; 0x35
    1d08:	735f6d61 	cmpvc	pc, #6208	; 0x1840
    1d0c:	5f6e6163 	svcpl	0x006e6163
    1d10:	64616572 	strbtvs	r6, [r1], #-1394	; 0xfffffa8e
    1d14:	65706970 	ldrbvs	r6, [r0, #-2416]!	; 0xfffff690
    1d18:	61726400 	cmnvs	r2, r0, lsl #8
    1d1c:	6d655f6d 	stclvs	15, cr5, [r5, #-436]!	; 0xfffffe4c
    1d20:	64003172 	strvs	r3, [r0], #-370	; 0xfffffe8e
    1d24:	5f6d6172 	svcpl	0x006d6172
    1d28:	5f746573 	svcpl	0x00746573
    1d2c:	76697264 	strbtvc	r7, [r9], -r4, ror #4
    1d30:	72640065 	rsbvc	r0, r4, #101	; 0x65
    1d34:	675f6d61 	ldrbvs	r6, [pc, -r1, ror #26]
    1d38:	735f7465 	cmpvc	pc, #1694498816	; 0x65000000
    1d3c:	00657a69 	rsbeq	r7, r5, r9, ror #20
    1d40:	6d617264 	sfmvs	f7, 2, [r1, #-400]!	; 0xfffffe70
    1d44:	6968635f 	stmdbvs	r8!, {r0, r1, r2, r3, r4, r6, r8, r9, sp, lr}^
    1d48:	65645f70 	strbvs	r5, [r4, #-3952]!	; 0xfffff090
    1d4c:	7469736e 	strbtvc	r7, [r9], #-878	; 0xfffffc92
    1d50:	52440079 	subpl	r0, r4, #121	; 0x79
    1d54:	5f434d41 	svcpl	0x00434d41
    1d58:	74696e69 	strbtvc	r6, [r9], #-3689	; 0xfffff197
    1d5c:	74636d00 	strbtvc	r6, [r3], #-3328	; 0xfffff300
    1d60:	69645f6c 	stmdbvs	r4!, {r2, r3, r5, r6, r8, r9, sl, fp, ip, lr}^
    1d64:	6c626173 	stfvse	f6, [r2], #-460	; 0xfffffe34
    1d68:	6c645f65 	stclvs	15, cr5, [r4], #-404	; 0xfffffe6c
    1d6c:	625f006c 	subsvs	r0, pc, #108	; 0x6c
    1d70:	5f746f6f 	svcpl	0x00746f6f
    1d74:	6d617264 	sfmvs	f7, 2, [r1, #-400]!	; 0xfffffe70
    1d78:	7261705f 	rsbvc	r7, r1, #95	; 0x5f
    1d7c:	00745f61 	rsbseq	r5, r4, r1, ror #30
    1d80:	6d617264 	sfmvs	f7, 2, [r1, #-400]!	; 0xfffffe70
    1d84:	74646f5f 	strbtvc	r6, [r4], #-3935	; 0xfffff0a1
    1d88:	006e655f 	rsbeq	r6, lr, pc, asr r5
    1d8c:	4d415244 	sfmmi	f5, 2, [r1, #-272]	; 0xfffffef0
    1d90:	78655f43 	stmdavc	r5!, {r0, r1, r6, r8, r9, sl, fp, ip, lr}^
    1d94:	64007469 	strvs	r7, [r0], #-1129	; 0xfffffb97
    1d98:	5f6d6172 	svcpl	0x006d6172
    1d9c:	74696e69 	strbtvc	r6, [r9], #-3689	; 0xfffff197
    1da0:	74636d00 	strbtvc	r6, [r3], #-3328	; 0xfffff300
    1da4:	6e655f6c 	cdpvs	15, 6, cr5, cr5, cr12, {3}
    1da8:	656c6261 	strbvs	r6, [ip, #-609]!	; 0xfffffd9f
    1dac:	6c6c645f 	cfstrdvs	mvd6, [ip], #-380	; 0xfffffe84
    1db0:	52440030 	subpl	r0, r4, #48	; 0x30
    1db4:	5f434d41 	svcpl	0x00434d41
    1db8:	636f6c63 	cmnvs	pc, #25344	; 0x6300
    1dbc:	756f5f6b 	strbvc	r5, [pc, #-3947]!	; e59 <twi_byte_rw+0x121>
    1dc0:	74757074 	ldrbtvc	r7, [r5], #-116	; 0xffffff8c
    1dc4:	006e655f 	rsbeq	r6, lr, pc, asr r5
    1dc8:	6d617264 	sfmvs	f7, 2, [r1, #-400]!	; 0xfffffe70
    1dcc:	7375625f 	cmnvc	r5, #-268435451	; 0xf0000005
    1dd0:	6469775f 	strbtvs	r7, [r9], #-1887	; 0xfffff8a1
    1dd4:	44006874 	strmi	r6, [r0], #-2164	; 0xfffff78c
    1dd8:	434d4152 	movtmi	r4, #53586	; 0xd152
    1ddc:	7465735f 	strbtvc	r7, [r5], #-863	; 0xfffffca1
    1de0:	7475615f 	ldrbtvc	r6, [r5], #-351	; 0xfffffea1
    1de4:	6665726f 	strbtvs	r7, [r5], -pc, ror #4
    1de8:	68736572 	ldmdavs	r3!, {r1, r4, r5, r6, r8, sl, sp, lr}^
    1dec:	6379635f 	cmnvs	r9, #2080374785	; 0x7c000001
    1df0:	6400656c 	strvs	r6, [r0], #-1388	; 0xfffffa94
    1df4:	5f6d6172 	svcpl	0x006d6172
    1df8:	6b6e6172 	blvs	1b9a3c8 <__bss_end+0x1b96b60>
    1dfc:	6d756e5f 	ldclvs	14, cr6, [r5, #-380]!	; 0xfffffe84
    1e00:	61726400 	cmnvs	r2, r0, lsl #8
    1e04:	61625f6d 	cmnvs	r2, sp, ror #30
    1e08:	64616573 	strbtvs	r6, [r1], #-1395	; 0xfffffa8d
    1e0c:	6d007264 	sfmvs	f7, 4, [r0, #-400]	; 0xfffffe70
    1e10:	5f6c7463 	svcpl	0x006c7463
    1e14:	5f6d7469 	svcpl	0x006d7469
    1e18:	61736964 	cmnvs	r3, r4, ror #18
    1e1c:	00656c62 	rsbeq	r6, r5, r2, ror #24
    1e20:	5f706d74 	svcpl	0x00706d74
    1e24:	006c6176 	rsbeq	r6, ip, r6, ror r1
    1e28:	6d617264 	sfmvs	f7, 2, [r1, #-400]!	; 0xfffffe70
    1e2c:	00717a5f 	rsbseq	r7, r1, pc, asr sl
    1e30:	6d617264 	sfmvs	f7, 2, [r1, #-400]!	; 0xfffffe70
    1e34:	726d655f 	rsbvc	r6, sp, #398458880	; 0x17c00000
    1e38:	72640032 	rsbvc	r0, r4, #50	; 0x32
    1e3c:	655f6d61 	ldrbvs	r6, [pc, #-3425]	; 10e3 <twi_byte_rw_nommu+0x163>
    1e40:	0033726d 	eorseq	r7, r3, sp, ror #4
    1e44:	75732f2e 	ldrbvc	r2, [r3, #-3886]!	; 0xfffff0d2
    1e48:	2f726570 	svccs	0x00726570
    1e4c:	6d617264 	sfmvs	f7, 2, [r1, #-400]!	; 0xfffffe70
    1e50:	6172642f 	cmnvs	r2, pc, lsr #8
    1e54:	6e695f6d 	cdpvs	15, 6, cr5, cr9, cr13, {3}
    1e58:	632e7469 	teqvs	lr, #1761607680	; 0x69000000
    1e5c:	61726400 	cmnvs	r2, r0, lsl #8
    1e60:	78655f6d 	stmdavc	r5!, {r0, r2, r3, r5, r6, r8, r9, sl, fp, ip, lr}^
    1e64:	64007469 	strvs	r7, [r0], #-1129	; 0xfffffb97
    1e68:	5f6d6172 	svcpl	0x006d6172
    1e6c:	006b6c63 	rsbeq	r6, fp, r3, ror #24
    1e70:	6c74636d 	ldclvs	3, cr6, [r4], #-436	; 0xfffffe4c
    1e74:	6d74695f 	ldclvs	9, cr6, [r4, #-380]!	; 0xfffffe84
    1e78:	616e655f 	cmnvs	lr, pc, asr r5
    1e7c:	00656c62 	rsbeq	r6, r5, r2, ror #24
    1e80:	72637068 	rsbvc	r7, r3, #104	; 0x68
    1e84:	6c61765f 	stclvs	6, cr7, [r1], #-380	; 0xfffffe84
    1e88:	62006575 	andvs	r6, r0, #490733568	; 0x1d400000
    1e8c:	30746f6f 	rsbscc	r6, r4, pc, ror #30
    1e90:	6172645f 	cmnvs	r2, pc, asr r4
    1e94:	61705f6d 	cmnvs	r0, sp, ror #30
    1e98:	705f6172 	subsvc	r6, pc, r2, ror r1	; <UNPREDICTABLE>
    1e9c:	41524400 	cmpmi	r2, r0, lsl #8
    1ea0:	735f434d 	cmpvc	pc, #872415233	; 0x34000001
    1ea4:	5f6e6163 	svcpl	0x006e6163
    1ea8:	64616572 	strbtvs	r6, [r1], #-1394	; 0xfffffa8e
    1eac:	65706970 	ldrbvs	r6, [r0, #-2416]!	; 0xfffff690
    1eb0:	61726400 	cmnvs	r2, r0, lsl #8
    1eb4:	6f695f6d 	svcvs	0x00695f6d
    1eb8:	6469775f 	strbtvs	r7, [r9], #-1887	; 0xfffff8a1
    1ebc:	64006874 	strvs	r6, [r0], #-2164	; 0xfffff78c
    1ec0:	5f6d6172 	svcpl	0x006d6172
    1ec4:	65707974 	ldrbvs	r7, [r0, #-2420]!	; 0xfffff68c
    1ec8:	6c6c6400 	cfstrdvs	mvd6, [ip], #-0
    1ecc:	6d756e5f 	ldclvs	14, cr6, [r5, #-380]!	; 0xfffffe84
    1ed0:	61726400 	cmnvs	r2, r0, lsl #8
    1ed4:	61635f6d 	cmnvs	r3, sp, ror #30
    1ed8:	65640073 	strbvs	r0, [r4, #-115]!	; 0xffffff8d
    1edc:	5f79616c 	svcpl	0x0079616c
    1ee0:	2e00736d 	cdpcs	3, 0, cr7, cr0, cr13, {3}
    1ee4:	2f2e2e2f 	svccs	0x002e2e2f
    1ee8:	645f6d70 	ldrbvs	r6, [pc], #-3440	; 1ef0 <mctl_enable_dll0+0x28>
    1eec:	67756265 	ldrbvs	r6, [r5, -r5, ror #4]!
    1ef0:	7300632e 	movwvc	r6, #814	; 0x32e
    1ef4:	5f657661 	svcpl	0x00657661
    1ef8:	356e7573 	strbcc	r7, [lr, #-1395]!	; 0xfffffa8d
    1efc:	656d5f69 	strbvs	r5, [sp, #-3945]!	; 0xfffff097
    1f00:	74735f6d 	ldrbtvc	r5, [r3], #-3949	; 0xfffff093
    1f04:	73757461 	cmnvc	r5, #1627389952	; 0x61000000
    1f08:	72617400 	rsbvc	r7, r1, #0, 8
    1f0c:	00746567 	rsbseq	r6, r4, r7, ror #10
    1f10:	695f6f69 	ldmdbvs	pc, {r0, r3, r5, r6, r8, r9, sl, fp, sp, lr}^	; <UNPREDICTABLE>
    1f14:	5f74696e 	svcpl	0x0074696e
    1f18:	68676968 	stmdavs	r7!, {r3, r5, r6, r8, fp, sp, lr}^
    1f1c:	61686300 	cmnvs	r8, r0, lsl #6
    1f20:	5f65676e 	svcpl	0x0065676e
    1f24:	746e7572 	strbtvc	r7, [lr], #-1394	; 0xfffffa8e
    1f28:	5f656d69 	svcpl	0x00656d69
    1f2c:	00766e65 	rsbseq	r6, r6, r5, ror #28
    1f30:	74736572 	ldrbtvc	r6, [r3], #-1394	; 0xfffffa8e
    1f34:	5f65726f 	svcpl	0x0065726f
    1f38:	66726570 			; <UNDEFINED> instruction: 0x66726570
    1f3c:	6e756f63 	cdpvs	15, 7, cr6, cr5, cr3, {3}
    1f40:	00726574 	rsbseq	r6, r2, r4, ror r5
    1f44:	706f6f6c 	rsbvc	r6, pc, ip, ror #30
    1f48:	616c665f 	cmnvs	ip, pc, asr r6
    1f4c:	65640067 	strbvs	r0, [r4, #-103]!	; 0xffffff99
    1f50:	5f79616c 	svcpl	0x0079616c
    1f54:	6f007375 	svcvs	0x00007375
    1f58:	68726576 	ldmdavs	r2!, {r1, r2, r4, r5, r6, r8, sl, sp, lr}^
    1f5c:	00646165 	rsbeq	r6, r4, r5, ror #2
    1f60:	62616e65 	rsbvs	r6, r1, #1616	; 0x650
    1f64:	645f656c 	ldrbvs	r6, [pc], #-1388	; 1f6c <mctl_enable_dllx+0x50>
    1f68:	64697669 	strbtvs	r7, [r9], #-1641	; 0xfffff997
    1f6c:	73007265 	movwvc	r7, #613	; 0x265
    1f70:	5f657661 	svcpl	0x00657661
    1f74:	356e7573 	strbcc	r7, [lr, #-1395]!	; 0xfffffa8d
    1f78:	656d5f69 	strbvs	r5, [sp, #-3945]!	; 0xfffff097
    1f7c:	74735f6d 	ldrbtvc	r5, [r3], #-3949	; 0xfffff093
    1f80:	73757461 	cmnvc	r5, #1627389952	; 0x61000000
    1f84:	6d6f6e5f 	stclvs	14, cr6, [pc, #-380]!	; 1e10 <mem_uldiv+0x60>
    1f88:	7200756d 	andvc	r7, r0, #457179136	; 0x1b400000
    1f8c:	74657365 	strbtvc	r7, [r5], #-869	; 0xfffffc9b
    1f90:	756f635f 	strbvc	r6, [pc, #-863]!	; 1c39 <DRAMC_retraining+0xb1>
    1f94:	7265746e 	rsbvc	r7, r5, #1845493760	; 0x6e000000
    1f98:	76617300 	strbtvc	r7, [r1], -r0, lsl #6
    1f9c:	656d5f65 	strbvs	r5, [sp, #-3941]!	; 0xfffff09b
    1fa0:	74735f6d 	ldrbtvc	r5, [r3], #-3949	; 0xfffff093
    1fa4:	73757461 	cmnvc	r5, #1627389952	; 0x61000000
    1fa8:	6d6f6e5f 	stclvs	14, cr6, [pc, #-380]!	; 1e34 <mem_uldiv+0x84>
    1fac:	6900756d 	stmdbvs	r0, {r0, r2, r3, r5, r6, r8, sl, ip, sp, lr}
    1fb0:	69685f6f 	stmdbvs	r8!, {r0, r1, r2, r3, r5, r6, r8, r9, sl, fp, ip, lr}^
    1fb4:	62006867 	andvs	r6, r0, #6750208	; 0x670000
    1fb8:	756b6361 	strbvc	r6, [fp, #-865]!	; 0xfffffc9f
    1fbc:	65705f70 	ldrbvs	r5, [r0, #-3952]!	; 0xfffff090
    1fc0:	635f6672 	cmpvs	pc, #119537664	; 0x7200000
    1fc4:	746e756f 	strbtvc	r7, [lr], #-1391	; 0xfffffa91
    1fc8:	655f7265 	ldrbvs	r7, [pc, #-613]	; 1d6b <dram_power_save_process+0x93>
    1fcc:	6c62616e 	stfvse	f6, [r2], #-440	; 0xfffffe48
    1fd0:	65725f65 	ldrbvs	r5, [r2, #-3941]!	; 0xfffff09b
    1fd4:	61730067 	cmnvs	r3, r7, rrx
    1fd8:	6d5f6576 	cfldr64vs	mvdx6, [pc, #-472]	; 1e08 <mem_uldiv+0x58>
    1fdc:	665f6d65 	ldrbvs	r6, [pc], -r5, ror #26
    1fe0:	0067616c 	rsbeq	r6, r7, ip, ror #2
    1fe4:	5f756d63 	svcpl	0x00756d63
    1fe8:	00676572 	rsbeq	r6, r7, r2, ror r5
    1fec:	6b636162 	blvs	18da57c <__bss_end+0x18d6d14>
    1ff0:	705f7075 	subsvc	r7, pc, r5, ror r0	; <UNPREDICTABLE>
    1ff4:	63667265 	cmnvs	r6, #1342177286	; 0x50000006
    1ff8:	746e756f 	strbtvc	r7, [lr], #-1391	; 0xfffffa91
    1ffc:	75007265 	strvc	r7, [r0, #-613]	; 0xfffffd9b
    2000:	6e635f73 	mcrvs	15, 3, r5, cr3, cr3, {3}
    2004:	6f640074 	svcvs	0x00640074
    2008:	7365725f 	cmnvc	r5, #-268435451	; 0xf0000005
    200c:	66007465 	strvs	r7, [r0], -r5, ror #8
    2010:	5f656b61 	svcpl	0x00656b61
    2014:	79737562 	ldmdbvc	r3!, {r1, r5, r6, r8, sl, ip, sp, lr}^
    2018:	6961775f 	stmdbvs	r1!, {r0, r1, r2, r3, r4, r6, r8, r9, sl, ip, sp, lr}^
    201c:	676e6974 			; <UNDEFINED> instruction: 0x676e6974
    2020:	63616200 	cmnvs	r1, #0, 4
    2024:	5f70756b 	svcpl	0x0070756b
    2028:	66726570 			; <UNDEFINED> instruction: 0x66726570
    202c:	756f635f 	strbvc	r6, [pc, #-863]!	; 1cd5 <DRAMC_retraining+0x14d>
    2030:	7265746e 	rsbvc	r7, r5, #1845493760	; 0x6e000000
    2034:	7274635f 	rsbsvc	r6, r4, #2080374785	; 0x7c000001
    2038:	65725f6c 	ldrbvs	r5, [r2, #-3948]!	; 0xfffff094
    203c:	6f690067 	svcvs	0x00690067
    2040:	696e695f 	stmdbvs	lr!, {r0, r1, r2, r3, r4, r6, r8, fp, sp, lr}^
    2044:	6f6c5f74 	svcvs	0x006c5f74
    2048:	6d6d0077 	stclvs	0, cr0, [sp, #-476]!	; 0xfffffe24
    204c:	6c665f75 	stclvs	15, cr5, [r6], #-468	; 0xfffffe2c
    2050:	69006761 	stmdbvs	r0, {r0, r5, r6, r8, r9, sl, sp, lr}
    2054:	6e695f6f 	cdpvs	15, 6, cr5, cr9, cr15, {3}
    2058:	67007469 	strvs	r7, [r0, -r9, ror #8]
    205c:	6d5f7465 	cfldrdvs	mvd7, [pc, #-404]	; 1ed0 <mctl_enable_dll0+0x8>
    2060:	735f6d65 	cmpvc	pc, #6464	; 0x1940
    2064:	75746174 	ldrbvc	r6, [r4, #-372]!	; 0xfffffe8c
    2068:	61730073 	cmnvs	r3, r3, ror r0
    206c:	5f646576 	svcpl	0x00646576
    2070:	67616c66 	strbvs	r6, [r1, -r6, ror #24]!
    2074:	75706300 	ldrbvc	r6, [r0, #-768]!	; 0xfffffd00
    2078:	6572665f 	ldrbvs	r6, [r2, #-1631]!	; 0xfffff9a1
    207c:	6e690071 	mcrvs	0, 3, r0, cr9, cr1, {3}
    2080:	705f7469 	subsvc	r7, pc, r9, ror #8
    2084:	63667265 	cmnvs	r6, #1342177286	; 0x50000006
    2088:	746e756f 	strbtvc	r7, [lr], #-1391	; 0xfffffa91
    208c:	00737265 	rsbseq	r7, r3, r5, ror #4
    2090:	74636166 	strbtvc	r6, [r3], #-358	; 0xfffffe9a
    2094:	6b5f726f 	blvs	17dea58 <__bss_end+0x17db1f0>
    2098:	63616600 	cmnvs	r1, #0, 12
    209c:	5f726f74 	svcpl	0x00726f74
    20a0:	6166006d 	cmnvs	r6, sp, rrx
    20a4:	726f7463 	rsbvc	r7, pc, #1660944384	; 0x63000000
    20a8:	66006e5f 			; <UNDEFINED> instruction: 0x66006e5f
    20ac:	6f746361 	svcvs	0x00746361
    20b0:	00705f72 	rsbseq	r5, r0, r2, ror pc
    20b4:	5f746567 	svcpl	0x00746567
    20b8:	6c637963 	stclvs	9, cr7, [r3], #-396	; 0xfffffe74
    20bc:	756f6365 	strbvc	r6, [pc, #-869]!	; 1d5f <dram_power_save_process+0x87>
    20c0:	7300746e 	movwvc	r7, #1134	; 0x46e
    20c4:	5f657661 	svcpl	0x00657661
    20c8:	5f6d656d 	svcpl	0x006d656d
    20cc:	74617473 	strbtvc	r7, [r1], #-1139	; 0xfffffb8d
    20d0:	73007375 	movwvc	r7, #885	; 0x375
    20d4:	745f7465 	ldrbvc	r7, [pc], #-1125	; 20dc <mctl_setup_dram_clock+0x70>
    20d8:	30726274 	rsbscc	r6, r2, r4, ror r2
    20dc:	73657200 	cmnvc	r5, #0, 4
    20e0:	65726f74 	ldrbvs	r6, [r2, #-3956]!	; 0xfffff08c
    20e4:	756d6d5f 	strbvc	r6, [sp, #-3423]!	; 0xfffff2a1
    20e8:	6174735f 	cmnvs	r4, pc, asr r3
    20ec:	73006574 	movwvc	r6, #1396	; 0x574
    20f0:	5f657661 	svcpl	0x00657661
    20f4:	5f756d6d 	svcpl	0x00756d6d
    20f8:	74617473 	strbtvc	r7, [r1], #-1139	; 0xfffffb8d
    20fc:	2f2e0065 	svccs	0x002e0065
    2100:	6d2f2e2e 	stcvs	14, cr2, [pc, #-184]!	; 2050 <mctl_configure_hostport+0x18>
    2104:	6d5f6d65 	ldclvs	13, cr6, [pc, #-404]	; 1f78 <mctl_enable_dllx+0x5c>
    2108:	705f756d 	subsvc	r7, pc, sp, ror #10
    210c:	00632e63 	rsbeq	r2, r3, r3, ror #28
    2110:	5f746573 	svcpl	0x00746573
    2114:	72706f63 	rsbsvc	r6, r0, #396	; 0x18c
    2118:	65645f6f 	strbvs	r5, [r4, #-3951]!	; 0xfffff091
    211c:	6c756166 	ldfvse	f6, [r5], #-408	; 0xfffffe68
    2120:	69640074 	stmdbvs	r4!, {r2, r4, r5, r6}^
    2124:	6c626173 	stfvse	f6, [r2], #-460	; 0xfffffe34
    2128:	61635f65 	cmnvs	r3, r5, ror #30
    212c:	5f656863 	svcpl	0x00656863
    2130:	61766e69 	cmnvs	r6, r9, ror #28
    2134:	6164696c 	cmnvs	r4, ip, ror #18
    2138:	5f006574 	svcpl	0x00006574
    213c:	7365725f 	cmnvc	r5, #-268435451	; 0xf0000005
    2140:	65726f74 	ldrbvs	r6, [r2, #-3956]!	; 0xfffff08c
    2144:	6f72705f 	svcvs	0x0072705f
    2148:	73736563 	cmnvc	r3, #415236096	; 0x18c00000
    214c:	735f726f 	cmpvc	pc, #-268435450	; 0xf0000006
    2150:	65746174 	ldrbvs	r6, [r4, #-372]!	; 0xfffffe8c
    2154:	78746300 	ldmdavc	r4!, {r8, r9, sp, lr}^
    2158:	2f2e0074 	svccs	0x002e0074
    215c:	6d2f2e2e 	stcvs	14, cr2, [pc, #-184]!	; 20ac <mctl_setup_dram_clock+0x40>
    2160:	635f6d65 	cmpvs	pc, #6464	; 0x1940
    2164:	632e7570 	teqvs	lr, #112, 10	; 0x1c000000
    2168:	6d656d00 	stclvs	13, cr6, [r5, #-0]
    216c:	7365725f 	cmnvc	r5, #-268435451	; 0xf0000005
    2170:	65726f74 	ldrbvs	r6, [r2, #-3956]!	; 0xfffff08c
    2174:	6f72705f 	svcvs	0x0072705f
    2178:	73736563 	cmnvc	r3, #415236096	; 0x18c00000
    217c:	735f726f 	cmpvc	pc, #-268435450	; 0xf0000006
    2180:	65746174 	ldrbvs	r6, [r4, #-372]!	; 0xfffffe8c
    2184:	735f5f00 	cmpvc	pc, #0, 30
    2188:	5f657661 	svcpl	0x00657661
    218c:	636f7270 	cmnvs	pc, #112, 4
    2190:	6f737365 	svcvs	0x00737365
    2194:	74735f72 	ldrbtvc	r5, [r3], #-3954	; 0xfffff08e
    2198:	00657461 	rsbeq	r7, r5, r1, ror #8
    219c:	61666564 	cmnvs	r6, r4, ror #10
    21a0:	5f746c75 	svcpl	0x00746c75
    21a4:	72706f63 	rsbsvc	r6, r0, #396	; 0x18c
    21a8:	61765f6f 	cmnvs	r6, pc, ror #30
    21ac:	0065756c 	rsbeq	r7, r5, ip, ror #10

Disassembly of section .comment:

00000000 <.comment>:
   0:	3a434347 	bcc	10d0d24 <__bss_end+0x10cd4bc>
   4:	6f532820 	svcvs	0x00532820
   8:	65637275 	strbvs	r7, [r3, #-629]!	; 0xfffffd8b
   c:	47207972 			; <UNDEFINED> instruction: 0x47207972
  10:	4c202b2b 	stcmi	11, cr2, [r0], #-172	; 0xffffff54
  14:	20657469 	rsbcs	r7, r5, r9, ror #8
  18:	30313032 	eorscc	r3, r1, r2, lsr r0
  1c:	2d39302e 	ldccs	0, cr3, [r9, #-184]!	; 0xffffff48
  20:	20293035 	eorcs	r3, r9, r5, lsr r0
  24:	2e352e34 	mrccs	14, 1, r2, cr5, cr4, {1}
  28:	Address 0x00000028 is out of bounds.


Disassembly of section .ARM.attributes:

00000000 <.ARM.attributes>:
   0:	00002c41 	andeq	r2, r0, r1, asr #24
   4:	61656100 	cmnvs	r5, r0, lsl #2
   8:	01006962 	tsteq	r0, r2, ror #18
   c:	00000022 	andeq	r0, r0, r2, lsr #32
  10:	412d3705 	teqmi	sp, r5, lsl #14
  14:	070a0600 	streq	r0, [sl, -r0, lsl #12]
  18:	09010841 	stmdbeq	r1, {r0, r6, fp}
  1c:	14041202 	strne	r1, [r4], #-514	; 0xfffffdfe
  20:	17011501 	strne	r1, [r1, -r1, lsl #10]
  24:	1a011803 	bne	46038 <__bss_end+0x427d0>
  28:	2c041e02 	stccs	14, cr1, [r4], {2}
  2c:	Address 0x0000002c is out of bounds.


Disassembly of section .debug_frame:

00000000 <.debug_frame>:
   0:	0000000c 	andeq	r0, r0, ip
   4:	ffffffff 			; <UNDEFINED> instruction: 0xffffffff
   8:	7c020001 	stcvc	0, cr0, [r2], {1}
   c:	000d0c0e 	andeq	r0, sp, lr, lsl #24
  10:	00000018 	andeq	r0, r0, r8, lsl r0
	...
  1c:	000001bc 			; <UNDEFINED> instruction: 0x000001bc
  20:	8e100e42 	cdphi	14, 1, cr0, cr0, cr2, {2}
  24:	84028501 	strhi	r8, [r2], #-1281	; 0xfffffaff
  28:	00048303 	andeq	r8, r4, r3, lsl #6
  2c:	0000000c 	andeq	r0, r0, ip
  30:	ffffffff 			; <UNDEFINED> instruction: 0xffffffff
  34:	7c020001 	stcvc	0, cr0, [r2], {1}
  38:	000d0c0e 	andeq	r0, sp, lr, lsl #24
  3c:	0000000c 	andeq	r0, r0, ip
  40:	0000002c 	andeq	r0, r0, ip, lsr #32
  44:	000001bc 			; <UNDEFINED> instruction: 0x000001bc
  48:	0000001c 	andeq	r0, r0, ip, lsl r0
  4c:	0000000c 	andeq	r0, r0, ip
  50:	ffffffff 			; <UNDEFINED> instruction: 0xffffffff
  54:	7c020001 	stcvc	0, cr0, [r2], {1}
  58:	000d0c0e 	andeq	r0, sp, lr, lsl #24
  5c:	0000000c 	andeq	r0, r0, ip
  60:	0000004c 	andeq	r0, r0, ip, asr #32
  64:	000006e0 	andeq	r0, r0, r0, ror #13
  68:	00000094 	muleq	r0, r4, r0
  6c:	0000000c 	andeq	r0, r0, ip
  70:	0000004c 	andeq	r0, r0, ip, asr #32
  74:	00000774 	andeq	r0, r0, r4, ror r7
  78:	0000005c 	andeq	r0, r0, ip, asr r0
  7c:	00000014 	andeq	r0, r0, r4, lsl r0
  80:	0000004c 	andeq	r0, r0, ip, asr #32
  84:	000007d0 	ldrdeq	r0, [r0], -r0	; <UNPREDICTABLE>
  88:	00000048 	andeq	r0, r0, r8, asr #32
  8c:	42080e4a 	andmi	r0, r8, #1184	; 0x4a0
  90:	0284018e 	addeq	r0, r4, #-2147483613	; 0x80000023
  94:	0000000c 	andeq	r0, r0, ip
  98:	0000004c 	andeq	r0, r0, ip, asr #32
  9c:	00000818 	andeq	r0, r0, r8, lsl r8
  a0:	00000030 	andeq	r0, r0, r0, lsr r0
  a4:	0000000c 	andeq	r0, r0, ip
  a8:	ffffffff 			; <UNDEFINED> instruction: 0xffffffff
  ac:	7c020001 	stcvc	0, cr0, [r2], {1}
  b0:	000d0c0e 	andeq	r0, sp, lr, lsl #24
  b4:	0000000c 	andeq	r0, r0, ip
  b8:	000000a4 	andeq	r0, r0, r4, lsr #1
  bc:	00000848 	andeq	r0, r0, r8, asr #16
  c0:	00000018 	andeq	r0, r0, r8, lsl r0
  c4:	0000000c 	andeq	r0, r0, ip
  c8:	000000a4 	andeq	r0, r0, r4, lsr #1
  cc:	00000860 	andeq	r0, r0, r0, ror #16
  d0:	00000028 	andeq	r0, r0, r8, lsr #32
  d4:	0000000c 	andeq	r0, r0, ip
  d8:	ffffffff 			; <UNDEFINED> instruction: 0xffffffff
  dc:	7c020001 	stcvc	0, cr0, [r2], {1}
  e0:	000d0c0e 	andeq	r0, sp, lr, lsl #24
  e4:	0000000c 	andeq	r0, r0, ip
  e8:	000000d4 	ldrdeq	r0, [r0], -r4
  ec:	00000888 	andeq	r0, r0, r8, lsl #17
  f0:	0000001c 	andeq	r0, r0, ip, lsl r0
  f4:	0000000c 	andeq	r0, r0, ip
  f8:	000000d4 	ldrdeq	r0, [r0], -r4
  fc:	000008a4 	andeq	r0, r0, r4, lsr #17
 100:	0000005c 	andeq	r0, r0, ip, asr r0
 104:	0000000c 	andeq	r0, r0, ip
 108:	000000d4 	ldrdeq	r0, [r0], -r4
 10c:	00000900 	andeq	r0, r0, r0, lsl #18
 110:	0000005c 	andeq	r0, r0, ip, asr r0
 114:	0000000c 	andeq	r0, r0, ip
 118:	000000d4 	ldrdeq	r0, [r0], -r4
 11c:	0000095c 	andeq	r0, r0, ip, asr r9
 120:	00000068 	andeq	r0, r0, r8, rrx
 124:	0000000c 	andeq	r0, r0, ip
 128:	000000d4 	ldrdeq	r0, [r0], -r4
 12c:	000009c4 	andeq	r0, r0, r4, asr #19
 130:	00000060 	andeq	r0, r0, r0, rrx
 134:	0000000c 	andeq	r0, r0, ip
 138:	000000d4 	ldrdeq	r0, [r0], -r4
 13c:	00000a24 	andeq	r0, r0, r4, lsr #20
 140:	0000005c 	andeq	r0, r0, ip, asr r0
 144:	0000000c 	andeq	r0, r0, ip
 148:	000000d4 	ldrdeq	r0, [r0], -r4
 14c:	00000a80 	andeq	r0, r0, r0, lsl #21
 150:	0000004c 	andeq	r0, r0, ip, asr #32
 154:	0000000c 	andeq	r0, r0, ip
 158:	000000d4 	ldrdeq	r0, [r0], -r4
 15c:	00000acc 	andeq	r0, r0, ip, asr #21
 160:	00000030 	andeq	r0, r0, r0, lsr r0
 164:	0000000c 	andeq	r0, r0, ip
 168:	ffffffff 			; <UNDEFINED> instruction: 0xffffffff
 16c:	7c020001 	stcvc	0, cr0, [r2], {1}
 170:	000d0c0e 	andeq	r0, sp, lr, lsl #24
 174:	0000000c 	andeq	r0, r0, ip
 178:	00000164 	andeq	r0, r0, r4, ror #2
 17c:	00000afc 	strdeq	r0, [r0], -ip
 180:	00000054 	andeq	r0, r0, r4, asr r0
 184:	0000000c 	andeq	r0, r0, ip
 188:	00000164 	andeq	r0, r0, r4, ror #2
 18c:	00000b50 	andeq	r0, r0, r0, asr fp
 190:	00000054 	andeq	r0, r0, r4, asr r0
 194:	0000000c 	andeq	r0, r0, ip
 198:	00000164 	andeq	r0, r0, r4, ror #2
 19c:	00000ba4 	andeq	r0, r0, r4, lsr #23
 1a0:	000000a4 	andeq	r0, r0, r4, lsr #1
 1a4:	0000000c 	andeq	r0, r0, ip
 1a8:	00000164 	andeq	r0, r0, r4, ror #2
 1ac:	00000c48 	andeq	r0, r0, r8, asr #24
 1b0:	00000050 	andeq	r0, r0, r0, asr r0
 1b4:	00000014 	andeq	r0, r0, r4, lsl r0
 1b8:	00000164 	andeq	r0, r0, r4, ror #2
 1bc:	00000c98 	muleq	r0, r8, ip
 1c0:	00000050 	andeq	r0, r0, r0, asr r0
 1c4:	44080e42 	strmi	r0, [r8], #-3650	; 0xfffff1be
 1c8:	0284018e 	addeq	r0, r4, #-2147483613	; 0x80000023
 1cc:	0000000c 	andeq	r0, r0, ip
 1d0:	00000164 	andeq	r0, r0, r4, ror #2
 1d4:	00000ce8 	andeq	r0, r0, r8, ror #25
 1d8:	00000050 	andeq	r0, r0, r0, asr r0
 1dc:	00000014 	andeq	r0, r0, r4, lsl r0
 1e0:	00000164 	andeq	r0, r0, r4, ror #2
 1e4:	00000d38 	andeq	r0, r0, r8, lsr sp
 1e8:	00000248 	andeq	r0, r0, r8, asr #4
 1ec:	42080e44 	andmi	r0, r8, #68, 28	; 0x440
 1f0:	0284018e 	addeq	r0, r4, #-2147483613	; 0x80000023
 1f4:	00000014 	andeq	r0, r0, r4, lsl r0
 1f8:	00000164 	andeq	r0, r0, r4, ror #2
 1fc:	00000f80 	andeq	r0, r0, r0, lsl #31
 200:	00000264 	andeq	r0, r0, r4, ror #4
 204:	44080e42 	strmi	r0, [r8], #-3650	; 0xfffff1be
 208:	0284018e 	addeq	r0, r4, #-2147483613	; 0x80000023
 20c:	0000000c 	andeq	r0, r0, ip
 210:	ffffffff 			; <UNDEFINED> instruction: 0xffffffff
 214:	7c020001 	stcvc	0, cr0, [r2], {1}
 218:	000d0c0e 	andeq	r0, sp, lr, lsl #24
 21c:	0000000c 	andeq	r0, r0, ip
 220:	0000020c 	andeq	r0, r0, ip, lsl #4
 224:	0000120c 	andeq	r1, r0, ip, lsl #4
 228:	00000050 	andeq	r0, r0, r0, asr r0
 22c:	0000000c 	andeq	r0, r0, ip
 230:	0000020c 	andeq	r0, r0, ip, lsl #4
 234:	0000125c 	andeq	r1, r0, ip, asr r2
 238:	00000044 	andeq	r0, r0, r4, asr #32
 23c:	00000020 	andeq	r0, r0, r0, lsr #32
 240:	0000020c 	andeq	r0, r0, ip, lsl #4
 244:	000012a0 	andeq	r1, r0, r0, lsr #5
 248:	00000140 	andeq	r0, r0, r0, asr #2
 24c:	42200e42 	eormi	r0, r0, #1056	; 0x420
 250:	0287018e 	addeq	r0, r7, #-2147483613	; 0x80000023
 254:	04850386 	streq	r0, [r5], #902	; 0x386
 258:	06820584 	streq	r0, [r2], r4, lsl #11
 25c:	08800781 	stmeq	r0, {r0, r7, r8, r9, sl}
 260:	0000001c 	andeq	r0, r0, ip, lsl r0
 264:	0000020c 	andeq	r0, r0, ip, lsl #4
 268:	000013e0 	andeq	r1, r0, r0, ror #7
 26c:	00000080 	andeq	r0, r0, r0, lsl #1
 270:	42180e42 	andsmi	r0, r8, #1056	; 0x420
 274:	0285018e 	addeq	r0, r5, #-2147483613	; 0x80000023
 278:	04820384 	streq	r0, [r2], #900	; 0x384
 27c:	06800581 	streq	r0, [r0], r1, lsl #11
 280:	00000018 	andeq	r0, r0, r8, lsl r0
 284:	0000020c 	andeq	r0, r0, ip, lsl #4
 288:	00001460 	andeq	r1, r0, r0, ror #8
 28c:	00000208 	andeq	r0, r0, r8, lsl #4
 290:	42100e42 	andsmi	r0, r0, #1056	; 0x420
 294:	0284018e 	addeq	r0, r4, #-2147483613	; 0x80000023
 298:	04800381 	streq	r0, [r0], #897	; 0x381
 29c:	00000018 	andeq	r0, r0, r8, lsl r0
 2a0:	0000020c 	andeq	r0, r0, ip, lsl #4
 2a4:	00001668 	andeq	r1, r0, r8, ror #12
 2a8:	000001dc 	ldrdeq	r0, [r0], -ip
 2ac:	42100e44 	andsmi	r0, r0, #68, 28	; 0x440
 2b0:	0284018e 	addeq	r0, r4, #-2147483613	; 0x80000023
 2b4:	04800381 	streq	r0, [r0], #897	; 0x381
 2b8:	00000018 	andeq	r0, r0, r8, lsl r0
 2bc:	0000020c 	andeq	r0, r0, ip, lsl #4
 2c0:	00001844 	andeq	r1, r0, r4, asr #16
 2c4:	0000009c 	muleq	r0, ip, r0
 2c8:	42100e42 	andsmi	r0, r0, #1056	; 0x420
 2cc:	0284018e 	addeq	r0, r4, #-2147483613	; 0x80000023
 2d0:	04800381 	streq	r0, [r0], #897	; 0x381
 2d4:	00000018 	andeq	r0, r0, r8, lsl r0
 2d8:	0000020c 	andeq	r0, r0, ip, lsl #4
 2dc:	000018e0 	andeq	r1, r0, r0, ror #17
 2e0:	0000009c 	muleq	r0, ip, r0
 2e4:	42100e42 	andsmi	r0, r0, #1056	; 0x420
 2e8:	0284018e 	addeq	r0, r4, #-2147483613	; 0x80000023
 2ec:	04800381 	streq	r0, [r0], #897	; 0x381
 2f0:	0000000c 	andeq	r0, r0, ip
 2f4:	ffffffff 			; <UNDEFINED> instruction: 0xffffffff
 2f8:	7c020001 	stcvc	0, cr0, [r2], {1}
 2fc:	000d0c0e 	andeq	r0, sp, lr, lsl #24
 300:	0000000c 	andeq	r0, r0, ip
 304:	000002f0 	strdeq	r0, [r0], -r0	; <UNPREDICTABLE>
 308:	0000197c 	andeq	r1, r0, ip, ror r9
 30c:	0000002c 	andeq	r0, r0, ip, lsr #32
 310:	0000000c 	andeq	r0, r0, ip
 314:	000002f0 	strdeq	r0, [r0], -r0	; <UNPREDICTABLE>
 318:	000019a8 	andeq	r1, r0, r8, lsr #19
 31c:	0000002c 	andeq	r0, r0, ip, lsr #32
 320:	0000000c 	andeq	r0, r0, ip
 324:	000002f0 	strdeq	r0, [r0], -r0	; <UNPREDICTABLE>
 328:	000019d4 	ldrdeq	r1, [r0], -r4
 32c:	0000002c 	andeq	r0, r0, ip, lsr #32
 330:	0000000c 	andeq	r0, r0, ip
 334:	000002f0 	strdeq	r0, [r0], -r0	; <UNPREDICTABLE>
 338:	00001a00 	andeq	r1, r0, r0, lsl #20
 33c:	00000004 	andeq	r0, r0, r4
 340:	0000000c 	andeq	r0, r0, ip
 344:	000002f0 	strdeq	r0, [r0], -r0	; <UNPREDICTABLE>
 348:	00001a04 	andeq	r1, r0, r4, lsl #20
 34c:	00000028 	andeq	r0, r0, r8, lsr #32
 350:	00000014 	andeq	r0, r0, r4, lsl r0
 354:	000002f0 	strdeq	r0, [r0], -r0	; <UNPREDICTABLE>
 358:	00001a2c 	andeq	r1, r0, ip, lsr #20
 35c:	00000064 	andeq	r0, r0, r4, rrx
 360:	8e080e42 	cdphi	14, 0, cr0, cr8, cr2, {2}
 364:	00028401 	andeq	r8, r2, r1, lsl #8
 368:	00000014 	andeq	r0, r0, r4, lsl r0
 36c:	000002f0 	strdeq	r0, [r0], -r0	; <UNPREDICTABLE>
 370:	00001a90 	muleq	r0, r0, sl
 374:	00000060 	andeq	r0, r0, r0, rrx
 378:	42080e42 	andmi	r0, r8, #1056	; 0x420
 37c:	0284018e 	addeq	r0, r4, #-2147483613	; 0x80000023
 380:	0000000c 	andeq	r0, r0, ip
 384:	000002f0 	strdeq	r0, [r0], -r0	; <UNPREDICTABLE>
 388:	00001af0 	strdeq	r1, [r0], -r0
 38c:	00000020 	andeq	r0, r0, r0, lsr #32
 390:	00000014 	andeq	r0, r0, r4, lsl r0
 394:	000002f0 	strdeq	r0, [r0], -r0	; <UNPREDICTABLE>
 398:	00001b10 	andeq	r1, r0, r0, lsl fp
 39c:	00000048 	andeq	r0, r0, r8, asr #32
 3a0:	42080e44 	andmi	r0, r8, #68, 28	; 0x440
 3a4:	0284018e 	addeq	r0, r4, #-2147483613	; 0x80000023
 3a8:	00000014 	andeq	r0, r0, r4, lsl r0
 3ac:	000002f0 	strdeq	r0, [r0], -r0	; <UNPREDICTABLE>
 3b0:	00001b58 	andeq	r1, r0, r8, asr fp
 3b4:	00000030 	andeq	r0, r0, r0, lsr r0
 3b8:	44080e42 	strmi	r0, [r8], #-3650	; 0xfffff1be
 3bc:	0284018e 	addeq	r0, r4, #-2147483613	; 0x80000023
 3c0:	00000028 	andeq	r0, r0, r8, lsr #32
 3c4:	000002f0 	strdeq	r0, [r0], -r0	; <UNPREDICTABLE>
 3c8:	00001b88 	andeq	r1, r0, r8, lsl #23
 3cc:	00000150 	andeq	r0, r0, r0, asr r1
 3d0:	42240e44 	eormi	r0, r4, #68, 28	; 0x440
 3d4:	8e48400e 	cdphi	0, 4, cr4, cr8, cr14, {0}
 3d8:	8a028b01 	bhi	a2fe4 <__bss_end+0x9f77c>
 3dc:	88048903 	stmdahi	r4, {r0, r1, r8, fp, pc}
 3e0:	86068705 	strhi	r8, [r6], -r5, lsl #14
 3e4:	84088507 	strhi	r8, [r8], #-1287	; 0xfffffaf9
 3e8:	00000009 	andeq	r0, r0, r9
 3ec:	0000001c 	andeq	r0, r0, ip, lsl r0
 3f0:	000002f0 	strdeq	r0, [r0], -r0	; <UNPREDICTABLE>
 3f4:	00001cd8 	ldrdeq	r1, [r0], -r8
 3f8:	000000b8 	strheq	r0, [r0], -r8
 3fc:	42180e42 	andsmi	r0, r8, #1056	; 0x420
 400:	0286018e 	addeq	r0, r6, #-2147483613	; 0x80000023
 404:	04840385 	streq	r0, [r4], #901	; 0x385
 408:	06800581 	streq	r0, [r0], r1, lsl #11
 40c:	0000000c 	andeq	r0, r0, ip
 410:	000002f0 	strdeq	r0, [r0], -r0	; <UNPREDICTABLE>
 414:	00001d90 	muleq	r0, r0, sp
 418:	00000004 	andeq	r0, r0, r4
 41c:	0000000c 	andeq	r0, r0, ip
 420:	000002f0 	strdeq	r0, [r0], -r0	; <UNPREDICTABLE>
 424:	00001d94 	muleq	r0, r4, sp
 428:	00000004 	andeq	r0, r0, r4
 42c:	0000000c 	andeq	r0, r0, ip
 430:	000002f0 	strdeq	r0, [r0], -r0	; <UNPREDICTABLE>
 434:	00001d98 	muleq	r0, r8, sp
 438:	00000004 	andeq	r0, r0, r4
 43c:	0000000c 	andeq	r0, r0, ip
 440:	000002f0 	strdeq	r0, [r0], -r0	; <UNPREDICTABLE>
 444:	00001d9c 	muleq	r0, ip, sp
 448:	00000004 	andeq	r0, r0, r4
 44c:	0000000c 	andeq	r0, r0, ip
 450:	000002f0 	strdeq	r0, [r0], -r0	; <UNPREDICTABLE>
 454:	00001da0 	andeq	r1, r0, r0, lsr #27
 458:	00000004 	andeq	r0, r0, r4
 45c:	0000000c 	andeq	r0, r0, ip
 460:	000002f0 	strdeq	r0, [r0], -r0	; <UNPREDICTABLE>
 464:	00001da4 	andeq	r1, r0, r4, lsr #27
 468:	00000004 	andeq	r0, r0, r4
 46c:	0000000c 	andeq	r0, r0, ip
 470:	000002f0 	strdeq	r0, [r0], -r0	; <UNPREDICTABLE>
 474:	00001da8 	andeq	r1, r0, r8, lsr #27
 478:	00000004 	andeq	r0, r0, r4
 47c:	0000000c 	andeq	r0, r0, ip
 480:	000002f0 	strdeq	r0, [r0], -r0	; <UNPREDICTABLE>
 484:	00001dac 	andeq	r1, r0, ip, lsr #27
 488:	00000004 	andeq	r0, r0, r4
 48c:	0000000c 	andeq	r0, r0, ip
 490:	ffffffff 			; <UNDEFINED> instruction: 0xffffffff
 494:	7c020001 	stcvc	0, cr0, [r2], {1}
 498:	000d0c0e 	andeq	r0, sp, lr, lsl #24
 49c:	0000001c 	andeq	r0, r0, ip, lsl r0
 4a0:	0000048c 	andeq	r0, r0, ip, lsl #9
 4a4:	00001db0 			; <UNDEFINED> instruction: 0x00001db0
 4a8:	00000098 	muleq	r0, r8, r0
 4ac:	46140e44 	ldrmi	r0, [r4], -r4, asr #28
 4b0:	0287018e 	addeq	r0, r7, #-2147483613	; 0x80000023
 4b4:	04850386 	streq	r0, [r5], #902	; 0x386
 4b8:	00000584 	andeq	r0, r0, r4, lsl #11
 4bc:	00000014 	andeq	r0, r0, r4, lsl r0
 4c0:	0000048c 	andeq	r0, r0, ip, lsl #9
 4c4:	00001e48 	andeq	r1, r0, r8, asr #28
 4c8:	00000030 	andeq	r0, r0, r0, lsr r0
 4cc:	44080e42 	strmi	r0, [r8], #-3650	; 0xfffff1be
 4d0:	0284018e 	addeq	r0, r4, #-2147483613	; 0x80000023
 4d4:	0000000c 	andeq	r0, r0, ip
 4d8:	0000048c 	andeq	r0, r0, ip, lsl #9
 4dc:	00001e78 	andeq	r1, r0, r8, ror lr
 4e0:	00000020 	andeq	r0, r0, r0, lsr #32
 4e4:	0000000c 	andeq	r0, r0, ip
 4e8:	0000048c 	andeq	r0, r0, ip, lsl #9
 4ec:	00001e98 	muleq	r0, r8, lr
 4f0:	00000018 	andeq	r0, r0, r8, lsl r0
 4f4:	0000000c 	andeq	r0, r0, ip
 4f8:	0000048c 	andeq	r0, r0, ip, lsl #9
 4fc:	00001eb0 			; <UNDEFINED> instruction: 0x00001eb0
 500:	00000018 	andeq	r0, r0, r8, lsl r0
 504:	00000014 	andeq	r0, r0, r4, lsl r0
 508:	0000048c 	andeq	r0, r0, ip, lsl #9
 50c:	00001ec8 	andeq	r1, r0, r8, asr #29
 510:	00000054 	andeq	r0, r0, r4, asr r0
 514:	44080e42 	strmi	r0, [r8], #-3650	; 0xfffff1be
 518:	0284018e 	addeq	r0, r4, #-2147483613	; 0x80000023
 51c:	00000014 	andeq	r0, r0, r4, lsl r0
 520:	0000048c 	andeq	r0, r0, ip, lsl #9
 524:	00001f1c 	andeq	r1, r0, ip, lsl pc
 528:	000000c0 	andeq	r0, r0, r0, asr #1
 52c:	42080e44 	andmi	r0, r8, #68, 28	; 0x440
 530:	0284018e 	addeq	r0, r4, #-2147483613	; 0x80000023
 534:	0000000c 	andeq	r0, r0, ip
 538:	0000048c 	andeq	r0, r0, ip, lsl #9
 53c:	00001fdc 	ldrdeq	r1, [r0], -ip
 540:	0000005c 	andeq	r0, r0, ip, asr r0
 544:	0000000c 	andeq	r0, r0, ip
 548:	0000048c 	andeq	r0, r0, ip, lsl #9
 54c:	00002038 	andeq	r2, r0, r8, lsr r0
 550:	00000034 	andeq	r0, r0, r4, lsr r0
 554:	00000018 	andeq	r0, r0, r8, lsl r0
 558:	0000048c 	andeq	r0, r0, ip, lsl #9
 55c:	0000206c 	andeq	r2, r0, ip, rrx
 560:	0000008c 	andeq	r0, r0, ip, lsl #1
 564:	46100e42 	ldrmi	r0, [r0], -r2, asr #28
 568:	0286018e 	addeq	r0, r6, #-2147483613	; 0x80000023
 56c:	04840385 	streq	r0, [r4], #901	; 0x385
 570:	0000000c 	andeq	r0, r0, ip
 574:	0000048c 	andeq	r0, r0, ip, lsl #9
 578:	000020f8 	strdeq	r2, [r0], -r8
 57c:	00000008 	andeq	r0, r0, r8
 580:	0000000c 	andeq	r0, r0, ip
 584:	0000048c 	andeq	r0, r0, ip, lsl #9
 588:	00002100 	andeq	r2, r0, r0, lsl #2
 58c:	00000034 	andeq	r0, r0, r4, lsr r0
 590:	0000000c 	andeq	r0, r0, ip
 594:	0000048c 	andeq	r0, r0, ip, lsl #9
 598:	00002134 	andeq	r2, r0, r4, lsr r1
 59c:	00000020 	andeq	r0, r0, r0, lsr #32
 5a0:	0000000c 	andeq	r0, r0, ip
 5a4:	0000048c 	andeq	r0, r0, ip, lsl #9
 5a8:	00002154 	andeq	r2, r0, r4, asr r1
 5ac:	00000030 	andeq	r0, r0, r0, lsr r0
 5b0:	0000000c 	andeq	r0, r0, ip
 5b4:	0000048c 	andeq	r0, r0, ip, lsl #9
 5b8:	00002184 	andeq	r2, r0, r4, lsl #3
 5bc:	00000074 	andeq	r0, r0, r4, ror r0
 5c0:	00000018 	andeq	r0, r0, r8, lsl r0
 5c4:	0000048c 	andeq	r0, r0, ip, lsl #9
 5c8:	000021f8 	strdeq	r2, [r0], -r8
 5cc:	000001cc 	andeq	r0, r0, ip, asr #3
 5d0:	42100e42 	andsmi	r0, r0, #1056	; 0x420
 5d4:	0286018e 	addeq	r0, r6, #-2147483613	; 0x80000023
 5d8:	04840385 	streq	r0, [r4], #901	; 0x385
 5dc:	0000000c 	andeq	r0, r0, ip
 5e0:	0000048c 	andeq	r0, r0, ip, lsl #9
 5e4:	000023c4 	andeq	r2, r0, r4, asr #7
 5e8:	00000008 	andeq	r0, r0, r8
 5ec:	0000000c 	andeq	r0, r0, ip
 5f0:	0000048c 	andeq	r0, r0, ip, lsl #9
 5f4:	000023cc 	andeq	r2, r0, ip, asr #7
 5f8:	00000010 	andeq	r0, r0, r0, lsl r0
 5fc:	0000001c 	andeq	r0, r0, ip, lsl r0
 600:	0000048c 	andeq	r0, r0, ip, lsl #9
 604:	000023dc 	ldrdeq	r2, [r0], -ip
 608:	00000074 	andeq	r0, r0, r4, ror r0
 60c:	420c0e42 	andmi	r0, ip, #1056	; 0x420
 610:	8e42600e 	cdphi	0, 4, cr6, cr2, cr14, {0}
 614:	84028501 	strhi	r8, [r2], #-1281	; 0xfffffaff
 618:	00000003 	andeq	r0, r0, r3
 61c:	0000000c 	andeq	r0, r0, ip
 620:	0000048c 	andeq	r0, r0, ip, lsl #9
 624:	00002450 	andeq	r2, r0, r0, asr r4
 628:	00000008 	andeq	r0, r0, r8
 62c:	0000000c 	andeq	r0, r0, ip
 630:	0000048c 	andeq	r0, r0, ip, lsl #9
 634:	00002458 	andeq	r2, r0, r8, asr r4
 638:	00000004 	andeq	r0, r0, r4
 63c:	0000000c 	andeq	r0, r0, ip
 640:	0000048c 	andeq	r0, r0, ip, lsl #9
 644:	0000245c 	andeq	r2, r0, ip, asr r4
 648:	00000004 	andeq	r0, r0, r4
 64c:	0000000c 	andeq	r0, r0, ip
 650:	0000048c 	andeq	r0, r0, ip, lsl #9
 654:	00002460 	andeq	r2, r0, r0, ror #8
 658:	00000004 	andeq	r0, r0, r4
 65c:	0000000c 	andeq	r0, r0, ip
 660:	0000048c 	andeq	r0, r0, ip, lsl #9
 664:	00002464 	andeq	r2, r0, r4, ror #8
 668:	00000004 	andeq	r0, r0, r4
 66c:	0000000c 	andeq	r0, r0, ip
 670:	0000048c 	andeq	r0, r0, ip, lsl #9
 674:	00002468 	andeq	r2, r0, r8, ror #8
 678:	00000004 	andeq	r0, r0, r4
 67c:	0000000c 	andeq	r0, r0, ip
 680:	ffffffff 			; <UNDEFINED> instruction: 0xffffffff
 684:	7c020001 	stcvc	0, cr0, [r2], {1}
 688:	000d0c0e 	andeq	r0, sp, lr, lsl #24
 68c:	0000000c 	andeq	r0, r0, ip
 690:	0000067c 	andeq	r0, r0, ip, ror r6
 694:	0000246c 	andeq	r2, r0, ip, ror #8
 698:	00000050 	andeq	r0, r0, r0, asr r0
 69c:	00000010 	andeq	r0, r0, r0, lsl r0
 6a0:	0000067c 	andeq	r0, r0, ip, ror r6
 6a4:	000024bc 			; <UNDEFINED> instruction: 0x000024bc
 6a8:	00000020 	andeq	r0, r0, r0, lsr #32
 6ac:	00080e42 	andeq	r0, r8, r2, asr #28
 6b0:	00000010 	andeq	r0, r0, r0, lsl r0
 6b4:	0000067c 	andeq	r0, r0, ip, ror r6
 6b8:	000024dc 	ldrdeq	r2, [r0], -ip
 6bc:	00000020 	andeq	r0, r0, r0, lsr #32
 6c0:	00080e42 	andeq	r0, r8, r2, asr #28
 6c4:	0000000c 	andeq	r0, r0, ip
 6c8:	0000067c 	andeq	r0, r0, ip, ror r6
 6cc:	000024fc 	strdeq	r2, [r0], -ip
 6d0:	00000018 	andeq	r0, r0, r8, lsl r0
 6d4:	00000010 	andeq	r0, r0, r0, lsl r0
 6d8:	0000067c 	andeq	r0, r0, ip, ror r6
 6dc:	00002514 	andeq	r2, r0, r4, lsl r5
 6e0:	00000010 	andeq	r0, r0, r0, lsl r0
 6e4:	00080e42 	andeq	r0, r8, r2, asr #28
 6e8:	0000000c 	andeq	r0, r0, ip
 6ec:	0000067c 	andeq	r0, r0, ip, ror r6
 6f0:	00002524 	andeq	r2, r0, r4, lsr #10
 6f4:	00000010 	andeq	r0, r0, r0, lsl r0
 6f8:	00000010 	andeq	r0, r0, r0, lsl r0
 6fc:	0000067c 	andeq	r0, r0, ip, ror r6
 700:	00002534 	andeq	r2, r0, r4, lsr r5
 704:	00000010 	andeq	r0, r0, r0, lsl r0
 708:	00080e42 	andeq	r0, r8, r2, asr #28
 70c:	00000010 	andeq	r0, r0, r0, lsl r0
 710:	0000067c 	andeq	r0, r0, ip, ror r6
 714:	00002544 	andeq	r2, r0, r4, asr #10
 718:	00000024 	andeq	r0, r0, r4, lsr #32
 71c:	00080e42 	andeq	r0, r8, r2, asr #28
 720:	00000010 	andeq	r0, r0, r0, lsl r0
 724:	0000067c 	andeq	r0, r0, ip, ror r6
 728:	00002568 	andeq	r2, r0, r8, ror #10
 72c:	00000024 	andeq	r0, r0, r4, lsr #32
 730:	00080e42 	andeq	r0, r8, r2, asr #28
 734:	0000000c 	andeq	r0, r0, ip
 738:	0000067c 	andeq	r0, r0, ip, ror r6
 73c:	0000258c 	andeq	r2, r0, ip, lsl #11
 740:	00000008 	andeq	r0, r0, r8
 744:	0000000c 	andeq	r0, r0, ip
 748:	0000067c 	andeq	r0, r0, ip, ror r6
 74c:	00002594 	muleq	r0, r4, r5
 750:	0000001c 	andeq	r0, r0, ip, lsl r0
 754:	0000000c 	andeq	r0, r0, ip
 758:	0000067c 	andeq	r0, r0, ip, ror r6
 75c:	000025b0 			; <UNDEFINED> instruction: 0x000025b0
 760:	0000002c 	andeq	r0, r0, ip, lsr #32
 764:	0000000c 	andeq	r0, r0, ip
 768:	0000067c 	andeq	r0, r0, ip, ror r6
 76c:	000025dc 	ldrdeq	r2, [r0], -ip
 770:	00000020 	andeq	r0, r0, r0, lsr #32
 774:	0000000c 	andeq	r0, r0, ip
 778:	0000067c 	andeq	r0, r0, ip, ror r6
 77c:	000025fc 	strdeq	r2, [r0], -ip
 780:	00000014 	andeq	r0, r0, r4, lsl r0
 784:	0000001c 	andeq	r0, r0, ip, lsl r0
 788:	0000067c 	andeq	r0, r0, ip, ror r6
 78c:	00002610 	andeq	r2, r0, r0, lsl r6
 790:	000000e8 	andeq	r0, r0, r8, ror #1
 794:	4a180e42 	bmi	6040a4 <__bss_end+0x60083c>
 798:	0286018e 	addeq	r0, r6, #-2147483613	; 0x80000023
 79c:	04840385 	streq	r0, [r4], #901	; 0x385
 7a0:	06800581 	streq	r0, [r0], r1, lsl #11
 7a4:	00000018 	andeq	r0, r0, r8, lsl r0
 7a8:	0000067c 	andeq	r0, r0, ip, ror r6
 7ac:	000026f8 	strdeq	r2, [r0], -r8
 7b0:	00000054 	andeq	r0, r0, r4, asr r0
 7b4:	42100e42 	andsmi	r0, r0, #1056	; 0x420
 7b8:	0286018e 	addeq	r0, r6, #-2147483613	; 0x80000023
 7bc:	04840385 	streq	r0, [r4], #901	; 0x385
 7c0:	0000000c 	andeq	r0, r0, ip
 7c4:	0000067c 	andeq	r0, r0, ip, ror r6
 7c8:	0000274c 	andeq	r2, r0, ip, asr #14
 7cc:	0000000c 	andeq	r0, r0, ip
 7d0:	0000000c 	andeq	r0, r0, ip
 7d4:	0000067c 	andeq	r0, r0, ip, ror r6
 7d8:	00002758 	andeq	r2, r0, r8, asr r7
 7dc:	00000018 	andeq	r0, r0, r8, lsl r0
 7e0:	0000000c 	andeq	r0, r0, ip
 7e4:	0000067c 	andeq	r0, r0, ip, ror r6
 7e8:	00002770 	andeq	r2, r0, r0, ror r7
 7ec:	00000018 	andeq	r0, r0, r8, lsl r0
 7f0:	0000000c 	andeq	r0, r0, ip
 7f4:	0000067c 	andeq	r0, r0, ip, ror r6
 7f8:	00002788 	andeq	r2, r0, r8, lsl #15
 7fc:	00000018 	andeq	r0, r0, r8, lsl r0
 800:	00000018 	andeq	r0, r0, r8, lsl r0
 804:	0000067c 	andeq	r0, r0, ip, ror r6
 808:	000027a0 	andeq	r2, r0, r0, lsr #15
 80c:	00000034 	andeq	r0, r0, r4, lsr r0
 810:	42100e42 	andsmi	r0, r0, #1056	; 0x420
 814:	0286018e 	addeq	r0, r6, #-2147483613	; 0x80000023
 818:	04840385 	streq	r0, [r4], #901	; 0x385
 81c:	0000000c 	andeq	r0, r0, ip
 820:	ffffffff 			; <UNDEFINED> instruction: 0xffffffff
 824:	7c020001 	stcvc	0, cr0, [r2], {1}
 828:	000d0c0e 	andeq	r0, sp, lr, lsl #24
 82c:	0000000c 	andeq	r0, r0, ip
 830:	0000081c 	andeq	r0, r0, ip, lsl r8
 834:	00002940 	andeq	r2, r0, r0, asr #18
 838:	0000003c 	andeq	r0, r0, ip, lsr r0
 83c:	0000000c 	andeq	r0, r0, ip
 840:	0000081c 	andeq	r0, r0, ip, lsl r8
 844:	0000297c 	andeq	r2, r0, ip, ror r9
 848:	00000064 	andeq	r0, r0, r4, rrx
 84c:	0000000c 	andeq	r0, r0, ip
 850:	0000081c 	andeq	r0, r0, ip, lsl r8
 854:	000029e0 	andeq	r2, r0, r0, ror #19
 858:	00000010 	andeq	r0, r0, r0, lsl r0
 85c:	0000000c 	andeq	r0, r0, ip
 860:	ffffffff 			; <UNDEFINED> instruction: 0xffffffff
 864:	7c020001 	stcvc	0, cr0, [r2], {1}
 868:	000d0c0e 	andeq	r0, sp, lr, lsl #24
 86c:	0000000c 	andeq	r0, r0, ip
 870:	0000085c 	andeq	r0, r0, ip, asr r8
 874:	00002a00 	andeq	r2, r0, r0, lsl #20
 878:	000005a4 	andeq	r0, r0, r4, lsr #11
 87c:	0000000c 	andeq	r0, r0, ip
 880:	0000085c 	andeq	r0, r0, ip, asr r8
 884:	00002fa4 	andeq	r2, r0, r4, lsr #31
 888:	00000384 	andeq	r0, r0, r4, lsl #7
 88c:	0000000c 	andeq	r0, r0, ip
 890:	0000085c 	andeq	r0, r0, ip, asr r8
 894:	00003328 	andeq	r3, r0, r8, lsr #6
 898:	00000004 	andeq	r0, r0, r4
 89c:	0000000c 	andeq	r0, r0, ip
 8a0:	0000085c 	andeq	r0, r0, ip, asr r8
 8a4:	0000332c 	andeq	r3, r0, ip, lsr #6
 8a8:	00000018 	andeq	r0, r0, r8, lsl r0
 8ac:	0000000c 	andeq	r0, r0, ip
 8b0:	0000085c 	andeq	r0, r0, ip, asr r8
 8b4:	00003344 	andeq	r3, r0, r4, asr #6
 8b8:	000000d4 	ldrdeq	r0, [r0], -r4
